ARM GAS  C:\Users\essele\AppData\Local\Temp\ccwoyYCx.s 			page 1


   1              		.syntax unified
   2              		.cpu cortex-m0
   3              		.fpu softvfp
   4              		.eabi_attribute 20, 1
   5              		.eabi_attribute 21, 1
   6              		.eabi_attribute 23, 3
   7              		.eabi_attribute 24, 1
   8              		.eabi_attribute 25, 1
   9              		.eabi_attribute 26, 1
  10              		.eabi_attribute 30, 1
  11              		.eabi_attribute 34, 0
  12              		.eabi_attribute 18, 4
  13              		.thumb
  14              		.syntax unified
  15              		.file	"command.c"
  16              		.text
  17              	.Ltext0:
  18              		.cfi_sections	.debug_frame
  19              		.section	.text.helper_version,"ax",%progbits
  20              		.align	2
  21              		.global	helper_version
  22              		.code	16
  23              		.thumb_func
  24              		.type	helper_version, %function
  25              	helper_version:
  26              	.LFB45:
  27              		.file 1 "command.c"
   1:command.c     **** /****
   2:command.c     ****  * YAUGI -- Yet Another USB GPIB Interface
   3:command.c     ****  * 
   4:command.c     ****  * Lee Essen, 2019
   5:command.c     ****  *
   6:command.c     ****  * This work is licensed under a Creative Commons 
   7:command.c     ****  * Attribution-NonCommercial-ShareAlike 4.0 International License.
   8:command.c     ****  *
   9:command.c     ****  */
  10:command.c     **** 
  11:command.c     **** 
  12:command.c     **** #include "command.h"
  13:command.c     **** #include "serial.h"
  14:command.c     **** #include "settings.h"
  15:command.c     **** #include "gpib.h"
  16:command.c     **** #include <stdio.h>
  17:command.c     **** 
  18:command.c     **** #define MAJOR_VERSION 1
  19:command.c     **** #define MINOR_VERSION 2
  20:command.c     **** 
  21:command.c     **** 
  22:command.c     **** #define MAX_TOKS 20
  23:command.c     **** 
  24:command.c     **** char    *toks[MAX_TOKS];
  25:command.c     **** int     tok_count = 0;
  26:command.c     **** 
  27:command.c     **** 
  28:command.c     **** 
  29:command.c     **** 
  30:command.c     **** /**
ARM GAS  C:\Users\essele\AppData\Local\Temp\ccwoyYCx.s 			page 2


  31:command.c     ****  * A set or view value of uint16_t
  32:command.c     ****  */
  33:command.c     **** struct uint_based {
  34:command.c     ****     int         min;
  35:command.c     ****     int         max;
  36:command.c     ****     uint16_t    *set;
  37:command.c     **** };
  38:command.c     **** 
  39:command.c     **** /**
  40:command.c     ****  * A straight command that doesn't take any arguments
  41:command.c     ****  */
  42:command.c     **** struct no_args {
  43:command.c     **** };
  44:command.c     **** 
  45:command.c     **** /**
  46:command.c     ****  * If we have specific itemised options we can display the help and status
  47:command.c     ****  * information
  48:command.c     ****  */
  49:command.c     **** struct item_meaning {
  50:command.c     ****     int     value;
  51:command.c     ****     char    *meaning;
  52:command.c     **** };
  53:command.c     **** 
  54:command.c     **** struct cmd {
  55:command.c     ****     char                        *name;
  56:command.c     ****     int                         (*func)(char *argv[], int argc, const struct cmd *cmd);
  57:command.c     ****     uint16_t                    *setting;
  58:command.c     ****     uint16_t                    min;
  59:command.c     ****     uint16_t                    max;
  60:command.c     **** //
  61:command.c     **** //    union {
  62:command.c     **** //        struct uint_based       uint;
  63:command.c     **** //        struct no_args          noargs;
  64:command.c     **** //    } u;
  65:command.c     ****     const char                  *help;
  66:command.c     ****     const char                  **usage;
  67:command.c     ****     const struct item_meaning   *meanings;
  68:command.c     ****     int                         (*post_func)(char *argv[], int argc);
  69:command.c     **** };
  70:command.c     **** 
  71:command.c     **** 
  72:command.c     **** const struct cmd commands[];
  73:command.c     **** 
  74:command.c     **** /**
  75:command.c     ****  * Split an input string on whitespace, null in between tokens and populate the list
  76:command.c     ****  * (up to a max number of arguments)
  77:command.c     ****  */
  78:command.c     **** int tokenise(uint8_t *buf, int len) {
  79:command.c     ****     int i = 0;
  80:command.c     ****     
  81:command.c     ****     tok_count = 0;
  82:command.c     ****     
  83:command.c     ****     while(i < len) {
  84:command.c     ****         
  85:command.c     ****         // First get past any leading whitespace...
  86:command.c     ****         while(i < len) {
  87:command.c     ****             if (strchr(" \t", *buf) == NULL) {
ARM GAS  C:\Users\essele\AppData\Local\Temp\ccwoyYCx.s 			page 3


  88:command.c     ****                 break;
  89:command.c     ****             }
  90:command.c     ****             i++;
  91:command.c     ****             buf++;
  92:command.c     ****         }
  93:command.c     ****         // Could be the end of the string?
  94:command.c     ****         if (i == len) {
  95:command.c     ****             return tok_count;
  96:command.c     ****         }
  97:command.c     ****         
  98:command.c     ****         // Setup the token
  99:command.c     ****         toks[tok_count] = (char *)buf;
 100:command.c     ****         
 101:command.c     ****         // Now get past any non-whitespace...
 102:command.c     ****         while (i < len) {
 103:command.c     ****             if (strchr(" \t", *buf) != NULL) {
 104:command.c     ****                 break;
 105:command.c     ****             }
 106:command.c     ****             i++;
 107:command.c     ****             buf++;
 108:command.c     ****         }
 109:command.c     ****         // Null terminate the token
 110:command.c     ****         *buf++ = 0;
 111:command.c     ****         i++;
 112:command.c     ****         tok_count++;
 113:command.c     ****         
 114:command.c     ****         if (tok_count == MAX_TOKS) {
 115:command.c     ****             serial_printf("<error: too many tokens>\r\n");
 116:command.c     ****             return 0;
 117:command.c     ****         }
 118:command.c     ****     }
 119:command.c     ****     return tok_count;
 120:command.c     **** }
 121:command.c     **** 
 122:command.c     **** /**
 123:command.c     ****  * is_int() and to_int()
 124:command.c     ****  */
 125:command.c     **** int is_int(char *v) {
 126:command.c     ****     while(*v) {
 127:command.c     ****         if (strchr("0123456789", *v) == NULL) {
 128:command.c     ****             return 0;
 129:command.c     ****         }
 130:command.c     ****         v++;
 131:command.c     ****     }
 132:command.c     ****     return 1;
 133:command.c     **** }
 134:command.c     **** 
 135:command.c     **** int to_int(char *v) {
 136:command.c     ****     int i = 0;
 137:command.c     ****     while(*v) {
 138:command.c     ****         i *= 10;
 139:command.c     ****         i += (*v++ - '0');
 140:command.c     ****     }
 141:command.c     ****     return i;
 142:command.c     **** }
 143:command.c     **** 
 144:command.c     **** /**
ARM GAS  C:\Users\essele\AppData\Local\Temp\ccwoyYCx.s 			page 4


 145:command.c     ****  * Take the command line and call the appropriate command function, we will be
 146:command.c     ****  * called only when the first two characters are ++, so we can skip those here
 147:command.c     ****  */
 148:command.c     **** void cmd_process(uint8_t *buf, int len) {
 149:command.c     ****     buf += 2;
 150:command.c     ****     len -= 2;
 151:command.c     ****     int argc = tokenise(buf, len);
 152:command.c     **** 
 153:command.c     ****     // We will always have the command a minimum, so return if 0
 154:command.c     ****     if (argc == 0) {
 155:command.c     ****         return;
 156:command.c     ****     }
 157:command.c     ****     
 158:command.c     ****     // Find the command entry in the list...
 159:command.c     ****     int i = 0;
 160:command.c     ****     while (commands[i].name != NULL) {
 161:command.c     ****         if (strcmp(toks[0], commands[i].name) == 0) {
 162:command.c     ****             commands[i].func(toks, argc, &commands[i]);
 163:command.c     ****             return;
 164:command.c     ****         }
 165:command.c     ****         i++;
 166:command.c     ****     }
 167:command.c     ****     serial_printf("<error: unknown ++ command>\r\n");
 168:command.c     **** }
 169:command.c     **** 
 170:command.c     **** 
 171:command.c     **** 
 172:command.c     **** void cmd_usage(char *argv[], const struct cmd *cmd) {
 173:command.c     ****     const char **p = cmd->usage;
 174:command.c     ****     serial_printf("<usage: ++%s", argv[0]);
 175:command.c     ****     if (**p) {
 176:command.c     ****         serial_printf(" %s", *p++);
 177:command.c     ****     }
 178:command.c     ****     serial_printf(">\r\n");
 179:command.c     ****     
 180:command.c     ****     // First print any additional usage instructions...
 181:command.c     ****     while(*p) {
 182:command.c     ****         serial_printf("%s\r\n", (char *)*p++);
 183:command.c     ****     }
 184:command.c     ****     
 185:command.c     ****     // Now handle specific value meanings if they are there
 186:command.c     ****     if (cmd->meanings) {
 187:command.c     ****         const struct item_meaning *m = cmd->meanings;
 188:command.c     ****         while (m->meaning != NULL) {
 189:command.c     ****             serial_printf("\t%d - %s\r\n", m->value, m->meaning);
 190:command.c     ****             m++;
 191:command.c     ****         }
 192:command.c     ****     }
 193:command.c     ****     
 194:command.c     ****     // If it's a setting then we can show the current value
 195:command.c     ****     if (cmd->setting) {
 196:command.c     ****         uint16_t value = *cmd->setting;
 197:command.c     ****         serial_printf("\t(current setting: %d)\r\n", value);
 198:command.c     ****     }
 199:command.c     ****    
 200:command.c     ****     // Send it...
 201:command.c     ****     serial_flush();
ARM GAS  C:\Users\essele\AppData\Local\Temp\ccwoyYCx.s 			page 5


 202:command.c     **** }
 203:command.c     **** 
 204:command.c     **** /**
 205:command.c     ****  * Process a command that sets/gets an integer argument
 206:command.c     ****  */
 207:command.c     **** int cmd_uint(char *argv[], int argc, const struct cmd *cmd) {
 208:command.c     ****     if (argc == 1) {
 209:command.c     ****         // Get the value...
 210:command.c     ****         serial_printf("%d\r\n", *(cmd->setting));
 211:command.c     ****         return 0;
 212:command.c     ****     }
 213:command.c     ****     if (argc != 2 || !is_int(argv[1])) {
 214:command.c     ****         cmd_usage(argv, cmd);
 215:command.c     ****         return 1;
 216:command.c     ****     }
 217:command.c     ****     int byte = to_int(argv[1]);
 218:command.c     ****     if (byte < cmd->min || byte > cmd->max) {
 219:command.c     ****         cmd_usage(argv, cmd);
 220:command.c     ****         return 1;
 221:command.c     ****     }
 222:command.c     ****     
 223:command.c     ****     *(cmd->setting) = (uint16_t)byte;
 224:command.c     ****     
 225:command.c     ****     if (cmd->post_func != NULL) {
 226:command.c     ****         return cmd->post_func(argv, argc);
 227:command.c     ****     }
 228:command.c     ****     return 0;
 229:command.c     **** }
 230:command.c     **** 
 231:command.c     **** /**
 232:command.c     ****  * A command that takes no arguments is really just a call to the helper function, but
 233:command.c     ****  * we will check the syntax first
 234:command.c     ****  */
 235:command.c     **** int cmd_noargs(char *argv[], int argc, const struct cmd *cmd) {
 236:command.c     ****     if (argc != 1) {
 237:command.c     ****         cmd_usage(argv, cmd);
 238:command.c     ****         return 1;
 239:command.c     ****     }
 240:command.c     ****     if (cmd->post_func != NULL) {
 241:command.c     ****         return cmd->post_func(argv, argc);
 242:command.c     ****     }
 243:command.c     ****     return 0;    
 244:command.c     **** }
 245:command.c     **** 
 246:command.c     **** /**
 247:command.c     ****  * The help command can take zero or one arguments
 248:command.c     ****  */
 249:command.c     **** int cmd_help(char *argv[], int argc, const struct cmd *cmd) {
 250:command.c     ****     // Did we even get the help command wrong?
 251:command.c     ****     if (argc > 2) {
 252:command.c     ****         cmd_usage(argv, cmd);
 253:command.c     ****         return 1;
 254:command.c     ****     }
 255:command.c     ****     // No args, means just show the list...
 256:command.c     ****     if (argc == 1) {
 257:command.c     ****         int i = 0;
 258:command.c     ****         while (commands[i].name != NULL) {
ARM GAS  C:\Users\essele\AppData\Local\Temp\ccwoyYCx.s 			page 6


 259:command.c     ****             serial_printf("++%-12.12s\t%s\r\n", commands[i].name, commands[i].help);
 260:command.c     ****             i++;
 261:command.c     ****         }
 262:command.c     ****         return 0;
 263:command.c     ****     }
 264:command.c     ****     // One arg, means show usage of the given command
 265:command.c     ****     int i = 0;
 266:command.c     ****     while (commands[i].name != NULL) {
 267:command.c     ****         if (strcmp(argv[1], commands[i].name) == 0) {
 268:command.c     ****             cmd_usage(&argv[1], &commands[i]);
 269:command.c     ****             return 0;
 270:command.c     ****         }
 271:command.c     ****         i++;
 272:command.c     ****     }
 273:command.c     ****     serial_printf("<error: unknown command: %s>\r\n", argv[1]);
 274:command.c     ****     return 0;
 275:command.c     **** }
 276:command.c     **** 
 277:command.c     **** /**
 278:command.c     ****  * Read from the GPIB bus
 279:command.c     ****  */
 280:command.c     **** int cmd_read(char *argv[], int argc, const struct cmd *cmd) {
 281:command.c     ****     int until = GPIB_TIMEOUT;
 282:command.c     ****     uint8_t *buf = gpib_get_buffer();
 283:command.c     ****     int     len;
 284:command.c     ****     int     ended;
 285:command.c     ****     
 286:command.c     ****     if (argc > 2) {
 287:command.c     ****         cmd_usage(argv, cmd);
 288:command.c     ****         return 1;
 289:command.c     ****     }
 290:command.c     ****     if (argc == 2) {
 291:command.c     ****         if (strcmp(argv[1], "eoi") == 0) {
 292:command.c     ****             until = GPIB_EOI;
 293:command.c     ****         } else if (!is_int(argv[1])) {
 294:command.c     ****             cmd_usage(argv, cmd);
 295:command.c     ****             return 1;
 296:command.c     ****         } else {
 297:command.c     ****             int ch = to_int(argv[1]);
 298:command.c     ****             if (ch < 0 || ch > 255) {
 299:command.c     ****                 cmd_usage(argv, cmd);
 300:command.c     ****                 return 1;
 301:command.c     ****             }
 302:command.c     ****             until = ch;
 303:command.c     ****         }
 304:command.c     ****     }
 305:command.c     ****     
 306:command.c     ****     gpib_address_talker(settings.address);
 307:command.c     ****     
 308:command.c     ****     do {
 309:command.c     ****         len = gpib_read2(until, &ended);
 310:command.c     ****         serial_add_string("GOT: ");
 311:command.c     ****         serial_add(buf, len);
 312:command.c     ****         serial_add_string("\r\n");
 313:command.c     ****     } while (ended == GPIB_NOT_ENDED);
 314:command.c     ****     serial_flush();
 315:command.c     ****     return 0;
ARM GAS  C:\Users\essele\AppData\Local\Temp\ccwoyYCx.s 			page 7


 316:command.c     **** }
 317:command.c     **** 
 318:command.c     **** /**
 319:command.c     ****  * List out all items of settings that can be set by commands
 320:command.c     ****  */
 321:command.c     **** int cmd_config(char *argv[], int argc, const struct cmd *cmd) {
 322:command.c     ****     if (argc != 1) {
 323:command.c     ****         cmd_usage(argv, cmd);
 324:command.c     ****         return 1;
 325:command.c     ****     }
 326:command.c     ****     // Now look through the commands, finding ones referencing the config
 327:command.c     ****     int i = 0;
 328:command.c     ****     while (commands[i].name != NULL) {
 329:command.c     ****         if (commands[i].setting != NULL) {
 330:command.c     ****             uint16_t value = *(commands[i].setting);
 331:command.c     ****             char    *meaning = NULL;
 332:command.c     ****             
 333:command.c     ****             if (commands[i].meanings != NULL) {
 334:command.c     ****                 const struct item_meaning *m = commands[i].meanings;
 335:command.c     ****                 while (m->meaning != NULL) {
 336:command.c     ****                     if (m->value == value) {
 337:command.c     ****                         meaning = m->meaning;
 338:command.c     ****                         break;
 339:command.c     ****                     }
 340:command.c     ****                     m++;
 341:command.c     ****                 }
 342:command.c     ****             }
 343:command.c     ****             serial_printf("%-10.10s = %d", commands[i].name, value);
 344:command.c     ****             if (meaning) {
 345:command.c     ****                 serial_printf(" (%s)", meaning);
 346:command.c     ****             }
 347:command.c     ****             serial_printf("\r\n");
 348:command.c     ****         }
 349:command.c     ****         i++;
 350:command.c     ****     }   
 351:command.c     ****     return 0;
 352:command.c     **** }
 353:command.c     **** 
 354:command.c     **** 
 355:command.c     **** int helper_version() {
  28              		.loc 1 355 0
  29              		.cfi_startproc
  30              		@ args = 0, pretend = 0, frame = 0
  31              		@ frame_needed = 0, uses_anonymous_args = 0
  32 0000 10B5     		push	{r4, lr}
  33              		.cfi_def_cfa_offset 8
  34              		.cfi_offset 4, -8
  35              		.cfi_offset 14, -4
 356:command.c     ****     serial_printf("yaugi %d.%d by Lee Essen\r\n", MAJOR_VERSION, MINOR_VERSION);
  36              		.loc 1 356 0
  37 0002 0222     		movs	r2, #2
  38 0004 0121     		movs	r1, #1
  39 0006 0248     		ldr	r0, .L2
  40 0008 FFF7FEFF 		bl	serial_printf
  41              	.LVL0:
 357:command.c     ****     return 0;
 358:command.c     **** }
ARM GAS  C:\Users\essele\AppData\Local\Temp\ccwoyYCx.s 			page 8


  42              		.loc 1 358 0
  43 000c 0020     		movs	r0, #0
  44              		@ sp needed
  45 000e 10BD     		pop	{r4, pc}
  46              	.L3:
  47              		.align	2
  48              	.L2:
  49 0010 00000000 		.word	.LC0
  50              		.cfi_endproc
  51              	.LFE45:
  52              		.size	helper_version, .-helper_version
  53              		.section	.text.helper_gpiball,"ax",%progbits
  54              		.align	2
  55              		.global	helper_gpiball
  56              		.code	16
  57              		.thumb_func
  58              		.type	helper_gpiball, %function
  59              	helper_gpiball:
  60              	.LFB46:
 359:command.c     ****  
 360:command.c     **** 
 361:command.c     **** int helper_gpiball() {
  61              		.loc 1 361 0
  62              		.cfi_startproc
  63              		@ args = 0, pretend = 0, frame = 0
  64              		@ frame_needed = 0, uses_anonymous_args = 0
  65 0000 10B5     		push	{r4, lr}
  66              		.cfi_def_cfa_offset 8
  67              		.cfi_offset 4, -8
  68              		.cfi_offset 14, -4
 362:command.c     ****     uint16_t v = gpib_readall();
  69              		.loc 1 362 0
  70 0002 FFF7FEFF 		bl	gpib_readall
  71              	.LVL1:
  72 0006 0100     		movs	r1, r0
  73              	.LVL2:
 363:command.c     ****     serial_printf("pin status = %04x\r\n", v);
  74              		.loc 1 363 0
  75 0008 0248     		ldr	r0, .L5
  76 000a FFF7FEFF 		bl	serial_printf
  77              	.LVL3:
 364:command.c     ****     return 0;
 365:command.c     **** }
  78              		.loc 1 365 0
  79 000e 0020     		movs	r0, #0
  80              		@ sp needed
  81 0010 10BD     		pop	{r4, pc}
  82              	.L6:
  83 0012 C046     		.align	2
  84              	.L5:
  85 0014 1C000000 		.word	.LC2
  86              		.cfi_endproc
  87              	.LFE46:
  88              		.size	helper_gpiball, .-helper_gpiball
  89              		.section	.text.tokenise,"ax",%progbits
  90              		.align	2
  91              		.global	tokenise
ARM GAS  C:\Users\essele\AppData\Local\Temp\ccwoyYCx.s 			page 9


  92              		.code	16
  93              		.thumb_func
  94              		.type	tokenise, %function
  95              	tokenise:
  96              	.LFB35:
  78:command.c     ****     int i = 0;
  97              		.loc 1 78 0
  98              		.cfi_startproc
  99              		@ args = 0, pretend = 0, frame = 0
 100              		@ frame_needed = 0, uses_anonymous_args = 0
 101              	.LVL4:
 102 0000 F8B5     		push	{r3, r4, r5, r6, r7, lr}
 103              		.cfi_def_cfa_offset 24
 104              		.cfi_offset 3, -24
 105              		.cfi_offset 4, -20
 106              		.cfi_offset 5, -16
 107              		.cfi_offset 6, -12
 108              		.cfi_offset 7, -8
 109              		.cfi_offset 14, -4
 110 0002 0500     		movs	r5, r0
 111 0004 0F00     		movs	r7, r1
 112              	.LVL5:
  81:command.c     ****     
 113              		.loc 1 81 0
 114 0006 0022     		movs	r2, #0
 115 0008 1B4B     		ldr	r3, .L17
 116 000a 1A60     		str	r2, [r3]
  79:command.c     ****     
 117              		.loc 1 79 0
 118 000c 0024     		movs	r4, #0
  83:command.c     ****         
 119              		.loc 1 83 0
 120 000e 2EE0     		b	.L8
 121              	.LVL6:
 122              	.L10:
  87:command.c     ****                 break;
 123              		.loc 1 87 0
 124 0010 2978     		ldrb	r1, [r5]
 125 0012 1A48     		ldr	r0, .L17+4
 126 0014 FFF7FEFF 		bl	strchr
 127              	.LVL7:
 128 0018 0028     		cmp	r0, #0
 129 001a 03D0     		beq	.L9
  90:command.c     ****             buf++;
 130              		.loc 1 90 0
 131 001c 0134     		adds	r4, r4, #1
 132              	.LVL8:
  91:command.c     ****         }
 133              		.loc 1 91 0
 134 001e 0135     		adds	r5, r5, #1
 135              	.LVL9:
 136              	.L16:
  86:command.c     ****             if (strchr(" \t", *buf) == NULL) {
 137              		.loc 1 86 0
 138 0020 BC42     		cmp	r4, r7
 139 0022 F5DB     		blt	.L10
 140              	.L9:
ARM GAS  C:\Users\essele\AppData\Local\Temp\ccwoyYCx.s 			page 10


  94:command.c     ****             return tok_count;
 141              		.loc 1 94 0
 142 0024 BC42     		cmp	r4, r7
 143 0026 02D1     		bne	.L11
  95:command.c     ****         }
 144              		.loc 1 95 0
 145 0028 134B     		ldr	r3, .L17
 146 002a 1868     		ldr	r0, [r3]
 147 002c 23E0     		b	.L12
 148              	.L11:
  99:command.c     ****         
 149              		.loc 1 99 0
 150 002e 124B     		ldr	r3, .L17
 151 0030 1B68     		ldr	r3, [r3]
 152 0032 9B00     		lsls	r3, r3, #2
 153 0034 124A     		ldr	r2, .L17+8
 154 0036 9D50     		str	r5, [r3, r2]
 102:command.c     ****             if (strchr(" \t", *buf) != NULL) {
 155              		.loc 1 102 0
 156 0038 2E00     		movs	r6, r5
 157 003a 07E0     		b	.L13
 158              	.LVL10:
 159              	.L15:
 103:command.c     ****                 break;
 160              		.loc 1 103 0
 161 003c 3178     		ldrb	r1, [r6]
 162 003e 0F48     		ldr	r0, .L17+4
 163 0040 FFF7FEFF 		bl	strchr
 164              	.LVL11:
 165 0044 0028     		cmp	r0, #0
 166 0046 03D1     		bne	.L14
 106:command.c     ****             buf++;
 167              		.loc 1 106 0
 168 0048 0134     		adds	r4, r4, #1
 169              	.LVL12:
 107:command.c     ****         }
 170              		.loc 1 107 0
 171 004a 0136     		adds	r6, r6, #1
 172              	.LVL13:
 173              	.L13:
 102:command.c     ****             if (strchr(" \t", *buf) != NULL) {
 174              		.loc 1 102 0
 175 004c BC42     		cmp	r4, r7
 176 004e F5DB     		blt	.L15
 177              	.L14:
 110:command.c     ****         i++;
 178              		.loc 1 110 0
 179 0050 751C     		adds	r5, r6, #1
 180              	.LVL14:
 181 0052 0023     		movs	r3, #0
 182 0054 3370     		strb	r3, [r6]
 111:command.c     ****         tok_count++;
 183              		.loc 1 111 0
 184 0056 0134     		adds	r4, r4, #1
 185              	.LVL15:
 112:command.c     ****         
 186              		.loc 1 112 0
ARM GAS  C:\Users\essele\AppData\Local\Temp\ccwoyYCx.s 			page 11


 187 0058 074A     		ldr	r2, .L17
 188 005a 1368     		ldr	r3, [r2]
 189 005c 0133     		adds	r3, r3, #1
 190 005e 1360     		str	r3, [r2]
 114:command.c     ****             serial_printf("<error: too many tokens>\r\n");
 191              		.loc 1 114 0
 192 0060 142B     		cmp	r3, #20
 193 0062 04D1     		bne	.L8
 115:command.c     ****             return 0;
 194              		.loc 1 115 0
 195 0064 0748     		ldr	r0, .L17+12
 196 0066 FFF7FEFF 		bl	serial_printf
 197              	.LVL16:
 116:command.c     ****         }
 198              		.loc 1 116 0
 199 006a 0020     		movs	r0, #0
 200 006c 03E0     		b	.L12
 201              	.LVL17:
 202              	.L8:
  83:command.c     ****         
 203              		.loc 1 83 0
 204 006e BC42     		cmp	r4, r7
 205 0070 D6DB     		blt	.L16
 119:command.c     **** }
 206              		.loc 1 119 0
 207 0072 014B     		ldr	r3, .L17
 208 0074 1868     		ldr	r0, [r3]
 209              	.L12:
 120:command.c     **** 
 210              		.loc 1 120 0
 211              		@ sp needed
 212              	.LVL18:
 213              	.LVL19:
 214              	.LVL20:
 215 0076 F8BD     		pop	{r3, r4, r5, r6, r7, pc}
 216              	.L18:
 217              		.align	2
 218              	.L17:
 219 0078 00000000 		.word	.LANCHOR0
 220 007c 30000000 		.word	.LC5
 221 0080 00000000 		.word	toks
 222 0084 34000000 		.word	.LC8
 223              		.cfi_endproc
 224              	.LFE35:
 225              		.size	tokenise, .-tokenise
 226              		.section	.text.is_int,"ax",%progbits
 227              		.align	2
 228              		.global	is_int
 229              		.code	16
 230              		.thumb_func
 231              		.type	is_int, %function
 232              	is_int:
 233              	.LFB36:
 125:command.c     ****     while(*v) {
 234              		.loc 1 125 0
 235              		.cfi_startproc
 236              		@ args = 0, pretend = 0, frame = 0
ARM GAS  C:\Users\essele\AppData\Local\Temp\ccwoyYCx.s 			page 12


 237              		@ frame_needed = 0, uses_anonymous_args = 0
 238              	.LVL21:
 239 0000 10B5     		push	{r4, lr}
 240              		.cfi_def_cfa_offset 8
 241              		.cfi_offset 4, -8
 242              		.cfi_offset 14, -4
 243 0002 0400     		movs	r4, r0
 126:command.c     ****         if (strchr("0123456789", *v) == NULL) {
 244              		.loc 1 126 0
 245 0004 05E0     		b	.L20
 246              	.LVL22:
 247              	.L22:
 127:command.c     ****             return 0;
 248              		.loc 1 127 0
 249 0006 0648     		ldr	r0, .L24
 250 0008 FFF7FEFF 		bl	strchr
 251              	.LVL23:
 252 000c 0028     		cmp	r0, #0
 253 000e 05D0     		beq	.L23
 130:command.c     ****     }
 254              		.loc 1 130 0
 255 0010 0134     		adds	r4, r4, #1
 256              	.LVL24:
 257              	.L20:
 126:command.c     ****         if (strchr("0123456789", *v) == NULL) {
 258              		.loc 1 126 0
 259 0012 2178     		ldrb	r1, [r4]
 260 0014 0029     		cmp	r1, #0
 261 0016 F6D1     		bne	.L22
 132:command.c     **** }
 262              		.loc 1 132 0
 263 0018 0120     		movs	r0, #1
 264 001a 00E0     		b	.L21
 265              	.L23:
 128:command.c     ****         }
 266              		.loc 1 128 0
 267 001c 0020     		movs	r0, #0
 268              	.L21:
 133:command.c     **** 
 269              		.loc 1 133 0
 270              		@ sp needed
 271              	.LVL25:
 272 001e 10BD     		pop	{r4, pc}
 273              	.L25:
 274              		.align	2
 275              	.L24:
 276 0020 50000000 		.word	.LC10
 277              		.cfi_endproc
 278              	.LFE36:
 279              		.size	is_int, .-is_int
 280              		.section	.text.to_int,"ax",%progbits
 281              		.align	2
 282              		.global	to_int
 283              		.code	16
 284              		.thumb_func
 285              		.type	to_int, %function
 286              	to_int:
ARM GAS  C:\Users\essele\AppData\Local\Temp\ccwoyYCx.s 			page 13


 287              	.LFB37:
 135:command.c     ****     int i = 0;
 288              		.loc 1 135 0
 289              		.cfi_startproc
 290              		@ args = 0, pretend = 0, frame = 0
 291              		@ frame_needed = 0, uses_anonymous_args = 0
 292              	.LVL26:
 293 0000 10B5     		push	{r4, lr}
 294              		.cfi_def_cfa_offset 8
 295              		.cfi_offset 4, -8
 296              		.cfi_offset 14, -4
 297 0002 0100     		movs	r1, r0
 298              	.LVL27:
 136:command.c     ****     while(*v) {
 299              		.loc 1 136 0
 300 0004 0020     		movs	r0, #0
 301              	.LVL28:
 137:command.c     ****         i *= 10;
 302              		.loc 1 137 0
 303 0006 06E0     		b	.L27
 304              	.LVL29:
 305              	.L28:
 138:command.c     ****         i += (*v++ - '0');
 306              		.loc 1 138 0
 307 0008 8200     		lsls	r2, r0, #2
 308 000a 1218     		adds	r2, r2, r0
 309 000c 5000     		lsls	r0, r2, #1
 310              	.LVL30:
 139:command.c     ****     }
 311              		.loc 1 139 0
 312 000e 0131     		adds	r1, r1, #1
 313              	.LVL31:
 314 0010 2300     		movs	r3, r4
 315 0012 303B     		subs	r3, r3, #48
 316 0014 C018     		adds	r0, r0, r3
 317              	.LVL32:
 318              	.L27:
 137:command.c     ****         i *= 10;
 319              		.loc 1 137 0
 320 0016 0C78     		ldrb	r4, [r1]
 321 0018 002C     		cmp	r4, #0
 322 001a F5D1     		bne	.L28
 142:command.c     **** 
 323              		.loc 1 142 0
 324              		@ sp needed
 325 001c 10BD     		pop	{r4, pc}
 326              		.cfi_endproc
 327              	.LFE37:
 328              		.size	to_int, .-to_int
 329 001e C046     		.section	.text.cmd_process,"ax",%progbits
 330              		.align	2
 331              		.global	cmd_process
 332              		.code	16
 333              		.thumb_func
 334              		.type	cmd_process, %function
 335              	cmd_process:
 336              	.LFB38:
ARM GAS  C:\Users\essele\AppData\Local\Temp\ccwoyYCx.s 			page 14


 148:command.c     ****     buf += 2;
 337              		.loc 1 148 0
 338              		.cfi_startproc
 339              		@ args = 0, pretend = 0, frame = 0
 340              		@ frame_needed = 0, uses_anonymous_args = 0
 341              	.LVL33:
 342 0000 70B5     		push	{r4, r5, r6, lr}
 343              		.cfi_def_cfa_offset 16
 344              		.cfi_offset 4, -16
 345              		.cfi_offset 5, -12
 346              		.cfi_offset 6, -8
 347              		.cfi_offset 14, -4
 149:command.c     ****     len -= 2;
 348              		.loc 1 149 0
 349 0002 0230     		adds	r0, r0, #2
 350              	.LVL34:
 150:command.c     ****     int argc = tokenise(buf, len);
 351              		.loc 1 150 0
 352 0004 0239     		subs	r1, r1, #2
 353              	.LVL35:
 151:command.c     **** 
 354              		.loc 1 151 0
 355 0006 FFF7FEFF 		bl	tokenise
 356              	.LVL36:
 357 000a 051E     		subs	r5, r0, #0
 358              	.LVL37:
 154:command.c     ****         return;
 359              		.loc 1 154 0
 360 000c 18D0     		beq	.L29
 361 000e 0024     		movs	r4, #0
 362 0010 0EE0     		b	.L31
 363              	.LVL38:
 364              	.L33:
 161:command.c     ****             commands[i].func(toks, argc, &commands[i]);
 365              		.loc 1 161 0
 366 0012 0C4B     		ldr	r3, .L34
 367 0014 1868     		ldr	r0, [r3]
 368 0016 FFF7FEFF 		bl	strcmp
 369              	.LVL39:
 370 001a 0028     		cmp	r0, #0
 371 001c 07D1     		bne	.L32
 162:command.c     ****             return;
 372              		.loc 1 162 0
 373 001e 6401     		lsls	r4, r4, #5
 374              	.LVL40:
 375 0020 094A     		ldr	r2, .L34+4
 376 0022 1219     		adds	r2, r2, r4
 377 0024 5368     		ldr	r3, [r2, #4]
 378 0026 2900     		movs	r1, r5
 379 0028 0648     		ldr	r0, .L34
 380 002a 9847     		blx	r3
 381              	.LVL41:
 163:command.c     ****         }
 382              		.loc 1 163 0
 383 002c 08E0     		b	.L29
 384              	.LVL42:
 385              	.L32:
ARM GAS  C:\Users\essele\AppData\Local\Temp\ccwoyYCx.s 			page 15


 165:command.c     ****     }
 386              		.loc 1 165 0
 387 002e 0134     		adds	r4, r4, #1
 388              	.LVL43:
 389              	.L31:
 160:command.c     ****         if (strcmp(toks[0], commands[i].name) == 0) {
 390              		.loc 1 160 0
 391 0030 6301     		lsls	r3, r4, #5
 392 0032 054A     		ldr	r2, .L34+4
 393 0034 9958     		ldr	r1, [r3, r2]
 394 0036 0029     		cmp	r1, #0
 395 0038 EBD1     		bne	.L33
 167:command.c     **** }
 396              		.loc 1 167 0
 397 003a 0448     		ldr	r0, .L34+8
 398 003c FFF7FEFF 		bl	serial_printf
 399              	.LVL44:
 400              	.L29:
 168:command.c     **** 
 401              		.loc 1 168 0
 402              		@ sp needed
 403              	.LVL45:
 404 0040 70BD     		pop	{r4, r5, r6, pc}
 405              	.L35:
 406 0042 C046     		.align	2
 407              	.L34:
 408 0044 00000000 		.word	toks
 409 0048 00000000 		.word	.LANCHOR1
 410 004c 5C000000 		.word	.LC14
 411              		.cfi_endproc
 412              	.LFE38:
 413              		.size	cmd_process, .-cmd_process
 414              		.section	.text.cmd_usage,"ax",%progbits
 415              		.align	2
 416              		.global	cmd_usage
 417              		.code	16
 418              		.thumb_func
 419              		.type	cmd_usage, %function
 420              	cmd_usage:
 421              	.LFB39:
 172:command.c     ****     const char **p = cmd->usage;
 422              		.loc 1 172 0
 423              		.cfi_startproc
 424              		@ args = 0, pretend = 0, frame = 0
 425              		@ frame_needed = 0, uses_anonymous_args = 0
 426              	.LVL46:
 427 0000 70B5     		push	{r4, r5, r6, lr}
 428              		.cfi_def_cfa_offset 16
 429              		.cfi_offset 4, -16
 430              		.cfi_offset 5, -12
 431              		.cfi_offset 6, -8
 432              		.cfi_offset 14, -4
 433 0002 0D00     		movs	r5, r1
 173:command.c     ****     serial_printf("<usage: ++%s", argv[0]);
 434              		.loc 1 173 0
 435 0004 4C69     		ldr	r4, [r1, #20]
 436              	.LVL47:
ARM GAS  C:\Users\essele\AppData\Local\Temp\ccwoyYCx.s 			page 16


 174:command.c     ****     if (**p) {
 437              		.loc 1 174 0
 438 0006 0168     		ldr	r1, [r0]
 439              	.LVL48:
 440 0008 1548     		ldr	r0, .L44
 441              	.LVL49:
 442 000a FFF7FEFF 		bl	serial_printf
 443              	.LVL50:
 175:command.c     ****         serial_printf(" %s", *p++);
 444              		.loc 1 175 0
 445 000e 2168     		ldr	r1, [r4]
 446 0010 0B78     		ldrb	r3, [r1]
 447 0012 002B     		cmp	r3, #0
 448 0014 03D0     		beq	.L37
 176:command.c     ****     }
 449              		.loc 1 176 0
 450 0016 0434     		adds	r4, r4, #4
 451              	.LVL51:
 452 0018 1248     		ldr	r0, .L44+4
 453 001a FFF7FEFF 		bl	serial_printf
 454              	.LVL52:
 455              	.L37:
 178:command.c     ****     
 456              		.loc 1 178 0
 457 001e 1248     		ldr	r0, .L44+8
 458 0020 FFF7FEFF 		bl	serial_printf
 459              	.LVL53:
 181:command.c     ****         serial_printf("%s\r\n", (char *)*p++);
 460              		.loc 1 181 0
 461 0024 03E0     		b	.L38
 462              	.L39:
 182:command.c     ****     }
 463              		.loc 1 182 0
 464 0026 0434     		adds	r4, r4, #4
 465              	.LVL54:
 466 0028 1048     		ldr	r0, .L44+12
 467 002a FFF7FEFF 		bl	serial_printf
 468              	.LVL55:
 469              	.L38:
 181:command.c     ****         serial_printf("%s\r\n", (char *)*p++);
 470              		.loc 1 181 0
 471 002e 2168     		ldr	r1, [r4]
 472 0030 0029     		cmp	r1, #0
 473 0032 F8D1     		bne	.L39
 186:command.c     ****         const struct item_meaning *m = cmd->meanings;
 474              		.loc 1 186 0
 475 0034 AC69     		ldr	r4, [r5, #24]
 476              	.LVL56:
 477 0036 002C     		cmp	r4, #0
 478 0038 05D1     		bne	.L40
 479              	.LBB2:
 480 003a 07E0     		b	.L41
 481              	.LVL57:
 482              	.L42:
 189:command.c     ****             m++;
 483              		.loc 1 189 0
 484 003c 2168     		ldr	r1, [r4]
ARM GAS  C:\Users\essele\AppData\Local\Temp\ccwoyYCx.s 			page 17


 485 003e 0C48     		ldr	r0, .L44+16
 486 0040 FFF7FEFF 		bl	serial_printf
 487              	.LVL58:
 190:command.c     ****         }
 488              		.loc 1 190 0
 489 0044 0834     		adds	r4, r4, #8
 490              	.LVL59:
 491              	.L40:
 188:command.c     ****             serial_printf("\t%d - %s\r\n", m->value, m->meaning);
 492              		.loc 1 188 0
 493 0046 6268     		ldr	r2, [r4, #4]
 494 0048 002A     		cmp	r2, #0
 495 004a F7D1     		bne	.L42
 496              	.LVL60:
 497              	.L41:
 498              	.LBE2:
 195:command.c     ****         uint16_t value = *cmd->setting;
 499              		.loc 1 195 0
 500 004c AB68     		ldr	r3, [r5, #8]
 501 004e 002B     		cmp	r3, #0
 502 0050 03D0     		beq	.L43
 503              	.LBB3:
 196:command.c     ****         serial_printf("\t(current setting: %d)\r\n", value);
 504              		.loc 1 196 0
 505 0052 1988     		ldrh	r1, [r3]
 506              	.LVL61:
 197:command.c     ****     }
 507              		.loc 1 197 0
 508 0054 0748     		ldr	r0, .L44+20
 509 0056 FFF7FEFF 		bl	serial_printf
 510              	.LVL62:
 511              	.L43:
 512              	.LBE3:
 201:command.c     **** }
 513              		.loc 1 201 0
 514 005a FFF7FEFF 		bl	serial_flush
 515              	.LVL63:
 202:command.c     **** 
 516              		.loc 1 202 0
 517              		@ sp needed
 518              	.LVL64:
 519 005e 70BD     		pop	{r4, r5, r6, pc}
 520              	.L45:
 521              		.align	2
 522              	.L44:
 523 0060 7C000000 		.word	.LC16
 524 0064 8C000000 		.word	.LC18
 525 0068 90000000 		.word	.LC20
 526 006c 94000000 		.word	.LC22
 527 0070 9C000000 		.word	.LC24
 528 0074 A8000000 		.word	.LC26
 529              		.cfi_endproc
 530              	.LFE39:
 531              		.size	cmd_usage, .-cmd_usage
 532              		.section	.text.cmd_uint,"ax",%progbits
 533              		.align	2
 534              		.global	cmd_uint
ARM GAS  C:\Users\essele\AppData\Local\Temp\ccwoyYCx.s 			page 18


 535              		.code	16
 536              		.thumb_func
 537              		.type	cmd_uint, %function
 538              	cmd_uint:
 539              	.LFB40:
 207:command.c     ****     if (argc == 1) {
 540              		.loc 1 207 0
 541              		.cfi_startproc
 542              		@ args = 0, pretend = 0, frame = 0
 543              		@ frame_needed = 0, uses_anonymous_args = 0
 544              	.LVL65:
 545 0000 F8B5     		push	{r3, r4, r5, r6, r7, lr}
 546              		.cfi_def_cfa_offset 24
 547              		.cfi_offset 3, -24
 548              		.cfi_offset 4, -20
 549              		.cfi_offset 5, -16
 550              		.cfi_offset 6, -12
 551              		.cfi_offset 7, -8
 552              		.cfi_offset 14, -4
 553 0002 0600     		movs	r6, r0
 554 0004 0C00     		movs	r4, r1
 555 0006 1500     		movs	r5, r2
 208:command.c     ****         // Get the value...
 556              		.loc 1 208 0
 557 0008 0129     		cmp	r1, #1
 558 000a 06D1     		bne	.L47
 210:command.c     ****         return 0;
 559              		.loc 1 210 0
 560 000c 9368     		ldr	r3, [r2, #8]
 561 000e 1988     		ldrh	r1, [r3]
 562              	.LVL66:
 563 0010 1648     		ldr	r0, .L54
 564              	.LVL67:
 565 0012 FFF7FEFF 		bl	serial_printf
 566              	.LVL68:
 211:command.c     ****     }
 567              		.loc 1 211 0
 568 0016 0020     		movs	r0, #0
 569 0018 26E0     		b	.L48
 570              	.LVL69:
 571              	.L47:
 213:command.c     ****         cmd_usage(argv, cmd);
 572              		.loc 1 213 0
 573 001a 0229     		cmp	r1, #2
 574 001c 05D1     		bne	.L49
 213:command.c     ****         cmd_usage(argv, cmd);
 575              		.loc 1 213 0 is_stmt 0 discriminator 1
 576 001e 4768     		ldr	r7, [r0, #4]
 577 0020 3800     		movs	r0, r7
 578              	.LVL70:
 579 0022 FFF7FEFF 		bl	is_int
 580              	.LVL71:
 581 0026 0028     		cmp	r0, #0
 582 0028 05D1     		bne	.L50
 583              	.L49:
 214:command.c     ****         return 1;
 584              		.loc 1 214 0 is_stmt 1
ARM GAS  C:\Users\essele\AppData\Local\Temp\ccwoyYCx.s 			page 19


 585 002a 2900     		movs	r1, r5
 586 002c 3000     		movs	r0, r6
 587 002e FFF7FEFF 		bl	cmd_usage
 588              	.LVL72:
 215:command.c     ****     }
 589              		.loc 1 215 0
 590 0032 0120     		movs	r0, #1
 591 0034 18E0     		b	.L48
 592              	.L50:
 217:command.c     ****     if (byte < cmd->min || byte > cmd->max) {
 593              		.loc 1 217 0
 594 0036 3800     		movs	r0, r7
 595 0038 FFF7FEFF 		bl	to_int
 596              	.LVL73:
 218:command.c     ****         cmd_usage(argv, cmd);
 597              		.loc 1 218 0
 598 003c AB89     		ldrh	r3, [r5, #12]
 599 003e 9842     		cmp	r0, r3
 600 0040 02DB     		blt	.L51
 218:command.c     ****         cmd_usage(argv, cmd);
 601              		.loc 1 218 0 is_stmt 0 discriminator 1
 602 0042 EB89     		ldrh	r3, [r5, #14]
 603 0044 9842     		cmp	r0, r3
 604 0046 05DD     		ble	.L52
 605              	.L51:
 219:command.c     ****         return 1;
 606              		.loc 1 219 0 is_stmt 1
 607 0048 2900     		movs	r1, r5
 608 004a 3000     		movs	r0, r6
 609              	.LVL74:
 610 004c FFF7FEFF 		bl	cmd_usage
 611              	.LVL75:
 220:command.c     ****     }
 612              		.loc 1 220 0
 613 0050 0120     		movs	r0, #1
 614 0052 09E0     		b	.L48
 615              	.LVL76:
 616              	.L52:
 223:command.c     ****     
 617              		.loc 1 223 0
 618 0054 AB68     		ldr	r3, [r5, #8]
 619 0056 1880     		strh	r0, [r3]
 225:command.c     ****         return cmd->post_func(argv, argc);
 620              		.loc 1 225 0
 621 0058 EB69     		ldr	r3, [r5, #28]
 622 005a 002B     		cmp	r3, #0
 623 005c 03D0     		beq	.L53
 226:command.c     ****     }
 624              		.loc 1 226 0
 625 005e 2100     		movs	r1, r4
 626 0060 3000     		movs	r0, r6
 627              	.LVL77:
 628 0062 9847     		blx	r3
 629              	.LVL78:
 630 0064 00E0     		b	.L48
 631              	.LVL79:
 632              	.L53:
ARM GAS  C:\Users\essele\AppData\Local\Temp\ccwoyYCx.s 			page 20


 228:command.c     **** }
 633              		.loc 1 228 0
 634 0066 0020     		movs	r0, #0
 635              	.LVL80:
 636              	.L48:
 229:command.c     **** 
 637              		.loc 1 229 0
 638              		@ sp needed
 639              	.LVL81:
 640              	.LVL82:
 641              	.LVL83:
 642 0068 F8BD     		pop	{r3, r4, r5, r6, r7, pc}
 643              	.L55:
 644 006a C046     		.align	2
 645              	.L54:
 646 006c C4000000 		.word	.LC28
 647              		.cfi_endproc
 648              	.LFE40:
 649              		.size	cmd_uint, .-cmd_uint
 650              		.section	.text.cmd_noargs,"ax",%progbits
 651              		.align	2
 652              		.global	cmd_noargs
 653              		.code	16
 654              		.thumb_func
 655              		.type	cmd_noargs, %function
 656              	cmd_noargs:
 657              	.LFB41:
 235:command.c     ****     if (argc != 1) {
 658              		.loc 1 235 0
 659              		.cfi_startproc
 660              		@ args = 0, pretend = 0, frame = 0
 661              		@ frame_needed = 0, uses_anonymous_args = 0
 662              	.LVL84:
 663 0000 10B5     		push	{r4, lr}
 664              		.cfi_def_cfa_offset 8
 665              		.cfi_offset 4, -8
 666              		.cfi_offset 14, -4
 236:command.c     ****         cmd_usage(argv, cmd);
 667              		.loc 1 236 0
 668 0002 0129     		cmp	r1, #1
 669 0004 04D0     		beq	.L57
 237:command.c     ****         return 1;
 670              		.loc 1 237 0
 671 0006 1100     		movs	r1, r2
 672              	.LVL85:
 673 0008 FFF7FEFF 		bl	cmd_usage
 674              	.LVL86:
 238:command.c     ****     }
 675              		.loc 1 238 0
 676 000c 0120     		movs	r0, #1
 677 000e 05E0     		b	.L58
 678              	.LVL87:
 679              	.L57:
 240:command.c     ****         return cmd->post_func(argv, argc);
 680              		.loc 1 240 0
 681 0010 D369     		ldr	r3, [r2, #28]
 682 0012 002B     		cmp	r3, #0
ARM GAS  C:\Users\essele\AppData\Local\Temp\ccwoyYCx.s 			page 21


 683 0014 01D0     		beq	.L59
 241:command.c     ****     }
 684              		.loc 1 241 0
 685 0016 9847     		blx	r3
 686              	.LVL88:
 687 0018 00E0     		b	.L58
 688              	.LVL89:
 689              	.L59:
 243:command.c     **** }
 690              		.loc 1 243 0
 691 001a 0020     		movs	r0, #0
 692              	.LVL90:
 693              	.L58:
 244:command.c     **** 
 694              		.loc 1 244 0
 695              		@ sp needed
 696 001c 10BD     		pop	{r4, pc}
 697              		.cfi_endproc
 698              	.LFE41:
 699              		.size	cmd_noargs, .-cmd_noargs
 700 001e C046     		.section	.text.cmd_help,"ax",%progbits
 701              		.align	2
 702              		.global	cmd_help
 703              		.code	16
 704              		.thumb_func
 705              		.type	cmd_help, %function
 706              	cmd_help:
 707              	.LFB42:
 249:command.c     ****     // Did we even get the help command wrong?
 708              		.loc 1 249 0
 709              		.cfi_startproc
 710              		@ args = 0, pretend = 0, frame = 0
 711              		@ frame_needed = 0, uses_anonymous_args = 0
 712              	.LVL91:
 713 0000 70B5     		push	{r4, r5, r6, lr}
 714              		.cfi_def_cfa_offset 16
 715              		.cfi_offset 4, -16
 716              		.cfi_offset 5, -12
 717              		.cfi_offset 6, -8
 718              		.cfi_offset 14, -4
 719 0002 0600     		movs	r6, r0
 251:command.c     ****         cmd_usage(argv, cmd);
 720              		.loc 1 251 0
 721 0004 0229     		cmp	r1, #2
 722 0006 04DD     		ble	.L61
 252:command.c     ****         return 1;
 723              		.loc 1 252 0
 724 0008 1100     		movs	r1, r2
 725              	.LVL92:
 726 000a FFF7FEFF 		bl	cmd_usage
 727              	.LVL93:
 253:command.c     ****     }
 728              		.loc 1 253 0
 729 000e 0124     		movs	r4, #1
 730 0010 2BE0     		b	.L62
 731              	.LVL94:
 732              	.L61:
ARM GAS  C:\Users\essele\AppData\Local\Temp\ccwoyYCx.s 			page 22


 256:command.c     ****         int i = 0;
 733              		.loc 1 256 0
 734 0012 0129     		cmp	r1, #1
 735 0014 0AD0     		beq	.L68
 736 0016 0025     		movs	r5, #0
 737 0018 1DE0     		b	.L64
 738              	.LVL95:
 739              	.L65:
 740              	.LBB4:
 259:command.c     ****             i++;
 741              		.loc 1 259 0
 742 001a 6301     		lsls	r3, r4, #5
 743 001c 144A     		ldr	r2, .L69
 744 001e D318     		adds	r3, r2, r3
 745 0020 1A69     		ldr	r2, [r3, #16]
 746 0022 1448     		ldr	r0, .L69+4
 747 0024 FFF7FEFF 		bl	serial_printf
 748              	.LVL96:
 260:command.c     ****         }
 749              		.loc 1 260 0
 750 0028 0134     		adds	r4, r4, #1
 751              	.LVL97:
 752 002a 00E0     		b	.L63
 753              	.LVL98:
 754              	.L68:
 755              	.LBE4:
 756 002c 0024     		movs	r4, #0
 757              	.LVL99:
 758              	.L63:
 759              	.LBB5:
 258:command.c     ****             serial_printf("++%-12.12s\t%s\r\n", commands[i].name, commands[i].help);
 760              		.loc 1 258 0
 761 002e 6301     		lsls	r3, r4, #5
 762 0030 0F4A     		ldr	r2, .L69
 763 0032 9958     		ldr	r1, [r3, r2]
 764 0034 0029     		cmp	r1, #0
 765 0036 F0D1     		bne	.L65
 262:command.c     ****     }
 766              		.loc 1 262 0
 767 0038 0024     		movs	r4, #0
 768              	.LVL100:
 769 003a 16E0     		b	.L62
 770              	.LVL101:
 771              	.L67:
 772              	.LBE5:
 267:command.c     ****             cmd_usage(&argv[1], &commands[i]);
 773              		.loc 1 267 0
 774 003c 7068     		ldr	r0, [r6, #4]
 775 003e FFF7FEFF 		bl	strcmp
 776              	.LVL102:
 777 0042 041E     		subs	r4, r0, #0
 778 0044 06D1     		bne	.L66
 268:command.c     ****             return 0;
 779              		.loc 1 268 0
 780 0046 6D01     		lsls	r5, r5, #5
 781              	.LVL103:
 782 0048 0949     		ldr	r1, .L69
ARM GAS  C:\Users\essele\AppData\Local\Temp\ccwoyYCx.s 			page 23


 783 004a 4919     		adds	r1, r1, r5
 784 004c 301D     		adds	r0, r6, #4
 785 004e FFF7FEFF 		bl	cmd_usage
 786              	.LVL104:
 269:command.c     ****         }
 787              		.loc 1 269 0
 788 0052 0AE0     		b	.L62
 789              	.LVL105:
 790              	.L66:
 271:command.c     ****     }
 791              		.loc 1 271 0
 792 0054 0135     		adds	r5, r5, #1
 793              	.LVL106:
 794              	.L64:
 266:command.c     ****         if (strcmp(argv[1], commands[i].name) == 0) {
 795              		.loc 1 266 0
 796 0056 6B01     		lsls	r3, r5, #5
 797 0058 054A     		ldr	r2, .L69
 798 005a 9958     		ldr	r1, [r3, r2]
 799 005c 0029     		cmp	r1, #0
 800 005e EDD1     		bne	.L67
 273:command.c     ****     return 0;
 801              		.loc 1 273 0
 802 0060 7168     		ldr	r1, [r6, #4]
 803 0062 0548     		ldr	r0, .L69+8
 804 0064 FFF7FEFF 		bl	serial_printf
 805              	.LVL107:
 274:command.c     **** }
 806              		.loc 1 274 0
 807 0068 0024     		movs	r4, #0
 808              	.LVL108:
 809              	.L62:
 275:command.c     **** 
 810              		.loc 1 275 0
 811 006a 2000     		movs	r0, r4
 812              		@ sp needed
 813              	.LVL109:
 814 006c 70BD     		pop	{r4, r5, r6, pc}
 815              	.L70:
 816 006e C046     		.align	2
 817              	.L69:
 818 0070 00000000 		.word	.LANCHOR1
 819 0074 CC000000 		.word	.LC31
 820 0078 DC000000 		.word	.LC33
 821              		.cfi_endproc
 822              	.LFE42:
 823              		.size	cmd_help, .-cmd_help
 824              		.section	.text.cmd_read,"ax",%progbits
 825              		.align	2
 826              		.global	cmd_read
 827              		.code	16
 828              		.thumb_func
 829              		.type	cmd_read, %function
 830              	cmd_read:
 831              	.LFB43:
 280:command.c     ****     int until = GPIB_TIMEOUT;
 832              		.loc 1 280 0
ARM GAS  C:\Users\essele\AppData\Local\Temp\ccwoyYCx.s 			page 24


 833              		.cfi_startproc
 834              		@ args = 0, pretend = 0, frame = 16
 835              		@ frame_needed = 0, uses_anonymous_args = 0
 836              	.LVL110:
 837 0000 F0B5     		push	{r4, r5, r6, r7, lr}
 838              		.cfi_def_cfa_offset 20
 839              		.cfi_offset 4, -20
 840              		.cfi_offset 5, -16
 841              		.cfi_offset 6, -12
 842              		.cfi_offset 7, -8
 843              		.cfi_offset 14, -4
 844 0002 85B0     		sub	sp, sp, #20
 845              		.cfi_def_cfa_offset 40
 846 0004 0700     		movs	r7, r0
 847 0006 0C00     		movs	r4, r1
 848 0008 0192     		str	r2, [sp, #4]
 849              	.LVL111:
 282:command.c     ****     int     len;
 850              		.loc 1 282 0
 851 000a FFF7FEFF 		bl	gpib_get_buffer
 852              	.LVL112:
 853 000e 0500     		movs	r5, r0
 854              	.LVL113:
 286:command.c     ****         cmd_usage(argv, cmd);
 855              		.loc 1 286 0
 856 0010 022C     		cmp	r4, #2
 857 0012 05DD     		ble	.L72
 287:command.c     ****         return 1;
 858              		.loc 1 287 0
 859 0014 0199     		ldr	r1, [sp, #4]
 860 0016 3800     		movs	r0, r7
 861              	.LVL114:
 862 0018 FFF7FEFF 		bl	cmd_usage
 863              	.LVL115:
 288:command.c     ****     }
 864              		.loc 1 288 0
 865 001c 0120     		movs	r0, #1
 866 001e 3DE0     		b	.L73
 867              	.LVL116:
 868              	.L72:
 290:command.c     ****         if (strcmp(argv[1], "eoi") == 0) {
 869              		.loc 1 290 0
 870 0020 022C     		cmp	r4, #2
 871 0022 1DD1     		bne	.L77
 291:command.c     ****             until = GPIB_EOI;
 872              		.loc 1 291 0
 873 0024 7C68     		ldr	r4, [r7, #4]
 874              	.LVL117:
 875 0026 1E49     		ldr	r1, .L79
 876 0028 2000     		movs	r0, r4
 877              	.LVL118:
 878 002a FFF7FEFF 		bl	strcmp
 879              	.LVL119:
 880 002e 0028     		cmp	r0, #0
 881 0030 19D0     		beq	.L78
 293:command.c     ****             cmd_usage(argv, cmd);
 882              		.loc 1 293 0
ARM GAS  C:\Users\essele\AppData\Local\Temp\ccwoyYCx.s 			page 25


 883 0032 2000     		movs	r0, r4
 884 0034 FFF7FEFF 		bl	is_int
 885              	.LVL120:
 886 0038 0028     		cmp	r0, #0
 887 003a 05D1     		bne	.L75
 294:command.c     ****             return 1;
 888              		.loc 1 294 0
 889 003c 0199     		ldr	r1, [sp, #4]
 890 003e 3800     		movs	r0, r7
 891 0040 FFF7FEFF 		bl	cmd_usage
 892              	.LVL121:
 295:command.c     ****         } else {
 893              		.loc 1 295 0
 894 0044 0120     		movs	r0, #1
 895 0046 29E0     		b	.L73
 896              	.L75:
 897              	.LBB6:
 297:command.c     ****             if (ch < 0 || ch > 255) {
 898              		.loc 1 297 0
 899 0048 2000     		movs	r0, r4
 900 004a FFF7FEFF 		bl	to_int
 901              	.LVL122:
 902 004e 0600     		movs	r6, r0
 903              	.LVL123:
 298:command.c     ****                 cmd_usage(argv, cmd);
 904              		.loc 1 298 0
 905 0050 FF28     		cmp	r0, #255
 906 0052 0AD9     		bls	.L74
 299:command.c     ****                 return 1;
 907              		.loc 1 299 0
 908 0054 0199     		ldr	r1, [sp, #4]
 909 0056 3800     		movs	r0, r7
 910              	.LVL124:
 911 0058 FFF7FEFF 		bl	cmd_usage
 912              	.LVL125:
 300:command.c     ****             }
 913              		.loc 1 300 0
 914 005c 0120     		movs	r0, #1
 915 005e 1DE0     		b	.L73
 916              	.LVL126:
 917              	.L77:
 918              	.LBE6:
 281:command.c     ****     uint8_t *buf = gpib_get_buffer();
 919              		.loc 1 281 0
 920 0060 0226     		movs	r6, #2
 921 0062 FF36     		adds	r6, r6, #255
 922 0064 01E0     		b	.L74
 923              	.LVL127:
 924              	.L78:
 292:command.c     ****         } else if (!is_int(argv[1])) {
 925              		.loc 1 292 0
 926 0066 8026     		movs	r6, #128
 927 0068 7600     		lsls	r6, r6, #1
 928              	.L74:
 929              	.LVL128:
 306:command.c     ****     
 930              		.loc 1 306 0
ARM GAS  C:\Users\essele\AppData\Local\Temp\ccwoyYCx.s 			page 26


 931 006a 0E4B     		ldr	r3, .L79+4
 932 006c 9879     		ldrb	r0, [r3, #6]
 933 006e FFF7FEFF 		bl	gpib_address_talker
 934              	.LVL129:
 935              	.L76:
 309:command.c     ****         serial_add_string("GOT: ");
 936              		.loc 1 309 0 discriminator 1
 937 0072 03A9     		add	r1, sp, #12
 938 0074 3000     		movs	r0, r6
 939 0076 FFF7FEFF 		bl	gpib_read2
 940              	.LVL130:
 941 007a 0400     		movs	r4, r0
 942              	.LVL131:
 310:command.c     ****         serial_add(buf, len);
 943              		.loc 1 310 0 discriminator 1
 944 007c 0A48     		ldr	r0, .L79+8
 945              	.LVL132:
 946 007e FFF7FEFF 		bl	serial_add_string
 947              	.LVL133:
 311:command.c     ****         serial_add_string("\r\n");
 948              		.loc 1 311 0 discriminator 1
 949 0082 2100     		movs	r1, r4
 950 0084 2800     		movs	r0, r5
 951 0086 FFF7FEFF 		bl	serial_add
 952              	.LVL134:
 312:command.c     ****     } while (ended == GPIB_NOT_ENDED);
 953              		.loc 1 312 0 discriminator 1
 954 008a 0848     		ldr	r0, .L79+12
 955 008c FFF7FEFF 		bl	serial_add_string
 956              	.LVL135:
 313:command.c     ****     serial_flush();
 957              		.loc 1 313 0 discriminator 1
 958 0090 039B     		ldr	r3, [sp, #12]
 959 0092 002B     		cmp	r3, #0
 960 0094 EDD0     		beq	.L76
 314:command.c     ****     return 0;
 961              		.loc 1 314 0
 962 0096 FFF7FEFF 		bl	serial_flush
 963              	.LVL136:
 315:command.c     **** }
 964              		.loc 1 315 0
 965 009a 0020     		movs	r0, #0
 966              	.LVL137:
 967              	.L73:
 316:command.c     **** 
 968              		.loc 1 316 0
 969 009c 05B0     		add	sp, sp, #20
 970              		@ sp needed
 971              	.LVL138:
 972              	.LVL139:
 973 009e F0BD     		pop	{r4, r5, r6, r7, pc}
 974              	.L80:
 975              		.align	2
 976              	.L79:
 977 00a0 FC000000 		.word	.LC35
 978 00a4 00000000 		.word	settings
 979 00a8 00010000 		.word	.LC38
ARM GAS  C:\Users\essele\AppData\Local\Temp\ccwoyYCx.s 			page 27


 980 00ac 08010000 		.word	.LC40
 981              		.cfi_endproc
 982              	.LFE43:
 983              		.size	cmd_read, .-cmd_read
 984              		.section	.text.cmd_config,"ax",%progbits
 985              		.align	2
 986              		.global	cmd_config
 987              		.code	16
 988              		.thumb_func
 989              		.type	cmd_config, %function
 990              	cmd_config:
 991              	.LFB44:
 321:command.c     ****     if (argc != 1) {
 992              		.loc 1 321 0
 993              		.cfi_startproc
 994              		@ args = 0, pretend = 0, frame = 0
 995              		@ frame_needed = 0, uses_anonymous_args = 0
 996              	.LVL140:
 997 0000 70B5     		push	{r4, r5, r6, lr}
 998              		.cfi_def_cfa_offset 16
 999              		.cfi_offset 4, -16
 1000              		.cfi_offset 5, -12
 1001              		.cfi_offset 6, -8
 1002              		.cfi_offset 14, -4
 322:command.c     ****         cmd_usage(argv, cmd);
 1003              		.loc 1 322 0
 1004 0002 0129     		cmp	r1, #1
 1005 0004 28D0     		beq	.L90
 323:command.c     ****         return 1;
 1006              		.loc 1 323 0
 1007 0006 1100     		movs	r1, r2
 1008              	.LVL141:
 1009 0008 FFF7FEFF 		bl	cmd_usage
 1010              	.LVL142:
 324:command.c     ****     }
 1011              		.loc 1 324 0
 1012 000c 0120     		movs	r0, #1
 1013 000e 2AE0     		b	.L83
 1014              	.LVL143:
 1015              	.L89:
 329:command.c     ****             uint16_t value = *(commands[i].setting);
 1016              		.loc 1 329 0
 1017 0010 6B01     		lsls	r3, r5, #5
 1018 0012 154A     		ldr	r2, .L91
 1019 0014 D318     		adds	r3, r2, r3
 1020 0016 9B68     		ldr	r3, [r3, #8]
 1021 0018 002B     		cmp	r3, #0
 1022 001a 1BD0     		beq	.L84
 1023              	.LBB7:
 330:command.c     ****             char    *meaning = NULL;
 1024              		.loc 1 330 0
 1025 001c 1A88     		ldrh	r2, [r3]
 1026              	.LVL144:
 333:command.c     ****                 const struct item_meaning *m = commands[i].meanings;
 1027              		.loc 1 333 0
 1028 001e 6B01     		lsls	r3, r5, #5
 1029 0020 1148     		ldr	r0, .L91
ARM GAS  C:\Users\essele\AppData\Local\Temp\ccwoyYCx.s 			page 28


 1030 0022 C318     		adds	r3, r0, r3
 1031 0024 9B69     		ldr	r3, [r3, #24]
 1032 0026 002B     		cmp	r3, #0
 1033 0028 05D1     		bne	.L85
 331:command.c     ****             
 1034              		.loc 1 331 0
 1035 002a 0024     		movs	r4, #0
 1036 002c 06E0     		b	.L86
 1037              	.LVL145:
 1038              	.L87:
 1039              	.LBB8:
 336:command.c     ****                         meaning = m->meaning;
 1040              		.loc 1 336 0
 1041 002e 1868     		ldr	r0, [r3]
 1042 0030 9042     		cmp	r0, r2
 1043 0032 03D0     		beq	.L86
 340:command.c     ****                 }
 1044              		.loc 1 340 0
 1045 0034 0833     		adds	r3, r3, #8
 1046              	.LVL146:
 1047              	.L85:
 335:command.c     ****                     if (m->value == value) {
 1048              		.loc 1 335 0
 1049 0036 5C68     		ldr	r4, [r3, #4]
 1050 0038 002C     		cmp	r4, #0
 1051 003a F8D1     		bne	.L87
 1052              	.LVL147:
 1053              	.L86:
 1054              	.LBE8:
 343:command.c     ****             if (meaning) {
 1055              		.loc 1 343 0
 1056 003c 0B48     		ldr	r0, .L91+4
 1057 003e FFF7FEFF 		bl	serial_printf
 1058              	.LVL148:
 344:command.c     ****                 serial_printf(" (%s)", meaning);
 1059              		.loc 1 344 0
 1060 0042 002C     		cmp	r4, #0
 1061 0044 03D0     		beq	.L88
 345:command.c     ****             }
 1062              		.loc 1 345 0
 1063 0046 2100     		movs	r1, r4
 1064 0048 0948     		ldr	r0, .L91+8
 1065 004a FFF7FEFF 		bl	serial_printf
 1066              	.LVL149:
 1067              	.L88:
 347:command.c     ****         }
 1068              		.loc 1 347 0
 1069 004e 0948     		ldr	r0, .L91+12
 1070 0050 FFF7FEFF 		bl	serial_printf
 1071              	.LVL150:
 1072              	.L84:
 1073              	.LBE7:
 349:command.c     ****     }   
 1074              		.loc 1 349 0
 1075 0054 0135     		adds	r5, r5, #1
 1076              	.LVL151:
 1077 0056 00E0     		b	.L82
ARM GAS  C:\Users\essele\AppData\Local\Temp\ccwoyYCx.s 			page 29


 1078              	.LVL152:
 1079              	.L90:
 1080 0058 0025     		movs	r5, #0
 1081              	.LVL153:
 1082              	.L82:
 328:command.c     ****         if (commands[i].setting != NULL) {
 1083              		.loc 1 328 0
 1084 005a 6B01     		lsls	r3, r5, #5
 1085 005c 024A     		ldr	r2, .L91
 1086 005e 9958     		ldr	r1, [r3, r2]
 1087 0060 0029     		cmp	r1, #0
 1088 0062 D5D1     		bne	.L89
 351:command.c     **** }
 1089              		.loc 1 351 0
 1090 0064 0020     		movs	r0, #0
 1091              	.LVL154:
 1092              	.L83:
 352:command.c     **** 
 1093              		.loc 1 352 0
 1094              		@ sp needed
 1095 0066 70BD     		pop	{r4, r5, r6, pc}
 1096              	.L92:
 1097              		.align	2
 1098              	.L91:
 1099 0068 00000000 		.word	.LANCHOR1
 1100 006c 0C010000 		.word	.LC43
 1101 0070 1C010000 		.word	.LC45
 1102 0074 08010000 		.word	.LC40
 1103              		.cfi_endproc
 1104              	.LFE44:
 1105              		.size	cmd_config, .-cmd_config
 1106              		.global	enable_disable_usage
 1107              		.global	eos_means
 1108              		.global	enable_disable_means
 1109              		.global	auto_means
 1110              		.global	no_usage_args
 1111              		.global	commands
 1112              		.global	tok_count
 1113              		.comm	toks,80,4
 1114              		.section	.rodata
 1115              		.align	2
 1116              		.set	.LANCHOR1,. + 0
 1117              		.type	commands, %object
 1118              		.size	commands, 416
 1119              	commands:
 1120 0000 C4020000 		.word	.LC69
 1121 0004 00000000 		.word	cmd_uint
 1122 0008 06000000 		.word	settings+6
 1123 000c 0000     		.short	0
 1124 000e 1E00     		.short	30
 1125 0010 CC020000 		.word	.LC70
 1126 0014 3C000000 		.word	__compound_literal.0
 1127 0018 00000000 		.word	0
 1128 001c 00000000 		.word	0
 1129 0020 F8020000 		.word	.LC71
 1130 0024 00000000 		.word	cmd_uint
 1131 0028 08000000 		.word	settings+8
ARM GAS  C:\Users\essele\AppData\Local\Temp\ccwoyYCx.s 			page 30


 1132 002c 0000     		.short	0
 1133 002e 0200     		.short	2
 1134 0030 00030000 		.word	.LC72
 1135 0034 34000000 		.word	__compound_literal.1
 1136 0038 00000000 		.word	auto_means
 1137 003c 00000000 		.word	0
 1138 0040 FC000000 		.word	.LC35
 1139 0044 00000000 		.word	cmd_uint
 1140 0048 08000000 		.word	settings+8
 1141 004c 0000     		.short	0
 1142 004e 0100     		.short	1
 1143 0050 28030000 		.word	.LC73
 1144 0054 00000000 		.word	enable_disable_usage
 1145 0058 00000000 		.word	enable_disable_means
 1146 005c 00000000 		.word	0
 1147 0060 64030000 		.word	.LC74
 1148 0064 00000000 		.word	cmd_uint
 1149 0068 0C000000 		.word	settings+12
 1150 006c 0000     		.short	0
 1151 006e 0100     		.short	1
 1152 0070 68030000 		.word	.LC75
 1153 0074 2C000000 		.word	__compound_literal.2
 1154 0078 00000000 		.word	eos_means
 1155 007c 00000000 		.word	0
 1156 0080 94030000 		.word	.LC76
 1157 0084 00000000 		.word	cmd_uint
 1158 0088 0E000000 		.word	settings+14
 1159 008c 0000     		.short	0
 1160 008e FF00     		.short	255
 1161 0090 A0030000 		.word	.LC77
 1162 0094 20000000 		.word	__compound_literal.3
 1163 0098 00000000 		.word	0
 1164 009c 00000000 		.word	0
 1165 00a0 C8030000 		.word	.LC78
 1166 00a4 00000000 		.word	cmd_uint
 1167 00a8 10000000 		.word	settings+16
 1168 00ac 0000     		.short	0
 1169 00ae 0100     		.short	1
 1170 00b0 D4030000 		.word	.LC79
 1171 00b4 00000000 		.word	enable_disable_usage
 1172 00b8 00000000 		.word	enable_disable_means
 1173 00bc 00000000 		.word	0
 1174 00c0 F8030000 		.word	.LC80
 1175 00c4 00000000 		.word	cmd_help
 1176 00c8 00000000 		.word	0
 1177 00cc 0000     		.short	0
 1178 00ce 0000     		.short	0
 1179 00d0 00040000 		.word	.LC81
 1180 00d4 18000000 		.word	__compound_literal.4
 1181 00d8 00000000 		.word	0
 1182 00dc 00000000 		.word	0
 1183 00e0 18040000 		.word	.LC82
 1184 00e4 00000000 		.word	cmd_read
 1185 00e8 00000000 		.word	0
 1186 00ec 0000     		.short	0
 1187 00ee 0000     		.short	0
 1188 00f0 20040000 		.word	.LC83
ARM GAS  C:\Users\essele\AppData\Local\Temp\ccwoyYCx.s 			page 31


 1189 00f4 0C000000 		.word	__compound_literal.5
 1190 00f8 00000000 		.word	0
 1191 00fc 00000000 		.word	0
 1192 0100 38040000 		.word	.LC84
 1193 0104 00000000 		.word	cmd_uint
 1194 0108 12000000 		.word	settings+18
 1195 010c 0100     		.short	1
 1196 010e B80B     		.short	3000
 1197 0110 44040000 		.word	.LC85
 1198 0114 00000000 		.word	__compound_literal.6
 1199 0118 00000000 		.word	0
 1200 011c 00000000 		.word	0
 1201 0120 60040000 		.word	.LC86
 1202 0124 00000000 		.word	cmd_noargs
 1203 0128 00000000 		.word	0
 1204 012c 0000     		.short	0
 1205 012e 0000     		.short	0
 1206 0130 64040000 		.word	.LC87
 1207 0134 00000000 		.word	no_usage_args
 1208 0138 00000000 		.word	0
 1209 013c 00000000 		.word	helper_version
 1210 0140 90040000 		.word	.LC88
 1211 0144 00000000 		.word	cmd_config
 1212 0148 00000000 		.word	0
 1213 014c 0000     		.short	0
 1214 014e 0000     		.short	0
 1215 0150 98040000 		.word	.LC89
 1216 0154 00000000 		.word	no_usage_args
 1217 0158 00000000 		.word	0
 1218 015c 00000000 		.word	0
 1219 0160 BC040000 		.word	.LC90
 1220 0164 00000000 		.word	cmd_noargs
 1221 0168 00000000 		.word	0
 1222 016c 0000     		.short	0
 1223 016e 0000     		.short	0
 1224 0170 C0040000 		.word	.LC91
 1225 0174 00000000 		.word	no_usage_args
 1226 0178 00000000 		.word	0
 1227 017c 00000000 		.word	helper_gpiball
 1228 0180 00000000 		.word	0
 1229 0184 00000000 		.word	0
 1230 0188 00000000 		.word	0
 1231 018c 0000     		.short	0
 1232 018e 0000     		.short	0
 1233 0190 00000000 		.word	0
 1234 0194 00000000 		.word	no_usage_args
 1235 0198 00000000 		.word	0
 1236 019c 00000000 		.word	0
 1237              		.type	eos_means, %object
 1238              		.size	eos_means, 40
 1239              	eos_means:
 1240 01a0 00000000 		.word	0
 1241 01a4 DC010000 		.word	.LC59
 1242 01a8 01000000 		.word	1
 1243 01ac F8010000 		.word	.LC60
 1244 01b0 02000000 		.word	2
 1245 01b4 14020000 		.word	.LC61
ARM GAS  C:\Users\essele\AppData\Local\Temp\ccwoyYCx.s 			page 32


 1246 01b8 03000000 		.word	3
 1247 01bc 30020000 		.word	.LC62
 1248 01c0 00000000 		.word	0
 1249 01c4 00000000 		.word	0
 1250              		.type	enable_disable_means, %object
 1251              		.size	enable_disable_means, 24
 1252              	enable_disable_means:
 1253 01c8 00000000 		.word	0
 1254 01cc 50020000 		.word	.LC63
 1255 01d0 01000000 		.word	1
 1256 01d4 5C020000 		.word	.LC64
 1257 01d8 00000000 		.word	0
 1258 01dc 00000000 		.word	0
 1259              		.type	auto_means, %object
 1260              		.size	auto_means, 32
 1261              	auto_means:
 1262 01e0 00000000 		.word	0
 1263 01e4 64020000 		.word	.LC65
 1264 01e8 01000000 		.word	1
 1265 01ec 80020000 		.word	.LC66
 1266 01f0 02000000 		.word	2
 1267 01f4 98020000 		.word	.LC67
 1268 01f8 00000000 		.word	0
 1269 01fc 00000000 		.word	0
 1270              		.data
 1271              		.align	2
 1272              		.type	__compound_literal.6, %object
 1273              		.size	__compound_literal.6, 12
 1274              	__compound_literal.6:
 1275 0000 24010000 		.word	.LC48
 1276 0004 2C010000 		.word	.LC49
 1277 0008 00000000 		.word	0
 1278              		.type	__compound_literal.5, %object
 1279              		.size	__compound_literal.5, 12
 1280              	__compound_literal.5:
 1281 000c 50010000 		.word	.LC50
 1282 0010 60010000 		.word	.LC51
 1283 0014 00000000 		.word	0
 1284              		.type	__compound_literal.4, %object
 1285              		.size	__compound_literal.4, 8
 1286              	__compound_literal.4:
 1287 0018 84010000 		.word	.LC52
 1288 001c 00000000 		.word	0
 1289              		.type	__compound_literal.3, %object
 1290              		.size	__compound_literal.3, 12
 1291              	__compound_literal.3:
 1292 0020 90010000 		.word	.LC53
 1293 0024 60010000 		.word	.LC51
 1294 0028 00000000 		.word	0
 1295              		.type	__compound_literal.2, %object
 1296              		.size	__compound_literal.2, 8
 1297              	__compound_literal.2:
 1298 002c 98010000 		.word	.LC54
 1299 0030 00000000 		.word	0
 1300              		.type	__compound_literal.1, %object
 1301              		.size	__compound_literal.1, 8
 1302              	__compound_literal.1:
ARM GAS  C:\Users\essele\AppData\Local\Temp\ccwoyYCx.s 			page 33


 1303 0034 A4010000 		.word	.LC55
 1304 0038 00000000 		.word	0
 1305              		.type	__compound_literal.0, %object
 1306              		.size	__compound_literal.0, 12
 1307              	__compound_literal.0:
 1308 003c AC010000 		.word	.LC56
 1309 0040 B4010000 		.word	.LC57
 1310 0044 00000000 		.word	0
 1311              		.type	enable_disable_usage, %object
 1312              		.size	enable_disable_usage, 8
 1313              	enable_disable_usage:
 1314 0048 D4010000 		.word	.LC58
 1315 004c 00000000 		.word	0
 1316              		.type	no_usage_args, %object
 1317              		.size	no_usage_args, 8
 1318              	no_usage_args:
 1319 0050 C0020000 		.word	.LC68
 1320 0054 00000000 		.word	0
 1321              		.section	.rodata.str1.4,"aMS",%progbits,1
 1322              		.align	2
 1323              	.LC0:
 1324 0000 79617567 		.ascii	"yaugi %d.%d by Lee Essen\015\012\000"
 1324      69202564 
 1324      2E256420 
 1324      6279204C 
 1324      65652045 
 1325 001b 00       		.space	1
 1326              	.LC2:
 1327 001c 70696E20 		.ascii	"pin status = %04x\015\012\000"
 1327      73746174 
 1327      7573203D 
 1327      20253034 
 1327      780D0A00 
 1328              	.LC5:
 1329 0030 200900   		.ascii	" \011\000"
 1330 0033 00       		.space	1
 1331              	.LC8:
 1332 0034 3C657272 		.ascii	"<error: too many tokens>\015\012\000"
 1332      6F723A20 
 1332      746F6F20 
 1332      6D616E79 
 1332      20746F6B 
 1333 004f 00       		.space	1
 1334              	.LC10:
 1335 0050 30313233 		.ascii	"0123456789\000"
 1335      34353637 
 1335      383900
 1336 005b 00       		.space	1
 1337              	.LC14:
 1338 005c 3C657272 		.ascii	"<error: unknown ++ command>\015\012\000"
 1338      6F723A20 
 1338      756E6B6E 
 1338      6F776E20 
 1338      2B2B2063 
 1339 007a 0000     		.space	2
 1340              	.LC16:
 1341 007c 3C757361 		.ascii	"<usage: ++%s\000"
ARM GAS  C:\Users\essele\AppData\Local\Temp\ccwoyYCx.s 			page 34


 1341      67653A20 
 1341      2B2B2573 
 1341      00
 1342 0089 000000   		.space	3
 1343              	.LC18:
 1344 008c 20257300 		.ascii	" %s\000"
 1345              	.LC20:
 1346 0090 3E0D0A00 		.ascii	">\015\012\000"
 1347              	.LC22:
 1348 0094 25730D0A 		.ascii	"%s\015\012\000"
 1348      00
 1349 0099 000000   		.space	3
 1350              	.LC24:
 1351 009c 09256420 		.ascii	"\011%d - %s\015\012\000"
 1351      2D202573 
 1351      0D0A00
 1352 00a7 00       		.space	1
 1353              	.LC26:
 1354 00a8 09286375 		.ascii	"\011(current setting: %d)\015\012\000"
 1354      7272656E 
 1354      74207365 
 1354      7474696E 
 1354      673A2025 
 1355 00c1 000000   		.space	3
 1356              	.LC28:
 1357 00c4 25640D0A 		.ascii	"%d\015\012\000"
 1357      00
 1358 00c9 000000   		.space	3
 1359              	.LC31:
 1360 00cc 2B2B252D 		.ascii	"++%-12.12s\011%s\015\012\000"
 1360      31322E31 
 1360      32730925 
 1360      730D0A00 
 1361              	.LC33:
 1362 00dc 3C657272 		.ascii	"<error: unknown command: %s>\015\012\000"
 1362      6F723A20 
 1362      756E6B6E 
 1362      6F776E20 
 1362      636F6D6D 
 1363 00fb 00       		.space	1
 1364              	.LC35:
 1365 00fc 656F6900 		.ascii	"eoi\000"
 1366              	.LC38:
 1367 0100 474F543A 		.ascii	"GOT: \000"
 1367      2000
 1368 0106 0000     		.space	2
 1369              	.LC40:
 1370 0108 0D0A00   		.ascii	"\015\012\000"
 1371 010b 00       		.space	1
 1372              	.LC43:
 1373 010c 252D3130 		.ascii	"%-10.10s = %d\000"
 1373      2E313073 
 1373      203D2025 
 1373      6400
 1374 011a 0000     		.space	2
 1375              	.LC45:
 1376 011c 20282573 		.ascii	" (%s)\000"
ARM GAS  C:\Users\essele\AppData\Local\Temp\ccwoyYCx.s 			page 35


 1376      2900
 1377 0122 0000     		.space	2
 1378              	.LC48:
 1379 0124 5B74696D 		.ascii	"[time]\000"
 1379      655D00
 1380 012b 00       		.space	1
 1381              	.LC49:
 1382 012c 09776865 		.ascii	"\011where time is between 1 and 3000\000"
 1382      72652074 
 1382      696D6520 
 1382      69732062 
 1382      65747765 
 1383 014e 0000     		.space	2
 1384              	.LC50:
 1385 0150 5B454F49 		.ascii	"[EOI | char]\000"
 1385      207C2063 
 1385      6861725D 
 1385      00
 1386 015d 000000   		.space	3
 1387              	.LC51:
 1388 0160 09776865 		.ascii	"\011where char is between 0 and 255\000"
 1388      72652063 
 1388      68617220 
 1388      69732062 
 1388      65747765 
 1389 0181 000000   		.space	3
 1390              	.LC52:
 1391 0184 5B636F6D 		.ascii	"[command]\000"
 1391      6D616E64 
 1391      5D00
 1392 018e 0000     		.space	2
 1393              	.LC53:
 1394 0190 5B636861 		.ascii	"[char]\000"
 1394      725D00
 1395 0197 00       		.space	1
 1396              	.LC54:
 1397 0198 5B307C31 		.ascii	"[0|1|2|3]\000"
 1397      7C327C33 
 1397      5D00
 1398 01a2 0000     		.space	2
 1399              	.LC55:
 1400 01a4 5B307C31 		.ascii	"[0|1|2]\000"
 1400      7C325D00 
 1401              	.LC56:
 1402 01ac 5B504144 		.ascii	"[PAD]\000"
 1402      5D00
 1403 01b2 0000     		.space	2
 1404              	.LC57:
 1405 01b4 09776865 		.ascii	"\011where PAD is between 0 and 30\000"
 1405      72652050 
 1405      41442069 
 1405      73206265 
 1405      74776565 
 1406 01d3 00       		.space	1
 1407              	.LC58:
 1408 01d4 5B307C31 		.ascii	"[0|1]\000"
 1408      5D00
ARM GAS  C:\Users\essele\AppData\Local\Temp\ccwoyYCx.s 			page 36


 1409 01da 0000     		.space	2
 1410              	.LC59:
 1411 01dc 61707065 		.ascii	"append CR+LF to GPIB output\000"
 1411      6E642043 
 1411      522B4C46 
 1411      20746F20 
 1411      47504942 
 1412              	.LC60:
 1413 01f8 61707065 		.ascii	"append CR to GPIB output\000"
 1413      6E642043 
 1413      5220746F 
 1413      20475049 
 1413      42206F75 
 1414 0211 000000   		.space	3
 1415              	.LC61:
 1416 0214 61707065 		.ascii	"append LF to GPIB output\000"
 1416      6E64204C 
 1416      4620746F 
 1416      20475049 
 1416      42206F75 
 1417 022d 000000   		.space	3
 1418              	.LC62:
 1419 0230 646F206E 		.ascii	"do not append to GPIB output\000"
 1419      6F742061 
 1419      7070656E 
 1419      6420746F 
 1419      20475049 
 1420 024d 000000   		.space	3
 1421              	.LC63:
 1422 0250 64697361 		.ascii	"disabled\000"
 1422      626C6564 
 1422      00
 1423 0259 000000   		.space	3
 1424              	.LC64:
 1425 025c 656E6162 		.ascii	"enabled\000"
 1425      6C656400 
 1426              	.LC65:
 1427 0264 72656164 		.ascii	"read-after-write disabled\000"
 1427      2D616674 
 1427      65722D77 
 1427      72697465 
 1427      20646973 
 1428 027e 0000     		.space	2
 1429              	.LC66:
 1430 0280 72656164 		.ascii	"read-after-write always\000"
 1430      2D616674 
 1430      65722D77 
 1430      72697465 
 1430      20616C77 
 1431              	.LC67:
 1432 0298 72656164 		.ascii	"read-after-write if write contained ?\000"
 1432      2D616674 
 1432      65722D77 
 1432      72697465 
 1432      20696620 
 1433 02be 0000     		.space	2
 1434              	.LC68:
ARM GAS  C:\Users\essele\AppData\Local\Temp\ccwoyYCx.s 			page 37


 1435 02c0 00       		.ascii	"\000"
 1436 02c1 000000   		.space	3
 1437              	.LC69:
 1438 02c4 61646472 		.ascii	"addr\000"
 1438      00
 1439 02c9 000000   		.space	3
 1440              	.LC70:
 1441 02cc 436F6E66 		.ascii	"Configure or query the GPIB device address\000"
 1441      69677572 
 1441      65206F72 
 1441      20717565 
 1441      72792074 
 1442 02f7 00       		.space	1
 1443              	.LC71:
 1444 02f8 6175746F 		.ascii	"auto\000"
 1444      00
 1445 02fd 000000   		.space	3
 1446              	.LC72:
 1447 0300 436F6E66 		.ascii	"Configure automatic read after write\000"
 1447      69677572 
 1447      65206175 
 1447      746F6D61 
 1447      74696320 
 1448 0325 000000   		.space	3
 1449              	.LC73:
 1450 0328 41737365 		.ascii	"Assertion of EOI line with the last transmitted cha"
 1450      7274696F 
 1450      6E206F66 
 1450      20454F49 
 1450      206C696E 
 1451 035b 72616374 		.ascii	"racter\000"
 1451      657200
 1452 0362 0000     		.space	2
 1453              	.LC74:
 1454 0364 656F7300 		.ascii	"eos\000"
 1455              	.LC75:
 1456 0368 41707065 		.ascii	"Append specific terminator to GPIB output\000"
 1456      6E642073 
 1456      70656369 
 1456      66696320 
 1456      7465726D 
 1457 0392 0000     		.space	2
 1458              	.LC76:
 1459 0394 656F745F 		.ascii	"eot_char\000"
 1459      63686172 
 1459      00
 1460 039d 000000   		.space	3
 1461              	.LC77:
 1462 03a0 43686172 		.ascii	"Character to add for EOI if eot_enable\000"
 1462      61637465 
 1462      7220746F 
 1462      20616464 
 1462      20666F72 
 1463 03c7 00       		.space	1
 1464              	.LC78:
 1465 03c8 656F745F 		.ascii	"eot_enable\000"
 1465      656E6162 
ARM GAS  C:\Users\essele\AppData\Local\Temp\ccwoyYCx.s 			page 38


 1465      6C6500
 1466 03d3 00       		.space	1
 1467              	.LC79:
 1468 03d4 41707065 		.ascii	"Append eot_char when EOI detected\000"
 1468      6E642065 
 1468      6F745F63 
 1468      68617220 
 1468      7768656E 
 1469 03f6 0000     		.space	2
 1470              	.LC80:
 1471 03f8 68656C70 		.ascii	"help\000"
 1471      00
 1472 03fd 000000   		.space	3
 1473              	.LC81:
 1474 0400 44697370 		.ascii	"Display command list\000"
 1474      6C617920 
 1474      636F6D6D 
 1474      616E6420 
 1474      6C697374 
 1475 0415 000000   		.space	3
 1476              	.LC82:
 1477 0418 72656164 		.ascii	"read\000"
 1477      00
 1478 041d 000000   		.space	3
 1479              	.LC83:
 1480 0420 52656164 		.ascii	"Read from the device\000"
 1480      2066726F 
 1480      6D207468 
 1480      65206465 
 1480      76696365 
 1481 0435 000000   		.space	3
 1482              	.LC84:
 1483 0438 72656164 		.ascii	"read_tmo_ms\000"
 1483      5F746D6F 
 1483      5F6D7300 
 1484              	.LC85:
 1485 0444 52656164 		.ascii	"Read timeout value in ms\000"
 1485      2074696D 
 1485      656F7574 
 1485      2076616C 
 1485      75652069 
 1486 045d 000000   		.space	3
 1487              	.LC86:
 1488 0460 76657200 		.ascii	"ver\000"
 1489              	.LC87:
 1490 0464 52657475 		.ascii	"Return the version of the yaugi firmware\000"
 1490      726E2074 
 1490      68652076 
 1490      65727369 
 1490      6F6E206F 
 1491 048d 000000   		.space	3
 1492              	.LC88:
 1493 0490 636F6E66 		.ascii	"config\000"
 1493      696700
 1494 0497 00       		.space	1
 1495              	.LC89:
 1496 0498 53686F77 		.ascii	"Show current configuration settings\000"
ARM GAS  C:\Users\essele\AppData\Local\Temp\ccwoyYCx.s 			page 39


 1496      20637572 
 1496      72656E74 
 1496      20636F6E 
 1496      66696775 
 1497              	.LC90:
 1498 04bc 787800   		.ascii	"xx\000"
 1499 04bf 00       		.space	1
 1500              	.LC91:
 1501 04c0 52656164 		.ascii	"Read all pins\000"
 1501      20616C6C 
 1501      2070696E 
 1501      7300
 1502              		.bss
 1503              		.align	2
 1504              		.set	.LANCHOR0,. + 0
 1505              		.type	tok_count, %object
 1506              		.size	tok_count, 4
 1507              	tok_count:
 1508 0000 00000000 		.space	4
 1509              		.text
 1510              	.Letext0:
 1511              		.file 2 "c:\\program files (x86)\\cypress\\psoc creator\\4.2\\psoc creator\\import\\gnu\\arm\\5.4.
 1512              		.file 3 "c:\\program files (x86)\\cypress\\psoc creator\\4.2\\psoc creator\\import\\gnu\\arm\\5.4.
 1513              		.file 4 "settings.h"
 1514              		.file 5 "serial.h"
 1515              		.file 6 "gpib.h"
 1516              		.file 7 "c:\\program files (x86)\\cypress\\psoc creator\\4.2\\psoc creator\\import\\gnu\\arm\\5.4.