ARM GAS  C:\Users\essele\AppData\Local\Temp\cchUVvdf.s 			page 1


   1              		.syntax unified
   2              		.cpu cortex-m0
   3              		.fpu softvfp
   4              		.eabi_attribute 20, 1
   5              		.eabi_attribute 21, 1
   6              		.eabi_attribute 23, 3
   7              		.eabi_attribute 24, 1
   8              		.eabi_attribute 25, 1
   9              		.eabi_attribute 26, 1
  10              		.eabi_attribute 30, 1
  11              		.eabi_attribute 34, 0
  12              		.eabi_attribute 18, 4
  13              		.thumb
  14              		.syntax unified
  15              		.file	"CyLib.c"
  16              		.text
  17              	.Ltext0:
  18              		.cfi_sections	.debug_frame
  19              		.section	.text.CySysClkImoDisableWcoLock,"ax",%progbits
  20              		.align	2
  21              		.global	CySysClkImoDisableWcoLock
  22              		.code	16
  23              		.thumb_func
  24              		.type	CySysClkImoDisableWcoLock, %function
  25              	CySysClkImoDisableWcoLock:
  26              	.LFB4:
  27              		.file 1 "Generated_Source\\PSoC4\\CyLib.c"
   1:Generated_Source\PSoC4/CyLib.c **** /***************************************************************************//**
   2:Generated_Source\PSoC4/CyLib.c **** * \file CyLib.c
   3:Generated_Source\PSoC4/CyLib.c **** * \version 5.80
   4:Generated_Source\PSoC4/CyLib.c **** *
   5:Generated_Source\PSoC4/CyLib.c **** * \brief Provides a system API for the Clocking, Interrupts, SysTick, and
   6:Generated_Source\PSoC4/CyLib.c **** * Voltage Detect.
   7:Generated_Source\PSoC4/CyLib.c **** *
   8:Generated_Source\PSoC4/CyLib.c **** * \note Documentation of the API's in this file is located in the PSoC 4 System
   9:Generated_Source\PSoC4/CyLib.c **** * Reference Guide provided with PSoC Creator.
  10:Generated_Source\PSoC4/CyLib.c **** *
  11:Generated_Source\PSoC4/CyLib.c **** ********************************************************************************
  12:Generated_Source\PSoC4/CyLib.c **** * \copyright
  13:Generated_Source\PSoC4/CyLib.c **** * Copyright 2010-2018, Cypress Semiconductor Corporation.  All rights reserved.
  14:Generated_Source\PSoC4/CyLib.c **** * You may use this file only in accordance with the license, terms, conditions,
  15:Generated_Source\PSoC4/CyLib.c **** * disclaimers, and limitations in the end user license agreement accompanying
  16:Generated_Source\PSoC4/CyLib.c **** * the software package with which this file was provided.
  17:Generated_Source\PSoC4/CyLib.c **** *******************************************************************************/
  18:Generated_Source\PSoC4/CyLib.c **** 
  19:Generated_Source\PSoC4/CyLib.c **** #include "CyLib.h"
  20:Generated_Source\PSoC4/CyLib.c **** 
  21:Generated_Source\PSoC4/CyLib.c **** /* CySysClkWriteImoFreq() || CySysClkImoEnableWcoLock() */
  22:Generated_Source\PSoC4/CyLib.c **** #if ((CY_IP_SRSSV2 && CY_IP_FMLT) || CY_IP_IMO_TRIMMABLE_BY_WCO)
  23:Generated_Source\PSoC4/CyLib.c ****     #include "CyFlash.h"
  24:Generated_Source\PSoC4/CyLib.c **** #endif /* (CY_IP_SRSSV2 && CY_IP_FMLT) */
  25:Generated_Source\PSoC4/CyLib.c **** 
  26:Generated_Source\PSoC4/CyLib.c **** /* Do not use these definitions directly in your application */
  27:Generated_Source\PSoC4/CyLib.c **** uint32 cydelayFreqHz  = CYDEV_BCLK__SYSCLK__HZ;
  28:Generated_Source\PSoC4/CyLib.c **** uint32 cydelayFreqKhz = (CYDEV_BCLK__SYSCLK__HZ + CY_DELAY_1K_MINUS_1_THRESHOLD) / CY_DELAY_1K_THRE
  29:Generated_Source\PSoC4/CyLib.c **** uint8  cydelayFreqMhz = (uint8)((CYDEV_BCLK__SYSCLK__HZ + CY_DELAY_1M_MINUS_1_THRESHOLD) / CY_DELAY
  30:Generated_Source\PSoC4/CyLib.c **** uint32 cydelay32kMs   = CY_DELAY_MS_OVERFLOW * ((CYDEV_BCLK__SYSCLK__HZ + CY_DELAY_1K_MINUS_1_THRES
ARM GAS  C:\Users\essele\AppData\Local\Temp\cchUVvdf.s 			page 2


  31:Generated_Source\PSoC4/CyLib.c ****                         CY_DELAY_1K_THRESHOLD);
  32:Generated_Source\PSoC4/CyLib.c **** 
  33:Generated_Source\PSoC4/CyLib.c **** 
  34:Generated_Source\PSoC4/CyLib.c **** static cySysTickCallback CySysTickCallbacks[CY_SYS_SYST_NUM_OF_CALLBACKS];
  35:Generated_Source\PSoC4/CyLib.c **** static void CySysTickServiceCallbacks(void);
  36:Generated_Source\PSoC4/CyLib.c **** 
  37:Generated_Source\PSoC4/CyLib.c **** #if (CY_IP_PLL)
  38:Generated_Source\PSoC4/CyLib.c ****     static uint32 CySysClkPllGetBypassMode(uint32 pll);
  39:Generated_Source\PSoC4/CyLib.c ****     static cystatus CySysClkPllConfigChangeAllowed(uint32 pll);
  40:Generated_Source\PSoC4/CyLib.c **** #endif /* (CY_IP_PLL) */
  41:Generated_Source\PSoC4/CyLib.c **** 
  42:Generated_Source\PSoC4/CyLib.c **** 
  43:Generated_Source\PSoC4/CyLib.c **** /***************************************************************************//**
  44:Generated_Source\PSoC4/CyLib.c **** * Indicates whether or not the SysTick has been initialized. The variable is
  45:Generated_Source\PSoC4/CyLib.c **** * initialized to 0 and set to 1 the first time CySysTickStart() is called.
  46:Generated_Source\PSoC4/CyLib.c **** *
  47:Generated_Source\PSoC4/CyLib.c **** * This allows the component to restart without reinitialization after the first
  48:Generated_Source\PSoC4/CyLib.c **** * call to the CySysTickStart() routine.
  49:Generated_Source\PSoC4/CyLib.c **** *
  50:Generated_Source\PSoC4/CyLib.c **** * If reinitialization of the SysTick is required, call CySysTickInit() before
  51:Generated_Source\PSoC4/CyLib.c **** * calling CySysTickStart(). Alternatively, the SysTick can be reinitialized by
  52:Generated_Source\PSoC4/CyLib.c **** * calling the CySysTickInit() and CySysTickEnable() functions.
  53:Generated_Source\PSoC4/CyLib.c **** *******************************************************************************/
  54:Generated_Source\PSoC4/CyLib.c **** uint32 CySysTickInitVar = 0u;
  55:Generated_Source\PSoC4/CyLib.c **** 
  56:Generated_Source\PSoC4/CyLib.c **** 
  57:Generated_Source\PSoC4/CyLib.c **** #if(CY_IP_SRSSV2)
  58:Generated_Source\PSoC4/CyLib.c ****         /* Conversion between CySysClkWriteImoFreq() parameter and register's value */
  59:Generated_Source\PSoC4/CyLib.c ****         const uint8 cyImoFreqMhz2Reg[CY_SYS_CLK_IMO_FREQ_TABLE_SIZE] = {
  60:Generated_Source\PSoC4/CyLib.c ****             /*  3 MHz */ 0x03u,  /*  4 MHz */ 0x04u,  /*  5 MHz */ 0x05u,  /*  6 MHz */ 0x06u,
  61:Generated_Source\PSoC4/CyLib.c ****             /*  7 MHz */ 0x07u,  /*  8 MHz */ 0x08u,  /*  9 MHz */ 0x09u,  /* 10 MHz */ 0x0Au,
  62:Generated_Source\PSoC4/CyLib.c ****             /* 11 MHz */ 0x0Bu,  /* 12 MHz */ 0x0Cu,  /* 13 MHz */ 0x0Eu,  /* 14 MHz */ 0x0Fu,
  63:Generated_Source\PSoC4/CyLib.c ****             /* 15 MHz */ 0x10u,  /* 16 MHz */ 0x11u,  /* 17 MHz */ 0x12u,  /* 18 MHz */ 0x13u,
  64:Generated_Source\PSoC4/CyLib.c ****             /* 19 MHz */ 0x14u,  /* 20 MHz */ 0x15u,  /* 21 MHz */ 0x16u,  /* 22 MHz */ 0x17u,
  65:Generated_Source\PSoC4/CyLib.c ****             /* 23 MHz */ 0x18u,  /* 24 MHz */ 0x19u,  /* 25 MHz */ 0x1Bu,  /* 26 MHz */ 0x1Cu,
  66:Generated_Source\PSoC4/CyLib.c ****             /* 27 MHz */ 0x1Du,  /* 28 MHz */ 0x1Eu,  /* 29 MHz */ 0x1Fu,  /* 30 MHz */ 0x20u,
  67:Generated_Source\PSoC4/CyLib.c ****             /* 31 MHz */ 0x21u,  /* 32 MHz */ 0x22u,  /* 33 MHz */ 0x23u,  /* 34 MHz */ 0x25u,
  68:Generated_Source\PSoC4/CyLib.c ****             /* 35 MHz */ 0x26u,  /* 36 MHz */ 0x27u,  /* 37 MHz */ 0x28u,  /* 38 MHz */ 0x29u,
  69:Generated_Source\PSoC4/CyLib.c ****             /* 39 MHz */ 0x2Au,  /* 40 MHz */ 0x2Bu,  /* 41 MHz */ 0x2Eu,  /* 42 MHz */ 0x2Fu,
  70:Generated_Source\PSoC4/CyLib.c ****             /* 43 MHz */ 0x30u,  /* 44 MHz */ 0x31u,  /* 45 MHz */ 0x32u,  /* 46 MHz */ 0x33u,
  71:Generated_Source\PSoC4/CyLib.c ****             /* 47 MHz */ 0x34u,  /* 48 MHz */ 0x35u };
  72:Generated_Source\PSoC4/CyLib.c **** #endif /* (CY_IP_SRSSV2) */
  73:Generated_Source\PSoC4/CyLib.c **** 
  74:Generated_Source\PSoC4/CyLib.c **** /* Stored CY_SYS_CLK_IMO_TRIM4_REG when modified for USB lock */
  75:Generated_Source\PSoC4/CyLib.c **** #if (CY_IP_IMO_TRIMMABLE_BY_USB && CY_IP_SRSSV2)
  76:Generated_Source\PSoC4/CyLib.c ****     uint32 CySysClkImoTrim4 = 0u;
  77:Generated_Source\PSoC4/CyLib.c ****     uint32 CySysClkImoTrim5 = 0u;
  78:Generated_Source\PSoC4/CyLib.c **** #endif /* (CY_IP_IMO_TRIMMABLE_BY_USB && CY_IP_SRSSV2) */
  79:Generated_Source\PSoC4/CyLib.c **** 
  80:Generated_Source\PSoC4/CyLib.c **** /* Stored PUMP_SEL configuration during disable (IMO output by default) */
  81:Generated_Source\PSoC4/CyLib.c **** uint32 CySysClkPumpConfig = CY_SYS_CLK_PUMP_ENABLE;
  82:Generated_Source\PSoC4/CyLib.c **** 
  83:Generated_Source\PSoC4/CyLib.c **** 
  84:Generated_Source\PSoC4/CyLib.c **** /*******************************************************************************
  85:Generated_Source\PSoC4/CyLib.c **** * Function Name: CySysClkImoStart
  86:Generated_Source\PSoC4/CyLib.c **** ****************************************************************************//**
  87:Generated_Source\PSoC4/CyLib.c **** *
ARM GAS  C:\Users\essele\AppData\Local\Temp\cchUVvdf.s 			page 3


  88:Generated_Source\PSoC4/CyLib.c **** * Enables the IMO.
  89:Generated_Source\PSoC4/CyLib.c **** *
  90:Generated_Source\PSoC4/CyLib.c **** * For PSoC 4100M / PSoC 4200M / PSoC 4000S / PSoC 4100S / PSoC Analog 
  91:Generated_Source\PSoC4/CyLib.c **** * Coprocessor devices, this function will also enable WCO lock if selected in 
  92:Generated_Source\PSoC4/CyLib.c **** * the Design Wide Resources tab.
  93:Generated_Source\PSoC4/CyLib.c **** *
  94:Generated_Source\PSoC4/CyLib.c **** * For PSoC 4200L devices, this function will also enable USB lock if selected
  95:Generated_Source\PSoC4/CyLib.c **** * in the Design Wide Resources tab.
  96:Generated_Source\PSoC4/CyLib.c **** *
  97:Generated_Source\PSoC4/CyLib.c **** *******************************************************************************/
  98:Generated_Source\PSoC4/CyLib.c **** void CySysClkImoStart(void)
  99:Generated_Source\PSoC4/CyLib.c **** {
 100:Generated_Source\PSoC4/CyLib.c ****     CY_SYS_CLK_IMO_CONFIG_REG |= CY_SYS_CLK_IMO_CONFIG_ENABLE;
 101:Generated_Source\PSoC4/CyLib.c **** 
 102:Generated_Source\PSoC4/CyLib.c ****     #if (CY_IP_IMO_TRIMMABLE_BY_WCO)
 103:Generated_Source\PSoC4/CyLib.c ****         #if (CYDEV_IMO_TRIMMED_BY_WCO == 1u)
 104:Generated_Source\PSoC4/CyLib.c ****             CySysClkImoEnableWcoLock();
 105:Generated_Source\PSoC4/CyLib.c ****         #endif  /* (CYDEV_IMO_TRIMMED_BY_WCO == 1u) */
 106:Generated_Source\PSoC4/CyLib.c ****     #endif  /* (CY_IP_IMO_TRIMMABLE_BY_WCO) */
 107:Generated_Source\PSoC4/CyLib.c **** 
 108:Generated_Source\PSoC4/CyLib.c **** 
 109:Generated_Source\PSoC4/CyLib.c ****     #if (CY_IP_IMO_TRIMMABLE_BY_USB)
 110:Generated_Source\PSoC4/CyLib.c ****         #if (CYDEV_IMO_TRIMMED_BY_USB == 1u)
 111:Generated_Source\PSoC4/CyLib.c ****             CySysClkImoEnableUsbLock();
 112:Generated_Source\PSoC4/CyLib.c ****         #endif  /* (CYDEV_IMO_TRIMMED_BY_USB == 1u) */
 113:Generated_Source\PSoC4/CyLib.c ****     #endif  /* (CY_IP_IMO_TRIMMABLE_BY_USB) */
 114:Generated_Source\PSoC4/CyLib.c **** 
 115:Generated_Source\PSoC4/CyLib.c **** }
 116:Generated_Source\PSoC4/CyLib.c **** 
 117:Generated_Source\PSoC4/CyLib.c **** 
 118:Generated_Source\PSoC4/CyLib.c **** /*******************************************************************************
 119:Generated_Source\PSoC4/CyLib.c **** * Function Name: CySysClkImoStop
 120:Generated_Source\PSoC4/CyLib.c **** ****************************************************************************//**
 121:Generated_Source\PSoC4/CyLib.c **** *
 122:Generated_Source\PSoC4/CyLib.c **** * Disables the IMO.
 123:Generated_Source\PSoC4/CyLib.c **** *
 124:Generated_Source\PSoC4/CyLib.c **** * For PSoC 4100M / PSoC 4200M / PSoC 4200L / PSoC 4000S / PSoC 4100S / 
 125:Generated_Source\PSoC4/CyLib.c **** * PSoC Analog Coprocessor devices, this function will also disable WCO lock.
 126:Generated_Source\PSoC4/CyLib.c **** *
 127:Generated_Source\PSoC4/CyLib.c **** * For PSoC PSoC 4200L devices, this function will also disable USB lock.
 128:Generated_Source\PSoC4/CyLib.c **** *
 129:Generated_Source\PSoC4/CyLib.c **** *******************************************************************************/
 130:Generated_Source\PSoC4/CyLib.c **** void CySysClkImoStop(void)
 131:Generated_Source\PSoC4/CyLib.c **** {
 132:Generated_Source\PSoC4/CyLib.c ****     #if (CY_IP_IMO_TRIMMABLE_BY_WCO)
 133:Generated_Source\PSoC4/CyLib.c ****         CySysClkImoDisableWcoLock();
 134:Generated_Source\PSoC4/CyLib.c ****     #endif  /* (CY_IP_IMO_TRIMMABLE_BY_WCO) */
 135:Generated_Source\PSoC4/CyLib.c **** 
 136:Generated_Source\PSoC4/CyLib.c ****     #if (CY_IP_IMO_TRIMMABLE_BY_USB)
 137:Generated_Source\PSoC4/CyLib.c ****         CySysClkImoDisableUsbLock();
 138:Generated_Source\PSoC4/CyLib.c ****     #endif  /* (CY_IP_IMO_TRIMMABLE_BY_USB) */
 139:Generated_Source\PSoC4/CyLib.c **** 
 140:Generated_Source\PSoC4/CyLib.c ****     CY_SYS_CLK_IMO_CONFIG_REG &= ( uint32 ) ( ~( uint32 )CY_SYS_CLK_IMO_CONFIG_ENABLE);
 141:Generated_Source\PSoC4/CyLib.c **** }
 142:Generated_Source\PSoC4/CyLib.c **** 
 143:Generated_Source\PSoC4/CyLib.c **** #if (CY_IP_IMO_TRIMMABLE_BY_WCO)
 144:Generated_Source\PSoC4/CyLib.c **** 
ARM GAS  C:\Users\essele\AppData\Local\Temp\cchUVvdf.s 			page 4


 145:Generated_Source\PSoC4/CyLib.c ****     /*******************************************************************************
 146:Generated_Source\PSoC4/CyLib.c ****     * Function Name: CySysClkImoEnableWcoLock
 147:Generated_Source\PSoC4/CyLib.c ****     ****************************************************************************//**
 148:Generated_Source\PSoC4/CyLib.c ****     *
 149:Generated_Source\PSoC4/CyLib.c ****     * Enables the IMO to WCO lock feature. This function works only if the WCO is
 150:Generated_Source\PSoC4/CyLib.c ****     * already enabled. If the WCO is not enabled then this function returns
 151:Generated_Source\PSoC4/CyLib.c ****     * without enabling the lock feature.
 152:Generated_Source\PSoC4/CyLib.c ****     *
 153:Generated_Source\PSoC4/CyLib.c ****     * It takes up to 20 ms for the IMO to stabilize. The delay is implemented with
 154:Generated_Source\PSoC4/CyLib.c ****     * CyDelay() function. The delay interval is measured based on the system
 155:Generated_Source\PSoC4/CyLib.c ****     * frequency defined by PSoC Creator at build time. If System clock frequency
 156:Generated_Source\PSoC4/CyLib.c ****     * is changed in runtime, the CyDelayFreq() with the appropriate parameter
 157:Generated_Source\PSoC4/CyLib.c ****     * should be called.
 158:Generated_Source\PSoC4/CyLib.c ****     *
 159:Generated_Source\PSoC4/CyLib.c ****     * For PSoC 4200L devices, note that the IMO can lock to either WCO or USB
 160:Generated_Source\PSoC4/CyLib.c ****     * but not both.
 161:Generated_Source\PSoC4/CyLib.c ****     *
 162:Generated_Source\PSoC4/CyLib.c ****     * This function is applicable for PSoC 4100M / PSoC 4200M / PSoC 4000S /
 163:Generated_Source\PSoC4/CyLib.c ****     * PSoC 4100S / PSoC Analog Coprocessor / PSoC 4200L.
 164:Generated_Source\PSoC4/CyLib.c ****     *
 165:Generated_Source\PSoC4/CyLib.c ****     *******************************************************************************/
 166:Generated_Source\PSoC4/CyLib.c ****     void CySysClkImoEnableWcoLock(void)
 167:Generated_Source\PSoC4/CyLib.c ****     {
 168:Generated_Source\PSoC4/CyLib.c ****         #if(CY_IP_SRSSV2)
 169:Generated_Source\PSoC4/CyLib.c ****             uint32 i;
 170:Generated_Source\PSoC4/CyLib.c ****         #endif  /* (CY_IP_SRSSV2) */
 171:Generated_Source\PSoC4/CyLib.c **** 
 172:Generated_Source\PSoC4/CyLib.c ****         uint32 freq;
 173:Generated_Source\PSoC4/CyLib.c ****         uint8  interruptState;
 174:Generated_Source\PSoC4/CyLib.c ****         uint32 regTmp;
 175:Generated_Source\PSoC4/CyLib.c ****         uint32 lfLimit = 0u;
 176:Generated_Source\PSoC4/CyLib.c ****         volatile uint32 flashCtlReg;
 177:Generated_Source\PSoC4/CyLib.c **** 
 178:Generated_Source\PSoC4/CyLib.c ****         if (0u != CySysClkWcoEnabled())
 179:Generated_Source\PSoC4/CyLib.c ****         {
 180:Generated_Source\PSoC4/CyLib.c ****             interruptState = CyEnterCriticalSection();
 181:Generated_Source\PSoC4/CyLib.c **** 
 182:Generated_Source\PSoC4/CyLib.c ****             /* Set oscillator interface control port to WCO */
 183:Generated_Source\PSoC4/CyLib.c ****             #if (CY_IP_IMO_TRIMMABLE_BY_WCO && CY_IP_IMO_TRIMMABLE_BY_USB)
 184:Generated_Source\PSoC4/CyLib.c ****                 CY_SYS_CLK_OSCINTF_CTL_REG =
 185:Generated_Source\PSoC4/CyLib.c ****                     (CY_SYS_CLK_OSCINTF_CTL_REG & (uint32) ~CY_SYS_CLK_OSCINTF_CTL_PORT_SEL_MASK) |
 186:Generated_Source\PSoC4/CyLib.c ****                     CY_SYS_CLK_OSCINTF_CTL_PORT_SEL_WCO;
 187:Generated_Source\PSoC4/CyLib.c ****             #endif /* (CY_IP_IMO_TRIMMABLE_BY_WCO && CY_IP_IMO_TRIMMABLE_BY_USB) */
 188:Generated_Source\PSoC4/CyLib.c **** 
 189:Generated_Source\PSoC4/CyLib.c ****             /* Get current IMO frequency based on the register value */
 190:Generated_Source\PSoC4/CyLib.c ****             #if(CY_IP_SRSSV2)
 191:Generated_Source\PSoC4/CyLib.c ****                 freq = CY_SYS_CLK_IMO_MIN_FREQ_MHZ;
 192:Generated_Source\PSoC4/CyLib.c ****                 for(i = 0u; i < CY_SYS_CLK_IMO_FREQ_TABLE_SIZE; i++)
 193:Generated_Source\PSoC4/CyLib.c ****                 {
 194:Generated_Source\PSoC4/CyLib.c ****                     if ((uint8) (CY_SYS_CLK_IMO_TRIM2_REG & CY_SYS_CLK_IMO_FREQ_BITS_MASK) == cyImo
 195:Generated_Source\PSoC4/CyLib.c ****                     {
 196:Generated_Source\PSoC4/CyLib.c ****                         freq = i + CY_SYS_CLK_IMO_FREQ_TABLE_OFFSET;
 197:Generated_Source\PSoC4/CyLib.c ****                         break;
 198:Generated_Source\PSoC4/CyLib.c ****                     }
 199:Generated_Source\PSoC4/CyLib.c ****                 }
 200:Generated_Source\PSoC4/CyLib.c ****             #else
 201:Generated_Source\PSoC4/CyLib.c ****                 /* Calculate frequency by shifting register field value and adding constant. */
ARM GAS  C:\Users\essele\AppData\Local\Temp\cchUVvdf.s 			page 5


 202:Generated_Source\PSoC4/CyLib.c ****                 #if(CY_IP_SRSSLT)
 203:Generated_Source\PSoC4/CyLib.c ****                     freq = (((uint32) ((CY_SYS_CLK_IMO_SELECT_REG & ((uint32) CY_SYS_CLK_IMO_SELECT
 204:Generated_Source\PSoC4/CyLib.c ****                                         CY_SYS_CLK_IMO_SELECT_FREQ_SHIFT) + CY_SYS_CLK_IMO_MIN_FREQ
 205:Generated_Source\PSoC4/CyLib.c ****                                       ((CY_SYS_CLK_SELECT_REG >> CY_SYS_CLK_SELECT_HFCLK_DIV_SHIFT)
 206:Generated_Source\PSoC4/CyLib.c ****                                        (uint32) CY_SYS_CLK_SELECT_HFCLK_DIV_MASK));
 207:Generated_Source\PSoC4/CyLib.c ****                 #else
 208:Generated_Source\PSoC4/CyLib.c ****                     freq = ((uint32) ((CY_SYS_CLK_IMO_SELECT_REG & ((uint32) CY_SYS_CLK_IMO_SELECT_
 209:Generated_Source\PSoC4/CyLib.c ****                                        CY_SYS_CLK_IMO_SELECT_FREQ_SHIFT) + CY_SYS_CLK_IMO_MIN_FREQ_
 210:Generated_Source\PSoC4/CyLib.c ****                 #endif  /* (CY_IP_SRSSLT) */
 211:Generated_Source\PSoC4/CyLib.c **** 
 212:Generated_Source\PSoC4/CyLib.c ****             #endif  /* (CY_IP_SRSSV2) */
 213:Generated_Source\PSoC4/CyLib.c ****             
 214:Generated_Source\PSoC4/CyLib.c ****             CY_SYS_CLK_IMO_TRIM1_REG = 0;
 215:Generated_Source\PSoC4/CyLib.c ****             
 216:Generated_Source\PSoC4/CyLib.c ****             /* For the WCO locking mode, the IMO gain needs to be CY_SYS_CLK_IMO_TRIM4_GAIN */
 217:Generated_Source\PSoC4/CyLib.c ****             #if(CY_IP_SRSSV2)
 218:Generated_Source\PSoC4/CyLib.c ****                 if ((CY_SYS_CLK_IMO_TRIM4_REG & CY_SYS_CLK_IMO_TRIM4_GAIN_MASK) == 0u)
 219:Generated_Source\PSoC4/CyLib.c ****                 {
 220:Generated_Source\PSoC4/CyLib.c **** 			         CY_SYS_CLK_IMO_TRIM4_REG = (CY_SYS_CLK_IMO_TRIM4_REG & (uint32) ~CY_SYS_CLK_IMO_TRIM4_G
 221:Generated_Source\PSoC4/CyLib.c **** 			                  				     CY_SYS_CLK_IMO_TRIM4_WCO_GAIN;
 222:Generated_Source\PSoC4/CyLib.c ****                 }
 223:Generated_Source\PSoC4/CyLib.c ****             #endif /* (CY_IP_SRSSV2) */
 224:Generated_Source\PSoC4/CyLib.c **** 
 225:Generated_Source\PSoC4/CyLib.c ****             regTmp  = CY_SYS_CLK_WCO_DPLL_REG & ~(CY_SYS_CLK_WCO_DPLL_MULT_MASK |
 226:Generated_Source\PSoC4/CyLib.c ****                                                   CY_SYS_CLK_WCO_CONFIG_DPLL_LF_IGAIN_MASK |
 227:Generated_Source\PSoC4/CyLib.c ****                                                   CY_SYS_CLK_WCO_CONFIG_DPLL_LF_PGAIN_MASK |
 228:Generated_Source\PSoC4/CyLib.c ****                                                   CY_SYS_CLK_WCO_CONFIG_DPLL_LF_LIMIT_MASK);
 229:Generated_Source\PSoC4/CyLib.c **** 
 230:Generated_Source\PSoC4/CyLib.c ****             /* Set multiplier to determine IMO frequency in multiples of the WCO frequency */
 231:Generated_Source\PSoC4/CyLib.c ****             regTmp |= (CY_SYS_CLK_WCO_DPLL_MULT_VALUE(freq) & CY_SYS_CLK_WCO_DPLL_MULT_MASK);
 232:Generated_Source\PSoC4/CyLib.c **** 
 233:Generated_Source\PSoC4/CyLib.c ****             /* Set DPLL Loop Filter Integral and Proportional Gains Setting */
 234:Generated_Source\PSoC4/CyLib.c ****             regTmp |= (CY_SYS_CLK_WCO_CONFIG_DPLL_LF_IGAIN | CY_SYS_CLK_WCO_CONFIG_DPLL_LF_PGAIN);
 235:Generated_Source\PSoC4/CyLib.c **** 
 236:Generated_Source\PSoC4/CyLib.c ****             CY_SYS_CLK_WCO_DPLL_REG = regTmp;
 237:Generated_Source\PSoC4/CyLib.c ****             
 238:Generated_Source\PSoC4/CyLib.c ****             flashCtlReg = CY_FLASH_CTL_REG;
 239:Generated_Source\PSoC4/CyLib.c ****             CySysFlashSetWaitCycles(CY_SYS_CLK_IMO_MAX_FREQ_MHZ);
 240:Generated_Source\PSoC4/CyLib.c ****             CY_SYS_CLK_WCO_CONFIG_REG |= CY_SYS_CLK_WCO_CONFIG_DPLL_ENABLE;
 241:Generated_Source\PSoC4/CyLib.c **** 
 242:Generated_Source\PSoC4/CyLib.c ****             regTmp  = CY_SYS_CLK_WCO_DPLL_REG & ~(CY_SYS_CLK_WCO_CONFIG_DPLL_LF_LIMIT_MASK);
 243:Generated_Source\PSoC4/CyLib.c ****             
 244:Generated_Source\PSoC4/CyLib.c ****             while (lfLimit < (CY_SYS_CLK_WCO_CONFIG_DPLL_LF_LIMIT_MAX - CY_SYS_CLK_WCO_CONFIG_DPLL_
 245:Generated_Source\PSoC4/CyLib.c ****             {
 246:Generated_Source\PSoC4/CyLib.c ****                 CyDelay(CY_SYS_CLK_WCO_DPLL_TIMEOUT_MS);
 247:Generated_Source\PSoC4/CyLib.c ****                 lfLimit += CY_SYS_CLK_WCO_CONFIG_DPLL_LF_LIMIT_STEP;
 248:Generated_Source\PSoC4/CyLib.c ****                 CY_SYS_CLK_WCO_DPLL_REG = (regTmp | (lfLimit << CY_SYS_CLK_WCO_CONFIG_DPLL_LF_LIMIT
 249:Generated_Source\PSoC4/CyLib.c ****             }
 250:Generated_Source\PSoC4/CyLib.c **** 
 251:Generated_Source\PSoC4/CyLib.c ****             CyDelay(CY_SYS_CLK_WCO_DPLL_TIMEOUT_MS);
 252:Generated_Source\PSoC4/CyLib.c ****             CY_SYS_CLK_WCO_DPLL_REG = (regTmp | (CY_SYS_CLK_WCO_CONFIG_DPLL_LF_LIMIT_MAX << 
 253:Generated_Source\PSoC4/CyLib.c ****                                                  CY_SYS_CLK_WCO_CONFIG_DPLL_LF_LIMIT_SHIFT));
 254:Generated_Source\PSoC4/CyLib.c **** 
 255:Generated_Source\PSoC4/CyLib.c ****             CY_FLASH_CTL_REG = flashCtlReg;
 256:Generated_Source\PSoC4/CyLib.c **** 
 257:Generated_Source\PSoC4/CyLib.c ****             CyExitCriticalSection(interruptState);
 258:Generated_Source\PSoC4/CyLib.c ****         }
ARM GAS  C:\Users\essele\AppData\Local\Temp\cchUVvdf.s 			page 6


 259:Generated_Source\PSoC4/CyLib.c ****     }
 260:Generated_Source\PSoC4/CyLib.c **** 
 261:Generated_Source\PSoC4/CyLib.c **** 
 262:Generated_Source\PSoC4/CyLib.c ****     /*******************************************************************************
 263:Generated_Source\PSoC4/CyLib.c ****     * Function Name: CySysClkImoDisableWcoLock
 264:Generated_Source\PSoC4/CyLib.c ****     ****************************************************************************//**
 265:Generated_Source\PSoC4/CyLib.c ****     *
 266:Generated_Source\PSoC4/CyLib.c ****     * Disables the IMO to WCO lock feature.
 267:Generated_Source\PSoC4/CyLib.c ****     *
 268:Generated_Source\PSoC4/CyLib.c ****     * For PSoC 4200L devices, note that the IMO can lock to either WCO or USB
 269:Generated_Source\PSoC4/CyLib.c ****     * but not both.
 270:Generated_Source\PSoC4/CyLib.c ****     *
 271:Generated_Source\PSoC4/CyLib.c ****     * This function is applicable for PSoC 4100M / PSoC 4200M / PSoC 4000S /
 272:Generated_Source\PSoC4/CyLib.c ****     * PSoC 4100S / PSoC Analog Coprocessor / PSoC 4200L.
 273:Generated_Source\PSoC4/CyLib.c ****     *
 274:Generated_Source\PSoC4/CyLib.c ****     *******************************************************************************/
 275:Generated_Source\PSoC4/CyLib.c ****     void CySysClkImoDisableWcoLock(void)
 276:Generated_Source\PSoC4/CyLib.c ****     {
  28              		.loc 1 276 0
  29              		.cfi_startproc
  30              		@ args = 0, pretend = 0, frame = 0
  31              		@ frame_needed = 0, uses_anonymous_args = 0
  32              		@ link register save eliminated.
  33              	.LVL0:
 277:Generated_Source\PSoC4/CyLib.c ****         #if(CY_IP_SRSSV2)
 278:Generated_Source\PSoC4/CyLib.c ****             uint32 i;
 279:Generated_Source\PSoC4/CyLib.c ****         #endif  /* (CY_IP_SRSSV2) */
 280:Generated_Source\PSoC4/CyLib.c **** 
 281:Generated_Source\PSoC4/CyLib.c ****         uint32 freq;
 282:Generated_Source\PSoC4/CyLib.c ****         
 283:Generated_Source\PSoC4/CyLib.c ****         /* Get current IMO frequency based on the register value */
 284:Generated_Source\PSoC4/CyLib.c ****         #if(CY_IP_SRSSV2)
 285:Generated_Source\PSoC4/CyLib.c ****             freq = CY_SYS_CLK_IMO_MIN_FREQ_MHZ;
 286:Generated_Source\PSoC4/CyLib.c ****             for(i = 0u; i < CY_SYS_CLK_IMO_FREQ_TABLE_SIZE; i++)
  34              		.loc 1 286 0
  35 0000 0023     		movs	r3, #0
  36 0002 0AE0     		b	.L2
  37              	.LVL1:
  38              	.L5:
 287:Generated_Source\PSoC4/CyLib.c ****             {
 288:Generated_Source\PSoC4/CyLib.c ****                 if ((uint8) (CY_SYS_CLK_IMO_TRIM2_REG & CY_SYS_CLK_IMO_FREQ_BITS_MASK) == cyImoFreq
  39              		.loc 1 288 0
  40 0004 0D4A     		ldr	r2, .L6
  41 0006 1268     		ldr	r2, [r2]
  42 0008 3F21     		movs	r1, #63
  43 000a 0A40     		ands	r2, r1
  44 000c 0C49     		ldr	r1, .L6+4
  45 000e C95C     		ldrb	r1, [r1, r3]
  46 0010 8A42     		cmp	r2, r1
  47 0012 01D1     		bne	.L3
 289:Generated_Source\PSoC4/CyLib.c ****                 {
 290:Generated_Source\PSoC4/CyLib.c ****                     freq = i + CY_SYS_CLK_IMO_FREQ_TABLE_OFFSET;
  48              		.loc 1 290 0
  49 0014 0333     		adds	r3, r3, #3
  50              	.LVL2:
 291:Generated_Source\PSoC4/CyLib.c ****                     break;
  51              		.loc 1 291 0
ARM GAS  C:\Users\essele\AppData\Local\Temp\cchUVvdf.s 			page 7


  52 0016 03E0     		b	.L4
  53              	.LVL3:
  54              	.L3:
 286:Generated_Source\PSoC4/CyLib.c ****             {
  55              		.loc 1 286 0 discriminator 2
  56 0018 0133     		adds	r3, r3, #1
  57              	.LVL4:
  58              	.L2:
 286:Generated_Source\PSoC4/CyLib.c ****             {
  59              		.loc 1 286 0 is_stmt 0 discriminator 1
  60 001a 2D2B     		cmp	r3, #45
  61 001c F2D9     		bls	.L5
 285:Generated_Source\PSoC4/CyLib.c ****             for(i = 0u; i < CY_SYS_CLK_IMO_FREQ_TABLE_SIZE; i++)
  62              		.loc 1 285 0 is_stmt 1
  63 001e 0323     		movs	r3, #3
  64              	.LVL5:
  65              	.L4:
 292:Generated_Source\PSoC4/CyLib.c ****                 }
 293:Generated_Source\PSoC4/CyLib.c ****             }
 294:Generated_Source\PSoC4/CyLib.c ****         #else
 295:Generated_Source\PSoC4/CyLib.c ****             /* Calculate frequency by shifting register field value and adding constant. */
 296:Generated_Source\PSoC4/CyLib.c ****             #if(CY_IP_SRSSLT)
 297:Generated_Source\PSoC4/CyLib.c ****                 freq = (((uint32) ((CY_SYS_CLK_IMO_SELECT_REG & ((uint32) CY_SYS_CLK_IMO_SELECT_FRE
 298:Generated_Source\PSoC4/CyLib.c ****                                     CY_SYS_CLK_IMO_SELECT_FREQ_SHIFT) + CY_SYS_CLK_IMO_MIN_FREQ_MHZ
 299:Generated_Source\PSoC4/CyLib.c ****                                   ((CY_SYS_CLK_SELECT_REG >> CY_SYS_CLK_SELECT_HFCLK_DIV_SHIFT) & 
 300:Generated_Source\PSoC4/CyLib.c ****                                    (uint32) CY_SYS_CLK_SELECT_HFCLK_DIV_MASK));
 301:Generated_Source\PSoC4/CyLib.c ****             #else
 302:Generated_Source\PSoC4/CyLib.c ****                 freq = ((uint32) ((CY_SYS_CLK_IMO_SELECT_REG & ((uint32) CY_SYS_CLK_IMO_SELECT_FREQ
 303:Generated_Source\PSoC4/CyLib.c ****                                    CY_SYS_CLK_IMO_SELECT_FREQ_SHIFT) + CY_SYS_CLK_IMO_MIN_FREQ_MHZ)
 304:Generated_Source\PSoC4/CyLib.c ****             #endif  /* (CY_IP_SRSSLT) */
 305:Generated_Source\PSoC4/CyLib.c **** 
 306:Generated_Source\PSoC4/CyLib.c ****         #endif  /* (CY_IP_SRSSV2) */
 307:Generated_Source\PSoC4/CyLib.c **** 
 308:Generated_Source\PSoC4/CyLib.c ****         CY_SYS_CLK_WCO_CONFIG_REG &= (uint32) ~CY_SYS_CLK_WCO_CONFIG_DPLL_ENABLE;
  66              		.loc 1 308 0
  67 0020 0849     		ldr	r1, .L6+8
  68 0022 0868     		ldr	r0, [r1]
  69 0024 084A     		ldr	r2, .L6+12
  70 0026 0240     		ands	r2, r0
  71 0028 0A60     		str	r2, [r1]
 309:Generated_Source\PSoC4/CyLib.c ****         
 310:Generated_Source\PSoC4/CyLib.c ****         #if(CY_IP_SRSSLT)
 311:Generated_Source\PSoC4/CyLib.c ****             CY_SYS_CLK_IMO_TRIM1_REG = CY_SFLASH_IMO_TRIM_REG(freq - CY_SYS_CLK_IMO_MIN_FREQ_MHZ);
 312:Generated_Source\PSoC4/CyLib.c ****         #else
 313:Generated_Source\PSoC4/CyLib.c ****             CY_SYS_CLK_IMO_TRIM1_REG = CY_SFLASH_IMO_TRIM_REG(freq - CY_SYS_CLK_IMO_FREQ_TABLE_OFFS
  72              		.loc 1 313 0
  73 002a 084A     		ldr	r2, .L6+16
  74 002c 9446     		mov	ip, r2
  75 002e 6344     		add	r3, r3, ip
  76              	.LVL6:
  77 0030 1B78     		ldrb	r3, [r3]
  78              	.LVL7:
  79 0032 DBB2     		uxtb	r3, r3
  80 0034 064A     		ldr	r2, .L6+20
  81 0036 1360     		str	r3, [r2]
 314:Generated_Source\PSoC4/CyLib.c ****         #endif
 315:Generated_Source\PSoC4/CyLib.c ****     }
ARM GAS  C:\Users\essele\AppData\Local\Temp\cchUVvdf.s 			page 8


  82              		.loc 1 315 0
  83              		@ sp needed
  84 0038 7047     		bx	lr
  85              	.L7:
  86 003a C046     		.align	2
  87              	.L6:
  88 003c 2CFF0B40 		.word	1074528044
  89 0040 00000000 		.word	.LANCHOR0
  90 0044 00002240 		.word	1075970048
  91 0048 FFFFFFBF 		.word	-1073741825
  92 004c 4DF3FF0F 		.word	268432205
  93 0050 28FF0B40 		.word	1074528040
  94              		.cfi_endproc
  95              	.LFE4:
  96              		.size	CySysClkImoDisableWcoLock, .-CySysClkImoDisableWcoLock
  97              		.section	.text.CySysClkImoGetWcoLock,"ax",%progbits
  98              		.align	2
  99              		.global	CySysClkImoGetWcoLock
 100              		.code	16
 101              		.thumb_func
 102              		.type	CySysClkImoGetWcoLock, %function
 103              	CySysClkImoGetWcoLock:
 104              	.LFB5:
 316:Generated_Source\PSoC4/CyLib.c **** 
 317:Generated_Source\PSoC4/CyLib.c **** 
 318:Generated_Source\PSoC4/CyLib.c ****     /*******************************************************************************
 319:Generated_Source\PSoC4/CyLib.c ****     * Function Name: CySysClkImoGetWcoLock
 320:Generated_Source\PSoC4/CyLib.c ****     ****************************************************************************//**
 321:Generated_Source\PSoC4/CyLib.c ****     *
 322:Generated_Source\PSoC4/CyLib.c ****     * Reports the IMO to WCO lock enable state.
 323:Generated_Source\PSoC4/CyLib.c ****     *
 324:Generated_Source\PSoC4/CyLib.c ****     * This function is applicable for PSoC 4100M / PSoC 4200M / PSoC 4000S /
 325:Generated_Source\PSoC4/CyLib.c ****     * PSoC 4100S / PSoC Analog Coprocessor / PSoC 4200L.
 326:Generated_Source\PSoC4/CyLib.c ****     *
 327:Generated_Source\PSoC4/CyLib.c ****     * \return 1 if IMO to WCO lock is enabled.
 328:Generated_Source\PSoC4/CyLib.c ****     * \return 0 if IMO to WCO lock is disabled.
 329:Generated_Source\PSoC4/CyLib.c ****     *
 330:Generated_Source\PSoC4/CyLib.c ****     *******************************************************************************/
 331:Generated_Source\PSoC4/CyLib.c ****     uint32 CySysClkImoGetWcoLock(void)
 332:Generated_Source\PSoC4/CyLib.c ****     {
 105              		.loc 1 332 0
 106              		.cfi_startproc
 107              		@ args = 0, pretend = 0, frame = 0
 108              		@ frame_needed = 0, uses_anonymous_args = 0
 109              		@ link register save eliminated.
 333:Generated_Source\PSoC4/CyLib.c ****         return ((0u != (CY_SYS_CLK_WCO_CONFIG_REG & CY_SYS_CLK_WCO_CONFIG_DPLL_ENABLE)) ?
 110              		.loc 1 333 0
 111 0000 034B     		ldr	r3, .L10
 112 0002 1868     		ldr	r0, [r3]
 113 0004 8023     		movs	r3, #128
 114 0006 DB05     		lsls	r3, r3, #23
 115 0008 1840     		ands	r0, r3
 334:Generated_Source\PSoC4/CyLib.c ****                 (uint32) 1u :
 116              		.loc 1 334 0
 117 000a 00D0     		beq	.L9
 118 000c 0120     		movs	r0, #1
 119              	.L9:
ARM GAS  C:\Users\essele\AppData\Local\Temp\cchUVvdf.s 			page 9


 335:Generated_Source\PSoC4/CyLib.c ****                 (uint32) 0u);
 336:Generated_Source\PSoC4/CyLib.c ****     }
 120              		.loc 1 336 0
 121              		@ sp needed
 122 000e 7047     		bx	lr
 123              	.L11:
 124              		.align	2
 125              	.L10:
 126 0010 00002240 		.word	1075970048
 127              		.cfi_endproc
 128              	.LFE5:
 129              		.size	CySysClkImoGetWcoLock, .-CySysClkImoGetWcoLock
 130              		.section	.text.CySysClkImoEnableUsbLock,"ax",%progbits
 131              		.align	2
 132              		.global	CySysClkImoEnableUsbLock
 133              		.code	16
 134              		.thumb_func
 135              		.type	CySysClkImoEnableUsbLock, %function
 136              	CySysClkImoEnableUsbLock:
 137              	.LFB6:
 337:Generated_Source\PSoC4/CyLib.c **** 
 338:Generated_Source\PSoC4/CyLib.c **** #endif /* (CY_IP_IMO_TRIMMABLE_BY_WCO) */
 339:Generated_Source\PSoC4/CyLib.c **** 
 340:Generated_Source\PSoC4/CyLib.c **** 
 341:Generated_Source\PSoC4/CyLib.c **** #if (CY_IP_IMO_TRIMMABLE_BY_USB)
 342:Generated_Source\PSoC4/CyLib.c **** 
 343:Generated_Source\PSoC4/CyLib.c ****     /*******************************************************************************
 344:Generated_Source\PSoC4/CyLib.c ****     * Function Name: CySysClkImoEnableUsbLock
 345:Generated_Source\PSoC4/CyLib.c ****     ****************************************************************************//**
 346:Generated_Source\PSoC4/CyLib.c ****     *
 347:Generated_Source\PSoC4/CyLib.c ****     * Enables the IMO to USB lock feature.
 348:Generated_Source\PSoC4/CyLib.c ****     *
 349:Generated_Source\PSoC4/CyLib.c ****     * This function must be called before CySysClkWriteImoFreq().
 350:Generated_Source\PSoC4/CyLib.c ****     *
 351:Generated_Source\PSoC4/CyLib.c ****     * This function is called from CySysClkImoStart() function if USB lock
 352:Generated_Source\PSoC4/CyLib.c ****     * selected in the Design Wide Resources tab.
 353:Generated_Source\PSoC4/CyLib.c ****     *
 354:Generated_Source\PSoC4/CyLib.c ****     * This is applicable for PSoC 4200L family of devices only. For PSoC 4200L
 355:Generated_Source\PSoC4/CyLib.c ****     * devices, the IMO can lock to either WCO or USB, but not both.
 356:Generated_Source\PSoC4/CyLib.c ****     *
 357:Generated_Source\PSoC4/CyLib.c ****     *******************************************************************************/
 358:Generated_Source\PSoC4/CyLib.c ****     void CySysClkImoEnableUsbLock(void)
 359:Generated_Source\PSoC4/CyLib.c ****     {
 138              		.loc 1 359 0
 139              		.cfi_startproc
 140              		@ args = 0, pretend = 0, frame = 0
 141              		@ frame_needed = 0, uses_anonymous_args = 0
 142 0000 30B5     		push	{r4, r5, lr}
 143              		.cfi_def_cfa_offset 12
 144              		.cfi_offset 4, -12
 145              		.cfi_offset 5, -8
 146              		.cfi_offset 14, -4
 360:Generated_Source\PSoC4/CyLib.c ****         #if(CY_IP_SRSSV2)
 361:Generated_Source\PSoC4/CyLib.c ****             uint32 i;
 362:Generated_Source\PSoC4/CyLib.c ****             
 363:Generated_Source\PSoC4/CyLib.c ****             /* Check for new trim algorithm */
 364:Generated_Source\PSoC4/CyLib.c ****             uint32 CySysClkUsbCuSortTrim = ((CY_SFLASH_S1_TESTPGM_OLD_REV < (CY_SFLASH_S1_TESTPGM_R
ARM GAS  C:\Users\essele\AppData\Local\Temp\cchUVvdf.s 			page 10


 147              		.loc 1 364 0
 148 0002 2D4B     		ldr	r3, .L27
 149 0004 1A78     		ldrb	r2, [r3]
 150 0006 3F23     		movs	r3, #63
 151 0008 1340     		ands	r3, r2
 152 000a 042B     		cmp	r3, #4
 153 000c 01D9     		bls	.L26
 154 000e 0120     		movs	r0, #1
 155 0010 00E0     		b	.L13
 156              	.L26:
 157 0012 0020     		movs	r0, #0
 158              	.L13:
 159              	.LVL8:
 365:Generated_Source\PSoC4/CyLib.c ****                                                                             CY_SFLASH_S1_TESTPGM_RE
 366:Generated_Source\PSoC4/CyLib.c **** 
 367:Generated_Source\PSoC4/CyLib.c ****             /* Get current IMO frequency based on the register value */
 368:Generated_Source\PSoC4/CyLib.c ****             uint32 freq = CY_SYS_CLK_IMO_MIN_FREQ_MHZ;
 369:Generated_Source\PSoC4/CyLib.c **** 
 370:Generated_Source\PSoC4/CyLib.c ****             for(i = 0u; i < CY_SYS_CLK_IMO_FREQ_TABLE_SIZE; i++)
 160              		.loc 1 370 0 discriminator 4
 161 0014 0023     		movs	r3, #0
 162 0016 0AE0     		b	.L14
 163              	.LVL9:
 164              	.L17:
 371:Generated_Source\PSoC4/CyLib.c ****             {
 372:Generated_Source\PSoC4/CyLib.c ****                 if ((uint8) (CY_SYS_CLK_IMO_TRIM2_REG & CY_SYS_CLK_IMO_FREQ_BITS_MASK) == cyImoFreq
 165              		.loc 1 372 0
 166 0018 284A     		ldr	r2, .L27+4
 167 001a 1268     		ldr	r2, [r2]
 168 001c 3F21     		movs	r1, #63
 169 001e 0A40     		ands	r2, r1
 170 0020 2749     		ldr	r1, .L27+8
 171 0022 C95C     		ldrb	r1, [r1, r3]
 172 0024 8A42     		cmp	r2, r1
 173 0026 01D1     		bne	.L15
 373:Generated_Source\PSoC4/CyLib.c ****                 {
 374:Generated_Source\PSoC4/CyLib.c ****                     freq = i + CY_SYS_CLK_IMO_FREQ_TABLE_OFFSET;
 174              		.loc 1 374 0
 175 0028 0333     		adds	r3, r3, #3
 176              	.LVL10:
 375:Generated_Source\PSoC4/CyLib.c ****                     break;
 177              		.loc 1 375 0
 178 002a 03E0     		b	.L16
 179              	.LVL11:
 180              	.L15:
 370:Generated_Source\PSoC4/CyLib.c ****             {
 181              		.loc 1 370 0 discriminator 2
 182 002c 0133     		adds	r3, r3, #1
 183              	.LVL12:
 184              	.L14:
 370:Generated_Source\PSoC4/CyLib.c ****             {
 185              		.loc 1 370 0 is_stmt 0 discriminator 1
 186 002e 2D2B     		cmp	r3, #45
 187 0030 F2D9     		bls	.L17
 368:Generated_Source\PSoC4/CyLib.c **** 
 188              		.loc 1 368 0 is_stmt 1
 189 0032 0323     		movs	r3, #3
ARM GAS  C:\Users\essele\AppData\Local\Temp\cchUVvdf.s 			page 11


 190              	.LVL13:
 191              	.L16:
 376:Generated_Source\PSoC4/CyLib.c ****                 }
 377:Generated_Source\PSoC4/CyLib.c ****             }
 378:Generated_Source\PSoC4/CyLib.c ****         #endif  /* (CY_IP_SRSSV2) */
 379:Generated_Source\PSoC4/CyLib.c ****         
 380:Generated_Source\PSoC4/CyLib.c ****         /* Set oscillator interface control port to USB */
 381:Generated_Source\PSoC4/CyLib.c ****         #if (CY_IP_IMO_TRIMMABLE_BY_WCO && CY_IP_IMO_TRIMMABLE_BY_USB)
 382:Generated_Source\PSoC4/CyLib.c ****             CY_SYS_CLK_OSCINTF_CTL_REG = (CY_SYS_CLK_OSCINTF_CTL_REG & (uint32) ~CY_SYS_CLK_OSCINTF
 192              		.loc 1 382 0
 193 0034 2349     		ldr	r1, .L27+12
 194 0036 0A68     		ldr	r2, [r1]
 195 0038 0124     		movs	r4, #1
 196 003a A243     		bics	r2, r4
 197 003c 0A60     		str	r2, [r1]
 383:Generated_Source\PSoC4/CyLib.c ****                                           CY_SYS_CLK_OSCINTF_CTL_PORT_SEL_USB;
 384:Generated_Source\PSoC4/CyLib.c ****         #endif /* (CY_IP_IMO_TRIMMABLE_BY_WCO && CY_IP_IMO_TRIMMABLE_BY_USB) */
 385:Generated_Source\PSoC4/CyLib.c **** 
 386:Generated_Source\PSoC4/CyLib.c ****         #if(CY_IP_SRSSV2)
 387:Generated_Source\PSoC4/CyLib.c ****            
 388:Generated_Source\PSoC4/CyLib.c ****             /* Save CY_SYS_CLK_IMO_TRIM4_REG and set IMO gain for USB lock */
 389:Generated_Source\PSoC4/CyLib.c ****             CySysClkImoTrim4 = CY_SYS_CLK_IMO_TRIM4_REG;
 198              		.loc 1 389 0
 199 003e 224A     		ldr	r2, .L27+16
 200 0040 1268     		ldr	r2, [r2]
 201 0042 2249     		ldr	r1, .L27+20
 202 0044 0A60     		str	r2, [r1]
 390:Generated_Source\PSoC4/CyLib.c ****             
 391:Generated_Source\PSoC4/CyLib.c ****             if(0u != CySysClkUsbCuSortTrim)
 203              		.loc 1 391 0
 204 0046 0028     		cmp	r0, #0
 205 0048 0FD0     		beq	.L18
 392:Generated_Source\PSoC4/CyLib.c ****             {
 393:Generated_Source\PSoC4/CyLib.c ****                 CySysClkImoTrim5 = CY_PWR_BG_TRIM5_REG;
 206              		.loc 1 393 0
 207 004a 2149     		ldr	r1, .L27+24
 208 004c 0D68     		ldr	r5, [r1]
 209 004e 1F4C     		ldr	r4, .L27+20
 210 0050 6560     		str	r5, [r4, #4]
 394:Generated_Source\PSoC4/CyLib.c ****                 
 395:Generated_Source\PSoC4/CyLib.c ****                 CY_SYS_CLK_IMO_TRIM4_REG = (CySysClkImoTrim4 & (uint32) ~CY_SYS_CLK_IMO_TRIM4_GAIN_
 211              		.loc 1 395 0
 212 0052 1F24     		movs	r4, #31
 213 0054 A243     		bics	r2, r4
 396:Generated_Source\PSoC4/CyLib.c ****                                             CY_SFLASH_USBMODE_IMO_GAIN_TRIM_REG;
 214              		.loc 1 396 0
 215 0056 1F4C     		ldr	r4, .L27+28
 216 0058 2478     		ldrb	r4, [r4]
 395:Generated_Source\PSoC4/CyLib.c ****                                             CY_SFLASH_USBMODE_IMO_GAIN_TRIM_REG;
 217              		.loc 1 395 0
 218 005a 2243     		orrs	r2, r4
 219 005c 1A4C     		ldr	r4, .L27+16
 220 005e 2260     		str	r2, [r4]
 397:Generated_Source\PSoC4/CyLib.c ****                 CY_PWR_BG_TRIM5_REG = CY_SFLASH_USBMODE_IMO_TEMPCO_REG;
 221              		.loc 1 397 0
 222 0060 1D4A     		ldr	r2, .L27+32
 223 0062 1278     		ldrb	r2, [r2]
ARM GAS  C:\Users\essele\AppData\Local\Temp\cchUVvdf.s 			page 12


 224 0064 D2B2     		uxtb	r2, r2
 225 0066 0A60     		str	r2, [r1]
 226 0068 05E0     		b	.L19
 227              	.L18:
 398:Generated_Source\PSoC4/CyLib.c ****                 
 399:Generated_Source\PSoC4/CyLib.c ****             }
 400:Generated_Source\PSoC4/CyLib.c ****             else
 401:Generated_Source\PSoC4/CyLib.c ****             {
 402:Generated_Source\PSoC4/CyLib.c ****                 CY_SYS_CLK_IMO_TRIM4_REG = (CySysClkImoTrim4 & (uint32) ~CY_SYS_CLK_IMO_TRIM4_GAIN_
 228              		.loc 1 402 0
 229 006a 1F21     		movs	r1, #31
 230 006c 8A43     		bics	r2, r1
 231 006e 1739     		subs	r1, r1, #23
 232 0070 0A43     		orrs	r2, r1
 233 0072 1549     		ldr	r1, .L27+16
 234 0074 0A60     		str	r2, [r1]
 235              	.L19:
 403:Generated_Source\PSoC4/CyLib.c ****                                             CY_SYS_CLK_IMO_TRIM4_USB_GAIN;
 404:Generated_Source\PSoC4/CyLib.c **** 
 405:Generated_Source\PSoC4/CyLib.c ****             }
 406:Generated_Source\PSoC4/CyLib.c **** 
 407:Generated_Source\PSoC4/CyLib.c ****             if (48u == freq)
 236              		.loc 1 407 0
 237 0076 302B     		cmp	r3, #48
 238 0078 0BD1     		bne	.L20
 408:Generated_Source\PSoC4/CyLib.c ****             {
 409:Generated_Source\PSoC4/CyLib.c ****                 CY_SYS_CLK_IMO_TRIM1_REG = (0u != CySysClkUsbCuSortTrim) ? 
 410:Generated_Source\PSoC4/CyLib.c ****                                            (uint32)CY_SFLASH_CU_IMO_TRIM_USBMODE_48_REG :
 239              		.loc 1 410 0
 240 007a 0028     		cmp	r0, #0
 241 007c 03D0     		beq	.L21
 242              		.loc 1 410 0 is_stmt 0 discriminator 1
 243 007e 174B     		ldr	r3, .L27+36
 244              	.LVL14:
 245 0080 1B78     		ldrb	r3, [r3]
 246 0082 DBB2     		uxtb	r3, r3
 247 0084 02E0     		b	.L22
 248              	.LVL15:
 249              	.L21:
 411:Generated_Source\PSoC4/CyLib.c ****                                            (uint32)CY_SFLASH_IMO_TRIM_USBMODE_48_REG;
 250              		.loc 1 411 0 is_stmt 1 discriminator 2
 251 0086 164B     		ldr	r3, .L27+40
 252              	.LVL16:
 253 0088 1B78     		ldrb	r3, [r3]
 254 008a DBB2     		uxtb	r3, r3
 255              	.L22:
 409:Generated_Source\PSoC4/CyLib.c ****                                            (uint32)CY_SFLASH_CU_IMO_TRIM_USBMODE_48_REG :
 256              		.loc 1 409 0
 257 008c 154A     		ldr	r2, .L27+44
 258 008e 1360     		str	r3, [r2]
 259 0090 0CE0     		b	.L23
 260              	.LVL17:
 261              	.L20:
 412:Generated_Source\PSoC4/CyLib.c ****             }
 413:Generated_Source\PSoC4/CyLib.c ****             else if (24u == freq)
 262              		.loc 1 413 0
 263 0092 182B     		cmp	r3, #24
ARM GAS  C:\Users\essele\AppData\Local\Temp\cchUVvdf.s 			page 13


 264 0094 0AD1     		bne	.L23
 414:Generated_Source\PSoC4/CyLib.c ****             {
 415:Generated_Source\PSoC4/CyLib.c ****                 CY_SYS_CLK_IMO_TRIM1_REG = (0u != CySysClkUsbCuSortTrim) ? 
 416:Generated_Source\PSoC4/CyLib.c ****                                            (uint32)CY_SFLASH_CU_IMO_TRIM_USBMODE_24_REG :
 265              		.loc 1 416 0
 266 0096 0028     		cmp	r0, #0
 267 0098 03D0     		beq	.L24
 268              		.loc 1 416 0 is_stmt 0 discriminator 1
 269 009a 134B     		ldr	r3, .L27+48
 270              	.LVL18:
 271 009c 1B78     		ldrb	r3, [r3]
 272 009e DBB2     		uxtb	r3, r3
 273 00a0 02E0     		b	.L25
 274              	.LVL19:
 275              	.L24:
 417:Generated_Source\PSoC4/CyLib.c ****                                            (uint32)CY_SFLASH_IMO_TRIM_USBMODE_24_REG;
 276              		.loc 1 417 0 is_stmt 1 discriminator 2
 277 00a2 124B     		ldr	r3, .L27+52
 278              	.LVL20:
 279 00a4 1B78     		ldrb	r3, [r3]
 280 00a6 DBB2     		uxtb	r3, r3
 281              	.L25:
 415:Generated_Source\PSoC4/CyLib.c ****                                            (uint32)CY_SFLASH_CU_IMO_TRIM_USBMODE_24_REG :
 282              		.loc 1 415 0
 283 00a8 0E4A     		ldr	r2, .L27+44
 284 00aa 1360     		str	r3, [r2]
 285              	.L23:
 418:Generated_Source\PSoC4/CyLib.c ****             }
 419:Generated_Source\PSoC4/CyLib.c ****             else
 420:Generated_Source\PSoC4/CyLib.c ****             {
 421:Generated_Source\PSoC4/CyLib.c ****                 /* Do nothing */
 422:Generated_Source\PSoC4/CyLib.c ****             }
 423:Generated_Source\PSoC4/CyLib.c ****             
 424:Generated_Source\PSoC4/CyLib.c ****         #endif  /* (CY_IP_SRSSV2) */
 425:Generated_Source\PSoC4/CyLib.c **** 
 426:Generated_Source\PSoC4/CyLib.c ****         CY_SYS_CLK_USBDEVv2_CR1_REG |= CY_SYS_CLK_USBDEVv2_CR1_ENABLE_LOCK;
 286              		.loc 1 426 0
 287 00ac 104A     		ldr	r2, .L27+56
 288 00ae 1168     		ldr	r1, [r2]
 289 00b0 0223     		movs	r3, #2
 290 00b2 0B43     		orrs	r3, r1
 291 00b4 1360     		str	r3, [r2]
 427:Generated_Source\PSoC4/CyLib.c ****     }
 292              		.loc 1 427 0
 293              		@ sp needed
 294 00b6 30BD     		pop	{r4, r5, pc}
 295              	.L28:
 296              		.align	2
 297              	.L27:
 298 00b8 00F3FF0F 		.word	268432128
 299 00bc 2CFF0B40 		.word	1074528044
 300 00c0 00000000 		.word	.LANCHOR0
 301 00c4 50000C40 		.word	1074528336
 302 00c8 34FF0B40 		.word	1074528052
 303 00cc 00000000 		.word	.LANCHOR1
 304 00d0 20FF0B40 		.word	1074528032
 305 00d4 C0F1FF0F 		.word	268431808
ARM GAS  C:\Users\essele\AppData\Local\Temp\cchUVvdf.s 			page 14


 306 00d8 C1F1FF0F 		.word	268431809
 307 00dc C3F1FF0F 		.word	268431811
 308 00e0 3FF3FF0F 		.word	268432191
 309 00e4 28FF0B40 		.word	1074528040
 310 00e8 C2F1FF0F 		.word	268431810
 311 00ec 3EF3FF0F 		.word	268432190
 312 00f0 24002C40 		.word	1076625444
 313              		.cfi_endproc
 314              	.LFE6:
 315              		.size	CySysClkImoEnableUsbLock, .-CySysClkImoEnableUsbLock
 316              		.section	.text.CySysClkImoStart,"ax",%progbits
 317              		.align	2
 318              		.global	CySysClkImoStart
 319              		.code	16
 320              		.thumb_func
 321              		.type	CySysClkImoStart, %function
 322              	CySysClkImoStart:
 323              	.LFB1:
  99:Generated_Source\PSoC4/CyLib.c ****     CY_SYS_CLK_IMO_CONFIG_REG |= CY_SYS_CLK_IMO_CONFIG_ENABLE;
 324              		.loc 1 99 0
 325              		.cfi_startproc
 326              		@ args = 0, pretend = 0, frame = 0
 327              		@ frame_needed = 0, uses_anonymous_args = 0
 328 0000 10B5     		push	{r4, lr}
 329              		.cfi_def_cfa_offset 8
 330              		.cfi_offset 4, -8
 331              		.cfi_offset 14, -4
 100:Generated_Source\PSoC4/CyLib.c **** 
 332              		.loc 1 100 0
 333 0002 044A     		ldr	r2, .L30
 334 0004 1368     		ldr	r3, [r2]
 335 0006 8021     		movs	r1, #128
 336 0008 0906     		lsls	r1, r1, #24
 337 000a 0B43     		orrs	r3, r1
 338 000c 1360     		str	r3, [r2]
 111:Generated_Source\PSoC4/CyLib.c ****         #endif  /* (CYDEV_IMO_TRIMMED_BY_USB == 1u) */
 339              		.loc 1 111 0
 340 000e FFF7FEFF 		bl	CySysClkImoEnableUsbLock
 341              	.LVL21:
 115:Generated_Source\PSoC4/CyLib.c **** 
 342              		.loc 1 115 0
 343              		@ sp needed
 344 0012 10BD     		pop	{r4, pc}
 345              	.L31:
 346              		.align	2
 347              	.L30:
 348 0014 08010B40 		.word	1074462984
 349              		.cfi_endproc
 350              	.LFE1:
 351              		.size	CySysClkImoStart, .-CySysClkImoStart
 352              		.section	.text.CySysClkImoDisableUsbLock,"ax",%progbits
 353              		.align	2
 354              		.global	CySysClkImoDisableUsbLock
 355              		.code	16
 356              		.thumb_func
 357              		.type	CySysClkImoDisableUsbLock, %function
 358              	CySysClkImoDisableUsbLock:
ARM GAS  C:\Users\essele\AppData\Local\Temp\cchUVvdf.s 			page 15


 359              	.LFB7:
 428:Generated_Source\PSoC4/CyLib.c **** 
 429:Generated_Source\PSoC4/CyLib.c **** 
 430:Generated_Source\PSoC4/CyLib.c ****     /*******************************************************************************
 431:Generated_Source\PSoC4/CyLib.c ****     * Function Name: CySysClkImoDisableUsbLock
 432:Generated_Source\PSoC4/CyLib.c ****     ****************************************************************************//**
 433:Generated_Source\PSoC4/CyLib.c ****     *
 434:Generated_Source\PSoC4/CyLib.c ****     * Disables the IMO to USB lock feature.
 435:Generated_Source\PSoC4/CyLib.c ****     *
 436:Generated_Source\PSoC4/CyLib.c ****     * This function is called from CySysClkImoStop() function if USB lock selected
 437:Generated_Source\PSoC4/CyLib.c ****     * in the Design Wide Resources tab.
 438:Generated_Source\PSoC4/CyLib.c ****     *
 439:Generated_Source\PSoC4/CyLib.c ****     * This is applicable for PSoC 4200L family of devices only. For PSoC 4200L
 440:Generated_Source\PSoC4/CyLib.c ****     * devices, the IMO can lock to either WCO or USB, but not both.
 441:Generated_Source\PSoC4/CyLib.c ****     *
 442:Generated_Source\PSoC4/CyLib.c ****     *******************************************************************************/
 443:Generated_Source\PSoC4/CyLib.c ****     void CySysClkImoDisableUsbLock(void)
 444:Generated_Source\PSoC4/CyLib.c ****     {
 360              		.loc 1 444 0
 361              		.cfi_startproc
 362              		@ args = 0, pretend = 0, frame = 0
 363              		@ frame_needed = 0, uses_anonymous_args = 0
 364 0000 30B5     		push	{r4, r5, lr}
 365              		.cfi_def_cfa_offset 12
 366              		.cfi_offset 4, -12
 367              		.cfi_offset 5, -8
 368              		.cfi_offset 14, -4
 445:Generated_Source\PSoC4/CyLib.c ****         #if(CY_IP_SRSSV2)
 446:Generated_Source\PSoC4/CyLib.c ****             uint32 i;
 447:Generated_Source\PSoC4/CyLib.c ****             
 448:Generated_Source\PSoC4/CyLib.c ****             /* Check for new trim algorithm */
 449:Generated_Source\PSoC4/CyLib.c ****             uint32 CySysClkUsbCuSortTrim = ((CY_SFLASH_S1_TESTPGM_OLD_REV < (CY_SFLASH_S1_TESTPGM_R
 369              		.loc 1 449 0
 370 0002 1A4B     		ldr	r3, .L40
 371 0004 1A78     		ldrb	r2, [r3]
 372 0006 3F23     		movs	r3, #63
 373 0008 1340     		ands	r3, r2
 374 000a 042B     		cmp	r3, #4
 375 000c 01D9     		bls	.L39
 376 000e 0120     		movs	r0, #1
 377 0010 00E0     		b	.L33
 378              	.L39:
 379 0012 0020     		movs	r0, #0
 380              	.L33:
 381              	.LVL22:
 450:Generated_Source\PSoC4/CyLib.c ****                                                                             CY_SFLASH_S1_TESTPGM_RE
 451:Generated_Source\PSoC4/CyLib.c **** 
 452:Generated_Source\PSoC4/CyLib.c ****             /* Get current IMO frequency based on the register value */
 453:Generated_Source\PSoC4/CyLib.c ****             uint32 freq = CY_SYS_CLK_IMO_MIN_FREQ_MHZ;;
 454:Generated_Source\PSoC4/CyLib.c **** 
 455:Generated_Source\PSoC4/CyLib.c ****             for(i = 0u; i < CY_SYS_CLK_IMO_FREQ_TABLE_SIZE; i++)
 382              		.loc 1 455 0 discriminator 4
 383 0014 0023     		movs	r3, #0
 384 0016 0AE0     		b	.L34
 385              	.LVL23:
 386              	.L37:
 456:Generated_Source\PSoC4/CyLib.c ****             {
ARM GAS  C:\Users\essele\AppData\Local\Temp\cchUVvdf.s 			page 16


 457:Generated_Source\PSoC4/CyLib.c ****                 if ((uint8) (CY_SYS_CLK_IMO_TRIM2_REG & CY_SYS_CLK_IMO_FREQ_BITS_MASK) == cyImoFreq
 387              		.loc 1 457 0
 388 0018 154A     		ldr	r2, .L40+4
 389 001a 1268     		ldr	r2, [r2]
 390 001c 3F21     		movs	r1, #63
 391 001e 0A40     		ands	r2, r1
 392 0020 1449     		ldr	r1, .L40+8
 393 0022 C95C     		ldrb	r1, [r1, r3]
 394 0024 8A42     		cmp	r2, r1
 395 0026 01D1     		bne	.L35
 458:Generated_Source\PSoC4/CyLib.c ****                 {
 459:Generated_Source\PSoC4/CyLib.c ****                     freq = i + CY_SYS_CLK_IMO_FREQ_TABLE_OFFSET;
 396              		.loc 1 459 0
 397 0028 0333     		adds	r3, r3, #3
 398              	.LVL24:
 460:Generated_Source\PSoC4/CyLib.c ****                     break;
 399              		.loc 1 460 0
 400 002a 03E0     		b	.L36
 401              	.LVL25:
 402              	.L35:
 455:Generated_Source\PSoC4/CyLib.c ****             {
 403              		.loc 1 455 0 discriminator 2
 404 002c 0133     		adds	r3, r3, #1
 405              	.LVL26:
 406              	.L34:
 455:Generated_Source\PSoC4/CyLib.c ****             {
 407              		.loc 1 455 0 is_stmt 0 discriminator 1
 408 002e 2D2B     		cmp	r3, #45
 409 0030 F2D9     		bls	.L37
 453:Generated_Source\PSoC4/CyLib.c **** 
 410              		.loc 1 453 0 is_stmt 1
 411 0032 0323     		movs	r3, #3
 412              	.LVL27:
 413              	.L36:
 461:Generated_Source\PSoC4/CyLib.c ****                 }
 462:Generated_Source\PSoC4/CyLib.c ****             }           
 463:Generated_Source\PSoC4/CyLib.c ****         #endif  /* (CY_IP_SRSSV2) */
 464:Generated_Source\PSoC4/CyLib.c ****         
 465:Generated_Source\PSoC4/CyLib.c ****         CY_SYS_CLK_USBDEVv2_CR1_REG &= (uint32) ~CY_SYS_CLK_USBDEVv2_CR1_ENABLE_LOCK;
 414              		.loc 1 465 0
 415 0034 1049     		ldr	r1, .L40+12
 416 0036 0A68     		ldr	r2, [r1]
 417 0038 0224     		movs	r4, #2
 418 003a A243     		bics	r2, r4
 419 003c 0A60     		str	r2, [r1]
 466:Generated_Source\PSoC4/CyLib.c **** 
 467:Generated_Source\PSoC4/CyLib.c ****         #if(CY_IP_SRSSV2)
 468:Generated_Source\PSoC4/CyLib.c ****             /* Restore CY_SYS_CLK_IMO_TRIM4_REG */
 469:Generated_Source\PSoC4/CyLib.c ****             CY_SYS_CLK_IMO_TRIM4_REG = ((CY_SYS_CLK_IMO_TRIM4_REG & (uint32) ~CY_SYS_CLK_IMO_TRIM4_
 420              		.loc 1 469 0
 421 003e 0F4C     		ldr	r4, .L40+16
 422 0040 2168     		ldr	r1, [r4]
 423 0042 1F22     		movs	r2, #31
 424 0044 9143     		bics	r1, r2
 470:Generated_Source\PSoC4/CyLib.c ****                                         (CySysClkImoTrim4 & CY_SYS_CLK_IMO_TRIM4_GAIN_MASK));
 425              		.loc 1 470 0
 426 0046 0E4D     		ldr	r5, .L40+20
ARM GAS  C:\Users\essele\AppData\Local\Temp\cchUVvdf.s 			page 17


 427 0048 2D68     		ldr	r5, [r5]
 428 004a 2A40     		ands	r2, r5
 469:Generated_Source\PSoC4/CyLib.c ****                                         (CySysClkImoTrim4 & CY_SYS_CLK_IMO_TRIM4_GAIN_MASK));
 429              		.loc 1 469 0
 430 004c 0A43     		orrs	r2, r1
 431 004e 2260     		str	r2, [r4]
 471:Generated_Source\PSoC4/CyLib.c **** 
 472:Generated_Source\PSoC4/CyLib.c ****             if(0u != CySysClkUsbCuSortTrim)
 432              		.loc 1 472 0
 433 0050 0028     		cmp	r0, #0
 434 0052 03D0     		beq	.L38
 473:Generated_Source\PSoC4/CyLib.c ****             {
 474:Generated_Source\PSoC4/CyLib.c ****                 CY_PWR_BG_TRIM5_REG = CySysClkImoTrim5;
 435              		.loc 1 474 0
 436 0054 0A4A     		ldr	r2, .L40+20
 437 0056 5168     		ldr	r1, [r2, #4]
 438 0058 0A4A     		ldr	r2, .L40+24
 439 005a 1160     		str	r1, [r2]
 440              	.L38:
 475:Generated_Source\PSoC4/CyLib.c ****             }
 476:Generated_Source\PSoC4/CyLib.c ****             
 477:Generated_Source\PSoC4/CyLib.c ****             CY_SYS_CLK_IMO_TRIM1_REG = CY_SFLASH_IMO_TRIM_REG(freq - CY_SYS_CLK_IMO_FREQ_TABLE_OFFS
 441              		.loc 1 477 0
 442 005c 0A4A     		ldr	r2, .L40+28
 443 005e 9446     		mov	ip, r2
 444 0060 6344     		add	r3, r3, ip
 445              	.LVL28:
 446 0062 1B78     		ldrb	r3, [r3]
 447              	.LVL29:
 448 0064 DBB2     		uxtb	r3, r3
 449 0066 094A     		ldr	r2, .L40+32
 450 0068 1360     		str	r3, [r2]
 478:Generated_Source\PSoC4/CyLib.c ****             
 479:Generated_Source\PSoC4/CyLib.c ****         #endif  /* (CY_IP_SRSSV2) */
 480:Generated_Source\PSoC4/CyLib.c ****     }
 451              		.loc 1 480 0
 452              		@ sp needed
 453 006a 30BD     		pop	{r4, r5, pc}
 454              	.L41:
 455              		.align	2
 456              	.L40:
 457 006c 00F3FF0F 		.word	268432128
 458 0070 2CFF0B40 		.word	1074528044
 459 0074 00000000 		.word	.LANCHOR0
 460 0078 24002C40 		.word	1076625444
 461 007c 34FF0B40 		.word	1074528052
 462 0080 00000000 		.word	.LANCHOR1
 463 0084 20FF0B40 		.word	1074528032
 464 0088 4DF3FF0F 		.word	268432205
 465 008c 28FF0B40 		.word	1074528040
 466              		.cfi_endproc
 467              	.LFE7:
 468              		.size	CySysClkImoDisableUsbLock, .-CySysClkImoDisableUsbLock
 469              		.section	.text.CySysClkImoStop,"ax",%progbits
 470              		.align	2
 471              		.global	CySysClkImoStop
 472              		.code	16
ARM GAS  C:\Users\essele\AppData\Local\Temp\cchUVvdf.s 			page 18


 473              		.thumb_func
 474              		.type	CySysClkImoStop, %function
 475              	CySysClkImoStop:
 476              	.LFB2:
 131:Generated_Source\PSoC4/CyLib.c ****     #if (CY_IP_IMO_TRIMMABLE_BY_WCO)
 477              		.loc 1 131 0
 478              		.cfi_startproc
 479              		@ args = 0, pretend = 0, frame = 0
 480              		@ frame_needed = 0, uses_anonymous_args = 0
 481 0000 10B5     		push	{r4, lr}
 482              		.cfi_def_cfa_offset 8
 483              		.cfi_offset 4, -8
 484              		.cfi_offset 14, -4
 133:Generated_Source\PSoC4/CyLib.c ****     #endif  /* (CY_IP_IMO_TRIMMABLE_BY_WCO) */
 485              		.loc 1 133 0
 486 0002 FFF7FEFF 		bl	CySysClkImoDisableWcoLock
 487              	.LVL30:
 137:Generated_Source\PSoC4/CyLib.c ****     #endif  /* (CY_IP_IMO_TRIMMABLE_BY_USB) */
 488              		.loc 1 137 0
 489 0006 FFF7FEFF 		bl	CySysClkImoDisableUsbLock
 490              	.LVL31:
 140:Generated_Source\PSoC4/CyLib.c **** }
 491              		.loc 1 140 0
 492 000a 034A     		ldr	r2, .L43
 493 000c 1368     		ldr	r3, [r2]
 494 000e 5B00     		lsls	r3, r3, #1
 495 0010 5B08     		lsrs	r3, r3, #1
 496 0012 1360     		str	r3, [r2]
 141:Generated_Source\PSoC4/CyLib.c **** 
 497              		.loc 1 141 0
 498              		@ sp needed
 499 0014 10BD     		pop	{r4, pc}
 500              	.L44:
 501 0016 C046     		.align	2
 502              	.L43:
 503 0018 08010B40 		.word	1074462984
 504              		.cfi_endproc
 505              	.LFE2:
 506              		.size	CySysClkImoStop, .-CySysClkImoStop
 507              		.section	.text.CySysClkImoGetUsbLock,"ax",%progbits
 508              		.align	2
 509              		.global	CySysClkImoGetUsbLock
 510              		.code	16
 511              		.thumb_func
 512              		.type	CySysClkImoGetUsbLock, %function
 513              	CySysClkImoGetUsbLock:
 514              	.LFB8:
 481:Generated_Source\PSoC4/CyLib.c **** 
 482:Generated_Source\PSoC4/CyLib.c **** 
 483:Generated_Source\PSoC4/CyLib.c ****     /*******************************************************************************
 484:Generated_Source\PSoC4/CyLib.c ****     * Function Name: CySysClkImoGetUsbLock
 485:Generated_Source\PSoC4/CyLib.c ****     ****************************************************************************//**
 486:Generated_Source\PSoC4/CyLib.c ****     *
 487:Generated_Source\PSoC4/CyLib.c ****     * Reports the IMO to USB lock enable state.
 488:Generated_Source\PSoC4/CyLib.c ****     *
 489:Generated_Source\PSoC4/CyLib.c ****     * This is applicable for PSoC 4200L family of devices only. For PSoC 4200L
 490:Generated_Source\PSoC4/CyLib.c ****     * devices, the IMO can lock to either WCO or USB, but not both.
ARM GAS  C:\Users\essele\AppData\Local\Temp\cchUVvdf.s 			page 19


 491:Generated_Source\PSoC4/CyLib.c ****     *
 492:Generated_Source\PSoC4/CyLib.c ****     * \return 1 if IMO to USB lock is enabled.
 493:Generated_Source\PSoC4/CyLib.c ****     * \return 0 if IMO to USB lock is disabled.
 494:Generated_Source\PSoC4/CyLib.c ****     *
 495:Generated_Source\PSoC4/CyLib.c ****     *******************************************************************************/
 496:Generated_Source\PSoC4/CyLib.c ****     uint32 CySysClkImoGetUsbLock(void)
 497:Generated_Source\PSoC4/CyLib.c ****     {
 515              		.loc 1 497 0
 516              		.cfi_startproc
 517              		@ args = 0, pretend = 0, frame = 0
 518              		@ frame_needed = 0, uses_anonymous_args = 0
 519              		@ link register save eliminated.
 498:Generated_Source\PSoC4/CyLib.c ****         return ((0u != (CY_SYS_CLK_USBDEVv2_CR1_REG & CY_SYS_CLK_USBDEVv2_CR1_ENABLE_LOCK)) ?
 520              		.loc 1 498 0
 521 0000 034B     		ldr	r3, .L47
 522 0002 1B68     		ldr	r3, [r3]
 523 0004 0220     		movs	r0, #2
 524 0006 1840     		ands	r0, r3
 499:Generated_Source\PSoC4/CyLib.c ****                 (uint32) 1u :
 525              		.loc 1 499 0
 526 0008 00D0     		beq	.L46
 527 000a 0120     		movs	r0, #1
 528              	.L46:
 500:Generated_Source\PSoC4/CyLib.c ****                 (uint32) 0u);
 501:Generated_Source\PSoC4/CyLib.c ****     }
 529              		.loc 1 501 0
 530              		@ sp needed
 531 000c 7047     		bx	lr
 532              	.L48:
 533 000e C046     		.align	2
 534              	.L47:
 535 0010 24002C40 		.word	1076625444
 536              		.cfi_endproc
 537              	.LFE8:
 538              		.size	CySysClkImoGetUsbLock, .-CySysClkImoGetUsbLock
 539              		.section	.text.CySysClkWriteHfclkDirect,"ax",%progbits
 540              		.align	2
 541              		.global	CySysClkWriteHfclkDirect
 542              		.code	16
 543              		.thumb_func
 544              		.type	CySysClkWriteHfclkDirect, %function
 545              	CySysClkWriteHfclkDirect:
 546              	.LFB9:
 502:Generated_Source\PSoC4/CyLib.c **** #endif  /* (CY_IP_IMO_TRIMMABLE_BY_USB) */
 503:Generated_Source\PSoC4/CyLib.c **** 
 504:Generated_Source\PSoC4/CyLib.c **** 
 505:Generated_Source\PSoC4/CyLib.c **** 
 506:Generated_Source\PSoC4/CyLib.c **** /*******************************************************************************
 507:Generated_Source\PSoC4/CyLib.c **** * Function Name: CySysClkWriteHfclkDirect
 508:Generated_Source\PSoC4/CyLib.c **** ****************************************************************************//**
 509:Generated_Source\PSoC4/CyLib.c **** *
 510:Generated_Source\PSoC4/CyLib.c **** * Selects the direct source for the HFCLK.
 511:Generated_Source\PSoC4/CyLib.c **** *
 512:Generated_Source\PSoC4/CyLib.c **** * The new source must be running and stable before calling this function.
 513:Generated_Source\PSoC4/CyLib.c **** *
 514:Generated_Source\PSoC4/CyLib.c **** * PSoC 4000:
 515:Generated_Source\PSoC4/CyLib.c **** * The SYSCLK has a maximum speed of 16 MHz, so HFCLK and SYSCLK dividers should
ARM GAS  C:\Users\essele\AppData\Local\Temp\cchUVvdf.s 			page 20


 516:Generated_Source\PSoC4/CyLib.c **** * be selected in a way to not to exceed 16 MHz for the System clock.
 517:Generated_Source\PSoC4/CyLib.c **** *
 518:Generated_Source\PSoC4/CyLib.c **** * If the SYSCLK clock frequency increases during device operation, call
 519:Generated_Source\PSoC4/CyLib.c **** * CySysFlashSetWaitCycles() with the appropriate parameter to adjust the number
 520:Generated_Source\PSoC4/CyLib.c **** * of clock cycles the cache will wait before sampling data comes back from
 521:Generated_Source\PSoC4/CyLib.c **** * Flash. If the SYSCLK clock frequency decreases, you can call
 522:Generated_Source\PSoC4/CyLib.c **** * CySysFlashSetWaitCycles() to improve the CPU performance. See
 523:Generated_Source\PSoC4/CyLib.c **** * CySysFlashSetWaitCycles() description for more information.
 524:Generated_Source\PSoC4/CyLib.c **** *
 525:Generated_Source\PSoC4/CyLib.c **** * Do not select PLL as the source for HFCLK if PLL output frequency exceeds
 526:Generated_Source\PSoC4/CyLib.c **** * maximum permissible value for HFCLK.
 527:Generated_Source\PSoC4/CyLib.c **** *
 528:Generated_Source\PSoC4/CyLib.c **** * \param clkSelect One of the available HFCLK direct sources.
 529:Generated_Source\PSoC4/CyLib.c **** * CY_SYS_CLK_HFCLK_IMO     IMO.
 530:Generated_Source\PSoC4/CyLib.c **** * CY_SYS_CLK_HFCLK_EXTCLK  External clock pin.
 531:Generated_Source\PSoC4/CyLib.c **** * CY_SYS_CLK_HFCLK_ECO     External crystal oscillator. Applicable for
 532:Generated_Source\PSoC4/CyLib.c **** *                          PSoC 4100 BLE / PSoC 4200 BLE / PSoC 4200L /
 533:Generated_Source\PSoC4/CyLib.c **** *                          4100S with ECO.
 534:Generated_Source\PSoC4/CyLib.c **** * CY_SYS_CLK_HFCLK_PLL0    PLL#0. Applicable for PSoC 4200L /
 535:Generated_Source\PSoC4/CyLib.c **** *                          4100S with PLL.
 536:Generated_Source\PSoC4/CyLib.c **** * CY_SYS_CLK_HFCLK_PLL1    PLL#1. Applicable for PSoC 4200L.
 537:Generated_Source\PSoC4/CyLib.c **** *
 538:Generated_Source\PSoC4/CyLib.c **** *******************************************************************************/
 539:Generated_Source\PSoC4/CyLib.c **** void CySysClkWriteHfclkDirect(uint32 clkSelect)
 540:Generated_Source\PSoC4/CyLib.c **** {
 547              		.loc 1 540 0
 548              		.cfi_startproc
 549              		@ args = 0, pretend = 0, frame = 0
 550              		@ frame_needed = 0, uses_anonymous_args = 0
 551              	.LVL32:
 552 0000 10B5     		push	{r4, lr}
 553              		.cfi_def_cfa_offset 8
 554              		.cfi_offset 4, -8
 555              		.cfi_offset 14, -4
 556 0002 0400     		movs	r4, r0
 541:Generated_Source\PSoC4/CyLib.c ****     uint8  interruptState;
 542:Generated_Source\PSoC4/CyLib.c ****     uint32 tmpReg;
 543:Generated_Source\PSoC4/CyLib.c ****     
 544:Generated_Source\PSoC4/CyLib.c ****     #if (CY_IP_SRSSLT && CY_IP_PLL)
 545:Generated_Source\PSoC4/CyLib.c ****         uint8 i = 0u;
 546:Generated_Source\PSoC4/CyLib.c ****     #endif /* (CY_IP_SRSSLT && CY_IP_PLL) */
 547:Generated_Source\PSoC4/CyLib.c **** 
 548:Generated_Source\PSoC4/CyLib.c ****     interruptState = CyEnterCriticalSection();
 557              		.loc 1 548 0
 558 0004 FFF7FEFF 		bl	CyEnterCriticalSection
 559              	.LVL33:
 549:Generated_Source\PSoC4/CyLib.c **** 
 550:Generated_Source\PSoC4/CyLib.c **** #if (CY_IP_SRSSLT && CY_IP_PLL)
 551:Generated_Source\PSoC4/CyLib.c ****     if ((CY_SYS_CLK_HFCLK_PLL0 == clkSelect) || (CY_SYS_CLK_HFCLK_ECO == clkSelect))
 552:Generated_Source\PSoC4/CyLib.c ****     {
 553:Generated_Source\PSoC4/CyLib.c ****         tmpReg = CY_SYS_CLK_SELECT_REG & ~CY_SYS_CLK_SELECT_DIRECT_SEL_MASK;
 554:Generated_Source\PSoC4/CyLib.c ****         tmpReg |= CY_SYS_CLK_HFCLK_IMO;
 555:Generated_Source\PSoC4/CyLib.c ****         CY_SYS_CLK_SELECT_REG = tmpReg;        
 556:Generated_Source\PSoC4/CyLib.c ****         
 557:Generated_Source\PSoC4/CyLib.c ****         /* SRSSLT block does not have registers to select PLL. It is part of EXCO */ 
 558:Generated_Source\PSoC4/CyLib.c ****         tmpReg = CY_SYS_ECO_CLK_SELECT_REG & ~CY_SYS_ECO_CLK_SELECT_ECO_PLL_MASK;
 559:Generated_Source\PSoC4/CyLib.c ****         tmpReg |= ((clkSelect & CY_SYS_CLK_SELECT_HFCLK_SEL_PLL_MASK) >> CY_SYS_CLK_SELECT_HFCLK_PL
ARM GAS  C:\Users\essele\AppData\Local\Temp\cchUVvdf.s 			page 21


 560:Generated_Source\PSoC4/CyLib.c ****         CY_SYS_ECO_CLK_SELECT_REG = tmpReg;
 561:Generated_Source\PSoC4/CyLib.c ****         
 562:Generated_Source\PSoC4/CyLib.c ****         /* Generate clock sequence to change clock source in CY_SYS_ECO_CLK_SELECT_REG */
 563:Generated_Source\PSoC4/CyLib.c ****         CY_SYS_EXCO_PGM_CLK_REG |= CY_SYS_EXCO_PGM_CLK_ENABLE_MASK;
 564:Generated_Source\PSoC4/CyLib.c ****         
 565:Generated_Source\PSoC4/CyLib.c ****         for(i = 0u; i < CY_SYS_EXCO_PGM_CLK_SEQ_GENERATOR; i++)
 566:Generated_Source\PSoC4/CyLib.c ****         {
 567:Generated_Source\PSoC4/CyLib.c ****             CY_SYS_EXCO_PGM_CLK_REG |= CY_SYS_EXCO_PGM_CLK_CLK_ECO_MASK;
 568:Generated_Source\PSoC4/CyLib.c ****             CY_SYS_EXCO_PGM_CLK_REG &= ~CY_SYS_EXCO_PGM_CLK_CLK_ECO_MASK;
 569:Generated_Source\PSoC4/CyLib.c ****         }
 570:Generated_Source\PSoC4/CyLib.c ****         
 571:Generated_Source\PSoC4/CyLib.c ****         CY_SYS_EXCO_PGM_CLK_REG &= ~CY_SYS_EXCO_PGM_CLK_ENABLE_MASK;    
 572:Generated_Source\PSoC4/CyLib.c ****     }
 573:Generated_Source\PSoC4/CyLib.c **** #endif /* (CY_IP_SRSSLT && CY_IP_PLL) */
 574:Generated_Source\PSoC4/CyLib.c **** 
 575:Generated_Source\PSoC4/CyLib.c ****     tmpReg = CY_SYS_CLK_SELECT_REG & ~(CY_SYS_CLK_SELECT_DIRECT_SEL_MASK |
 560              		.loc 1 575 0
 561 0008 0C4B     		ldr	r3, .L53
 562 000a 1A68     		ldr	r2, [r3]
 563 000c 0C4B     		ldr	r3, .L53+4
 564 000e 1340     		ands	r3, r2
 565              	.LVL34:
 576:Generated_Source\PSoC4/CyLib.c ****                                        CY_SYS_CLK_SELECT_HFCLK_SEL_MASK);
 577:Generated_Source\PSoC4/CyLib.c **** 
 578:Generated_Source\PSoC4/CyLib.c **** #if (CY_IP_SRSSV2 && CY_IP_PLL)
 579:Generated_Source\PSoC4/CyLib.c ****     if ((CY_SYS_CLK_HFCLK_PLL0 == clkSelect) || (CY_SYS_CLK_HFCLK_PLL1 == clkSelect))
 566              		.loc 1 579 0
 567 0010 8022     		movs	r2, #128
 568 0012 9202     		lsls	r2, r2, #10
 569 0014 9442     		cmp	r4, r2
 570 0016 03D0     		beq	.L50
 571              		.loc 1 579 0 is_stmt 0 discriminator 1
 572 0018 8022     		movs	r2, #128
 573 001a 5202     		lsls	r2, r2, #9
 574 001c 9442     		cmp	r4, r2
 575 001e 04D1     		bne	.L51
 576              	.L50:
 580:Generated_Source\PSoC4/CyLib.c ****     {
 581:Generated_Source\PSoC4/CyLib.c ****         tmpReg |= (clkSelect & CY_SYS_CLK_SELECT_HFCLK_SEL_MASK);
 577              		.loc 1 581 0 is_stmt 1
 578 0020 C022     		movs	r2, #192
 579 0022 9202     		lsls	r2, r2, #10
 580 0024 1440     		ands	r4, r2
 581              	.LVL35:
 582 0026 2343     		orrs	r3, r4
 583              	.LVL36:
 584 0028 02E0     		b	.L52
 585              	.LVL37:
 586              	.L51:
 582:Generated_Source\PSoC4/CyLib.c ****     }
 583:Generated_Source\PSoC4/CyLib.c ****     else
 584:Generated_Source\PSoC4/CyLib.c **** #endif /* (CY_IP_SRSSV2 && CY_IP_PLL) */
 585:Generated_Source\PSoC4/CyLib.c ****     {
 586:Generated_Source\PSoC4/CyLib.c ****         tmpReg |= (clkSelect & CY_SYS_CLK_SELECT_DIRECT_SEL_MASK);
 587              		.loc 1 586 0
 588 002a 0722     		movs	r2, #7
 589 002c 1440     		ands	r4, r2
ARM GAS  C:\Users\essele\AppData\Local\Temp\cchUVvdf.s 			page 22


 590              	.LVL38:
 591 002e 2343     		orrs	r3, r4
 592              	.LVL39:
 593              	.L52:
 587:Generated_Source\PSoC4/CyLib.c ****     }   
 588:Generated_Source\PSoC4/CyLib.c ****     
 589:Generated_Source\PSoC4/CyLib.c ****     CY_SYS_CLK_SELECT_REG = tmpReg;
 594              		.loc 1 589 0
 595 0030 024A     		ldr	r2, .L53
 596 0032 1360     		str	r3, [r2]
 590:Generated_Source\PSoC4/CyLib.c ****     
 591:Generated_Source\PSoC4/CyLib.c ****     CyExitCriticalSection(interruptState);
 597              		.loc 1 591 0
 598 0034 FFF7FEFF 		bl	CyExitCriticalSection
 599              	.LVL40:
 592:Generated_Source\PSoC4/CyLib.c **** }
 600              		.loc 1 592 0
 601              		@ sp needed
 602 0038 10BD     		pop	{r4, pc}
 603              	.L54:
 604 003a C046     		.align	2
 605              	.L53:
 606 003c 00010B40 		.word	1074462976
 607 0040 F8FFFCFF 		.word	-196616
 608              		.cfi_endproc
 609              	.LFE9:
 610              		.size	CySysClkWriteHfclkDirect, .-CySysClkWriteHfclkDirect
 611              		.section	.text.CySysEnablePumpClock,"ax",%progbits
 612              		.align	2
 613              		.global	CySysEnablePumpClock
 614              		.code	16
 615              		.thumb_func
 616              		.type	CySysEnablePumpClock, %function
 617              	CySysEnablePumpClock:
 618              	.LFB10:
 593:Generated_Source\PSoC4/CyLib.c **** 
 594:Generated_Source\PSoC4/CyLib.c **** 
 595:Generated_Source\PSoC4/CyLib.c **** /*******************************************************************************
 596:Generated_Source\PSoC4/CyLib.c **** * Function Name: CySysEnablePumpClock
 597:Generated_Source\PSoC4/CyLib.c **** ****************************************************************************//**
 598:Generated_Source\PSoC4/CyLib.c **** *
 599:Generated_Source\PSoC4/CyLib.c **** * Enables / disables the pump clock.
 600:Generated_Source\PSoC4/CyLib.c **** *
 601:Generated_Source\PSoC4/CyLib.c **** * \param enable  
 602:Generated_Source\PSoC4/CyLib.c **** * CY_SYS_CLK_PUMP_DISABLE - Disables the pump clock
 603:Generated_Source\PSoC4/CyLib.c **** * CY_SYS_CLK_PUMP_ENABLE - Enables and restores the operating source of 
 604:Generated_Source\PSoC4/CyLib.c **** * the pump clock.
 605:Generated_Source\PSoC4/CyLib.c **** *
 606:Generated_Source\PSoC4/CyLib.c **** * \sideeffect
 607:Generated_Source\PSoC4/CyLib.c **** *  Enabling/disabling the pump clock does not guarantee glitch free operation 
 608:Generated_Source\PSoC4/CyLib.c **** *  when changing the IMO parameters or clock divider settings.
 609:Generated_Source\PSoC4/CyLib.c **** *
 610:Generated_Source\PSoC4/CyLib.c **** *******************************************************************************/
 611:Generated_Source\PSoC4/CyLib.c **** void CySysEnablePumpClock(uint32 enable)
 612:Generated_Source\PSoC4/CyLib.c **** {
 619              		.loc 1 612 0
 620              		.cfi_startproc
ARM GAS  C:\Users\essele\AppData\Local\Temp\cchUVvdf.s 			page 23


 621              		@ args = 0, pretend = 0, frame = 0
 622              		@ frame_needed = 0, uses_anonymous_args = 0
 623              		@ link register save eliminated.
 624              	.LVL41:
 613:Generated_Source\PSoC4/CyLib.c ****     #if(CY_IP_SRSSV2)
 614:Generated_Source\PSoC4/CyLib.c ****         if (0u != (CY_SYS_CLK_PUMP_ENABLE & enable))
 625              		.loc 1 614 0
 626 0000 C307     		lsls	r3, r0, #31
 627 0002 07D5     		bpl	.L56
 615:Generated_Source\PSoC4/CyLib.c ****         {
 616:Generated_Source\PSoC4/CyLib.c ****             CY_SYS_CLK_IMO_CONFIG_REG |= (CySysClkPumpConfig << CY_SYS_CLK_IMO_CONFIG_PUMP_SEL_SHIF
 628              		.loc 1 616 0
 629 0004 094A     		ldr	r2, .L58
 630 0006 1168     		ldr	r1, [r2]
 631 0008 094B     		ldr	r3, .L58+4
 632 000a 1B68     		ldr	r3, [r3]
 633 000c 5B06     		lsls	r3, r3, #25
 634 000e 0B43     		orrs	r3, r1
 635 0010 1360     		str	r3, [r2]
 636 0012 0AE0     		b	.L55
 637              	.L56:
 617:Generated_Source\PSoC4/CyLib.c ****         }
 618:Generated_Source\PSoC4/CyLib.c ****         else
 619:Generated_Source\PSoC4/CyLib.c ****         {
 620:Generated_Source\PSoC4/CyLib.c ****             CySysClkPumpConfig = (CY_SYS_CLK_IMO_CONFIG_REG >> CY_SYS_CLK_IMO_CONFIG_PUMP_SEL_SHIFT
 638              		.loc 1 620 0
 639 0014 054A     		ldr	r2, .L58
 640 0016 1368     		ldr	r3, [r2]
 641 0018 5B0E     		lsrs	r3, r3, #25
 642 001a 0721     		movs	r1, #7
 643 001c 0B40     		ands	r3, r1
 644 001e 0449     		ldr	r1, .L58+4
 645 0020 0B60     		str	r3, [r1]
 621:Generated_Source\PSoC4/CyLib.c ****                                   CY_SYS_CLK_IMO_CONFIG_PUMP_SEL_MASK;
 622:Generated_Source\PSoC4/CyLib.c ****             CY_SYS_CLK_IMO_CONFIG_REG &= ~(CY_SYS_CLK_IMO_CONFIG_PUMP_SEL_MASK << CY_SYS_CLK_IMO_CO
 646              		.loc 1 622 0
 647 0022 1168     		ldr	r1, [r2]
 648 0024 034B     		ldr	r3, .L58+8
 649 0026 0B40     		ands	r3, r1
 650 0028 1360     		str	r3, [r2]
 651              	.L55:
 623:Generated_Source\PSoC4/CyLib.c ****         }
 624:Generated_Source\PSoC4/CyLib.c ****     #else /* CY_IP_SRSSLT */
 625:Generated_Source\PSoC4/CyLib.c ****         if (0u != (CY_SYS_CLK_PUMP_ENABLE & enable))
 626:Generated_Source\PSoC4/CyLib.c ****         {
 627:Generated_Source\PSoC4/CyLib.c ****             CY_SYS_CLK_SELECT_REG |= (CySysClkPumpConfig << CY_SYS_CLK_SELECT_PUMP_SEL_SHIFT);
 628:Generated_Source\PSoC4/CyLib.c ****         }
 629:Generated_Source\PSoC4/CyLib.c ****         else
 630:Generated_Source\PSoC4/CyLib.c ****         {
 631:Generated_Source\PSoC4/CyLib.c ****             CySysClkPumpConfig = (CY_SYS_CLK_SELECT_REG >> CY_SYS_CLK_SELECT_PUMP_SEL_SHIFT) & 
 632:Generated_Source\PSoC4/CyLib.c ****                                   CY_SYS_CLK_SELECT_PUMP_SEL_MASK;
 633:Generated_Source\PSoC4/CyLib.c ****             CY_SYS_CLK_SELECT_REG &= ~(CY_SYS_CLK_SELECT_PUMP_SEL_MASK << CY_SYS_CLK_SELECT_PUMP_SE
 634:Generated_Source\PSoC4/CyLib.c ****         }
 635:Generated_Source\PSoC4/CyLib.c ****     #endif  /* (CY_IP_SRSSV2) */
 636:Generated_Source\PSoC4/CyLib.c **** }
 652              		.loc 1 636 0
 653              		@ sp needed
ARM GAS  C:\Users\essele\AppData\Local\Temp\cchUVvdf.s 			page 24


 654 002a 7047     		bx	lr
 655              	.L59:
 656              		.align	2
 657              	.L58:
 658 002c 08010B40 		.word	1074462984
 659 0030 00000000 		.word	.LANCHOR2
 660 0034 FFFFFFF1 		.word	-234881025
 661              		.cfi_endproc
 662              	.LFE10:
 663              		.size	CySysEnablePumpClock, .-CySysEnablePumpClock
 664              		.section	.text.CySysClkGetSysclkSource,"ax",%progbits
 665              		.align	2
 666              		.global	CySysClkGetSysclkSource
 667              		.code	16
 668              		.thumb_func
 669              		.type	CySysClkGetSysclkSource, %function
 670              	CySysClkGetSysclkSource:
 671              	.LFB11:
 637:Generated_Source\PSoC4/CyLib.c **** 
 638:Generated_Source\PSoC4/CyLib.c **** 
 639:Generated_Source\PSoC4/CyLib.c **** /*******************************************************************************
 640:Generated_Source\PSoC4/CyLib.c **** * Function Name: CySysClkGetSysclkSource
 641:Generated_Source\PSoC4/CyLib.c **** ****************************************************************************//**
 642:Generated_Source\PSoC4/CyLib.c **** *
 643:Generated_Source\PSoC4/CyLib.c **** * Returns the source of the System clock.
 644:Generated_Source\PSoC4/CyLib.c **** *
 645:Generated_Source\PSoC4/CyLib.c **** * \return The same as \ref CySysClkWriteHfclkDirect() function parameters.
 646:Generated_Source\PSoC4/CyLib.c **** *
 647:Generated_Source\PSoC4/CyLib.c **** *******************************************************************************/
 648:Generated_Source\PSoC4/CyLib.c **** uint32 CySysClkGetSysclkSource(void)
 649:Generated_Source\PSoC4/CyLib.c **** {
 672              		.loc 1 649 0
 673              		.cfi_startproc
 674              		@ args = 0, pretend = 0, frame = 0
 675              		@ frame_needed = 0, uses_anonymous_args = 0
 676 0000 10B5     		push	{r4, lr}
 677              		.cfi_def_cfa_offset 8
 678              		.cfi_offset 4, -8
 679              		.cfi_offset 14, -4
 650:Generated_Source\PSoC4/CyLib.c ****     uint8  interruptState;
 651:Generated_Source\PSoC4/CyLib.c ****     uint32 sysclkSource;
 652:Generated_Source\PSoC4/CyLib.c **** 
 653:Generated_Source\PSoC4/CyLib.c ****     interruptState = CyEnterCriticalSection();
 680              		.loc 1 653 0
 681 0002 FFF7FEFF 		bl	CyEnterCriticalSection
 682              	.LVL42:
 654:Generated_Source\PSoC4/CyLib.c **** 
 655:Generated_Source\PSoC4/CyLib.c **** #if (CY_IP_SRSSV2 && CY_IP_PLL)
 656:Generated_Source\PSoC4/CyLib.c ****     if ((CY_SYS_CLK_SELECT_REG & CY_SYS_CLK_SELECT_HFCLK_SEL_MASK) != 0u)
 683              		.loc 1 656 0
 684 0006 0A4B     		ldr	r3, .L63
 685 0008 1A68     		ldr	r2, [r3]
 686 000a C023     		movs	r3, #192
 687 000c 9B02     		lsls	r3, r3, #10
 688 000e 1A42     		tst	r2, r3
 689 0010 05D0     		beq	.L61
 657:Generated_Source\PSoC4/CyLib.c ****     {
ARM GAS  C:\Users\essele\AppData\Local\Temp\cchUVvdf.s 			page 25


 658:Generated_Source\PSoC4/CyLib.c ****         sysclkSource = (CY_SYS_CLK_SELECT_REG & CY_SYS_CLK_SELECT_HFCLK_SEL_MASK);
 690              		.loc 1 658 0
 691 0012 074B     		ldr	r3, .L63
 692 0014 1C68     		ldr	r4, [r3]
 693 0016 C023     		movs	r3, #192
 694 0018 9B02     		lsls	r3, r3, #10
 695 001a 1C40     		ands	r4, r3
 696              	.LVL43:
 697 001c 03E0     		b	.L62
 698              	.LVL44:
 699              	.L61:
 659:Generated_Source\PSoC4/CyLib.c ****     }
 660:Generated_Source\PSoC4/CyLib.c ****     else
 661:Generated_Source\PSoC4/CyLib.c **** #endif /* (CY_IP_SRSSV2 && CY_IP_PLL) */
 662:Generated_Source\PSoC4/CyLib.c ****     {
 663:Generated_Source\PSoC4/CyLib.c ****         sysclkSource = (CY_SYS_CLK_SELECT_REG & CY_SYS_CLK_SELECT_DIRECT_SEL_MASK);
 700              		.loc 1 663 0
 701 001e 044B     		ldr	r3, .L63
 702 0020 1B68     		ldr	r3, [r3]
 703 0022 0724     		movs	r4, #7
 704 0024 1C40     		ands	r4, r3
 705              	.LVL45:
 706              	.L62:
 664:Generated_Source\PSoC4/CyLib.c **** 
 665:Generated_Source\PSoC4/CyLib.c ****     #if (CY_IP_SRSSLT && CY_IP_PLL)
 666:Generated_Source\PSoC4/CyLib.c ****         sysclkSource |= (((uint32)(CY_SYS_ECO_CLK_SELECT_REG & CY_SYS_ECO_CLK_SELECT_ECO_PLL_MASK))
 667:Generated_Source\PSoC4/CyLib.c ****                          CY_SYS_CLK_SELECT_HFCLK_PLL_SHIFT);
 668:Generated_Source\PSoC4/CyLib.c ****     #endif /* (CY_IP_SRSSLT && CY_IP_PLL) */
 669:Generated_Source\PSoC4/CyLib.c ****         
 670:Generated_Source\PSoC4/CyLib.c ****     }
 671:Generated_Source\PSoC4/CyLib.c **** 
 672:Generated_Source\PSoC4/CyLib.c ****     CyExitCriticalSection(interruptState);
 707              		.loc 1 672 0
 708 0026 FFF7FEFF 		bl	CyExitCriticalSection
 709              	.LVL46:
 673:Generated_Source\PSoC4/CyLib.c **** 
 674:Generated_Source\PSoC4/CyLib.c ****     return (sysclkSource);
 675:Generated_Source\PSoC4/CyLib.c **** }
 710              		.loc 1 675 0
 711 002a 2000     		movs	r0, r4
 712              		@ sp needed
 713              	.LVL47:
 714 002c 10BD     		pop	{r4, pc}
 715              	.L64:
 716 002e C046     		.align	2
 717              	.L63:
 718 0030 00010B40 		.word	1074462976
 719              		.cfi_endproc
 720              	.LFE11:
 721              		.size	CySysClkGetSysclkSource, .-CySysClkGetSysclkSource
 722              		.section	.text.CySysClkWriteSysclkDiv,"ax",%progbits
 723              		.align	2
 724              		.global	CySysClkWriteSysclkDiv
 725              		.code	16
 726              		.thumb_func
 727              		.type	CySysClkWriteSysclkDiv, %function
 728              	CySysClkWriteSysclkDiv:
ARM GAS  C:\Users\essele\AppData\Local\Temp\cchUVvdf.s 			page 26


 729              	.LFB12:
 676:Generated_Source\PSoC4/CyLib.c **** 
 677:Generated_Source\PSoC4/CyLib.c **** 
 678:Generated_Source\PSoC4/CyLib.c **** /*******************************************************************************
 679:Generated_Source\PSoC4/CyLib.c **** * Function Name: CySysClkWriteSysclkDiv
 680:Generated_Source\PSoC4/CyLib.c **** ****************************************************************************//**
 681:Generated_Source\PSoC4/CyLib.c **** *
 682:Generated_Source\PSoC4/CyLib.c **** * Selects the prescaler divide amount for SYSCLK from HFCLK.
 683:Generated_Source\PSoC4/CyLib.c **** *
 684:Generated_Source\PSoC4/CyLib.c **** * PSoC 4000: The SYSCLK has the speed of 16 MHz, so HFCLK and SYSCLK dividers
 685:Generated_Source\PSoC4/CyLib.c **** * should be selected in a way, not to exceed 16 MHz for SYSCLK.
 686:Generated_Source\PSoC4/CyLib.c **** *
 687:Generated_Source\PSoC4/CyLib.c **** * PSoC 4100 \ PSoC 4100 BLE \ PSoC 4100M: The SYSCLK has the speed of 24 MHz,
 688:Generated_Source\PSoC4/CyLib.c **** * so HFCLK and SYSCLK dividers should be selected in a way, not to exceed 24 MHz
 689:Generated_Source\PSoC4/CyLib.c **** * for SYSCLK.
 690:Generated_Source\PSoC4/CyLib.c **** *
 691:Generated_Source\PSoC4/CyLib.c **** * If the SYSCLK clock frequency increases during the device operation, call
 692:Generated_Source\PSoC4/CyLib.c **** * \ref CySysFlashSetWaitCycles() with the appropriate parameter to adjust the
 693:Generated_Source\PSoC4/CyLib.c **** * number of clock cycles the cache will wait before sampling data comes back
 694:Generated_Source\PSoC4/CyLib.c **** * from Flash. If the SYSCLK clock frequency decreases, you can call
 695:Generated_Source\PSoC4/CyLib.c **** * \ref CySysFlashSetWaitCycles() to improve the CPU performance. See
 696:Generated_Source\PSoC4/CyLib.c **** * \ref CySysFlashSetWaitCycles() description for more information.
 697:Generated_Source\PSoC4/CyLib.c **** *
 698:Generated_Source\PSoC4/CyLib.c **** * \param divider Power of 2 prescaler selection
 699:Generated_Source\PSoC4/CyLib.c **** *  CY_SYS_CLK_SYSCLK_DIV1        SYSCLK = HFCLK / 1
 700:Generated_Source\PSoC4/CyLib.c **** *  CY_SYS_CLK_SYSCLK_DIV2        SYSCLK = HFCLK / 2
 701:Generated_Source\PSoC4/CyLib.c **** *  CY_SYS_CLK_SYSCLK_DIV4        SYSCLK = HFCLK / 4
 702:Generated_Source\PSoC4/CyLib.c **** *  CY_SYS_CLK_SYSCLK_DIV8        SYSCLK = HFCLK / 8
 703:Generated_Source\PSoC4/CyLib.c **** *  CY_SYS_CLK_SYSCLK_DIV16       SYSCLK = HFCLK / 16  (N/A for 4000 Family)
 704:Generated_Source\PSoC4/CyLib.c **** *  CY_SYS_CLK_SYSCLK_DIV32       SYSCLK = HFCLK / 32  (N/A for 4000 Family)
 705:Generated_Source\PSoC4/CyLib.c **** *  CY_SYS_CLK_SYSCLK_DIV64       SYSCLK = HFCLK / 64  (N/A for 4000 Family)
 706:Generated_Source\PSoC4/CyLib.c **** *  CY_SYS_CLK_SYSCLK_DIV128      SYSCLK = HFCLK / 128 (N/A for 4000 Family)
 707:Generated_Source\PSoC4/CyLib.c **** *
 708:Generated_Source\PSoC4/CyLib.c **** *******************************************************************************/
 709:Generated_Source\PSoC4/CyLib.c **** void CySysClkWriteSysclkDiv(uint32 divider)
 710:Generated_Source\PSoC4/CyLib.c **** {
 730              		.loc 1 710 0
 731              		.cfi_startproc
 732              		@ args = 0, pretend = 0, frame = 0
 733              		@ frame_needed = 0, uses_anonymous_args = 0
 734              	.LVL48:
 735 0000 10B5     		push	{r4, lr}
 736              		.cfi_def_cfa_offset 8
 737              		.cfi_offset 4, -8
 738              		.cfi_offset 14, -4
 739 0002 0400     		movs	r4, r0
 711:Generated_Source\PSoC4/CyLib.c ****     uint8  interruptState;
 712:Generated_Source\PSoC4/CyLib.c **** 
 713:Generated_Source\PSoC4/CyLib.c ****     interruptState = CyEnterCriticalSection();
 740              		.loc 1 713 0
 741 0004 FFF7FEFF 		bl	CyEnterCriticalSection
 742              	.LVL49:
 714:Generated_Source\PSoC4/CyLib.c **** 
 715:Generated_Source\PSoC4/CyLib.c ****     CY_SYS_CLK_SELECT_REG = ((uint32)(((uint32)divider & CY_SYS_CLK_SELECT_SYSCLK_DIV_MASK) <<
 743              		.loc 1 715 0
 744 0008 E304     		lsls	r3, r4, #19
 745 000a E022     		movs	r2, #224
ARM GAS  C:\Users\essele\AppData\Local\Temp\cchUVvdf.s 			page 27


 746 000c 9203     		lsls	r2, r2, #14
 747 000e 1340     		ands	r3, r2
 748 0010 1900     		movs	r1, r3
 716:Generated_Source\PSoC4/CyLib.c ****                                     CY_SYS_CLK_SELECT_SYSCLK_DIV_SHIFT)) |
 717:Generated_Source\PSoC4/CyLib.c ****                             (CY_SYS_CLK_SELECT_REG & ((uint32)(~(uint32)(CY_SYS_CLK_SELECT_SYSCLK_D
 749              		.loc 1 717 0
 750 0012 054C     		ldr	r4, .L66
 751              	.LVL50:
 752 0014 2368     		ldr	r3, [r4]
 753 0016 054A     		ldr	r2, .L66+4
 754 0018 1A40     		ands	r2, r3
 716:Generated_Source\PSoC4/CyLib.c ****                                     CY_SYS_CLK_SELECT_SYSCLK_DIV_SHIFT)) |
 755              		.loc 1 716 0
 756 001a 0B00     		movs	r3, r1
 757 001c 1343     		orrs	r3, r2
 715:Generated_Source\PSoC4/CyLib.c ****                                     CY_SYS_CLK_SELECT_SYSCLK_DIV_SHIFT)) |
 758              		.loc 1 715 0
 759 001e 2360     		str	r3, [r4]
 718:Generated_Source\PSoC4/CyLib.c ****                                     CY_SYS_CLK_SELECT_SYSCLK_DIV_SHIFT))));
 719:Generated_Source\PSoC4/CyLib.c **** 
 720:Generated_Source\PSoC4/CyLib.c ****     CyExitCriticalSection(interruptState);
 760              		.loc 1 720 0
 761 0020 FFF7FEFF 		bl	CyExitCriticalSection
 762              	.LVL51:
 721:Generated_Source\PSoC4/CyLib.c **** }
 763              		.loc 1 721 0
 764              		@ sp needed
 765 0024 10BD     		pop	{r4, pc}
 766              	.L67:
 767 0026 C046     		.align	2
 768              	.L66:
 769 0028 00010B40 		.word	1074462976
 770 002c FFFFC7FF 		.word	-3670017
 771              		.cfi_endproc
 772              	.LFE12:
 773              		.size	CySysClkWriteSysclkDiv, .-CySysClkWriteSysclkDiv
 774              		.section	.text.CySysClkEcoStop,"ax",%progbits
 775              		.align	2
 776              		.global	CySysClkEcoStop
 777              		.code	16
 778              		.thumb_func
 779              		.type	CySysClkEcoStop, %function
 780              	CySysClkEcoStop:
 781              	.LFB15:
 722:Generated_Source\PSoC4/CyLib.c **** 
 723:Generated_Source\PSoC4/CyLib.c **** 
 724:Generated_Source\PSoC4/CyLib.c **** /*******************************************************************************
 725:Generated_Source\PSoC4/CyLib.c **** * Function Name: CySysClkWriteImoFreq
 726:Generated_Source\PSoC4/CyLib.c **** ****************************************************************************//**
 727:Generated_Source\PSoC4/CyLib.c **** *
 728:Generated_Source\PSoC4/CyLib.c **** * Sets the frequency of the IMO.
 729:Generated_Source\PSoC4/CyLib.c **** *
 730:Generated_Source\PSoC4/CyLib.c **** * PSoC 4000: The SYSCLK has the speed of 16 MHz, so HFCLK and SYSCLK dividers
 731:Generated_Source\PSoC4/CyLib.c **** * should be selected in a way, not to exceed 16 MHz for SYSCLK.
 732:Generated_Source\PSoC4/CyLib.c **** *
 733:Generated_Source\PSoC4/CyLib.c **** * PSoC 4100 \ PSoC 4100 BLE \ PSoC 4100M: The SYSCLK has the speed of 24 MHz,
 734:Generated_Source\PSoC4/CyLib.c **** * so HFCLK and SYSCLK dividers should be selected in a way, not to exceed 24 MHz
ARM GAS  C:\Users\essele\AppData\Local\Temp\cchUVvdf.s 			page 28


 735:Generated_Source\PSoC4/CyLib.c **** * for SYSCLK.
 736:Generated_Source\PSoC4/CyLib.c **** *
 737:Generated_Source\PSoC4/CyLib.c **** * For PSoC 4200M and PSoC 4200L device families, if WCO lock feature is enabled
 738:Generated_Source\PSoC4/CyLib.c **** * then this API will disable the lock, write the new IMO frequency and then
 739:Generated_Source\PSoC4/CyLib.c **** * re-enable the lock.
 740:Generated_Source\PSoC4/CyLib.c **** *
 741:Generated_Source\PSoC4/CyLib.c **** * For PSoC 4200L device families, this function enables the USB lock when 24 or
 742:Generated_Source\PSoC4/CyLib.c **** * 48 MHz passed as a parameter if the USB lock option is enabled in Design Wide
 743:Generated_Source\PSoC4/CyLib.c **** * Resources tab or CySysClkImoEnableUsbLock() was called before. Note the USB
 744:Generated_Source\PSoC4/CyLib.c **** * lock is disabled during IMO frequency change.
 745:Generated_Source\PSoC4/CyLib.c **** *
 746:Generated_Source\PSoC4/CyLib.c **** * The CPU is halted if new frequency is invalid and project is compiled
 747:Generated_Source\PSoC4/CyLib.c **** * in debug mode.
 748:Generated_Source\PSoC4/CyLib.c **** *
 749:Generated_Source\PSoC4/CyLib.c **** * If the SYSCLK clock frequency increases during the device operation, call
 750:Generated_Source\PSoC4/CyLib.c **** * \ref CySysFlashSetWaitCycles() with the appropriate parameter to adjust the
 751:Generated_Source\PSoC4/CyLib.c **** * number of clock cycles the cache will wait before sampling data comes back
 752:Generated_Source\PSoC4/CyLib.c **** * from Flash. If the SYSCLK clock frequency decreases, you can call
 753:Generated_Source\PSoC4/CyLib.c **** * \ref CySysFlashSetWaitCycles() to improve the CPU performance. See
 754:Generated_Source\PSoC4/CyLib.c **** * \ref CySysFlashSetWaitCycles() description for more information.
 755:Generated_Source\PSoC4/CyLib.c **** *
 756:Generated_Source\PSoC4/CyLib.c **** * PSoC 4000: The System Clock (SYSCLK) has maximum speed of 16 MHz, so HFCLK
 757:Generated_Source\PSoC4/CyLib.c **** * and SYSCLK dividers should be selected in a way, to not to exceed 16 MHz for
 758:Generated_Source\PSoC4/CyLib.c **** * the System clock.
 759:Generated_Source\PSoC4/CyLib.c **** *
 760:Generated_Source\PSoC4/CyLib.c **** * \param freq All PSoC 4 families excluding the following: Valid range [3-48]
 761:Generated_Source\PSoC4/CyLib.c **** * with step size equals 1. PSoC 4000: Valid values are 24, 32, and 48.
 762:Generated_Source\PSoC4/CyLib.c **** * PSoC 4000S / PSoC 4100S / PSoC Analog Coprocessor: Valid range [24-48] with 
 763:Generated_Source\PSoC4/CyLib.c **** * step size equals 4.
 764:Generated_Source\PSoC4/CyLib.c **** *
 765:Generated_Source\PSoC4/CyLib.c **** *******************************************************************************/
 766:Generated_Source\PSoC4/CyLib.c **** #if(CY_IP_SRSSV2)
 767:Generated_Source\PSoC4/CyLib.c ****     void CySysClkWriteImoFreq(uint32 freq)
 768:Generated_Source\PSoC4/CyLib.c ****     {
 769:Generated_Source\PSoC4/CyLib.c ****         #if (CY_IP_FMLT)
 770:Generated_Source\PSoC4/CyLib.c ****             volatile uint32   parameters[2u];
 771:Generated_Source\PSoC4/CyLib.c ****             volatile uint32   regValues[4u];
 772:Generated_Source\PSoC4/CyLib.c ****         #else
 773:Generated_Source\PSoC4/CyLib.c ****             uint8  bgTrim4;
 774:Generated_Source\PSoC4/CyLib.c ****             uint8  bgTrim5;
 775:Generated_Source\PSoC4/CyLib.c ****             uint8  newImoTrim2Value;
 776:Generated_Source\PSoC4/CyLib.c ****             uint8  currentImoTrim2Value;
 777:Generated_Source\PSoC4/CyLib.c ****         #endif /* (CY_IP_FM) */
 778:Generated_Source\PSoC4/CyLib.c **** 
 779:Generated_Source\PSoC4/CyLib.c ****         #if (CY_IP_IMO_TRIMMABLE_BY_WCO)
 780:Generated_Source\PSoC4/CyLib.c ****             uint32 wcoLock = 0u;
 781:Generated_Source\PSoC4/CyLib.c ****         #endif  /* (CY_IP_IMO_TRIMMABLE_BY_WCO) */
 782:Generated_Source\PSoC4/CyLib.c **** 
 783:Generated_Source\PSoC4/CyLib.c ****         #if (CY_IP_IMO_TRIMMABLE_BY_USB)
 784:Generated_Source\PSoC4/CyLib.c ****             uint32 usbLock = 0u;
 785:Generated_Source\PSoC4/CyLib.c ****         #endif  /* (CY_IP_IMO_TRIMMABLE_BY_USB) */
 786:Generated_Source\PSoC4/CyLib.c **** 
 787:Generated_Source\PSoC4/CyLib.c ****         uint8  interruptState;
 788:Generated_Source\PSoC4/CyLib.c **** 
 789:Generated_Source\PSoC4/CyLib.c **** 
 790:Generated_Source\PSoC4/CyLib.c ****         interruptState = CyEnterCriticalSection();
 791:Generated_Source\PSoC4/CyLib.c **** 
ARM GAS  C:\Users\essele\AppData\Local\Temp\cchUVvdf.s 			page 29


 792:Generated_Source\PSoC4/CyLib.c ****         #if (CY_IP_IMO_TRIMMABLE_BY_WCO)
 793:Generated_Source\PSoC4/CyLib.c ****             if(0u != CySysClkImoGetWcoLock())
 794:Generated_Source\PSoC4/CyLib.c ****             {
 795:Generated_Source\PSoC4/CyLib.c ****                 wcoLock = 1u;
 796:Generated_Source\PSoC4/CyLib.c ****                 CySysClkImoDisableWcoLock();
 797:Generated_Source\PSoC4/CyLib.c ****             }
 798:Generated_Source\PSoC4/CyLib.c ****         #endif  /* (CY_IP_IMO_TRIMMABLE_BY_WCO) */
 799:Generated_Source\PSoC4/CyLib.c **** 
 800:Generated_Source\PSoC4/CyLib.c **** 
 801:Generated_Source\PSoC4/CyLib.c ****         #if (CY_IP_IMO_TRIMMABLE_BY_USB)
 802:Generated_Source\PSoC4/CyLib.c **** 
 803:Generated_Source\PSoC4/CyLib.c ****             #if (CYDEV_IMO_TRIMMED_BY_USB == 0u)
 804:Generated_Source\PSoC4/CyLib.c ****                 if(0u != CySysClkImoGetUsbLock())
 805:Generated_Source\PSoC4/CyLib.c ****                 {
 806:Generated_Source\PSoC4/CyLib.c ****             #endif  /* (CYDEV_IMO_TRIMMED_BY_USB == 0u) */
 807:Generated_Source\PSoC4/CyLib.c **** 
 808:Generated_Source\PSoC4/CyLib.c ****                 if ((24u == freq) || (48u == freq))
 809:Generated_Source\PSoC4/CyLib.c ****                 {
 810:Generated_Source\PSoC4/CyLib.c ****                     usbLock = 1u;
 811:Generated_Source\PSoC4/CyLib.c ****                     CySysClkImoDisableUsbLock();
 812:Generated_Source\PSoC4/CyLib.c ****                 }
 813:Generated_Source\PSoC4/CyLib.c **** 
 814:Generated_Source\PSoC4/CyLib.c ****             #if (CYDEV_IMO_TRIMMED_BY_USB == 0u)
 815:Generated_Source\PSoC4/CyLib.c ****                 }
 816:Generated_Source\PSoC4/CyLib.c ****             #endif  /* (CYDEV_IMO_TRIMMED_BY_USB == 0u) */
 817:Generated_Source\PSoC4/CyLib.c **** 
 818:Generated_Source\PSoC4/CyLib.c ****         #endif  /* (CYDEV_IMO_TRIMMED_BY_USB == 0u) */
 819:Generated_Source\PSoC4/CyLib.c **** 
 820:Generated_Source\PSoC4/CyLib.c **** 
 821:Generated_Source\PSoC4/CyLib.c ****         #if (CY_IP_FMLT)
 822:Generated_Source\PSoC4/CyLib.c **** 
 823:Generated_Source\PSoC4/CyLib.c ****             /* FM-Lite Clock Restore */
 824:Generated_Source\PSoC4/CyLib.c ****             regValues[0u] = CY_SYS_CLK_IMO_CONFIG_REG;
 825:Generated_Source\PSoC4/CyLib.c ****             regValues[1u] = CY_SYS_CLK_SELECT_REG;
 826:Generated_Source\PSoC4/CyLib.c ****             regValues[2u] = cyImoFreqMhz2Reg[freq - CY_SYS_CLK_IMO_FREQ_TABLE_OFFSET];
 827:Generated_Source\PSoC4/CyLib.c ****             regValues[3u] = CY_FLASH_CTL_REG;
 828:Generated_Source\PSoC4/CyLib.c **** 
 829:Generated_Source\PSoC4/CyLib.c ****             parameters[0u] =
 830:Generated_Source\PSoC4/CyLib.c ****                 (uint32) ((CY_FLASH_KEY_TWO(CY_FLASH_API_OPCODE_CLK_RESTORE) <<  CY_FLASH_PARAM_KEY
 831:Generated_Source\PSoC4/CyLib.c ****                             CY_FLASH_KEY_ONE);
 832:Generated_Source\PSoC4/CyLib.c ****             parameters[1u] = (uint32) &regValues[0u];
 833:Generated_Source\PSoC4/CyLib.c **** 
 834:Generated_Source\PSoC4/CyLib.c ****             CY_FLASH_CPUSS_SYSARG_REG = (uint32) &parameters[0u];
 835:Generated_Source\PSoC4/CyLib.c ****             CY_FLASH_CPUSS_SYSREQ_REG = CY_FLASH_CPUSS_REQ_START | CY_FLASH_API_OPCODE_CLK_RESTORE;
 836:Generated_Source\PSoC4/CyLib.c ****             (void) CY_FLASH_CPUSS_SYSARG_REG;
 837:Generated_Source\PSoC4/CyLib.c **** 
 838:Generated_Source\PSoC4/CyLib.c ****         #else /* (CY_IP_FM) */
 839:Generated_Source\PSoC4/CyLib.c **** 
 840:Generated_Source\PSoC4/CyLib.c ****         if ((freq >= CY_SYS_CLK_IMO_MIN_FREQ_MHZ) && (freq <= CY_SYS_CLK_IMO_MAX_FREQ_MHZ))
 841:Generated_Source\PSoC4/CyLib.c ****         {
 842:Generated_Source\PSoC4/CyLib.c ****             if(freq <= CY_SFLASH_IMO_MAXF0_REG)
 843:Generated_Source\PSoC4/CyLib.c ****             {
 844:Generated_Source\PSoC4/CyLib.c ****                 bgTrim4 = CY_SFLASH_IMO_ABS0_REG;
 845:Generated_Source\PSoC4/CyLib.c ****                 bgTrim5 = CY_SFLASH_IMO_TMPCO0_REG;
 846:Generated_Source\PSoC4/CyLib.c ****             }
 847:Generated_Source\PSoC4/CyLib.c ****             else if(freq <= CY_SFLASH_IMO_MAXF1_REG)
 848:Generated_Source\PSoC4/CyLib.c ****             {
ARM GAS  C:\Users\essele\AppData\Local\Temp\cchUVvdf.s 			page 30


 849:Generated_Source\PSoC4/CyLib.c ****                 bgTrim4 = CY_SFLASH_IMO_ABS1_REG;
 850:Generated_Source\PSoC4/CyLib.c ****                 bgTrim5 = CY_SFLASH_IMO_TMPCO1_REG;
 851:Generated_Source\PSoC4/CyLib.c ****             }
 852:Generated_Source\PSoC4/CyLib.c ****             else if(freq <= CY_SFLASH_IMO_MAXF2_REG)
 853:Generated_Source\PSoC4/CyLib.c ****             {
 854:Generated_Source\PSoC4/CyLib.c ****                 bgTrim4 = CY_SFLASH_IMO_ABS2_REG;
 855:Generated_Source\PSoC4/CyLib.c ****                 bgTrim5 = CY_SFLASH_IMO_TMPCO2_REG;
 856:Generated_Source\PSoC4/CyLib.c ****             }
 857:Generated_Source\PSoC4/CyLib.c ****             else if(freq <= CY_SFLASH_IMO_MAXF3_REG)
 858:Generated_Source\PSoC4/CyLib.c ****             {
 859:Generated_Source\PSoC4/CyLib.c ****                 bgTrim4 = CY_SFLASH_IMO_ABS3_REG;
 860:Generated_Source\PSoC4/CyLib.c ****                 bgTrim5 = CY_SFLASH_IMO_TMPCO3_REG;
 861:Generated_Source\PSoC4/CyLib.c ****             }
 862:Generated_Source\PSoC4/CyLib.c ****             else
 863:Generated_Source\PSoC4/CyLib.c ****             {
 864:Generated_Source\PSoC4/CyLib.c ****                 bgTrim4 = CY_SFLASH_IMO_ABS4_REG;
 865:Generated_Source\PSoC4/CyLib.c ****                 bgTrim5 = CY_SFLASH_IMO_TMPCO4_REG;
 866:Generated_Source\PSoC4/CyLib.c ****             }
 867:Generated_Source\PSoC4/CyLib.c **** 
 868:Generated_Source\PSoC4/CyLib.c ****             /* Get IMO_TRIM2 value for the new frequency */
 869:Generated_Source\PSoC4/CyLib.c ****             newImoTrim2Value = cyImoFreqMhz2Reg[freq - CY_SYS_CLK_IMO_FREQ_TABLE_OFFSET];
 870:Generated_Source\PSoC4/CyLib.c **** 
 871:Generated_Source\PSoC4/CyLib.c **** 
 872:Generated_Source\PSoC4/CyLib.c ****             /****************************************************************************
 873:Generated_Source\PSoC4/CyLib.c ****             * The IMO can have a different trim per frequency. To avoid possible corner
 874:Generated_Source\PSoC4/CyLib.c ****             * cases where a trim change can exceed the maximum frequency, the trim must
 875:Generated_Source\PSoC4/CyLib.c ****             * be applied at a frequency that is low enough.
 876:Generated_Source\PSoC4/CyLib.c ****             *
 877:Generated_Source\PSoC4/CyLib.c ****             * Comparing IMO_TRIM2 values for the current and new frequencies, since
 878:Generated_Source\PSoC4/CyLib.c ****             * IMO_TRIM2 value as a function of IMO frequency is a strictly increasing
 879:Generated_Source\PSoC4/CyLib.c ****             * function and is time-invariant.
 880:Generated_Source\PSoC4/CyLib.c ****             ***************************************************************************/
 881:Generated_Source\PSoC4/CyLib.c ****             if ((newImoTrim2Value >= CY_SYS_CLK_IMO_BOUNDARY_FREQ_TRIM2) && (freq >= CY_SYS_CLK_IMO
 882:Generated_Source\PSoC4/CyLib.c ****             {
 883:Generated_Source\PSoC4/CyLib.c ****                 /* Set boundary IMO frequency: safe for IMO above 48 MHZ trimming */
 884:Generated_Source\PSoC4/CyLib.c ****                 CY_SYS_CLK_IMO_TRIM2_REG = (uint32) cyImoFreqMhz2Reg[CY_SYS_CLK_IMO_TEMP_FREQ_MHZ -
 885:Generated_Source\PSoC4/CyLib.c ****                                                                      CY_SYS_CLK_IMO_FREQ_TABLE_OFFS
 886:Generated_Source\PSoC4/CyLib.c **** 
 887:Generated_Source\PSoC4/CyLib.c ****                 CyDelayCycles(CY_SYS_CLK_IMO_FREQ_TIMEOUT_CYCLES);
 888:Generated_Source\PSoC4/CyLib.c **** 
 889:Generated_Source\PSoC4/CyLib.c ****                 currentImoTrim2Value = CY_SYS_CLK_IMO_TEMP_FREQ_TRIM2;
 890:Generated_Source\PSoC4/CyLib.c ****             }
 891:Generated_Source\PSoC4/CyLib.c ****             else
 892:Generated_Source\PSoC4/CyLib.c ****             {
 893:Generated_Source\PSoC4/CyLib.c ****                 currentImoTrim2Value = (uint8) (CY_SYS_CLK_IMO_TRIM2_REG & CY_SYS_CLK_IMO_FREQ_BITS
 894:Generated_Source\PSoC4/CyLib.c ****             }
 895:Generated_Source\PSoC4/CyLib.c **** 
 896:Generated_Source\PSoC4/CyLib.c **** 
 897:Generated_Source\PSoC4/CyLib.c ****             /***************************************************************************
 898:Generated_Source\PSoC4/CyLib.c ****             * A trim change needs to be allowed to settle (within 5us) before the Freq
 899:Generated_Source\PSoC4/CyLib.c ****             * can be changed to a new frequency.
 900:Generated_Source\PSoC4/CyLib.c ****             *
 901:Generated_Source\PSoC4/CyLib.c ****             * Comparing IMO_TRIM2 values for the current and new frequencies, since
 902:Generated_Source\PSoC4/CyLib.c ****             * IMO_TRIM2 value as a function of IMO frequency is a strictly increasing
 903:Generated_Source\PSoC4/CyLib.c ****             * function and is time-invariant.
 904:Generated_Source\PSoC4/CyLib.c ****             ***************************************************************************/
 905:Generated_Source\PSoC4/CyLib.c ****             if (newImoTrim2Value < currentImoTrim2Value)
ARM GAS  C:\Users\essele\AppData\Local\Temp\cchUVvdf.s 			page 31


 906:Generated_Source\PSoC4/CyLib.c ****             {
 907:Generated_Source\PSoC4/CyLib.c ****                 /* Set new IMO frequency */
 908:Generated_Source\PSoC4/CyLib.c ****                 CY_SYS_CLK_IMO_TRIM2_REG = cyImoFreqMhz2Reg[freq - CY_SYS_CLK_IMO_FREQ_TABLE_OFFSET
 909:Generated_Source\PSoC4/CyLib.c ****                 CyDelayCycles(CY_SYS_CLK_IMO_FREQ_TIMEOUT_CYCLES);
 910:Generated_Source\PSoC4/CyLib.c ****             }
 911:Generated_Source\PSoC4/CyLib.c **** 
 912:Generated_Source\PSoC4/CyLib.c ****             /* Set trims for the new IMO frequency */
 913:Generated_Source\PSoC4/CyLib.c ****             CY_SYS_CLK_IMO_TRIM1_REG = (uint32) CY_SFLASH_IMO_TRIM_REG(freq - CY_SYS_CLK_IMO_FREQ_T
 914:Generated_Source\PSoC4/CyLib.c ****             CY_PWR_BG_TRIM4_REG  = bgTrim4;
 915:Generated_Source\PSoC4/CyLib.c ****             CY_PWR_BG_TRIM5_REG  = bgTrim5;
 916:Generated_Source\PSoC4/CyLib.c ****             CyDelayUs(CY_SYS_CLK_IMO_TRIM_TIMEOUT_US);
 917:Generated_Source\PSoC4/CyLib.c **** 
 918:Generated_Source\PSoC4/CyLib.c ****             if (newImoTrim2Value > currentImoTrim2Value)
 919:Generated_Source\PSoC4/CyLib.c ****             {
 920:Generated_Source\PSoC4/CyLib.c ****                 /* Set new IMO frequency */
 921:Generated_Source\PSoC4/CyLib.c ****                 CY_SYS_CLK_IMO_TRIM2_REG = cyImoFreqMhz2Reg[freq - CY_SYS_CLK_IMO_FREQ_TABLE_OFFSET
 922:Generated_Source\PSoC4/CyLib.c ****                 CyDelayCycles(CY_SYS_CLK_IMO_FREQ_TIMEOUT_CYCLES);
 923:Generated_Source\PSoC4/CyLib.c ****             }
 924:Generated_Source\PSoC4/CyLib.c ****         }
 925:Generated_Source\PSoC4/CyLib.c ****         else
 926:Generated_Source\PSoC4/CyLib.c ****         {
 927:Generated_Source\PSoC4/CyLib.c ****             /* Halt CPU in debug mode if new frequency is invalid */
 928:Generated_Source\PSoC4/CyLib.c ****             CYASSERT(0u != 0u);
 929:Generated_Source\PSoC4/CyLib.c ****         }
 930:Generated_Source\PSoC4/CyLib.c **** 
 931:Generated_Source\PSoC4/CyLib.c ****         #endif /* (CY_IP_FMLT) */
 932:Generated_Source\PSoC4/CyLib.c **** 
 933:Generated_Source\PSoC4/CyLib.c ****         #if (CY_IP_IMO_TRIMMABLE_BY_WCO)
 934:Generated_Source\PSoC4/CyLib.c ****             if (1u == wcoLock)
 935:Generated_Source\PSoC4/CyLib.c ****             {
 936:Generated_Source\PSoC4/CyLib.c ****                 CySysClkImoEnableWcoLock();
 937:Generated_Source\PSoC4/CyLib.c ****             }
 938:Generated_Source\PSoC4/CyLib.c ****         #endif  /* (CY_IP_IMO_TRIMMABLE_BY_WCO) */
 939:Generated_Source\PSoC4/CyLib.c **** 
 940:Generated_Source\PSoC4/CyLib.c ****         #if (CY_IP_IMO_TRIMMABLE_BY_USB)
 941:Generated_Source\PSoC4/CyLib.c ****             if (1u == usbLock)
 942:Generated_Source\PSoC4/CyLib.c ****             {
 943:Generated_Source\PSoC4/CyLib.c ****                 CySysClkImoEnableUsbLock();
 944:Generated_Source\PSoC4/CyLib.c ****             }
 945:Generated_Source\PSoC4/CyLib.c ****         #endif  /* (CY_IP_IMO_TRIMMABLE_BY_USB) */
 946:Generated_Source\PSoC4/CyLib.c **** 
 947:Generated_Source\PSoC4/CyLib.c ****         CyExitCriticalSection(interruptState);
 948:Generated_Source\PSoC4/CyLib.c ****     }
 949:Generated_Source\PSoC4/CyLib.c **** 
 950:Generated_Source\PSoC4/CyLib.c **** #else
 951:Generated_Source\PSoC4/CyLib.c **** 
 952:Generated_Source\PSoC4/CyLib.c ****     void CySysClkWriteImoFreq(uint32 freq)
 953:Generated_Source\PSoC4/CyLib.c ****     {
 954:Generated_Source\PSoC4/CyLib.c ****         uint8  interruptState;
 955:Generated_Source\PSoC4/CyLib.c ****         uint8  imoTrim1Value;
 956:Generated_Source\PSoC4/CyLib.c **** 
 957:Generated_Source\PSoC4/CyLib.c ****         #if (CY_IP_IMO_TRIMMABLE_BY_WCO)
 958:Generated_Source\PSoC4/CyLib.c ****             uint32 wcoLock = 0u;
 959:Generated_Source\PSoC4/CyLib.c ****         #endif  /* (CY_IP_IMO_TRIMMABLE_BY_WCO) */        
 960:Generated_Source\PSoC4/CyLib.c ****         
 961:Generated_Source\PSoC4/CyLib.c ****         #if (CY_IP_IMO_TRIMMABLE_BY_USB)
 962:Generated_Source\PSoC4/CyLib.c ****             uint32 usbLock = 0u;
ARM GAS  C:\Users\essele\AppData\Local\Temp\cchUVvdf.s 			page 32


 963:Generated_Source\PSoC4/CyLib.c ****         #endif  /* (CY_IP_IMO_TRIMMABLE_BY_USB) */
 964:Generated_Source\PSoC4/CyLib.c **** 
 965:Generated_Source\PSoC4/CyLib.c ****         #if (CY_PSOC4_4000)
 966:Generated_Source\PSoC4/CyLib.c ****             if ((freq == 24u) || (freq == 32u) || (freq == 48u))
 967:Generated_Source\PSoC4/CyLib.c ****         #elif (CY_CCG3)
 968:Generated_Source\PSoC4/CyLib.c ****             if ((freq == 24u) || (freq == 36u) || (freq == 48u))
 969:Generated_Source\PSoC4/CyLib.c ****         #else
 970:Generated_Source\PSoC4/CyLib.c ****             if ((freq == 24u) || (freq == 28u) || (freq == 32u) ||
 971:Generated_Source\PSoC4/CyLib.c ****                 (freq == 36u) || (freq == 40u) || (freq == 44u) ||
 972:Generated_Source\PSoC4/CyLib.c ****                 (freq == 48u))
 973:Generated_Source\PSoC4/CyLib.c ****         #endif /* (CY_PSOC4_4000) */
 974:Generated_Source\PSoC4/CyLib.c ****         {
 975:Generated_Source\PSoC4/CyLib.c ****             interruptState = CyEnterCriticalSection();
 976:Generated_Source\PSoC4/CyLib.c **** 
 977:Generated_Source\PSoC4/CyLib.c ****             #if (CY_IP_IMO_TRIMMABLE_BY_WCO)
 978:Generated_Source\PSoC4/CyLib.c ****                 if(0u != CySysClkImoGetWcoLock())
 979:Generated_Source\PSoC4/CyLib.c ****                 {
 980:Generated_Source\PSoC4/CyLib.c ****                     wcoLock = 1u;
 981:Generated_Source\PSoC4/CyLib.c ****                     CySysClkImoDisableWcoLock();
 982:Generated_Source\PSoC4/CyLib.c ****                 }
 983:Generated_Source\PSoC4/CyLib.c ****             #endif  /* (CY_IP_IMO_TRIMMABLE_BY_WCO) */
 984:Generated_Source\PSoC4/CyLib.c **** 
 985:Generated_Source\PSoC4/CyLib.c ****             #if (CY_IP_IMO_TRIMMABLE_BY_USB)
 986:Generated_Source\PSoC4/CyLib.c **** 
 987:Generated_Source\PSoC4/CyLib.c ****                 #if (CYDEV_IMO_TRIMMED_BY_USB == 0u)
 988:Generated_Source\PSoC4/CyLib.c ****                     if(0u != CySysClkImoGetUsbLock())
 989:Generated_Source\PSoC4/CyLib.c ****                     {
 990:Generated_Source\PSoC4/CyLib.c ****                 #endif  /* (CYDEV_IMO_TRIMMED_BY_USB == 0u) */
 991:Generated_Source\PSoC4/CyLib.c **** 
 992:Generated_Source\PSoC4/CyLib.c ****                     if (48u == freq)
 993:Generated_Source\PSoC4/CyLib.c ****                     {
 994:Generated_Source\PSoC4/CyLib.c ****                         usbLock = 1u;
 995:Generated_Source\PSoC4/CyLib.c ****                         CySysClkImoDisableUsbLock();
 996:Generated_Source\PSoC4/CyLib.c ****                     }
 997:Generated_Source\PSoC4/CyLib.c **** 
 998:Generated_Source\PSoC4/CyLib.c ****                 #if (CYDEV_IMO_TRIMMED_BY_USB == 0u)
 999:Generated_Source\PSoC4/CyLib.c ****                     }
1000:Generated_Source\PSoC4/CyLib.c ****                 #endif  /* (CYDEV_IMO_TRIMMED_BY_USB == 0u) */
1001:Generated_Source\PSoC4/CyLib.c **** 
1002:Generated_Source\PSoC4/CyLib.c ****             #endif  /* (CYDEV_IMO_TRIMMED_BY_USB == 0u) */
1003:Generated_Source\PSoC4/CyLib.c **** 
1004:Generated_Source\PSoC4/CyLib.c **** 
1005:Generated_Source\PSoC4/CyLib.c ****             /* Set IMO to 24 MHz - CLK_IMO_SELECT.FREQ = 0 */
1006:Generated_Source\PSoC4/CyLib.c ****             CY_SYS_CLK_IMO_SELECT_REG &= ((uint32) ~CY_SYS_CLK_IMO_SELECT_FREQ_MASK);
1007:Generated_Source\PSoC4/CyLib.c **** 
1008:Generated_Source\PSoC4/CyLib.c **** 
1009:Generated_Source\PSoC4/CyLib.c ****             /* Apply coarse trim */
1010:Generated_Source\PSoC4/CyLib.c ****             #if (CY_IP_IMO_TRIMMABLE_BY_USB)
1011:Generated_Source\PSoC4/CyLib.c ****                 if ((1u == usbLock) && (48u == freq))
1012:Generated_Source\PSoC4/CyLib.c ****                 {
1013:Generated_Source\PSoC4/CyLib.c ****                     imoTrim1Value = CY_SFLASH_IMO_TRIM_USBMODE_48_REG;
1014:Generated_Source\PSoC4/CyLib.c ****                 }
1015:Generated_Source\PSoC4/CyLib.c ****                 else if ((1u == usbLock) && (24u == freq))
1016:Generated_Source\PSoC4/CyLib.c ****                 {
1017:Generated_Source\PSoC4/CyLib.c ****                     imoTrim1Value = CY_SFLASH_IMO_TRIM_USBMODE_24_REG;
1018:Generated_Source\PSoC4/CyLib.c ****                 }
1019:Generated_Source\PSoC4/CyLib.c ****                 else
ARM GAS  C:\Users\essele\AppData\Local\Temp\cchUVvdf.s 			page 33


1020:Generated_Source\PSoC4/CyLib.c ****                 {
1021:Generated_Source\PSoC4/CyLib.c ****                     imoTrim1Value = (uint8) CY_SFLASH_IMO_TRIM_REG(freq - CY_SYS_CLK_IMO_MIN_FREQ_M
1022:Generated_Source\PSoC4/CyLib.c ****                 }
1023:Generated_Source\PSoC4/CyLib.c ****             #else
1024:Generated_Source\PSoC4/CyLib.c ****                 imoTrim1Value = (uint8) CY_SFLASH_IMO_TRIM_REG(freq - CY_SYS_CLK_IMO_MIN_FREQ_MHZ);
1025:Generated_Source\PSoC4/CyLib.c ****             #endif  /* (CY_IP_IMO_TRIMMABLE_BY_USB) */
1026:Generated_Source\PSoC4/CyLib.c ****             CY_SYS_CLK_IMO_TRIM1_REG = (uint32) imoTrim1Value;
1027:Generated_Source\PSoC4/CyLib.c **** 
1028:Generated_Source\PSoC4/CyLib.c ****             /* Zero out fine trim */
1029:Generated_Source\PSoC4/CyLib.c ****             CY_SYS_CLK_IMO_TRIM2_REG = CY_SYS_CLK_IMO_TRIM2_REG & ((uint32) ~CY_SYS_CLK_IMO_TRIM2_F
1030:Generated_Source\PSoC4/CyLib.c **** 
1031:Generated_Source\PSoC4/CyLib.c ****             /* Apply TC trim */
1032:Generated_Source\PSoC4/CyLib.c ****             CY_SYS_CLK_IMO_TRIM3_REG = (CY_SYS_CLK_IMO_TRIM3_REG & ((uint32) ~CY_SYS_CLK_IMO_TRIM3_
1033:Generated_Source\PSoC4/CyLib.c ****                 (CY_SFLASH_IMO_TCTRIM_REG(freq - CY_SYS_CLK_IMO_MIN_FREQ_MHZ) & CY_SYS_CLK_IMO_TRIM
1034:Generated_Source\PSoC4/CyLib.c **** 
1035:Generated_Source\PSoC4/CyLib.c ****             CyDelayCycles(CY_SYS_CLK_IMO_TRIM_DELAY_CYCLES);
1036:Generated_Source\PSoC4/CyLib.c **** 
1037:Generated_Source\PSoC4/CyLib.c ****             if (freq > CY_SYS_CLK_IMO_MIN_FREQ_MHZ)
1038:Generated_Source\PSoC4/CyLib.c ****             {
1039:Generated_Source\PSoC4/CyLib.c ****                 /* Select nearby intermediate frequency */
1040:Generated_Source\PSoC4/CyLib.c ****                 CY_SYS_CLK_IMO_SELECT_REG = (CY_SYS_CLK_IMO_SELECT_REG & ((uint32) ~CY_SYS_CLK_IMO_
1041:Generated_Source\PSoC4/CyLib.c ****                     (((freq - 4u - CY_SYS_CLK_IMO_MIN_FREQ_MHZ) >> 2u) & CY_SYS_CLK_IMO_SELECT_FREQ
1042:Generated_Source\PSoC4/CyLib.c **** 
1043:Generated_Source\PSoC4/CyLib.c ****                 CyDelayCycles(CY_SYS_CLK_IMO_TRIM_DELAY_CYCLES);
1044:Generated_Source\PSoC4/CyLib.c **** 
1045:Generated_Source\PSoC4/CyLib.c ****                 /* Make small step to final frequency */
1046:Generated_Source\PSoC4/CyLib.c ****                 /* Select nearby intermediate frequency */
1047:Generated_Source\PSoC4/CyLib.c ****                 CY_SYS_CLK_IMO_SELECT_REG = (CY_SYS_CLK_IMO_SELECT_REG & ((uint32) ~CY_SYS_CLK_IMO_
1048:Generated_Source\PSoC4/CyLib.c ****                     (((freq - CY_SYS_CLK_IMO_MIN_FREQ_MHZ) >> 2u) & CY_SYS_CLK_IMO_SELECT_FREQ_MASK
1049:Generated_Source\PSoC4/CyLib.c ****             }
1050:Generated_Source\PSoC4/CyLib.c **** 
1051:Generated_Source\PSoC4/CyLib.c ****             #if (CY_IP_IMO_TRIMMABLE_BY_WCO)
1052:Generated_Source\PSoC4/CyLib.c ****                 if (1u == wcoLock)
1053:Generated_Source\PSoC4/CyLib.c ****                 {
1054:Generated_Source\PSoC4/CyLib.c ****                     CySysClkImoEnableWcoLock();
1055:Generated_Source\PSoC4/CyLib.c ****                 }
1056:Generated_Source\PSoC4/CyLib.c ****             #endif  /* (CY_IP_IMO_TRIMMABLE_BY_WCO) */
1057:Generated_Source\PSoC4/CyLib.c ****         
1058:Generated_Source\PSoC4/CyLib.c ****         
1059:Generated_Source\PSoC4/CyLib.c ****             #if (CY_IP_IMO_TRIMMABLE_BY_USB)
1060:Generated_Source\PSoC4/CyLib.c ****                 if (1u == usbLock)
1061:Generated_Source\PSoC4/CyLib.c ****                 {
1062:Generated_Source\PSoC4/CyLib.c ****                     CySysClkImoEnableUsbLock();
1063:Generated_Source\PSoC4/CyLib.c ****                 }
1064:Generated_Source\PSoC4/CyLib.c ****             #endif  /* (CY_IP_IMO_TRIMMABLE_BY_USB) */
1065:Generated_Source\PSoC4/CyLib.c **** 
1066:Generated_Source\PSoC4/CyLib.c ****             CyExitCriticalSection(interruptState);
1067:Generated_Source\PSoC4/CyLib.c ****         }
1068:Generated_Source\PSoC4/CyLib.c ****         else
1069:Generated_Source\PSoC4/CyLib.c ****         {
1070:Generated_Source\PSoC4/CyLib.c ****             /* Halt CPU in debug mode if new frequency is invalid */
1071:Generated_Source\PSoC4/CyLib.c ****             CYASSERT(0u != 0u);
1072:Generated_Source\PSoC4/CyLib.c ****         }
1073:Generated_Source\PSoC4/CyLib.c ****     }
1074:Generated_Source\PSoC4/CyLib.c **** 
1075:Generated_Source\PSoC4/CyLib.c **** #endif /* (CY_IP_SRSSV2) */
1076:Generated_Source\PSoC4/CyLib.c **** 
ARM GAS  C:\Users\essele\AppData\Local\Temp\cchUVvdf.s 			page 34


1077:Generated_Source\PSoC4/CyLib.c **** 
1078:Generated_Source\PSoC4/CyLib.c **** #if(CY_IP_SRSSLT)
1079:Generated_Source\PSoC4/CyLib.c ****     /*******************************************************************************
1080:Generated_Source\PSoC4/CyLib.c ****     * Function Name: CySysClkWriteHfclkDiv
1081:Generated_Source\PSoC4/CyLib.c ****     ****************************************************************************//**
1082:Generated_Source\PSoC4/CyLib.c ****     *
1083:Generated_Source\PSoC4/CyLib.c ****     * Selects the pre-scaler divider value for HFCLK from IMO.
1084:Generated_Source\PSoC4/CyLib.c ****     *
1085:Generated_Source\PSoC4/CyLib.c ****     * The HFCLK predivider allows the device to divide the HFCLK selection mux
1086:Generated_Source\PSoC4/CyLib.c ****     * input before use as HFCLK. The predivider is capable of dividing the HFCLK by
1087:Generated_Source\PSoC4/CyLib.c ****     * powers of 2 between 1 and 8.
1088:Generated_Source\PSoC4/CyLib.c ****     *
1089:Generated_Source\PSoC4/CyLib.c ****     * PSoC 4000: The SYSCLK has the speed of 16 MHz, so HFCLK and SYSCLK dividers
1090:Generated_Source\PSoC4/CyLib.c ****     * should be selected in a way, not to exceed 16 MHz for SYSCLK.
1091:Generated_Source\PSoC4/CyLib.c ****     *
1092:Generated_Source\PSoC4/CyLib.c ****     * If the SYSCLK clock frequency increases during the device operation, call
1093:Generated_Source\PSoC4/CyLib.c ****     * \ref CySysFlashSetWaitCycles() with the appropriate parameter to adjust the
1094:Generated_Source\PSoC4/CyLib.c ****     * number of clock cycles the cache will wait before sampling data comes back
1095:Generated_Source\PSoC4/CyLib.c ****     * from Flash. If the SYSCLK clock frequency decreases, you can call
1096:Generated_Source\PSoC4/CyLib.c ****     * \ref CySysFlashSetWaitCycles() to improve the CPU performance. See
1097:Generated_Source\PSoC4/CyLib.c ****     * \ref CySysFlashSetWaitCycles() description for more information.
1098:Generated_Source\PSoC4/CyLib.c ****     *
1099:Generated_Source\PSoC4/CyLib.c ****     * \param \ref CY_SYS_CLK_HFCLK_DIV_NODIV    Transparent mode (w/o dividing)
1100:Generated_Source\PSoC4/CyLib.c ****     * \param \ref CY_SYS_CLK_HFCLK_DIV_2        Divide selected clock source by 2
1101:Generated_Source\PSoC4/CyLib.c ****     * \param \ref CY_SYS_CLK_HFCLK_DIV_4        Divide selected clock source by 4
1102:Generated_Source\PSoC4/CyLib.c ****     * \param \ref CY_SYS_CLK_HFCLK_DIV_8        Divide selected clock source by 8
1103:Generated_Source\PSoC4/CyLib.c ****     *
1104:Generated_Source\PSoC4/CyLib.c ****     *******************************************************************************/
1105:Generated_Source\PSoC4/CyLib.c ****     void CySysClkWriteHfclkDiv(uint32 divider)
1106:Generated_Source\PSoC4/CyLib.c ****     {
1107:Generated_Source\PSoC4/CyLib.c ****         uint8  interruptState;
1108:Generated_Source\PSoC4/CyLib.c **** 
1109:Generated_Source\PSoC4/CyLib.c ****         interruptState = CyEnterCriticalSection();
1110:Generated_Source\PSoC4/CyLib.c **** 
1111:Generated_Source\PSoC4/CyLib.c ****         CY_SYS_CLK_SELECT_REG = ((CY_SYS_CLK_SELECT_REG & ((uint32) (~(CY_SYS_CLK_SELECT_HFCLK_DIV_
1112:Generated_Source\PSoC4/CyLib.c ****                                         CY_SYS_CLK_SELECT_HFCLK_DIV_SHIFT)))) |
1113:Generated_Source\PSoC4/CyLib.c ****                     ((uint32)((divider & CY_SYS_CLK_SELECT_HFCLK_DIV_MASK) << CY_SYS_CLK_SELECT_HFC
1114:Generated_Source\PSoC4/CyLib.c **** 
1115:Generated_Source\PSoC4/CyLib.c ****         CyExitCriticalSection(interruptState);
1116:Generated_Source\PSoC4/CyLib.c ****     }
1117:Generated_Source\PSoC4/CyLib.c **** #endif /* (CY_IP_SRSSLT) */
1118:Generated_Source\PSoC4/CyLib.c **** 
1119:Generated_Source\PSoC4/CyLib.c **** 
1120:Generated_Source\PSoC4/CyLib.c **** #if (CY_IP_ECO)
1121:Generated_Source\PSoC4/CyLib.c **** 
1122:Generated_Source\PSoC4/CyLib.c ****     /*******************************************************************************
1123:Generated_Source\PSoC4/CyLib.c ****     * Function Name: CySysClkEcoStart
1124:Generated_Source\PSoC4/CyLib.c ****     ****************************************************************************//**
1125:Generated_Source\PSoC4/CyLib.c ****     *
1126:Generated_Source\PSoC4/CyLib.c ****     * Starts the External Crystal Oscillator (ECO). Refer to the device datasheet
1127:Generated_Source\PSoC4/CyLib.c ****     * for the ECO startup time.
1128:Generated_Source\PSoC4/CyLib.c ****     *
1129:Generated_Source\PSoC4/CyLib.c ****     * The timeout interval is measured based on the system frequency defined by
1130:Generated_Source\PSoC4/CyLib.c ****     * PSoC Creator at build time. If System clock frequency is changed in
1131:Generated_Source\PSoC4/CyLib.c ****     * runtime, the \ref CyDelayFreq() with the appropriate parameter should be
1132:Generated_Source\PSoC4/CyLib.c ****     * called.
1133:Generated_Source\PSoC4/CyLib.c ****     *
ARM GAS  C:\Users\essele\AppData\Local\Temp\cchUVvdf.s 			page 35


1134:Generated_Source\PSoC4/CyLib.c ****     * PSoC 4100 BLE / PSoC 4200 BLE: The WCO must be enabled prior to enabling ECO.
1135:Generated_Source\PSoC4/CyLib.c ****     *
1136:Generated_Source\PSoC4/CyLib.c ****     * \param timeoutUs Timeout in microseconds.
1137:Generated_Source\PSoC4/CyLib.c ****     *
1138:Generated_Source\PSoC4/CyLib.c ****     * If zero is specified, the function does not wait for timeout and returns
1139:Generated_Source\PSoC4/CyLib.c ****     * CYRET_SUCCESS. If non-zero is specified, the function waits for the timeout.
1140:Generated_Source\PSoC4/CyLib.c ****     *
1141:Generated_Source\PSoC4/CyLib.c ****     * \return \ref CYRET_SUCCESS Completed successfully. The ECO is oscillating and
1142:Generated_Source\PSoC4/CyLib.c ****     * amplitude reached 60% and it does not mean 24 MHz crystal is within 50 ppm.
1143:Generated_Source\PSoC4/CyLib.c ****     *
1144:Generated_Source\PSoC4/CyLib.c ****     * \return \ref CYRET_TIMEOUT Timeout occurred. If the crystal is not oscillating
1145:Generated_Source\PSoC4/CyLib.c ****     * or amplitude didn't reach 60% after specified amount of time, CYRET_TIMEOUT
1146:Generated_Source\PSoC4/CyLib.c ****     * is returned.
1147:Generated_Source\PSoC4/CyLib.c ****     *
1148:Generated_Source\PSoC4/CyLib.c ****     * \return \ref CYRET_BAD_PARAM One or more invalid parameters.
1149:Generated_Source\PSoC4/CyLib.c ****     *
1150:Generated_Source\PSoC4/CyLib.c ****     *******************************************************************************/
1151:Generated_Source\PSoC4/CyLib.c ****     cystatus CySysClkEcoStart(uint32 timeoutUs)
1152:Generated_Source\PSoC4/CyLib.c ****     {
1153:Generated_Source\PSoC4/CyLib.c ****         cystatus returnStatus = CYRET_SUCCESS;
1154:Generated_Source\PSoC4/CyLib.c **** 
1155:Generated_Source\PSoC4/CyLib.c ****         #if (CY_IP_ECO_BLESS)
1156:Generated_Source\PSoC4/CyLib.c ****             /* Enable the RF oscillator band gap */
1157:Generated_Source\PSoC4/CyLib.c ****             CY_SYS_XTAL_BLESS_RF_CONFIG_REG |= CY_SYS_XTAL_BLESS_RF_CONFIG_RF_ENABLE;
1158:Generated_Source\PSoC4/CyLib.c **** 
1159:Generated_Source\PSoC4/CyLib.c ****             /* Update trimming register */
1160:Generated_Source\PSoC4/CyLib.c ****             CY_SYS_XTAL_BLERD_BB_XO_REG = CY_SYS_XTAL_BLERD_BB_XO_TRIM;
1161:Generated_Source\PSoC4/CyLib.c **** 
1162:Generated_Source\PSoC4/CyLib.c ****             /* Enable the Crystal */
1163:Generated_Source\PSoC4/CyLib.c ****             CY_SYS_XTAL_BLERD_DBUS_REG |= CY_SYS_XTAL_BLERD_DBUS_XTAL_ENABLE;
1164:Generated_Source\PSoC4/CyLib.c ****         
1165:Generated_Source\PSoC4/CyLib.c ****         #elif (CY_IP_ECO_BLESSV3)
1166:Generated_Source\PSoC4/CyLib.c ****             uint32 regConfig;
1167:Generated_Source\PSoC4/CyLib.c ****             uint32 intrRegMaskStore = 0u;
1168:Generated_Source\PSoC4/CyLib.c ****             
1169:Generated_Source\PSoC4/CyLib.c ****             if (0u != (CY_SYS_BLESS_MT_CFG_REG & (CY_SYS_BLESS_MT_CFG_ENABLE_BLERD <<  CYFLD_BLE_BL
1170:Generated_Source\PSoC4/CyLib.c ****             {
1171:Generated_Source\PSoC4/CyLib.c ****                 CY_SYS_BLESS_MT_CFG_REG |= (CY_SYS_BLESS_MT_CFG_DPSLP_ECO_ON  <<  CYFLD_BLE_BLESS_D
1172:Generated_Source\PSoC4/CyLib.c ****             }
1173:Generated_Source\PSoC4/CyLib.c ****             else
1174:Generated_Source\PSoC4/CyLib.c ****             {
1175:Generated_Source\PSoC4/CyLib.c ****                 /* Init BLE core */
1176:Generated_Source\PSoC4/CyLib.c ****                 CY_SYS_BLESS_MT_DELAY_CFG_REG = CY_SYS_BLESS_MT_DELAY_CFG_INIT;
1177:Generated_Source\PSoC4/CyLib.c ****                 CY_SYS_BLESS_MT_DELAY_CFG2_REG = CY_SYS_BLESS_MT_DELAY_CFG2_INIT;
1178:Generated_Source\PSoC4/CyLib.c ****                 CY_SYS_BLESS_MT_DELAY_CFG3_REG = CY_SYS_BLESS_MT_DELAY_CFG3_INIT;
1179:Generated_Source\PSoC4/CyLib.c ****             
1180:Generated_Source\PSoC4/CyLib.c ****                 /* RCB init */
1181:Generated_Source\PSoC4/CyLib.c ****                 regConfig = CY_SYS_RCB_CTRL_REG;
1182:Generated_Source\PSoC4/CyLib.c ****                 regConfig &= CY_SYS_RCB_CTRL_CLEAR;
1183:Generated_Source\PSoC4/CyLib.c ****                 regConfig |= CY_SYS_RCB_CTRL_INIT;
1184:Generated_Source\PSoC4/CyLib.c ****                 CY_SYS_RCB_CTRL_REG = regConfig;
1185:Generated_Source\PSoC4/CyLib.c ****                 
1186:Generated_Source\PSoC4/CyLib.c ****                 intrRegMaskStore = CY_SYS_BLESS_INTR_MASK_REG;
1187:Generated_Source\PSoC4/CyLib.c ****                 if(0u != (CY_SYS_BLESS_BLERD_ACTIVE_INTR_MASK & intrRegMaskStore))
1188:Generated_Source\PSoC4/CyLib.c ****                 {
1189:Generated_Source\PSoC4/CyLib.c ****                     CY_SYS_BLESS_INTR_MASK_REG &= ~CY_SYS_BLESS_BLERD_ACTIVE_INTR_MASK;
1190:Generated_Source\PSoC4/CyLib.c ****                 }
ARM GAS  C:\Users\essele\AppData\Local\Temp\cchUVvdf.s 			page 36


1191:Generated_Source\PSoC4/CyLib.c ****                 
1192:Generated_Source\PSoC4/CyLib.c ****                 /* Enable BLE core */
1193:Generated_Source\PSoC4/CyLib.c ****                 regConfig = CY_SYS_BLESS_MT_CFG_REG;
1194:Generated_Source\PSoC4/CyLib.c ****                 regConfig &= CY_SYS_BLESS_MT_CFG_CLEAR;
1195:Generated_Source\PSoC4/CyLib.c ****                 regConfig |= CY_SYS_BLESS_MT_CFG_INIT;
1196:Generated_Source\PSoC4/CyLib.c ****                 CY_SYS_BLESS_MT_CFG_REG = regConfig;
1197:Generated_Source\PSoC4/CyLib.c **** 
1198:Generated_Source\PSoC4/CyLib.c ****                 while(0u == ((CY_SYS_BLESS_BLERD_ACTIVE_INTR_STAT & CY_SYS_BLESS_INTR_STAT_REG)))
1199:Generated_Source\PSoC4/CyLib.c ****                 {
1200:Generated_Source\PSoC4/CyLib.c ****                     /* Wait until BLERD55 moves to active state */
1201:Generated_Source\PSoC4/CyLib.c ****                 }
1202:Generated_Source\PSoC4/CyLib.c **** 
1203:Generated_Source\PSoC4/CyLib.c ****                 if(0u != (CY_SYS_BLESS_BLERD_ACTIVE_INTR_MASK & intrRegMaskStore))
1204:Generated_Source\PSoC4/CyLib.c ****                 {
1205:Generated_Source\PSoC4/CyLib.c ****                     CY_SYS_BLESS_INTR_MASK_REG |= CY_SYS_BLESS_BLERD_ACTIVE_INTR_MASK;
1206:Generated_Source\PSoC4/CyLib.c ****                 }
1207:Generated_Source\PSoC4/CyLib.c ****                 
1208:Generated_Source\PSoC4/CyLib.c ****                 /* Send write commands to RBUS */
1209:Generated_Source\PSoC4/CyLib.c ****                 CY_SYS_RCB_TX_FIFO_WR_REG = CY_SYS_RCB_RBUS_FREQ_NRST_SET;
1210:Generated_Source\PSoC4/CyLib.c ****                 CY_SYS_RCB_TX_FIFO_WR_REG = CY_SYS_RCB_RBUS_DIG_CLK_SET;
1211:Generated_Source\PSoC4/CyLib.c ****                 
1212:Generated_Source\PSoC4/CyLib.c ****                 #if (CY_SYS_BLE_CLK_ECO_FREQ_32MHZ == CYDEV_ECO_CLK_MHZ)
1213:Generated_Source\PSoC4/CyLib.c ****                     CY_SYS_RCB_TX_FIFO_WR_REG = CY_SYS_RCB_RBUS_FREQ_XTAL_DIV_SET;
1214:Generated_Source\PSoC4/CyLib.c ****                     CY_SYS_RCB_TX_FIFO_WR_REG = (CY_SYS_RCB_RBUS_RF_DCXO_CFG_SET | CY_SYS_RCB_RBUS_
1215:Generated_Source\PSoC4/CyLib.c ****                 #else
1216:Generated_Source\PSoC4/CyLib.c ****                     CY_SYS_RCB_TX_FIFO_WR_REG = CY_SYS_RCB_RBUS_FREQ_XTAL_NODIV_SET;
1217:Generated_Source\PSoC4/CyLib.c ****                 #endif
1218:Generated_Source\PSoC4/CyLib.c ****                 
1219:Generated_Source\PSoC4/CyLib.c ****                 intrRegMaskStore = CY_SYS_BLESS_INTR_MASK_REG;
1220:Generated_Source\PSoC4/CyLib.c ****                 if(0u != (CY_SYS_RCB_INTR_RCB_DONE & intrRegMaskStore))
1221:Generated_Source\PSoC4/CyLib.c ****                 {
1222:Generated_Source\PSoC4/CyLib.c ****                     CY_SYS_BLESS_INTR_MASK_REG &= ~(CY_SYS_RCB_INTR_RCB_DONE | CY_SYS_RCB_INTR_RCB_
1223:Generated_Source\PSoC4/CyLib.c ****                 }
1224:Generated_Source\PSoC4/CyLib.c ****                 
1225:Generated_Source\PSoC4/CyLib.c ****                 /* Send read commands to RBUS */
1226:Generated_Source\PSoC4/CyLib.c ****                 CY_SYS_RCB_TX_FIFO_WR_REG = (CY_SYS_RCB_RBUS_RD_CMD | 
1227:Generated_Source\PSoC4/CyLib.c ****                                             (CY_SYS_RCB_RBUS_RF_DCXO_CFG_SET & ~CY_SYS_RCB_RBUS_VAL
1228:Generated_Source\PSoC4/CyLib.c ****                                             
1229:Generated_Source\PSoC4/CyLib.c ****                 while (0u == (CY_SYS_RCB_INTR_RCB_RX_FIFO_NOT_EMPTY & CY_SYS_RCB_INTR_REG))
1230:Generated_Source\PSoC4/CyLib.c ****                 {
1231:Generated_Source\PSoC4/CyLib.c ****                     /* Wait until RX_FIFO_NOT_EMPTY state */
1232:Generated_Source\PSoC4/CyLib.c ****                 }
1233:Generated_Source\PSoC4/CyLib.c **** 
1234:Generated_Source\PSoC4/CyLib.c ****                 CY_SYS_RCB_INTR_REG |= CY_SYS_RCB_INTR_RCB_DONE;
1235:Generated_Source\PSoC4/CyLib.c ****                 
1236:Generated_Source\PSoC4/CyLib.c ****                 regConfig = CY_SYS_RCB_RX_FIFO_RD_REG & CY_SYS_RCB_RBUS_TRIM_MASK;
1237:Generated_Source\PSoC4/CyLib.c ****                 
1238:Generated_Source\PSoC4/CyLib.c ****                 /* Send write commands to RBUS */
1239:Generated_Source\PSoC4/CyLib.c ****                 CY_SYS_RCB_TX_FIFO_WR_REG = (CY_SYS_RCB_RBUS_RF_DCXO_CFG_SET | regConfig | CY_SYS_R
1240:Generated_Source\PSoC4/CyLib.c ****                 
1241:Generated_Source\PSoC4/CyLib.c ****                 while (0u == (CY_SYS_RCB_INTR_RCB_DONE & CY_SYS_RCB_INTR_REG))
1242:Generated_Source\PSoC4/CyLib.c ****                 {
1243:Generated_Source\PSoC4/CyLib.c ****                     /* Wait until RCB_DONE state */
1244:Generated_Source\PSoC4/CyLib.c ****                 }
1245:Generated_Source\PSoC4/CyLib.c ****                 
1246:Generated_Source\PSoC4/CyLib.c ****                 /* Clear Interrupt */
1247:Generated_Source\PSoC4/CyLib.c ****                 CY_SYS_RCB_INTR_REG = CY_SYS_RCB_INTR_CLEAR;
ARM GAS  C:\Users\essele\AppData\Local\Temp\cchUVvdf.s 			page 37


1248:Generated_Source\PSoC4/CyLib.c ****                 
1249:Generated_Source\PSoC4/CyLib.c ****                 if(0u != ((CY_SYS_RCB_INTR_RCB_DONE | CY_SYS_RCB_INTR_RCB_RX_FIFO_NOT_EMPTY) & intr
1250:Generated_Source\PSoC4/CyLib.c ****                 {
1251:Generated_Source\PSoC4/CyLib.c ****                     CY_SYS_BLESS_INTR_MASK_REG |= intrRegMaskStore;
1252:Generated_Source\PSoC4/CyLib.c ****                 }
1253:Generated_Source\PSoC4/CyLib.c ****                 
1254:Generated_Source\PSoC4/CyLib.c ****             }
1255:Generated_Source\PSoC4/CyLib.c ****         #else /* CY_IP_ECO_SRSSV2 || CY_IP_ECO_SRSSLT */
1256:Generated_Source\PSoC4/CyLib.c ****             CY_SYS_CLK_ECO_CONFIG_REG |= CY_SYS_CLK_ECO_CONFIG_ENABLE;
1257:Generated_Source\PSoC4/CyLib.c ****             CyDelayUs(CY_SYS_CLK_ECO_CONFIG_CLK_EN_TIMEOUT_US);
1258:Generated_Source\PSoC4/CyLib.c ****             CY_SYS_CLK_ECO_CONFIG_REG |= CY_SYS_CLK_ECO_CONFIG_CLK_EN;
1259:Generated_Source\PSoC4/CyLib.c ****         #endif /* (CY_IP_ECO_BLESS) */
1260:Generated_Source\PSoC4/CyLib.c **** 
1261:Generated_Source\PSoC4/CyLib.c ****         if(timeoutUs > 0u)
1262:Generated_Source\PSoC4/CyLib.c ****         {
1263:Generated_Source\PSoC4/CyLib.c ****             returnStatus = CYRET_TIMEOUT;
1264:Generated_Source\PSoC4/CyLib.c **** 
1265:Generated_Source\PSoC4/CyLib.c ****             for( ; timeoutUs > 0u; timeoutUs--)
1266:Generated_Source\PSoC4/CyLib.c ****             {
1267:Generated_Source\PSoC4/CyLib.c ****                 CyDelayUs(1u);
1268:Generated_Source\PSoC4/CyLib.c **** 
1269:Generated_Source\PSoC4/CyLib.c ****                 if(0u != CySysClkEcoReadStatus())
1270:Generated_Source\PSoC4/CyLib.c ****                 {
1271:Generated_Source\PSoC4/CyLib.c ****                     returnStatus = CYRET_SUCCESS;
1272:Generated_Source\PSoC4/CyLib.c ****                     break;
1273:Generated_Source\PSoC4/CyLib.c ****                 }
1274:Generated_Source\PSoC4/CyLib.c ****             }
1275:Generated_Source\PSoC4/CyLib.c **** 
1276:Generated_Source\PSoC4/CyLib.c ****         }
1277:Generated_Source\PSoC4/CyLib.c **** 
1278:Generated_Source\PSoC4/CyLib.c ****         return(returnStatus);
1279:Generated_Source\PSoC4/CyLib.c ****     }
1280:Generated_Source\PSoC4/CyLib.c **** 
1281:Generated_Source\PSoC4/CyLib.c **** 
1282:Generated_Source\PSoC4/CyLib.c ****     /*******************************************************************************
1283:Generated_Source\PSoC4/CyLib.c ****     * Function Name: CySysClkEcoStop
1284:Generated_Source\PSoC4/CyLib.c ****     ****************************************************************************//**
1285:Generated_Source\PSoC4/CyLib.c ****     *
1286:Generated_Source\PSoC4/CyLib.c ****     * Stops the megahertz crystal.
1287:Generated_Source\PSoC4/CyLib.c ****     *
1288:Generated_Source\PSoC4/CyLib.c ****     * If ECO is disabled when it is sourcing HFCLK, the CPU will halt. In addition,
1289:Generated_Source\PSoC4/CyLib.c ****     * for PSoC 4100 BLE / PSoC 4200 BLE devices, the BLE sub-system will stop
1290:Generated_Source\PSoC4/CyLib.c ****     * functioning.
1291:Generated_Source\PSoC4/CyLib.c ****     *
1292:Generated_Source\PSoC4/CyLib.c ****     *******************************************************************************/
1293:Generated_Source\PSoC4/CyLib.c ****     void CySysClkEcoStop(void)
1294:Generated_Source\PSoC4/CyLib.c ****     {
 782              		.loc 1 1294 0
 783              		.cfi_startproc
 784              		@ args = 0, pretend = 0, frame = 0
 785              		@ frame_needed = 0, uses_anonymous_args = 0
 786              		@ link register save eliminated.
1295:Generated_Source\PSoC4/CyLib.c ****         #if (CY_IP_WCO_BLESS)
1296:Generated_Source\PSoC4/CyLib.c ****             /* Disable the RF oscillator band gap */
1297:Generated_Source\PSoC4/CyLib.c ****             CY_SYS_XTAL_BLESS_RF_CONFIG_REG &= (uint32) ~CY_SYS_XTAL_BLESS_RF_CONFIG_RF_ENABLE;
1298:Generated_Source\PSoC4/CyLib.c **** 
1299:Generated_Source\PSoC4/CyLib.c ****             /* Disable the Crystal */
ARM GAS  C:\Users\essele\AppData\Local\Temp\cchUVvdf.s 			page 38


1300:Generated_Source\PSoC4/CyLib.c ****             CY_SYS_XTAL_BLERD_DBUS_REG &= (uint32) ~CY_SYS_XTAL_BLERD_DBUS_XTAL_ENABLE;
1301:Generated_Source\PSoC4/CyLib.c ****         #elif (CY_IP_ECO_BLESSV3)
1302:Generated_Source\PSoC4/CyLib.c ****             CY_SYS_BLESS_MT_CFG_REG &= ~(CY_SYS_BLESS_MT_CFG_DPSLP_ECO_ON  <<  CYFLD_BLE_BLESS_DPSL
1303:Generated_Source\PSoC4/CyLib.c ****         #else
1304:Generated_Source\PSoC4/CyLib.c ****             CY_SYS_CLK_ECO_CONFIG_REG &= (uint32) ~(CY_SYS_CLK_ECO_CONFIG_ENABLE | CY_SYS_CLK_ECO_C
 787              		.loc 1 1304 0
 788 0000 024A     		ldr	r2, .L69
 789 0002 1168     		ldr	r1, [r2]
 790 0004 024B     		ldr	r3, .L69+4
 791 0006 0B40     		ands	r3, r1
 792 0008 1360     		str	r3, [r2]
1305:Generated_Source\PSoC4/CyLib.c ****         #endif /* (CY_IP_WCO_BLESS) */
1306:Generated_Source\PSoC4/CyLib.c ****     }
 793              		.loc 1 1306 0
 794              		@ sp needed
 795 000a 7047     		bx	lr
 796              	.L70:
 797              		.align	2
 798              	.L69:
 799 000c 08000C40 		.word	1074528264
 800 0010 FEFFFF7F 		.word	2147483646
 801              		.cfi_endproc
 802              	.LFE15:
 803              		.size	CySysClkEcoStop, .-CySysClkEcoStop
 804              		.section	.text.CySysClkEcoReadStatus,"ax",%progbits
 805              		.align	2
 806              		.global	CySysClkEcoReadStatus
 807              		.code	16
 808              		.thumb_func
 809              		.type	CySysClkEcoReadStatus, %function
 810              	CySysClkEcoReadStatus:
 811              	.LFB16:
1307:Generated_Source\PSoC4/CyLib.c **** 
1308:Generated_Source\PSoC4/CyLib.c **** 
1309:Generated_Source\PSoC4/CyLib.c ****     /*******************************************************************************
1310:Generated_Source\PSoC4/CyLib.c ****     * Function Name: CySysClkEcoReadStatus
1311:Generated_Source\PSoC4/CyLib.c ****     ****************************************************************************//**
1312:Generated_Source\PSoC4/CyLib.c ****     *
1313:Generated_Source\PSoC4/CyLib.c ****     * Reads the status bit for the megahertz crystal.
1314:Generated_Source\PSoC4/CyLib.c ****     *
1315:Generated_Source\PSoC4/CyLib.c ****     * For PSoC 4100 BLE / PSoC 4200 BLE devices, the status bit is the
1316:Generated_Source\PSoC4/CyLib.c ****     * XO_AMP_DETECT bit in FSM register.
1317:Generated_Source\PSoC4/CyLib.c ****     *
1318:Generated_Source\PSoC4/CyLib.c ****     * For PSoC 4200L / 4100S with ECO devices, the error status bit is the 
1319:Generated_Source\PSoC4/CyLib.c ****     * WATCHDOG_ERROR bit in ECO_STATUS register.
1320:Generated_Source\PSoC4/CyLib.c ****     *
1321:Generated_Source\PSoC4/CyLib.c ****     * \return PSoC 4100 BLE/PSoC 4200 BLE: Non-zero indicates that ECO output
1322:Generated_Source\PSoC4/CyLib.c ****     * reached 50 ppm and is oscillating in valid range.
1323:Generated_Source\PSoC4/CyLib.c ****     *
1324:Generated_Source\PSoC4/CyLib.c ****     * \return PSoC 4200L / 4100S with ECO: Non-zero indicates that ECO is running.
1325:Generated_Source\PSoC4/CyLib.c ****     *
1326:Generated_Source\PSoC4/CyLib.c ****     *******************************************************************************/
1327:Generated_Source\PSoC4/CyLib.c ****     uint32 CySysClkEcoReadStatus(void)
1328:Generated_Source\PSoC4/CyLib.c ****     {
 812              		.loc 1 1328 0
 813              		.cfi_startproc
 814              		@ args = 0, pretend = 0, frame = 0
ARM GAS  C:\Users\essele\AppData\Local\Temp\cchUVvdf.s 			page 39


 815              		@ frame_needed = 0, uses_anonymous_args = 0
 816              		@ link register save eliminated.
1329:Generated_Source\PSoC4/CyLib.c ****         uint32 returnValue;
1330:Generated_Source\PSoC4/CyLib.c **** 
1331:Generated_Source\PSoC4/CyLib.c ****         #if (CY_IP_WCO_BLESS)
1332:Generated_Source\PSoC4/CyLib.c ****             returnValue = CY_SYS_XTAL_BLERD_FSM_REG & CY_SYS_XTAL_BLERD_FSM_XO_AMP_DETECT;
1333:Generated_Source\PSoC4/CyLib.c ****         #elif (CY_IP_ECO_BLESSV3)
1334:Generated_Source\PSoC4/CyLib.c ****             returnValue = (CY_SYS_BLESS_MT_STATUS_REG & CY_SYS_BLESS_MT_STATUS_CURR_STATE_MASK) >> 
1335:Generated_Source\PSoC4/CyLib.c **** 
1336:Generated_Source\PSoC4/CyLib.c ****             returnValue =  ((CY_SYS_BLESS_MT_STATUS_BLERD_IDLE == returnValue) || 
1337:Generated_Source\PSoC4/CyLib.c ****                             (CY_SYS_BLESS_MT_STATUS_SWITCH_EN  == returnValue) ||
1338:Generated_Source\PSoC4/CyLib.c ****                             (CY_SYS_BLESS_MT_STATUS_ACTIVE  ==  returnValue) ||
1339:Generated_Source\PSoC4/CyLib.c ****                             (CY_SYS_BLESS_MT_STATUS_ISOLATE == returnValue));
1340:Generated_Source\PSoC4/CyLib.c ****         #else
1341:Generated_Source\PSoC4/CyLib.c ****             returnValue = (0u != (CY_SYS_CLK_ECO_STATUS_REG & CY_SYS_CLK_ECO_STATUS_WATCHDOG_ERROR)
 817              		.loc 1 1341 0
 818 0000 034B     		ldr	r3, .L72
 819 0002 1B68     		ldr	r3, [r3]
 820 0004 0120     		movs	r0, #1
 821 0006 1840     		ands	r0, r3
 822 0008 4342     		rsbs	r3, r0, #0
 823 000a 5841     		adcs	r0, r0, r3
 824 000c C0B2     		uxtb	r0, r0
 825              	.LVL52:
1342:Generated_Source\PSoC4/CyLib.c ****         #endif /* (CY_IP_WCO_BLESS) */
1343:Generated_Source\PSoC4/CyLib.c **** 
1344:Generated_Source\PSoC4/CyLib.c ****         return (returnValue);
1345:Generated_Source\PSoC4/CyLib.c ****     }
 826              		.loc 1 1345 0
 827              		@ sp needed
 828 000e 7047     		bx	lr
 829              	.L73:
 830              		.align	2
 831              	.L72:
 832 0010 0C000C40 		.word	1074528268
 833              		.cfi_endproc
 834              	.LFE16:
 835              		.size	CySysClkEcoReadStatus, .-CySysClkEcoReadStatus
 836              		.section	.text.CySysClkConfigureEcoTrim,"ax",%progbits
 837              		.align	2
 838              		.global	CySysClkConfigureEcoTrim
 839              		.code	16
 840              		.thumb_func
 841              		.type	CySysClkConfigureEcoTrim, %function
 842              	CySysClkConfigureEcoTrim:
 843              	.LFB17:
1346:Generated_Source\PSoC4/CyLib.c **** 
1347:Generated_Source\PSoC4/CyLib.c ****     #if (CY_IP_ECO_BLESS || CY_IP_ECO_BLESSV3)
1348:Generated_Source\PSoC4/CyLib.c ****         /*******************************************************************************
1349:Generated_Source\PSoC4/CyLib.c ****         * Function Name: CySysClkWriteEcoDiv
1350:Generated_Source\PSoC4/CyLib.c ****         ****************************************************************************//**
1351:Generated_Source\PSoC4/CyLib.c ****         *
1352:Generated_Source\PSoC4/CyLib.c ****         * Selects value for the ECO divider.
1353:Generated_Source\PSoC4/CyLib.c ****         *
1354:Generated_Source\PSoC4/CyLib.c ****         * The ECO must not be the HFCLK clock source when this function is called.
1355:Generated_Source\PSoC4/CyLib.c ****         * The HFCLK source can be changed to the other clock source by call to the
1356:Generated_Source\PSoC4/CyLib.c ****         * CySysClkWriteHfclkDirect() function. If the ECO sources the HFCLK this
ARM GAS  C:\Users\essele\AppData\Local\Temp\cchUVvdf.s 			page 40


1357:Generated_Source\PSoC4/CyLib.c ****         * function will not have any effect if compiler in release mode, and halt the
1358:Generated_Source\PSoC4/CyLib.c ****         * CPU when compiler in debug mode.
1359:Generated_Source\PSoC4/CyLib.c ****         *
1360:Generated_Source\PSoC4/CyLib.c ****         * If the SYSCLK clock frequency increases during the device operation, call
1361:Generated_Source\PSoC4/CyLib.c ****         * CySysFlashSetWaitCycles() with the appropriate parameter to adjust the number
1362:Generated_Source\PSoC4/CyLib.c ****         * of clock cycles the cache will wait before sampling data comes back from
1363:Generated_Source\PSoC4/CyLib.c ****         * Flash. If the SYSCLK clock frequency decreases, you can call
1364:Generated_Source\PSoC4/CyLib.c ****         * CySysFlashSetWaitCycles() to improve the CPU performance. See
1365:Generated_Source\PSoC4/CyLib.c ****         * CySysFlashSetWaitCycles() description for more information.
1366:Generated_Source\PSoC4/CyLib.c ****         *
1367:Generated_Source\PSoC4/CyLib.c ****         * \param divider Power of 2 divider selection.
1368:Generated_Source\PSoC4/CyLib.c ****         * - \ref CY_SYS_CLK_ECO_DIV1
1369:Generated_Source\PSoC4/CyLib.c ****         * - \ref CY_SYS_CLK_ECO_DIV2
1370:Generated_Source\PSoC4/CyLib.c ****         * - \ref CY_SYS_CLK_ECO_DIV4
1371:Generated_Source\PSoC4/CyLib.c ****         * - \ref CY_SYS_CLK_ECO_DIV8
1372:Generated_Source\PSoC4/CyLib.c ****         *
1373:Generated_Source\PSoC4/CyLib.c ****         *******************************************************************************/
1374:Generated_Source\PSoC4/CyLib.c ****         void CySysClkWriteEcoDiv(uint32 divider)
1375:Generated_Source\PSoC4/CyLib.c ****         {
1376:Generated_Source\PSoC4/CyLib.c ****             uint8  interruptState;
1377:Generated_Source\PSoC4/CyLib.c **** 
1378:Generated_Source\PSoC4/CyLib.c ****             if (CY_SYS_CLK_HFCLK_ECO != (CY_SYS_CLK_SELECT_REG & CY_SYS_CLK_SELECT_DIRECT_SEL_MASK)
1379:Generated_Source\PSoC4/CyLib.c ****             {
1380:Generated_Source\PSoC4/CyLib.c ****                 interruptState = CyEnterCriticalSection();
1381:Generated_Source\PSoC4/CyLib.c **** 
1382:Generated_Source\PSoC4/CyLib.c ****                 CY_SYS_CLK_XTAL_CLK_DIV_CONFIG_REG =  (divider & CY_SYS_CLK_XTAL_CLK_DIV_MASK) |
1383:Generated_Source\PSoC4/CyLib.c ****                                                       (CY_SYS_CLK_XTAL_CLK_DIV_CONFIG_REG & ((uint3
1384:Generated_Source\PSoC4/CyLib.c **** 
1385:Generated_Source\PSoC4/CyLib.c ****                 CyExitCriticalSection(interruptState);
1386:Generated_Source\PSoC4/CyLib.c ****             }
1387:Generated_Source\PSoC4/CyLib.c ****             else
1388:Generated_Source\PSoC4/CyLib.c ****             {
1389:Generated_Source\PSoC4/CyLib.c ****                 /* Halt CPU in debug mode if ECO sources HFCLK */
1390:Generated_Source\PSoC4/CyLib.c ****                 CYASSERT(0u != 0u);
1391:Generated_Source\PSoC4/CyLib.c ****             }
1392:Generated_Source\PSoC4/CyLib.c ****         }
1393:Generated_Source\PSoC4/CyLib.c **** 
1394:Generated_Source\PSoC4/CyLib.c ****     #else
1395:Generated_Source\PSoC4/CyLib.c **** 
1396:Generated_Source\PSoC4/CyLib.c ****         /*******************************************************************************
1397:Generated_Source\PSoC4/CyLib.c ****         * Function Name: CySysClkConfigureEcoTrim
1398:Generated_Source\PSoC4/CyLib.c ****         ****************************************************************************//**
1399:Generated_Source\PSoC4/CyLib.c ****         *
1400:Generated_Source\PSoC4/CyLib.c ****         * Selects trim setting values for ECO. This API is available only for PSoC
1401:Generated_Source\PSoC4/CyLib.c ****         * 4200L / 4100S with ECO devices only.
1402:Generated_Source\PSoC4/CyLib.c ****         *
1403:Generated_Source\PSoC4/CyLib.c ****         * The following parameters can be trimmed for ECO. The affected registers are
1404:Generated_Source\PSoC4/CyLib.c ****         * ECO_TRIM0 and ECO_TRIM1.
1405:Generated_Source\PSoC4/CyLib.c ****         *
1406:Generated_Source\PSoC4/CyLib.c ****         * Watchdog trim - This bit field sets the error threshold below the steady
1407:Generated_Source\PSoC4/CyLib.c ****         * state amplitude level.
1408:Generated_Source\PSoC4/CyLib.c ****         *
1409:Generated_Source\PSoC4/CyLib.c ****         * Amplitude trim - This bit field is to set the crystal drive level when
1410:Generated_Source\PSoC4/CyLib.c ****         * ECO_CONFIG.AGC_EN = 1. WARNING: use care when setting this field because
1411:Generated_Source\PSoC4/CyLib.c ****         * driving a crystal beyond its rated limit can permanently damage the crystal.
1412:Generated_Source\PSoC4/CyLib.c ****         *
1413:Generated_Source\PSoC4/CyLib.c ****         * Filter frequency trim - This bit field sets LPF frequency trim and affects
ARM GAS  C:\Users\essele\AppData\Local\Temp\cchUVvdf.s 			page 41


1414:Generated_Source\PSoC4/CyLib.c ****         * the 3rd harmonic content.
1415:Generated_Source\PSoC4/CyLib.c ****         *
1416:Generated_Source\PSoC4/CyLib.c ****         * Feedback resistor trim - This bit field sets the feedback resistor trim and
1417:Generated_Source\PSoC4/CyLib.c ****         * impacts the oscillation amplitude.
1418:Generated_Source\PSoC4/CyLib.c ****         *
1419:Generated_Source\PSoC4/CyLib.c ****         * Amplifier gain trim - This bit field sets the amplifier gain trim and affects
1420:Generated_Source\PSoC4/CyLib.c ****         * the startup time of the crystal.
1421:Generated_Source\PSoC4/CyLib.c ****         *
1422:Generated_Source\PSoC4/CyLib.c ****         * Use care when setting the amplitude trim field because driving a crystal
1423:Generated_Source\PSoC4/CyLib.c ****         * beyond its rated limit can permanently damage the crystal.
1424:Generated_Source\PSoC4/CyLib.c ****         *
1425:Generated_Source\PSoC4/CyLib.c ****         * \param wDTrim: Watchdog trim
1426:Generated_Source\PSoC4/CyLib.c ****         * - \ref CY_SYS_CLK_ECO_WDTRIM0      Error threshold is 0.05 V
1427:Generated_Source\PSoC4/CyLib.c ****         * - \ref CY_SYS_CLK_ECO_WDTRIM1      Error threshold is 0.10 V
1428:Generated_Source\PSoC4/CyLib.c ****         * - \ref CY_SYS_CLK_ECO_WDTRIM2      Error threshold is 0.15 V
1429:Generated_Source\PSoC4/CyLib.c ****         * - \ref CY_SYS_CLK_ECO_WDTRIM3      Error threshold is 0.20 V
1430:Generated_Source\PSoC4/CyLib.c ****         *
1431:Generated_Source\PSoC4/CyLib.c ****         * \param aTrim: Amplitude trim
1432:Generated_Source\PSoC4/CyLib.c ****         * - \ref CY_SYS_CLK_ECO_ATRIM0       Amplitude is 0.3 Vpp
1433:Generated_Source\PSoC4/CyLib.c ****         * - \ref CY_SYS_CLK_ECO_ATRIM1       Amplitude is 0.4 Vpp
1434:Generated_Source\PSoC4/CyLib.c ****         * - \ref CY_SYS_CLK_ECO_ATRIM2       Amplitude is 0.5 Vpp
1435:Generated_Source\PSoC4/CyLib.c ****         * - \ref CY_SYS_CLK_ECO_ATRIM3       Amplitude is 0.6 Vpp
1436:Generated_Source\PSoC4/CyLib.c ****         * - \ref CY_SYS_CLK_ECO_ATRIM4       Amplitude is 0.7 Vpp
1437:Generated_Source\PSoC4/CyLib.c ****         * - \ref CY_SYS_CLK_ECO_ATRIM5       Amplitude is 0.8 Vpp
1438:Generated_Source\PSoC4/CyLib.c ****         * - \ref CY_SYS_CLK_ECO_ATRIM6       Amplitude is 0.9 Vpp
1439:Generated_Source\PSoC4/CyLib.c ****         * - \ref CY_SYS_CLK_ECO_ATRIM7       Amplitude is 1.0 Vpp
1440:Generated_Source\PSoC4/CyLib.c ****         *
1441:Generated_Source\PSoC4/CyLib.c ****         * \param fTrim: Filter frequency trim
1442:Generated_Source\PSoC4/CyLib.c ****         * - \ref CY_SYS_CLK_ECO_FTRIM0       Crystal frequency > 30 MHz
1443:Generated_Source\PSoC4/CyLib.c ****         * - \ref CY_SYS_CLK_ECO_FTRIM1       24 MHz < Crystal frequency <= 30 MHz
1444:Generated_Source\PSoC4/CyLib.c ****         * - \ref CY_SYS_CLK_ECO_FTRIM2       17 MHz < Crystal frequency <= 24 MHz
1445:Generated_Source\PSoC4/CyLib.c ****         * - \ref CY_SYS_CLK_ECO_FTRIM3       Crystal frequency <= 17 MHz
1446:Generated_Source\PSoC4/CyLib.c ****         *
1447:Generated_Source\PSoC4/CyLib.c ****         * \param rTrim: Feedback resistor trim
1448:Generated_Source\PSoC4/CyLib.c ****         * - \ref CY_SYS_CLK_ECO_RTRIM0       Crystal frequency > 30 MHz
1449:Generated_Source\PSoC4/CyLib.c ****         * - \ref CY_SYS_CLK_ECO_RTRIM1       24 MHz < Crystal frequency <= 30 MHz
1450:Generated_Source\PSoC4/CyLib.c ****         * - \ref CY_SYS_CLK_ECO_RTRIM2       17 MHz < Crystal frequency <= 24 MHz
1451:Generated_Source\PSoC4/CyLib.c ****         * - \ref CY_SYS_CLK_ECO_RTRIM3       Crystal frequency <= 17 MHz
1452:Generated_Source\PSoC4/CyLib.c ****         *
1453:Generated_Source\PSoC4/CyLib.c ****         * \param gTrim: Amplifier gain trim. Calculate the minimum required gm
1454:Generated_Source\PSoC4/CyLib.c ****         * (trans-conductance value). Divide the calculated gm value by 4.5 to
1455:Generated_Source\PSoC4/CyLib.c ****         * obtain an integer value 'result'. For more information please refer
1456:Generated_Source\PSoC4/CyLib.c ****         * to the device TRM.
1457:Generated_Source\PSoC4/CyLib.c ****         * - \ref CY_SYS_CLK_ECO_GTRIM0       If result = 1
1458:Generated_Source\PSoC4/CyLib.c ****         * - \ref CY_SYS_CLK_ECO_GTRIM1       If result = 0
1459:Generated_Source\PSoC4/CyLib.c ****         * - \ref CY_SYS_CLK_ECO_GTRIM2       If result = 2
1460:Generated_Source\PSoC4/CyLib.c ****         * - \ref CY_SYS_CLK_ECO_GTRIM2       If result = 3
1461:Generated_Source\PSoC4/CyLib.c ****         *
1462:Generated_Source\PSoC4/CyLib.c ****         *******************************************************************************/
1463:Generated_Source\PSoC4/CyLib.c ****         void CySysClkConfigureEcoTrim(uint32 wDTrim, uint32 aTrim, uint32 fTrim, uint32 rTrim, uint
1464:Generated_Source\PSoC4/CyLib.c ****         {
 844              		.loc 1 1464 0
 845              		.cfi_startproc
 846              		@ args = 4, pretend = 0, frame = 0
 847              		@ frame_needed = 0, uses_anonymous_args = 0
 848              	.LVL53:
 849 0000 F0B5     		push	{r4, r5, r6, r7, lr}
ARM GAS  C:\Users\essele\AppData\Local\Temp\cchUVvdf.s 			page 42


 850              		.cfi_def_cfa_offset 20
 851              		.cfi_offset 4, -20
 852              		.cfi_offset 5, -16
 853              		.cfi_offset 6, -12
 854              		.cfi_offset 7, -8
 855              		.cfi_offset 14, -4
 856 0002 4746     		mov	r7, r8
 857 0004 80B4     		push	{r7}
 858              		.cfi_def_cfa_offset 24
 859              		.cfi_offset 8, -24
 860 0006 0700     		movs	r7, r0
 861 0008 0D00     		movs	r5, r1
 862 000a 1600     		movs	r6, r2
 863 000c 9846     		mov	r8, r3
1465:Generated_Source\PSoC4/CyLib.c ****             uint8  interruptState;
1466:Generated_Source\PSoC4/CyLib.c ****             uint32 regTmp;
1467:Generated_Source\PSoC4/CyLib.c **** 
1468:Generated_Source\PSoC4/CyLib.c ****             interruptState = CyEnterCriticalSection();
 864              		.loc 1 1468 0
 865 000e FFF7FEFF 		bl	CyEnterCriticalSection
 866              	.LVL54:
1469:Generated_Source\PSoC4/CyLib.c **** 
1470:Generated_Source\PSoC4/CyLib.c ****             regTmp  = CY_SYS_CLK_ECO_TRIM0_REG & ~(CY_SYS_CLK_ECO_TRIM0_WDTRIM_MASK | CY_SYS_CLK_EC
 867              		.loc 1 1470 0
 868 0012 114A     		ldr	r2, .L75
 869 0014 1368     		ldr	r3, [r2]
 870 0016 1F21     		movs	r1, #31
 871 0018 8B43     		bics	r3, r1
 872              	.LVL55:
1471:Generated_Source\PSoC4/CyLib.c ****             regTmp |= ((uint32) (wDTrim << CY_SYS_CLK_ECO_TRIM0_WDTRIM_SHIFT) & CY_SYS_CLK_ECO_TRIM
 873              		.loc 1 1471 0
 874 001a 0324     		movs	r4, #3
 875 001c 2740     		ands	r7, r4
 876              	.LVL56:
 877 001e 1F43     		orrs	r7, r3
 878              	.LVL57:
1472:Generated_Source\PSoC4/CyLib.c ****             regTmp |= ((uint32) (aTrim << CY_SYS_CLK_ECO_TRIM0_ATRIM_SHIFT) & CY_SYS_CLK_ECO_TRIM0_
 879              		.loc 1 1472 0
 880 0020 A900     		lsls	r1, r5, #2
 881 0022 1C25     		movs	r5, #28
 882              	.LVL58:
 883 0024 0D40     		ands	r5, r1
 884 0026 3D43     		orrs	r5, r7
 885              	.LVL59:
1473:Generated_Source\PSoC4/CyLib.c ****             CY_SYS_CLK_ECO_TRIM0_REG = regTmp;
 886              		.loc 1 1473 0
 887 0028 1560     		str	r5, [r2]
1474:Generated_Source\PSoC4/CyLib.c **** 
1475:Generated_Source\PSoC4/CyLib.c ****             regTmp  = CY_SYS_CLK_ECO_TRIM1_REG & ~(CY_SYS_CLK_ECO_TRIM1_FTRIM_MASK |
 888              		.loc 1 1475 0
 889 002a 0C4A     		ldr	r2, .L75+4
 890 002c 1368     		ldr	r3, [r2]
 891 002e 3F21     		movs	r1, #63
 892 0030 8B43     		bics	r3, r1
 893              	.LVL60:
1476:Generated_Source\PSoC4/CyLib.c ****                                                    CY_SYS_CLK_ECO_TRIM1_RTRIM_MASK |
1477:Generated_Source\PSoC4/CyLib.c ****                                                    CY_SYS_CLK_ECO_TRIM1_GTRIM_MASK);
ARM GAS  C:\Users\essele\AppData\Local\Temp\cchUVvdf.s 			page 43


1478:Generated_Source\PSoC4/CyLib.c ****             regTmp |= ((uint32) (fTrim << CY_SYS_CLK_ECO_TRIM1_FTRIM_SHIFT) & CY_SYS_CLK_ECO_TRIM1_
 894              		.loc 1 1478 0
 895 0032 2640     		ands	r6, r4
 896              	.LVL61:
 897 0034 3343     		orrs	r3, r6
 898              	.LVL62:
1479:Generated_Source\PSoC4/CyLib.c ****             regTmp |= ((uint32) (rTrim << CY_SYS_CLK_ECO_TRIM1_RTRIM_SHIFT) & CY_SYS_CLK_ECO_TRIM1_
 899              		.loc 1 1479 0
 900 0036 4146     		mov	r1, r8
 901 0038 8900     		lsls	r1, r1, #2
 902 003a 0934     		adds	r4, r4, #9
 903 003c 0C40     		ands	r4, r1
 904 003e 1C43     		orrs	r4, r3
 905              	.LVL63:
1480:Generated_Source\PSoC4/CyLib.c ****             regTmp |= ((uint32) (gTrim << CY_SYS_CLK_ECO_TRIM1_GTRIM_SHIFT) & CY_SYS_CLK_ECO_TRIM1_
 906              		.loc 1 1480 0
 907 0040 069B     		ldr	r3, [sp, #24]
 908 0042 1901     		lsls	r1, r3, #4
 909 0044 3023     		movs	r3, #48
 910 0046 1940     		ands	r1, r3
 911 0048 2300     		movs	r3, r4
 912 004a 0B43     		orrs	r3, r1
 913              	.LVL64:
1481:Generated_Source\PSoC4/CyLib.c **** 
1482:Generated_Source\PSoC4/CyLib.c ****             CY_SYS_CLK_ECO_TRIM1_REG = regTmp;
 914              		.loc 1 1482 0
 915 004c 1360     		str	r3, [r2]
1483:Generated_Source\PSoC4/CyLib.c **** 
1484:Generated_Source\PSoC4/CyLib.c ****             CyExitCriticalSection(interruptState);
 916              		.loc 1 1484 0
 917 004e FFF7FEFF 		bl	CyExitCriticalSection
 918              	.LVL65:
1485:Generated_Source\PSoC4/CyLib.c ****         }
 919              		.loc 1 1485 0
 920              		@ sp needed
 921              	.LVL66:
 922 0052 04BC     		pop	{r2}
 923 0054 9046     		mov	r8, r2
 924 0056 F0BD     		pop	{r4, r5, r6, r7, pc}
 925              	.L76:
 926              		.align	2
 927              	.L75:
 928 0058 0CFF0C40 		.word	1074593548
 929 005c 10FF0C40 		.word	1074593552
 930              		.cfi_endproc
 931              	.LFE17:
 932              		.size	CySysClkConfigureEcoTrim, .-CySysClkConfigureEcoTrim
 933              		.global	__aeabi_uidiv
 934              		.section	.text.CySysClkConfigureEcoDrive,"ax",%progbits
 935              		.align	2
 936              		.global	CySysClkConfigureEcoDrive
 937              		.code	16
 938              		.thumb_func
 939              		.type	CySysClkConfigureEcoDrive, %function
 940              	CySysClkConfigureEcoDrive:
 941              	.LFB18:
1486:Generated_Source\PSoC4/CyLib.c **** 
ARM GAS  C:\Users\essele\AppData\Local\Temp\cchUVvdf.s 			page 44


1487:Generated_Source\PSoC4/CyLib.c **** 
1488:Generated_Source\PSoC4/CyLib.c ****         /*******************************************************************************
1489:Generated_Source\PSoC4/CyLib.c ****         * Function Name: CySysClkConfigureEcoDrive
1490:Generated_Source\PSoC4/CyLib.c ****         ****************************************************************************//**
1491:Generated_Source\PSoC4/CyLib.c ****         *
1492:Generated_Source\PSoC4/CyLib.c ****         * Selects trim setting values for ECO based on crystal parameters. Use care
1493:Generated_Source\PSoC4/CyLib.c ****         * when setting the driveLevel parameter because driving a crystal beyond its
1494:Generated_Source\PSoC4/CyLib.c ****         * rated limit can permanently damage the crystal.
1495:Generated_Source\PSoC4/CyLib.c ****         *
1496:Generated_Source\PSoC4/CyLib.c ****         * This API is available only for PSoC 4200L / 4100S with ECO devices only.
1497:Generated_Source\PSoC4/CyLib.c ****         *
1498:Generated_Source\PSoC4/CyLib.c ****         * \param freq Frequency of the crystal in kHz.
1499:Generated_Source\PSoC4/CyLib.c ****         * \param cLoad Crystal load capacitance in pF.
1500:Generated_Source\PSoC4/CyLib.c ****         * \param esr Equivalent series resistance of the crystal in ohm.
1501:Generated_Source\PSoC4/CyLib.c ****         *  maxAmplitude: maximum amplitude level in mV. Calculate as
1502:Generated_Source\PSoC4/CyLib.c ****         *  ((sqrt(driveLevel in uW / 2 / esr))/(3.14 * freq * cLoad)) * 10^9.
1503:Generated_Source\PSoC4/CyLib.c ****         *
1504:Generated_Source\PSoC4/CyLib.c ****         *  The Automatic Gain Control (AGC) is disabled when the specified maximum
1505:Generated_Source\PSoC4/CyLib.c ****         *  amplitude level equals or above 2. In this case the amplitude is not
1506:Generated_Source\PSoC4/CyLib.c ****         *  explicitly controlled and will grow until it saturates to the supply rail
1507:Generated_Source\PSoC4/CyLib.c ****         *  (1.8V nom). WARNING: use care when disabling AGC because driving a crystal
1508:Generated_Source\PSoC4/CyLib.c ****         *  beyond its rated limit can permanently damage the crystal.
1509:Generated_Source\PSoC4/CyLib.c ****         *
1510:Generated_Source\PSoC4/CyLib.c ****         * \return \ref CYRET_SUCCESS ECO configuration completed successfully.
1511:Generated_Source\PSoC4/CyLib.c ****         * \return \ref CYRET_BAD_PARAM One or more invalid parameters.
1512:Generated_Source\PSoC4/CyLib.c ****         *
1513:Generated_Source\PSoC4/CyLib.c ****         *******************************************************************************/
1514:Generated_Source\PSoC4/CyLib.c ****         cystatus CySysClkConfigureEcoDrive(uint32 freq, uint32 cLoad, uint32 esr, uint32 maxAmplitu
1515:Generated_Source\PSoC4/CyLib.c ****         {
 942              		.loc 1 1515 0
 943              		.cfi_startproc
 944              		@ args = 0, pretend = 0, frame = 8
 945              		@ frame_needed = 0, uses_anonymous_args = 0
 946              	.LVL67:
 947 0000 F0B5     		push	{r4, r5, r6, r7, lr}
 948              		.cfi_def_cfa_offset 20
 949              		.cfi_offset 4, -20
 950              		.cfi_offset 5, -16
 951              		.cfi_offset 6, -12
 952              		.cfi_offset 7, -8
 953              		.cfi_offset 14, -4
 954 0002 5746     		mov	r7, r10
 955 0004 80B4     		push	{r7}
 956              		.cfi_def_cfa_offset 24
 957              		.cfi_offset 10, -24
 958 0006 84B0     		sub	sp, sp, #16
 959              		.cfi_def_cfa_offset 40
 960 0008 0600     		movs	r6, r0
 961 000a 0C00     		movs	r4, r1
 962 000c 1500     		movs	r5, r2
 963 000e 1F00     		movs	r7, r3
 964              	.LVL68:
1516:Generated_Source\PSoC4/CyLib.c ****             cystatus returnStatus = CYRET_SUCCESS;
1517:Generated_Source\PSoC4/CyLib.c **** 
1518:Generated_Source\PSoC4/CyLib.c ****             uint32 wDTrim;
1519:Generated_Source\PSoC4/CyLib.c ****             uint32 aTrim;
1520:Generated_Source\PSoC4/CyLib.c ****             uint32 fTrim;
ARM GAS  C:\Users\essele\AppData\Local\Temp\cchUVvdf.s 			page 45


1521:Generated_Source\PSoC4/CyLib.c ****             uint32 rTrim;
1522:Generated_Source\PSoC4/CyLib.c ****             uint32 gTrim;
1523:Generated_Source\PSoC4/CyLib.c **** 
1524:Generated_Source\PSoC4/CyLib.c ****             uint32 gmMin;
1525:Generated_Source\PSoC4/CyLib.c **** 
1526:Generated_Source\PSoC4/CyLib.c **** 
1527:Generated_Source\PSoC4/CyLib.c ****             if ((maxAmplitude < CY_SYS_CLK_ECO_MAX_AMPL_MIN_mV) ||
 965              		.loc 1 1527 0
 966 0010 F423     		movs	r3, #244
 967              	.LVL69:
 968 0012 FF33     		adds	r3, r3, #255
 969 0014 9F42     		cmp	r7, r3
 970 0016 00D8     		bhi	.LCB883
 971 0018 86E0     		b	.L84	@long jump
 972              	.LCB883:
 973              		.loc 1 1527 0 is_stmt 0 discriminator 1
 974 001a 484B     		ldr	r3, .L100
 975 001c 9842     		cmp	r0, r3
 976 001e 00D8     		bhi	.LCB886
 977 0020 84E0     		b	.L85	@long jump
 978              	.LCB886:
1528:Generated_Source\PSoC4/CyLib.c ****                 (freq < CY_SYS_CLK_ECO_FREQ_KHZ_MIN) || (freq > CY_SYS_CLK_ECO_FREQ_KHZ_MAX))
 979              		.loc 1 1528 0 is_stmt 1
 980 0022 474B     		ldr	r3, .L100+4
 981 0024 9842     		cmp	r0, r3
 982 0026 00D9     		bls	.LCB889
 983 0028 82E0     		b	.L86	@long jump
 984              	.LCB889:
1529:Generated_Source\PSoC4/CyLib.c ****             {
1530:Generated_Source\PSoC4/CyLib.c ****                 returnStatus = CYRET_BAD_PARAM;
1531:Generated_Source\PSoC4/CyLib.c ****             }
1532:Generated_Source\PSoC4/CyLib.c ****             else
1533:Generated_Source\PSoC4/CyLib.c ****             {
1534:Generated_Source\PSoC4/CyLib.c ****                 /* Calculate amplitude trim */
1535:Generated_Source\PSoC4/CyLib.c ****                 aTrim = (maxAmplitude < CY_SYS_CLK_ECO_TRIM_BOUNDARY) ? ((maxAmplitude/100u) - 4u) 
1536:Generated_Source\PSoC4/CyLib.c **** 
1537:Generated_Source\PSoC4/CyLib.c ****                 if (maxAmplitude < CY_SYS_CLK_ECO_AMPL_FOR_ATRIM0)
 985              		.loc 1 1537 0 discriminator 4
 986 002a 464B     		ldr	r3, .L100+8
 987 002c 9F42     		cmp	r7, r3
 988 002e 14D9     		bls	.L87
1538:Generated_Source\PSoC4/CyLib.c ****                 {
1539:Generated_Source\PSoC4/CyLib.c ****                     aTrim = CY_SYS_CLK_ECO_ATRIM0;
1540:Generated_Source\PSoC4/CyLib.c ****                 }
1541:Generated_Source\PSoC4/CyLib.c ****                 else if (maxAmplitude < CY_SYS_CLK_ECO_AMPL_FOR_ATRIM1)
 989              		.loc 1 1541 0
 990 0030 454B     		ldr	r3, .L100+12
 991 0032 9F42     		cmp	r7, r3
 992 0034 14D9     		bls	.L88
1542:Generated_Source\PSoC4/CyLib.c ****                 {
1543:Generated_Source\PSoC4/CyLib.c ****                     aTrim = CY_SYS_CLK_ECO_ATRIM1;
1544:Generated_Source\PSoC4/CyLib.c ****                 }
1545:Generated_Source\PSoC4/CyLib.c ****                 else if (maxAmplitude < CY_SYS_CLK_ECO_AMPL_FOR_ATRIM2)
 993              		.loc 1 1545 0
 994 0036 454B     		ldr	r3, .L100+16
 995 0038 9F42     		cmp	r7, r3
 996 003a 14D9     		bls	.L89
ARM GAS  C:\Users\essele\AppData\Local\Temp\cchUVvdf.s 			page 46


1546:Generated_Source\PSoC4/CyLib.c ****                 {
1547:Generated_Source\PSoC4/CyLib.c ****                     aTrim = CY_SYS_CLK_ECO_ATRIM2;
1548:Generated_Source\PSoC4/CyLib.c ****                 }
1549:Generated_Source\PSoC4/CyLib.c ****                 else if (maxAmplitude < CY_SYS_CLK_ECO_AMPL_FOR_ATRIM3)
 997              		.loc 1 1549 0
 998 003c 444B     		ldr	r3, .L100+20
 999 003e 9F42     		cmp	r7, r3
 1000 0040 14D9     		bls	.L90
1550:Generated_Source\PSoC4/CyLib.c ****                 {
1551:Generated_Source\PSoC4/CyLib.c ****                     aTrim = CY_SYS_CLK_ECO_ATRIM3;
1552:Generated_Source\PSoC4/CyLib.c ****                 }
1553:Generated_Source\PSoC4/CyLib.c ****                 else if (maxAmplitude < CY_SYS_CLK_ECO_AMPL_FOR_ATRIM4)
 1001              		.loc 1 1553 0
 1002 0042 7D33     		adds	r3, r3, #125
 1003 0044 9F42     		cmp	r7, r3
 1004 0046 14D9     		bls	.L91
1554:Generated_Source\PSoC4/CyLib.c ****                 {
1555:Generated_Source\PSoC4/CyLib.c ****                     aTrim = CY_SYS_CLK_ECO_ATRIM4;
1556:Generated_Source\PSoC4/CyLib.c ****                 }
1557:Generated_Source\PSoC4/CyLib.c ****                 else if (maxAmplitude < CY_SYS_CLK_ECO_AMPL_FOR_ATRIM5)
 1005              		.loc 1 1557 0
 1006 0048 424B     		ldr	r3, .L100+24
 1007 004a 9F42     		cmp	r7, r3
 1008 004c 14D9     		bls	.L92
1558:Generated_Source\PSoC4/CyLib.c ****                 {
1559:Generated_Source\PSoC4/CyLib.c ****                     aTrim = CY_SYS_CLK_ECO_ATRIM5;
1560:Generated_Source\PSoC4/CyLib.c ****                 }
1561:Generated_Source\PSoC4/CyLib.c ****                 else if (maxAmplitude < CY_SYS_CLK_ECO_AMPL_FOR_ATRIM6)
 1009              		.loc 1 1561 0
 1010 004e 424B     		ldr	r3, .L100+28
 1011 0050 9F42     		cmp	r7, r3
 1012 0052 14D8     		bhi	.L93
1562:Generated_Source\PSoC4/CyLib.c ****                 {
1563:Generated_Source\PSoC4/CyLib.c ****                     aTrim = CY_SYS_CLK_ECO_ATRIM6;
 1013              		.loc 1 1563 0
 1014 0054 0623     		movs	r3, #6
 1015 0056 0393     		str	r3, [sp, #12]
 1016 0058 13E0     		b	.L79
 1017              	.L87:
1539:Generated_Source\PSoC4/CyLib.c ****                 }
 1018              		.loc 1 1539 0
 1019 005a 0023     		movs	r3, #0
 1020 005c 0393     		str	r3, [sp, #12]
 1021 005e 10E0     		b	.L79
 1022              	.L88:
1543:Generated_Source\PSoC4/CyLib.c ****                 }
 1023              		.loc 1 1543 0
 1024 0060 0123     		movs	r3, #1
 1025 0062 0393     		str	r3, [sp, #12]
 1026 0064 0DE0     		b	.L79
 1027              	.L89:
1547:Generated_Source\PSoC4/CyLib.c ****                 }
 1028              		.loc 1 1547 0
 1029 0066 0223     		movs	r3, #2
 1030 0068 0393     		str	r3, [sp, #12]
 1031 006a 0AE0     		b	.L79
 1032              	.L90:
ARM GAS  C:\Users\essele\AppData\Local\Temp\cchUVvdf.s 			page 47


1551:Generated_Source\PSoC4/CyLib.c ****                 }
 1033              		.loc 1 1551 0
 1034 006c 0323     		movs	r3, #3
 1035 006e 0393     		str	r3, [sp, #12]
 1036 0070 07E0     		b	.L79
 1037              	.L91:
1555:Generated_Source\PSoC4/CyLib.c ****                 }
 1038              		.loc 1 1555 0
 1039 0072 0423     		movs	r3, #4
 1040 0074 0393     		str	r3, [sp, #12]
 1041 0076 04E0     		b	.L79
 1042              	.L92:
1559:Generated_Source\PSoC4/CyLib.c ****                 }
 1043              		.loc 1 1559 0
 1044 0078 0523     		movs	r3, #5
 1045 007a 0393     		str	r3, [sp, #12]
 1046 007c 01E0     		b	.L79
 1047              	.L93:
1564:Generated_Source\PSoC4/CyLib.c ****                 }
1565:Generated_Source\PSoC4/CyLib.c ****                 else
1566:Generated_Source\PSoC4/CyLib.c ****                 {
1567:Generated_Source\PSoC4/CyLib.c ****                     aTrim = CY_SYS_CLK_ECO_ATRIM7;
 1048              		.loc 1 1567 0
 1049 007e 0723     		movs	r3, #7
 1050 0080 0393     		str	r3, [sp, #12]
 1051              	.L79:
 1052              	.LVL70:
1568:Generated_Source\PSoC4/CyLib.c ****                 }
1569:Generated_Source\PSoC4/CyLib.c **** 
1570:Generated_Source\PSoC4/CyLib.c ****                 /* Calculate Watchdog trim. */
1571:Generated_Source\PSoC4/CyLib.c ****                 wDTrim = (maxAmplitude < CY_SYS_CLK_ECO_TRIM_BOUNDARY) ? ((maxAmplitude/200u) - 2u)
 1053              		.loc 1 1571 0
 1054 0082 364B     		ldr	r3, .L100+32
 1055 0084 9F42     		cmp	r7, r3
 1056 0086 06D8     		bhi	.L94
 1057              		.loc 1 1571 0 is_stmt 0 discriminator 1
 1058 0088 C821     		movs	r1, #200
 1059              	.LVL71:
 1060 008a 3800     		movs	r0, r7
 1061              	.LVL72:
 1062 008c FFF7FEFF 		bl	__aeabi_uidiv
 1063              	.LVL73:
 1064 0090 831E     		subs	r3, r0, #2
 1065 0092 0293     		str	r3, [sp, #8]
 1066 0094 01E0     		b	.L80
 1067              	.LVL74:
 1068              	.L94:
 1069              		.loc 1 1571 0
 1070 0096 0323     		movs	r3, #3
 1071 0098 0293     		str	r3, [sp, #8]
 1072              	.LVL75:
 1073              	.L80:
1572:Generated_Source\PSoC4/CyLib.c **** 
1573:Generated_Source\PSoC4/CyLib.c ****                 /* Calculate amplifier gain trim. */
1574:Generated_Source\PSoC4/CyLib.c ****                 gmMin = (uint32) (((((CY_SYS_CLK_ECO_GMMIN_COEFFICIENT * freq * cLoad) / 1000) * ((
 1074              		.loc 1 1574 0 is_stmt 1 discriminator 4
 1075 009a 7443     		muls	r4, r6
ARM GAS  C:\Users\essele\AppData\Local\Temp\cchUVvdf.s 			page 48


 1076              	.LVL76:
 1077 009c A000     		lsls	r0, r4, #2
 1078 009e 0019     		adds	r0, r0, r4
 1079 00a0 0301     		lsls	r3, r0, #4
 1080 00a2 181B     		subs	r0, r3, r4
 1081 00a4 FA21     		movs	r1, #250
 1082 00a6 8900     		lsls	r1, r1, #2
 1083 00a8 FFF7FEFF 		bl	__aeabi_uidiv
 1084              	.LVL77:
 1085 00ac 8246     		mov	r10, r0
 1086 00ae 2800     		movs	r0, r5
 1087 00b0 6043     		muls	r0, r4
 1088 00b2 FA21     		movs	r1, #250
 1089 00b4 8900     		lsls	r1, r1, #2
 1090 00b6 FFF7FEFF 		bl	__aeabi_uidiv
 1091              	.LVL78:
 1092 00ba 5346     		mov	r3, r10
 1093 00bc 5843     		muls	r0, r3
 1094 00be 2849     		ldr	r1, .L100+36
 1095 00c0 FFF7FEFF 		bl	__aeabi_uidiv
 1096              	.LVL79:
1575:Generated_Source\PSoC4/CyLib.c ****                 if (gmMin > 3u)
 1097              		.loc 1 1575 0 discriminator 4
 1098 00c4 0328     		cmp	r0, #3
 1099 00c6 07D8     		bhi	.L95
1576:Generated_Source\PSoC4/CyLib.c ****                 {
1577:Generated_Source\PSoC4/CyLib.c ****                     returnStatus = CYRET_BAD_PARAM;
1578:Generated_Source\PSoC4/CyLib.c ****                     gTrim = 0u;
1579:Generated_Source\PSoC4/CyLib.c ****                 }
1580:Generated_Source\PSoC4/CyLib.c ****                 else if (gmMin > 1u)
 1100              		.loc 1 1580 0
 1101 00c8 0128     		cmp	r0, #1
 1102 00ca 08D8     		bhi	.L96
1581:Generated_Source\PSoC4/CyLib.c ****                 {
1582:Generated_Source\PSoC4/CyLib.c ****                     gTrim = gmMin;
1583:Generated_Source\PSoC4/CyLib.c ****                 }
1584:Generated_Source\PSoC4/CyLib.c ****                 else
1585:Generated_Source\PSoC4/CyLib.c ****                 {
1586:Generated_Source\PSoC4/CyLib.c ****                     gTrim = (gmMin == 1u) ? 0u : 1u;
 1103              		.loc 1 1586 0
 1104 00cc 0138     		subs	r0, r0, #1
 1105              	.LVL80:
 1106 00ce 431E     		subs	r3, r0, #1
 1107 00d0 9841     		sbcs	r0, r0, r3
 1108              	.LVL81:
 1109 00d2 C0B2     		uxtb	r0, r0
 1110              	.LVL82:
1516:Generated_Source\PSoC4/CyLib.c **** 
 1111              		.loc 1 1516 0
 1112 00d4 0024     		movs	r4, #0
 1113 00d6 03E0     		b	.L81
 1114              	.LVL83:
 1115              	.L95:
1578:Generated_Source\PSoC4/CyLib.c ****                 }
 1116              		.loc 1 1578 0
 1117 00d8 0020     		movs	r0, #0
 1118              	.LVL84:
ARM GAS  C:\Users\essele\AppData\Local\Temp\cchUVvdf.s 			page 49


1577:Generated_Source\PSoC4/CyLib.c ****                     gTrim = 0u;
 1119              		.loc 1 1577 0
 1120 00da 0124     		movs	r4, #1
 1121 00dc 00E0     		b	.L81
 1122              	.LVL85:
 1123              	.L96:
1516:Generated_Source\PSoC4/CyLib.c **** 
 1124              		.loc 1 1516 0
 1125 00de 0024     		movs	r4, #0
 1126              	.LVL86:
 1127              	.L81:
1587:Generated_Source\PSoC4/CyLib.c ****                 }
1588:Generated_Source\PSoC4/CyLib.c **** 
1589:Generated_Source\PSoC4/CyLib.c ****                 /* Calculate feedback resistor trim */
1590:Generated_Source\PSoC4/CyLib.c ****                 if (freq > CY_SYS_CLK_ECO_FREQ_FOR_FTRIM0)
 1128              		.loc 1 1590 0
 1129 00e0 204B     		ldr	r3, .L100+40
 1130 00e2 9E42     		cmp	r6, r3
 1131 00e4 07D8     		bhi	.L97
1591:Generated_Source\PSoC4/CyLib.c ****                 {
1592:Generated_Source\PSoC4/CyLib.c ****                     rTrim = CY_SYS_CLK_ECO_FTRIM0;
1593:Generated_Source\PSoC4/CyLib.c ****                 }
1594:Generated_Source\PSoC4/CyLib.c ****                 else if (freq > CY_SYS_CLK_ECO_FREQ_FOR_FTRIM1)
 1132              		.loc 1 1594 0
 1133 00e6 204B     		ldr	r3, .L100+44
 1134 00e8 9E42     		cmp	r6, r3
 1135 00ea 06D8     		bhi	.L98
1595:Generated_Source\PSoC4/CyLib.c ****                 {
1596:Generated_Source\PSoC4/CyLib.c ****                     rTrim = CY_SYS_CLK_ECO_FTRIM1;
1597:Generated_Source\PSoC4/CyLib.c ****                 }
1598:Generated_Source\PSoC4/CyLib.c ****                 else if (freq > CY_SYS_CLK_ECO_FREQ_FOR_FTRIM2)
 1136              		.loc 1 1598 0
 1137 00ec 1F4B     		ldr	r3, .L100+48
 1138 00ee 9E42     		cmp	r6, r3
 1139 00f0 05D9     		bls	.L99
1599:Generated_Source\PSoC4/CyLib.c ****                 {
1600:Generated_Source\PSoC4/CyLib.c ****                     rTrim = CY_SYS_CLK_ECO_FTRIM2;
 1140              		.loc 1 1600 0
 1141 00f2 0222     		movs	r2, #2
 1142 00f4 04E0     		b	.L82
 1143              	.L97:
1592:Generated_Source\PSoC4/CyLib.c ****                 }
 1144              		.loc 1 1592 0
 1145 00f6 0022     		movs	r2, #0
 1146 00f8 02E0     		b	.L82
 1147              	.L98:
1596:Generated_Source\PSoC4/CyLib.c ****                 }
 1148              		.loc 1 1596 0
 1149 00fa 0122     		movs	r2, #1
 1150 00fc 00E0     		b	.L82
 1151              	.L99:
1601:Generated_Source\PSoC4/CyLib.c ****                 }
1602:Generated_Source\PSoC4/CyLib.c ****                 else
1603:Generated_Source\PSoC4/CyLib.c ****                 {
1604:Generated_Source\PSoC4/CyLib.c ****                     rTrim = CY_SYS_CLK_ECO_FTRIM3;
 1152              		.loc 1 1604 0
 1153 00fe 0322     		movs	r2, #3
ARM GAS  C:\Users\essele\AppData\Local\Temp\cchUVvdf.s 			page 50


 1154              	.L82:
 1155              	.LVL87:
1605:Generated_Source\PSoC4/CyLib.c ****                 }
1606:Generated_Source\PSoC4/CyLib.c **** 
1607:Generated_Source\PSoC4/CyLib.c ****                 /* Calculate filter frequency trim */
1608:Generated_Source\PSoC4/CyLib.c ****                 fTrim = rTrim;
1609:Generated_Source\PSoC4/CyLib.c **** 
1610:Generated_Source\PSoC4/CyLib.c ****                 CySysClkConfigureEcoTrim(wDTrim, aTrim, fTrim, rTrim, gTrim);
 1156              		.loc 1 1610 0
 1157 0100 0090     		str	r0, [sp]
 1158 0102 1300     		movs	r3, r2
 1159 0104 0399     		ldr	r1, [sp, #12]
 1160 0106 0298     		ldr	r0, [sp, #8]
 1161              	.LVL88:
 1162 0108 FFF7FEFF 		bl	CySysClkConfigureEcoTrim
 1163              	.LVL89:
1611:Generated_Source\PSoC4/CyLib.c **** 
1612:Generated_Source\PSoC4/CyLib.c ****                 /* Automatic Gain Control (AGC) enable */
1613:Generated_Source\PSoC4/CyLib.c ****                 if (maxAmplitude < 2u)
 1164              		.loc 1 1613 0
 1165 010c 012F     		cmp	r7, #1
 1166 010e 05D8     		bhi	.L83
1614:Generated_Source\PSoC4/CyLib.c ****                 {
1615:Generated_Source\PSoC4/CyLib.c ****                     /* The oscillation amplitude is controlled to the level selected by amplitude t
1616:Generated_Source\PSoC4/CyLib.c ****                     CY_SYS_CLK_ECO_CONFIG_REG |= CY_SYS_CLK_ECO_CONFIG_AGC_EN;
 1167              		.loc 1 1616 0
 1168 0110 174A     		ldr	r2, .L100+52
 1169 0112 1168     		ldr	r1, [r2]
 1170 0114 0223     		movs	r3, #2
 1171 0116 0B43     		orrs	r3, r1
 1172 0118 1360     		str	r3, [r2]
 1173              	.LVL90:
 1174 011a 0AE0     		b	.L78
 1175              	.LVL91:
 1176              	.L83:
1617:Generated_Source\PSoC4/CyLib.c ****                 }
1618:Generated_Source\PSoC4/CyLib.c ****                 else
1619:Generated_Source\PSoC4/CyLib.c ****                 {
1620:Generated_Source\PSoC4/CyLib.c ****                     /* The amplitude is not explicitly controlled and will grow until it saturates 
1621:Generated_Source\PSoC4/CyLib.c ****                     * supply rail (1.8V nom).
1622:Generated_Source\PSoC4/CyLib.c ****                     */
1623:Generated_Source\PSoC4/CyLib.c ****                     CY_SYS_CLK_ECO_CONFIG_REG &= (uint32) ~CY_SYS_CLK_ECO_CONFIG_AGC_EN;
 1177              		.loc 1 1623 0
 1178 011c 144A     		ldr	r2, .L100+52
 1179 011e 1368     		ldr	r3, [r2]
 1180 0120 0221     		movs	r1, #2
 1181 0122 8B43     		bics	r3, r1
 1182 0124 1360     		str	r3, [r2]
 1183              	.LVL92:
 1184 0126 04E0     		b	.L78
 1185              	.LVL93:
 1186              	.L84:
1530:Generated_Source\PSoC4/CyLib.c ****             }
 1187              		.loc 1 1530 0
 1188 0128 0124     		movs	r4, #1
 1189 012a 02E0     		b	.L78
 1190              	.L85:
ARM GAS  C:\Users\essele\AppData\Local\Temp\cchUVvdf.s 			page 51


 1191 012c 0124     		movs	r4, #1
 1192 012e 00E0     		b	.L78
 1193              	.L86:
 1194 0130 0124     		movs	r4, #1
 1195              	.LVL94:
 1196              	.L78:
1624:Generated_Source\PSoC4/CyLib.c ****                 }
1625:Generated_Source\PSoC4/CyLib.c ****             }
1626:Generated_Source\PSoC4/CyLib.c **** 
1627:Generated_Source\PSoC4/CyLib.c ****             return (returnStatus);
1628:Generated_Source\PSoC4/CyLib.c ****         }
 1197              		.loc 1 1628 0
 1198 0132 2000     		movs	r0, r4
 1199 0134 04B0     		add	sp, sp, #16
 1200              		@ sp needed
 1201              	.LVL95:
 1202              	.LVL96:
 1203              	.LVL97:
 1204              	.LVL98:
 1205 0136 04BC     		pop	{r2}
 1206 0138 9246     		mov	r10, r2
 1207 013a F0BD     		pop	{r4, r5, r6, r7, pc}
 1208              	.L101:
 1209              		.align	2
 1210              	.L100:
 1211 013c 9F0F0000 		.word	3999
 1212 0140 35820000 		.word	33333
 1213 0144 57020000 		.word	599
 1214 0148 BB020000 		.word	699
 1215 014c 1F030000 		.word	799
 1216 0150 83030000 		.word	899
 1217 0154 7D040000 		.word	1149
 1218 0158 FA040000 		.word	1274
 1219 015c AF040000 		.word	1199
 1220 0160 8074D21A 		.word	450000000
 1221 0164 30750000 		.word	30000
 1222 0168 C05D0000 		.word	24000
 1223 016c 68420000 		.word	17000
 1224 0170 08000C40 		.word	1074528264
 1225              		.cfi_endproc
 1226              	.LFE18:
 1227              		.size	CySysClkConfigureEcoDrive, .-CySysClkConfigureEcoDrive
 1228              		.section	.text.CySysClkPllStop,"ax",%progbits
 1229              		.align	2
 1230              		.global	CySysClkPllStop
 1231              		.code	16
 1232              		.thumb_func
 1233              		.type	CySysClkPllStop, %function
 1234              	CySysClkPllStop:
 1235              	.LFB21:
1629:Generated_Source\PSoC4/CyLib.c **** 
1630:Generated_Source\PSoC4/CyLib.c ****     #endif /* CY_IP_ECO_BLESS */
1631:Generated_Source\PSoC4/CyLib.c **** 
1632:Generated_Source\PSoC4/CyLib.c **** #endif /* (CY_IP_ECO) */
1633:Generated_Source\PSoC4/CyLib.c **** 
1634:Generated_Source\PSoC4/CyLib.c **** 
1635:Generated_Source\PSoC4/CyLib.c **** #if (CY_IP_PLL)
ARM GAS  C:\Users\essele\AppData\Local\Temp\cchUVvdf.s 			page 52


1636:Generated_Source\PSoC4/CyLib.c ****     /*******************************************************************************
1637:Generated_Source\PSoC4/CyLib.c ****     * Function Name: CySysClkPllStart
1638:Generated_Source\PSoC4/CyLib.c ****     ****************************************************************************//**
1639:Generated_Source\PSoC4/CyLib.c ****     *
1640:Generated_Source\PSoC4/CyLib.c ****     * Enables the PLL. Optionally waits for it to become stable. Waits at least
1641:Generated_Source\PSoC4/CyLib.c ****     * 250 us or until it is detected that the PLL is stable.
1642:Generated_Source\PSoC4/CyLib.c ****     *
1643:Generated_Source\PSoC4/CyLib.c ****     * Clears the unlock occurred status bit by calling CySysClkPllGetUnlockStatus(),
1644:Generated_Source\PSoC4/CyLib.c ****     * once the PLL is locked if the wait parameter is 1).
1645:Generated_Source\PSoC4/CyLib.c ****     *
1646:Generated_Source\PSoC4/CyLib.c ****     * This API is available only for PSoC 4200L / 4100S with PLL devices.
1647:Generated_Source\PSoC4/CyLib.c ****     *
1648:Generated_Source\PSoC4/CyLib.c ****     * \param PLL:
1649:Generated_Source\PSoC4/CyLib.c ****     * 0   PLL#0
1650:Generated_Source\PSoC4/CyLib.c ****     * 1   PLL#1 (available only for PSoC 4200L)
1651:Generated_Source\PSoC4/CyLib.c ****     *
1652:Generated_Source\PSoC4/CyLib.c ****     * \param wait:
1653:Generated_Source\PSoC4/CyLib.c ****     * 0 - Return immediately after configuration.
1654:Generated_Source\PSoC4/CyLib.c ****     * 1 - Wait for PLL lock or timeout. This API shall use the CyDelayUs() to
1655:Generated_Source\PSoC4/CyLib.c ****     * implement the timeout feature.
1656:Generated_Source\PSoC4/CyLib.c ****     *
1657:Generated_Source\PSoC4/CyLib.c ****     * \return CYRET_SUCCESS Completed successfully.
1658:Generated_Source\PSoC4/CyLib.c ****     * \return CYRET_TIMEOUT The timeout occurred without detecting a stable clock.
1659:Generated_Source\PSoC4/CyLib.c ****     * If the input source of the clock is jittery, then the lock indication may
1660:Generated_Source\PSoC4/CyLib.c ****     * not occur. However, after the timeout has expired, the generated PLL clock can
1661:Generated_Source\PSoC4/CyLib.c ****     * still be used.
1662:Generated_Source\PSoC4/CyLib.c ****     * \return CYRET_BAD_PARAM - Either the PLL or wait parameter is invalid.
1663:Generated_Source\PSoC4/CyLib.c ****     *
1664:Generated_Source\PSoC4/CyLib.c ****     *******************************************************************************/
1665:Generated_Source\PSoC4/CyLib.c ****     cystatus CySysClkPllStart(uint32 pll, uint32 wait)
1666:Generated_Source\PSoC4/CyLib.c ****     {
1667:Generated_Source\PSoC4/CyLib.c ****         uint32 counts = CY_SYS_CLK_PLL_MAX_STARTUP_US;
1668:Generated_Source\PSoC4/CyLib.c ****         uint8  interruptState;
1669:Generated_Source\PSoC4/CyLib.c ****         cystatus returnStatus = CYRET_SUCCESS;
1670:Generated_Source\PSoC4/CyLib.c **** 
1671:Generated_Source\PSoC4/CyLib.c ****         if((pll < CY_IP_PLL_NR) && (wait <= 1u))
1672:Generated_Source\PSoC4/CyLib.c ****         {
1673:Generated_Source\PSoC4/CyLib.c ****             interruptState = CyEnterCriticalSection();
1674:Generated_Source\PSoC4/CyLib.c **** 
1675:Generated_Source\PSoC4/CyLib.c ****             /* Isolate PLL outputs */
1676:Generated_Source\PSoC4/CyLib.c ****             CY_SYS_CLK_PLL_BASE.pll[pll].config &= (uint32) ~CY_SYS_CLK_PLL_CONFIG_ISOLATE;
1677:Generated_Source\PSoC4/CyLib.c **** 
1678:Generated_Source\PSoC4/CyLib.c ****             /* Enable PLL */
1679:Generated_Source\PSoC4/CyLib.c ****             CY_SYS_CLK_PLL_BASE.pll[pll].config |= CY_SYS_CLK_PLL_CONFIG_ENABLE;
1680:Generated_Source\PSoC4/CyLib.c **** 
1681:Generated_Source\PSoC4/CyLib.c ****             CyExitCriticalSection(interruptState);
1682:Generated_Source\PSoC4/CyLib.c **** 
1683:Generated_Source\PSoC4/CyLib.c ****             /* De-isolate >= CY_SYS_CLK_PLL_MIN_STARTUP_US after PLL enabled */
1684:Generated_Source\PSoC4/CyLib.c ****             CyDelayUs(CY_SYS_CLK_PLL_MIN_STARTUP_US);
1685:Generated_Source\PSoC4/CyLib.c ****             interruptState = CyEnterCriticalSection();
1686:Generated_Source\PSoC4/CyLib.c ****             CY_SYS_CLK_PLL_BASE.pll[pll].config |= CY_SYS_CLK_PLL_CONFIG_ISOLATE;
1687:Generated_Source\PSoC4/CyLib.c ****             CyExitCriticalSection(interruptState);
1688:Generated_Source\PSoC4/CyLib.c **** 
1689:Generated_Source\PSoC4/CyLib.c ****             if(wait != 0u)
1690:Generated_Source\PSoC4/CyLib.c ****             {
1691:Generated_Source\PSoC4/CyLib.c ****                 returnStatus = CYRET_TIMEOUT;
1692:Generated_Source\PSoC4/CyLib.c **** 
ARM GAS  C:\Users\essele\AppData\Local\Temp\cchUVvdf.s 			page 53


1693:Generated_Source\PSoC4/CyLib.c ****                 while(0u != counts)
1694:Generated_Source\PSoC4/CyLib.c ****                 {
1695:Generated_Source\PSoC4/CyLib.c **** 
1696:Generated_Source\PSoC4/CyLib.c ****                     if(0u != CySysClkPllGetLockStatus(pll))
1697:Generated_Source\PSoC4/CyLib.c ****                     {
1698:Generated_Source\PSoC4/CyLib.c ****                         returnStatus = CYRET_SUCCESS;
1699:Generated_Source\PSoC4/CyLib.c ****                         (void) CySysClkPllGetUnlockStatus(pll);
1700:Generated_Source\PSoC4/CyLib.c ****                         break;
1701:Generated_Source\PSoC4/CyLib.c ****                     }
1702:Generated_Source\PSoC4/CyLib.c **** 
1703:Generated_Source\PSoC4/CyLib.c ****                     CyDelayUs(1u);
1704:Generated_Source\PSoC4/CyLib.c ****                     counts--;
1705:Generated_Source\PSoC4/CyLib.c ****                 }
1706:Generated_Source\PSoC4/CyLib.c ****             }
1707:Generated_Source\PSoC4/CyLib.c ****         }
1708:Generated_Source\PSoC4/CyLib.c ****         else
1709:Generated_Source\PSoC4/CyLib.c ****         {
1710:Generated_Source\PSoC4/CyLib.c ****             returnStatus = CYRET_BAD_PARAM;
1711:Generated_Source\PSoC4/CyLib.c ****         }
1712:Generated_Source\PSoC4/CyLib.c **** 
1713:Generated_Source\PSoC4/CyLib.c ****         return (returnStatus);
1714:Generated_Source\PSoC4/CyLib.c ****     }
1715:Generated_Source\PSoC4/CyLib.c **** 
1716:Generated_Source\PSoC4/CyLib.c **** 
1717:Generated_Source\PSoC4/CyLib.c ****     /*******************************************************************************
1718:Generated_Source\PSoC4/CyLib.c ****     * Function Name: CySysClkPllGetLockStatus
1719:Generated_Source\PSoC4/CyLib.c ****     ****************************************************************************//**
1720:Generated_Source\PSoC4/CyLib.c ****     *
1721:Generated_Source\PSoC4/CyLib.c ****     * Returns non-zero if the output of the specified PLL output is locked.
1722:Generated_Source\PSoC4/CyLib.c ****     *
1723:Generated_Source\PSoC4/CyLib.c ****     * This API is available only for PSoC 4200L / 4100S with PLL devices.
1724:Generated_Source\PSoC4/CyLib.c ****     *
1725:Generated_Source\PSoC4/CyLib.c ****     * PLL:
1726:Generated_Source\PSoC4/CyLib.c ****     *  0   PLL#0
1727:Generated_Source\PSoC4/CyLib.c ****     *  1   PLL#1 (available only for PSoC 4200L)
1728:Generated_Source\PSoC4/CyLib.c ****     *
1729:Generated_Source\PSoC4/CyLib.c ****     * \return A non-zero value when the specified PLL is locked.
1730:Generated_Source\PSoC4/CyLib.c ****     *
1731:Generated_Source\PSoC4/CyLib.c ****     *******************************************************************************/
1732:Generated_Source\PSoC4/CyLib.c ****     uint32 CySysClkPllGetLockStatus(uint32 pll)
1733:Generated_Source\PSoC4/CyLib.c ****     {
1734:Generated_Source\PSoC4/CyLib.c ****         uint8  interruptState;
1735:Generated_Source\PSoC4/CyLib.c ****         uint32 returnStatus;
1736:Generated_Source\PSoC4/CyLib.c **** 
1737:Generated_Source\PSoC4/CyLib.c ****         CYASSERT(pll < CY_IP_PLL_NR);
1738:Generated_Source\PSoC4/CyLib.c **** 
1739:Generated_Source\PSoC4/CyLib.c ****         interruptState = CyEnterCriticalSection();
1740:Generated_Source\PSoC4/CyLib.c **** 
1741:Generated_Source\PSoC4/CyLib.c ****         /* PLL is locked if reported so for two consecutive read. */
1742:Generated_Source\PSoC4/CyLib.c ****         returnStatus = CY_SYS_CLK_PLL_BASE.pll[pll].status & CY_SYS_CLK_PLL_STATUS_LOCKED;
1743:Generated_Source\PSoC4/CyLib.c ****         if(0u != returnStatus)
1744:Generated_Source\PSoC4/CyLib.c ****         {
1745:Generated_Source\PSoC4/CyLib.c ****             returnStatus = CY_SYS_CLK_PLL_BASE.pll[pll].status & CY_SYS_CLK_PLL_STATUS_LOCKED;
1746:Generated_Source\PSoC4/CyLib.c ****         }
1747:Generated_Source\PSoC4/CyLib.c **** 
1748:Generated_Source\PSoC4/CyLib.c ****         CyExitCriticalSection(interruptState);
1749:Generated_Source\PSoC4/CyLib.c **** 
ARM GAS  C:\Users\essele\AppData\Local\Temp\cchUVvdf.s 			page 54


1750:Generated_Source\PSoC4/CyLib.c ****         return (returnStatus);
1751:Generated_Source\PSoC4/CyLib.c ****     }
1752:Generated_Source\PSoC4/CyLib.c **** 
1753:Generated_Source\PSoC4/CyLib.c ****     /*******************************************************************************
1754:Generated_Source\PSoC4/CyLib.c ****     * Function Name: CySysClkPllStop
1755:Generated_Source\PSoC4/CyLib.c ****     ****************************************************************************//**
1756:Generated_Source\PSoC4/CyLib.c ****     *
1757:Generated_Source\PSoC4/CyLib.c ****     * Disables the PLL.
1758:Generated_Source\PSoC4/CyLib.c ****     *
1759:Generated_Source\PSoC4/CyLib.c ****     * Ensures that either PLL is not the source of HFCLK before it is disabled,
1760:Generated_Source\PSoC4/CyLib.c ****     * otherwise, the CPU will halt.
1761:Generated_Source\PSoC4/CyLib.c ****     *
1762:Generated_Source\PSoC4/CyLib.c ****     * This API is available only for PSoC 4200L / 4100S with PLL devices.
1763:Generated_Source\PSoC4/CyLib.c ****     *
1764:Generated_Source\PSoC4/CyLib.c ****     * PLL:
1765:Generated_Source\PSoC4/CyLib.c ****     *  0   PLL#0
1766:Generated_Source\PSoC4/CyLib.c ****     *  1   PLL#1 (available only for PSoC 4200L)
1767:Generated_Source\PSoC4/CyLib.c ****     *
1768:Generated_Source\PSoC4/CyLib.c ****     *******************************************************************************/
1769:Generated_Source\PSoC4/CyLib.c ****     void CySysClkPllStop(uint32 pll)
1770:Generated_Source\PSoC4/CyLib.c ****     {
 1236              		.loc 1 1770 0
 1237              		.cfi_startproc
 1238              		@ args = 0, pretend = 0, frame = 0
 1239              		@ frame_needed = 0, uses_anonymous_args = 0
 1240              	.LVL99:
 1241 0000 70B5     		push	{r4, r5, r6, lr}
 1242              		.cfi_def_cfa_offset 16
 1243              		.cfi_offset 4, -16
 1244              		.cfi_offset 5, -12
 1245              		.cfi_offset 6, -8
 1246              		.cfi_offset 14, -4
 1247 0002 0400     		movs	r4, r0
1771:Generated_Source\PSoC4/CyLib.c ****         uint8  interruptState;
1772:Generated_Source\PSoC4/CyLib.c **** 
1773:Generated_Source\PSoC4/CyLib.c ****         if (pll < CY_IP_PLL_NR)
 1248              		.loc 1 1773 0
 1249 0004 0128     		cmp	r0, #1
 1250 0006 0CD8     		bhi	.L102
1774:Generated_Source\PSoC4/CyLib.c ****         {
1775:Generated_Source\PSoC4/CyLib.c ****             interruptState = CyEnterCriticalSection();
 1251              		.loc 1 1775 0
 1252 0008 FFF7FEFF 		bl	CyEnterCriticalSection
 1253              	.LVL100:
1776:Generated_Source\PSoC4/CyLib.c ****             CY_SYS_CLK_PLL_BASE.pll[pll].config &= (uint32) ~(CY_SYS_CLK_PLL_CONFIG_ISOLATE | CY_SY
 1254              		.loc 1 1776 0
 1255 000c 054A     		ldr	r2, .L104
 1256 000e 6100     		lsls	r1, r4, #1
 1257 0010 0D19     		adds	r5, r1, r4
 1258 0012 AB00     		lsls	r3, r5, #2
 1259 0014 9B58     		ldr	r3, [r3, r2]
 1260 0016 9B00     		lsls	r3, r3, #2
 1261 0018 9B08     		lsrs	r3, r3, #2
 1262 001a A900     		lsls	r1, r5, #2
 1263 001c 8B50     		str	r3, [r1, r2]
1777:Generated_Source\PSoC4/CyLib.c ****             CyExitCriticalSection(interruptState);
 1264              		.loc 1 1777 0
ARM GAS  C:\Users\essele\AppData\Local\Temp\cchUVvdf.s 			page 55


 1265 001e FFF7FEFF 		bl	CyExitCriticalSection
 1266              	.LVL101:
 1267              	.L102:
1778:Generated_Source\PSoC4/CyLib.c ****         }
1779:Generated_Source\PSoC4/CyLib.c ****     }
 1268              		.loc 1 1779 0
 1269              		@ sp needed
 1270              	.LVL102:
 1271 0022 70BD     		pop	{r4, r5, r6, pc}
 1272              	.L105:
 1273              		.align	2
 1274              	.L104:
 1275 0024 14000C40 		.word	1074528276
 1276              		.cfi_endproc
 1277              	.LFE21:
 1278              		.size	CySysClkPllStop, .-CySysClkPllStop
 1279              		.section	.text.CySysClkPllSetBypassMode,"ax",%progbits
 1280              		.align	2
 1281              		.global	CySysClkPllSetBypassMode
 1282              		.code	16
 1283              		.thumb_func
 1284              		.type	CySysClkPllSetBypassMode, %function
 1285              	CySysClkPllSetBypassMode:
 1286              	.LFB23:
1780:Generated_Source\PSoC4/CyLib.c **** 
1781:Generated_Source\PSoC4/CyLib.c **** 
1782:Generated_Source\PSoC4/CyLib.c ****     /*******************************************************************************
1783:Generated_Source\PSoC4/CyLib.c ****     * Function Name: CySysClkPllSetPQ
1784:Generated_Source\PSoC4/CyLib.c ****     ****************************************************************************//**
1785:Generated_Source\PSoC4/CyLib.c ****     *
1786:Generated_Source\PSoC4/CyLib.c ****     * Sets feedback (P) and reference the (Q) divider value. This API also sets the
1787:Generated_Source\PSoC4/CyLib.c ****     * programmable charge pump current value. Note that the PLL has to be disabled
1788:Generated_Source\PSoC4/CyLib.c ****     * before calling this API. If this function is called while any PLL is sourcing,
1789:Generated_Source\PSoC4/CyLib.c ****     * the SYSCLK will return an error.
1790:Generated_Source\PSoC4/CyLib.c ****     *
1791:Generated_Source\PSoC4/CyLib.c ****     * The PLL must not be the system clock source when calling this function. The
1792:Generated_Source\PSoC4/CyLib.c ****     * PLL output will glitch during this function call.
1793:Generated_Source\PSoC4/CyLib.c ****     *
1794:Generated_Source\PSoC4/CyLib.c ****     * This API is available only for PSoC 4200L / 4100S with PLL devices.
1795:Generated_Source\PSoC4/CyLib.c ****     *
1796:Generated_Source\PSoC4/CyLib.c ****     * \param PLL:
1797:Generated_Source\PSoC4/CyLib.c ****     *  0   PLL#0
1798:Generated_Source\PSoC4/CyLib.c ****     *  1   PLL#1 (available only for PSoC 4200L)
1799:Generated_Source\PSoC4/CyLib.c ****     *
1800:Generated_Source\PSoC4/CyLib.c ****     * \param feedback The P divider. Range 4 - 259. Control bits for the feedback
1801:Generated_Source\PSoC4/CyLib.c ****     * divider.
1802:Generated_Source\PSoC4/CyLib.c ****     *
1803:Generated_Source\PSoC4/CyLib.c ****     * \param reference The Q divider. Range 1 - 64. Divide by the reference.
1804:Generated_Source\PSoC4/CyLib.c ****     *
1805:Generated_Source\PSoC4/CyLib.c ****     * \param current Charge the pump current in uA. The 2 uA for output frequencies
1806:Generated_Source\PSoC4/CyLib.c ****     * of 67 MHz or less, and 3 uA for higher output frequencies. The default
1807:Generated_Source\PSoC4/CyLib.c ****     * value is 2 uA.
1808:Generated_Source\PSoC4/CyLib.c ****     *
1809:Generated_Source\PSoC4/CyLib.c ****     * \return CYRET_SUCCESS Completed successfully.
1810:Generated_Source\PSoC4/CyLib.c ****     * \return CYRET_BAD_PARAM The parameters are out of range or the specified PLL
1811:Generated_Source\PSoC4/CyLib.c ****     * sources the system clock.
1812:Generated_Source\PSoC4/CyLib.c ****     *
ARM GAS  C:\Users\essele\AppData\Local\Temp\cchUVvdf.s 			page 56


1813:Generated_Source\PSoC4/CyLib.c ****     *******************************************************************************/
1814:Generated_Source\PSoC4/CyLib.c ****     cystatus CySysClkPllSetPQ(uint32 pll, uint32 feedback, uint32 reference, uint32 current)
1815:Generated_Source\PSoC4/CyLib.c ****     {
1816:Generated_Source\PSoC4/CyLib.c ****         uint32   regTmp;
1817:Generated_Source\PSoC4/CyLib.c ****         cystatus tmp;
1818:Generated_Source\PSoC4/CyLib.c ****         uint8    interruptState;
1819:Generated_Source\PSoC4/CyLib.c ****         cystatus returnStatus = CYRET_BAD_PARAM;
1820:Generated_Source\PSoC4/CyLib.c **** 
1821:Generated_Source\PSoC4/CyLib.c ****         interruptState = CyEnterCriticalSection();
1822:Generated_Source\PSoC4/CyLib.c **** 
1823:Generated_Source\PSoC4/CyLib.c ****         tmp = CySysClkPllConfigChangeAllowed(pll);
1824:Generated_Source\PSoC4/CyLib.c **** 
1825:Generated_Source\PSoC4/CyLib.c ****         if ((pll < CY_IP_PLL_NR) &&
1826:Generated_Source\PSoC4/CyLib.c ****             (feedback  >= CY_SYS_CLK_PLL_CONFIG_FEEDBACK_DIV_MIN)  && (feedback  <= CY_SYS_CLK_PLL_
1827:Generated_Source\PSoC4/CyLib.c ****             (reference >= CY_SYS_CLK_PLL_CONFIG_REFERENCE_DIV_MIN) && (reference <= CY_SYS_CLK_PLL_
1828:Generated_Source\PSoC4/CyLib.c ****             (current   >= CY_SYS_CLK_PLL_CONFIG_ICP_SEL_MIN )      && (current   <= CY_SYS_CLK_PLL_
1829:Generated_Source\PSoC4/CyLib.c ****             (CYRET_SUCCESS == tmp))
1830:Generated_Source\PSoC4/CyLib.c ****         {
1831:Generated_Source\PSoC4/CyLib.c ****             /* Set new feedback, reference and current values */
1832:Generated_Source\PSoC4/CyLib.c ****             regTmp  = CY_SYS_CLK_PLL_BASE.pll[pll].config & (uint32) ~(CY_SYS_CLK_PLL_CONFIG_FEEDBA
1833:Generated_Source\PSoC4/CyLib.c ****                                                                        CY_SYS_CLK_PLL_CONFIG_REFERE
1834:Generated_Source\PSoC4/CyLib.c ****                                                                        CY_SYS_CLK_PLL_CONFIG_ICP_SE
1835:Generated_Source\PSoC4/CyLib.c **** 
1836:Generated_Source\PSoC4/CyLib.c ****             regTmp |= ((feedback << CY_SYS_CLK_PLL_CONFIG_FEEDBACK_DIV_SHIFT) & CY_SYS_CLK_PLL_CONF
1837:Generated_Source\PSoC4/CyLib.c ****             regTmp |= (((reference - 1u) << CY_SYS_CLK_PLL_CONFIG_REFERENCE_DIV_SHIFT) & CY_SYS_CLK
1838:Generated_Source\PSoC4/CyLib.c ****             regTmp |= ((current << CY_SYS_CLK_PLL_CONFIG_ICP_SEL_SHIFT) & CY_SYS_CLK_PLL_CONFIG_ICP
1839:Generated_Source\PSoC4/CyLib.c **** 
1840:Generated_Source\PSoC4/CyLib.c ****             CY_SYS_CLK_PLL_BASE.pll[pll].config = regTmp;
1841:Generated_Source\PSoC4/CyLib.c **** 
1842:Generated_Source\PSoC4/CyLib.c ****             returnStatus = CYRET_SUCCESS;
1843:Generated_Source\PSoC4/CyLib.c ****         }
1844:Generated_Source\PSoC4/CyLib.c **** 
1845:Generated_Source\PSoC4/CyLib.c ****         CyExitCriticalSection(interruptState);
1846:Generated_Source\PSoC4/CyLib.c **** 
1847:Generated_Source\PSoC4/CyLib.c ****         return (returnStatus);
1848:Generated_Source\PSoC4/CyLib.c ****     }
1849:Generated_Source\PSoC4/CyLib.c **** 
1850:Generated_Source\PSoC4/CyLib.c **** 
1851:Generated_Source\PSoC4/CyLib.c ****     /*******************************************************************************
1852:Generated_Source\PSoC4/CyLib.c ****     * Function Name: CySysClkPllSetBypassMode
1853:Generated_Source\PSoC4/CyLib.c ****     ****************************************************************************//**
1854:Generated_Source\PSoC4/CyLib.c ****     *
1855:Generated_Source\PSoC4/CyLib.c ****     * Sets the bypass mode for the specified PLL.
1856:Generated_Source\PSoC4/CyLib.c ****     *
1857:Generated_Source\PSoC4/CyLib.c ****     * The PLL must not be the system clock source when calling this function.
1858:Generated_Source\PSoC4/CyLib.c ****     * The PLL output will glitch during this function call.
1859:Generated_Source\PSoC4/CyLib.c ****     *
1860:Generated_Source\PSoC4/CyLib.c ****     * When the PLL's reference input is higher than HFCLK frequency the device may 
1861:Generated_Source\PSoC4/CyLib.c ****     * lock due to incorrect flash wait cycle configuration and bypass switches from 
1862:Generated_Source\PSoC4/CyLib.c ****     * PLL output to the reference input. See description of 
1863:Generated_Source\PSoC4/CyLib.c ****     * CySysFlashSetWaitCycles() for more information.
1864:Generated_Source\PSoC4/CyLib.c ****     *
1865:Generated_Source\PSoC4/CyLib.c ****     * This API is available only for PSoC 4200L / 4100S with PLL devices.
1866:Generated_Source\PSoC4/CyLib.c ****     *
1867:Generated_Source\PSoC4/CyLib.c ****     * \param PLL:
1868:Generated_Source\PSoC4/CyLib.c ****     *  0   PLL#0
1869:Generated_Source\PSoC4/CyLib.c ****     *  1   PLL#1 (available only for PSoC 4200L)
ARM GAS  C:\Users\essele\AppData\Local\Temp\cchUVvdf.s 			page 57


1870:Generated_Source\PSoC4/CyLib.c ****     *
1871:Generated_Source\PSoC4/CyLib.c ****     * \param bypass: The bypass mode.
1872:Generated_Source\PSoC4/CyLib.c ****     * CY_SYS_PLL_BYPASS_AUTO - Automatic usage of the lock indicator. When unlocked,
1873:Generated_Source\PSoC4/CyLib.c ****     * automatically selects PLL the reference input (bypass mode). When locked,
1874:Generated_Source\PSoC4/CyLib.c ****     * automatically selects the PLL output.
1875:Generated_Source\PSoC4/CyLib.c ****     *
1876:Generated_Source\PSoC4/CyLib.c ****     * CY_SYS_PLL_BYPASS_PLL_REF - Selects the PLL reference input (bypass mode).
1877:Generated_Source\PSoC4/CyLib.c ****     * Ignores the lock indicator.
1878:Generated_Source\PSoC4/CyLib.c ****     *
1879:Generated_Source\PSoC4/CyLib.c ****     * CY_SYS_PLL_BYPASS_PLL_OUT - Selects the PLL output.  Ignores the lock indicator.
1880:Generated_Source\PSoC4/CyLib.c ****     *
1881:Generated_Source\PSoC4/CyLib.c ****     *******************************************************************************/
1882:Generated_Source\PSoC4/CyLib.c ****     void CySysClkPllSetBypassMode(uint32 pll, uint32 bypass)
1883:Generated_Source\PSoC4/CyLib.c ****     {
 1287              		.loc 1 1883 0
 1288              		.cfi_startproc
 1289              		@ args = 0, pretend = 0, frame = 0
 1290              		@ frame_needed = 0, uses_anonymous_args = 0
 1291              	.LVL103:
 1292 0000 70B5     		push	{r4, r5, r6, lr}
 1293              		.cfi_def_cfa_offset 16
 1294              		.cfi_offset 4, -16
 1295              		.cfi_offset 5, -12
 1296              		.cfi_offset 6, -8
 1297              		.cfi_offset 14, -4
 1298 0002 0400     		movs	r4, r0
 1299 0004 0D00     		movs	r5, r1
1884:Generated_Source\PSoC4/CyLib.c ****         uint32 regTmp;
1885:Generated_Source\PSoC4/CyLib.c ****         uint8  interruptState;
1886:Generated_Source\PSoC4/CyLib.c **** 
1887:Generated_Source\PSoC4/CyLib.c ****         interruptState = CyEnterCriticalSection();
 1300              		.loc 1 1887 0
 1301 0006 FFF7FEFF 		bl	CyEnterCriticalSection
 1302              	.LVL104:
1888:Generated_Source\PSoC4/CyLib.c **** 
1889:Generated_Source\PSoC4/CyLib.c ****         if ((pll < CY_IP_PLL_NR) && (bypass <= CY_SYS_PLL_BYPASS_PLL_OUT))
 1303              		.loc 1 1889 0
 1304 000a 012C     		cmp	r4, #1
 1305 000c 0DD8     		bhi	.L107
 1306              		.loc 1 1889 0 is_stmt 0 discriminator 1
 1307 000e 032D     		cmp	r5, #3
 1308 0010 0BD8     		bhi	.L107
1890:Generated_Source\PSoC4/CyLib.c ****         {
1891:Generated_Source\PSoC4/CyLib.c ****             regTmp  = CY_SYS_CLK_PLL_BASE.pll[pll].config & (uint32) ~CY_SYS_CLK_PLL_CONFIG_BYPASS_
 1309              		.loc 1 1891 0 is_stmt 1
 1310 0012 074A     		ldr	r2, .L108
 1311 0014 6100     		lsls	r1, r4, #1
 1312 0016 0E19     		adds	r6, r1, r4
 1313 0018 B300     		lsls	r3, r6, #2
 1314 001a 9E58     		ldr	r6, [r3, r2]
 1315 001c 054B     		ldr	r3, .L108+4
 1316 001e 3340     		ands	r3, r6
 1317              	.LVL105:
1892:Generated_Source\PSoC4/CyLib.c ****             regTmp |=  (uint32)(bypass << CY_SYS_CLK_PLL_CONFIG_BYPASS_SEL_SHIFT);
 1318              		.loc 1 1892 0
 1319 0020 2D05     		lsls	r5, r5, #20
 1320              	.LVL106:
ARM GAS  C:\Users\essele\AppData\Local\Temp\cchUVvdf.s 			page 58


 1321 0022 1D43     		orrs	r5, r3
 1322              	.LVL107:
1893:Generated_Source\PSoC4/CyLib.c ****             CY_SYS_CLK_PLL_BASE.pll[pll].config = regTmp;
 1323              		.loc 1 1893 0
 1324 0024 0C19     		adds	r4, r1, r4
 1325              	.LVL108:
 1326 0026 A300     		lsls	r3, r4, #2
 1327 0028 9D50     		str	r5, [r3, r2]
 1328              	.LVL109:
 1329              	.L107:
1894:Generated_Source\PSoC4/CyLib.c ****         }
1895:Generated_Source\PSoC4/CyLib.c **** 
1896:Generated_Source\PSoC4/CyLib.c ****         CyExitCriticalSection(interruptState);
 1330              		.loc 1 1896 0
 1331 002a FFF7FEFF 		bl	CyExitCriticalSection
 1332              	.LVL110:
1897:Generated_Source\PSoC4/CyLib.c ****     }
 1333              		.loc 1 1897 0
 1334              		@ sp needed
 1335 002e 70BD     		pop	{r4, r5, r6, pc}
 1336              	.L109:
 1337              		.align	2
 1338              	.L108:
 1339 0030 14000C40 		.word	1074528276
 1340 0034 FFFFCFFF 		.word	-3145729
 1341              		.cfi_endproc
 1342              	.LFE23:
 1343              		.size	CySysClkPllSetBypassMode, .-CySysClkPllSetBypassMode
 1344              		.section	.text.CySysClkPllGetUnlockStatus,"ax",%progbits
 1345              		.align	2
 1346              		.global	CySysClkPllGetUnlockStatus
 1347              		.code	16
 1348              		.thumb_func
 1349              		.type	CySysClkPllGetUnlockStatus, %function
 1350              	CySysClkPllGetUnlockStatus:
 1351              	.LFB26:
1898:Generated_Source\PSoC4/CyLib.c **** 
1899:Generated_Source\PSoC4/CyLib.c **** 
1900:Generated_Source\PSoC4/CyLib.c ****     /*******************************************************************************
1901:Generated_Source\PSoC4/CyLib.c ****     * Function Name: CySysClkPllGetBypassMode
1902:Generated_Source\PSoC4/CyLib.c ****     ****************************************************************************//**
1903:Generated_Source\PSoC4/CyLib.c ****     *
1904:Generated_Source\PSoC4/CyLib.c ****     *  Gets the bypass mode for the specified PLL.
1905:Generated_Source\PSoC4/CyLib.c ****     *  This API is available only for PSoC 4200L / 4100S with PLL devices.
1906:Generated_Source\PSoC4/CyLib.c ****     *
1907:Generated_Source\PSoC4/CyLib.c ****     *  \param PLL:
1908:Generated_Source\PSoC4/CyLib.c ****     *   0   PLL#0
1909:Generated_Source\PSoC4/CyLib.c ****     *   1   PLL#1 (available only for PSoC 4200L)
1910:Generated_Source\PSoC4/CyLib.c ****     *
1911:Generated_Source\PSoC4/CyLib.c ****     *  \param bypass: Bypass mode.
1912:Generated_Source\PSoC4/CyLib.c ****     *   The same as the parameter of the CySysClkPllSetBypassMode().
1913:Generated_Source\PSoC4/CyLib.c ****     *
1914:Generated_Source\PSoC4/CyLib.c ****     *******************************************************************************/
1915:Generated_Source\PSoC4/CyLib.c ****     static uint32 CySysClkPllGetBypassMode(uint32 pll)
1916:Generated_Source\PSoC4/CyLib.c ****     {
1917:Generated_Source\PSoC4/CyLib.c ****         uint32 returnValue;
1918:Generated_Source\PSoC4/CyLib.c ****         uint8  interruptState;
ARM GAS  C:\Users\essele\AppData\Local\Temp\cchUVvdf.s 			page 59


1919:Generated_Source\PSoC4/CyLib.c **** 
1920:Generated_Source\PSoC4/CyLib.c ****         CYASSERT(pll < CY_IP_PLL_NR);
1921:Generated_Source\PSoC4/CyLib.c **** 
1922:Generated_Source\PSoC4/CyLib.c ****         interruptState = CyEnterCriticalSection();
1923:Generated_Source\PSoC4/CyLib.c **** 
1924:Generated_Source\PSoC4/CyLib.c ****         returnValue = CY_SYS_CLK_PLL_BASE.pll[pll].config & CY_SYS_CLK_PLL_CONFIG_BYPASS_SEL_MASK;
1925:Generated_Source\PSoC4/CyLib.c ****         returnValue =  returnValue >> CY_SYS_CLK_PLL_CONFIG_BYPASS_SEL_SHIFT;
1926:Generated_Source\PSoC4/CyLib.c **** 
1927:Generated_Source\PSoC4/CyLib.c ****         CyExitCriticalSection(interruptState);
1928:Generated_Source\PSoC4/CyLib.c **** 
1929:Generated_Source\PSoC4/CyLib.c ****         return (returnValue);
1930:Generated_Source\PSoC4/CyLib.c ****     }
1931:Generated_Source\PSoC4/CyLib.c **** 
1932:Generated_Source\PSoC4/CyLib.c **** 
1933:Generated_Source\PSoC4/CyLib.c ****     /*******************************************************************************
1934:Generated_Source\PSoC4/CyLib.c ****     * Function Name: CySysClkPllConfigChangeAllowed
1935:Generated_Source\PSoC4/CyLib.c ****     ****************************************************************************//**
1936:Generated_Source\PSoC4/CyLib.c ****     *
1937:Generated_Source\PSoC4/CyLib.c ****     *  The function returns non-zero value if the specified PLL sources the System
1938:Generated_Source\PSoC4/CyLib.c ****     *  clock and the PLL is not in the bypass mode.
1939:Generated_Source\PSoC4/CyLib.c ****     *
1940:Generated_Source\PSoC4/CyLib.c ****     *  This API is available only for PSoC 4200L / 4100S with PLL devices.
1941:Generated_Source\PSoC4/CyLib.c ****     *
1942:Generated_Source\PSoC4/CyLib.c ****     *  \param PLL:
1943:Generated_Source\PSoC4/CyLib.c ****     *   0   PLL#0
1944:Generated_Source\PSoC4/CyLib.c ****     *   1   PLL#1 (available only for PSoC 4200L)
1945:Generated_Source\PSoC4/CyLib.c ****     *
1946:Generated_Source\PSoC4/CyLib.c ****     * \return Non-zero value when the specified PLL sources the System clock and
1947:Generated_Source\PSoC4/CyLib.c ****     * the PLL is not in the bypass mode.
1948:Generated_Source\PSoC4/CyLib.c ****     *
1949:Generated_Source\PSoC4/CyLib.c ****     *******************************************************************************/
1950:Generated_Source\PSoC4/CyLib.c ****     static cystatus CySysClkPllConfigChangeAllowed(uint32 pll)
1951:Generated_Source\PSoC4/CyLib.c ****     {
1952:Generated_Source\PSoC4/CyLib.c ****         uint32   pllBypassMode;
1953:Generated_Source\PSoC4/CyLib.c ****         uint32   sysclkSource;
1954:Generated_Source\PSoC4/CyLib.c ****         cystatus returnValue = CYRET_INVALID_STATE;
1955:Generated_Source\PSoC4/CyLib.c **** 
1956:Generated_Source\PSoC4/CyLib.c ****         sysclkSource  = CySysClkGetSysclkSource();
1957:Generated_Source\PSoC4/CyLib.c ****         pllBypassMode = CySysClkPllGetBypassMode(pll);
1958:Generated_Source\PSoC4/CyLib.c **** 
1959:Generated_Source\PSoC4/CyLib.c ****         if ((CY_SYS_PLL_BYPASS_PLL_REF == pllBypassMode)             ||
1960:Generated_Source\PSoC4/CyLib.c ****             ((CY_SYS_CLK_HFCLK_PLL0 != sysclkSource) && (0u == pll))
1961:Generated_Source\PSoC4/CyLib.c ****         #if (CY_IP_SRSSV2)
1962:Generated_Source\PSoC4/CyLib.c ****             || ((CY_SYS_CLK_HFCLK_PLL1 != sysclkSource) && (1u == pll))
1963:Generated_Source\PSoC4/CyLib.c ****         #endif /* (CY_IP_SRSSV2) */
1964:Generated_Source\PSoC4/CyLib.c ****             )
1965:Generated_Source\PSoC4/CyLib.c ****         {
1966:Generated_Source\PSoC4/CyLib.c ****             returnValue = CYRET_SUCCESS;
1967:Generated_Source\PSoC4/CyLib.c ****         }
1968:Generated_Source\PSoC4/CyLib.c **** 
1969:Generated_Source\PSoC4/CyLib.c ****         return (returnValue);
1970:Generated_Source\PSoC4/CyLib.c ****     }
1971:Generated_Source\PSoC4/CyLib.c **** 
1972:Generated_Source\PSoC4/CyLib.c **** 
1973:Generated_Source\PSoC4/CyLib.c ****     /*******************************************************************************
1974:Generated_Source\PSoC4/CyLib.c ****     * Function Name: CySysClkPllGetUnlockStatus
1975:Generated_Source\PSoC4/CyLib.c ****     ****************************************************************************//**
ARM GAS  C:\Users\essele\AppData\Local\Temp\cchUVvdf.s 			page 60


1976:Generated_Source\PSoC4/CyLib.c ****     *
1977:Generated_Source\PSoC4/CyLib.c ****     *  Returns a non-zero value if the specified PLL output was unlocked.
1978:Generated_Source\PSoC4/CyLib.c ****     *  The unlock status is an indicator that the PLL has lost a lock at least once
1979:Generated_Source\PSoC4/CyLib.c ****     *  during its operation. The unlock status is cleared once it is read using
1980:Generated_Source\PSoC4/CyLib.c ****     *  this API.
1981:Generated_Source\PSoC4/CyLib.c ****     *
1982:Generated_Source\PSoC4/CyLib.c ****     *  This API is available only for PSoC 4200L / 4100S with PLL devices.
1983:Generated_Source\PSoC4/CyLib.c ****     *
1984:Generated_Source\PSoC4/CyLib.c ****     *  \param PLL:
1985:Generated_Source\PSoC4/CyLib.c ****     *   0   PLL#0
1986:Generated_Source\PSoC4/CyLib.c ****     *   1   PLL#1 (available only for PSoC 4200L)
1987:Generated_Source\PSoC4/CyLib.c ****     *
1988:Generated_Source\PSoC4/CyLib.c ****     * \return Non-zero value when the specified PLL was unlocked.
1989:Generated_Source\PSoC4/CyLib.c ****     *
1990:Generated_Source\PSoC4/CyLib.c ****     *******************************************************************************/
1991:Generated_Source\PSoC4/CyLib.c ****     uint32 CySysClkPllGetUnlockStatus(uint32 pll)
1992:Generated_Source\PSoC4/CyLib.c ****     {
 1352              		.loc 1 1992 0
 1353              		.cfi_startproc
 1354              		@ args = 0, pretend = 0, frame = 0
 1355              		@ frame_needed = 0, uses_anonymous_args = 0
 1356              	.LVL111:
 1357 0000 70B5     		push	{r4, r5, r6, lr}
 1358              		.cfi_def_cfa_offset 16
 1359              		.cfi_offset 4, -16
 1360              		.cfi_offset 5, -12
 1361              		.cfi_offset 6, -8
 1362              		.cfi_offset 14, -4
 1363 0002 0400     		movs	r4, r0
 1364              	.LVL112:
1993:Generated_Source\PSoC4/CyLib.c ****         uint32 returnStatus = 0u;
1994:Generated_Source\PSoC4/CyLib.c ****         uint8  interruptState;
1995:Generated_Source\PSoC4/CyLib.c **** 
1996:Generated_Source\PSoC4/CyLib.c ****         interruptState = CyEnterCriticalSection();
 1365              		.loc 1 1996 0
 1366 0004 FFF7FEFF 		bl	CyEnterCriticalSection
 1367              	.LVL113:
1997:Generated_Source\PSoC4/CyLib.c **** 
1998:Generated_Source\PSoC4/CyLib.c ****         returnStatus = CY_SYS_CLK_PLL_BASE.pll[pll].test & CY_SYS_CLK_PLL_TEST_UNLOCK_OCCURRED_MASK
 1368              		.loc 1 1998 0
 1369 0008 6100     		lsls	r1, r4, #1
 1370 000a 0A19     		adds	r2, r1, r4
 1371 000c 9300     		lsls	r3, r2, #2
 1372 000e 084A     		ldr	r2, .L111
 1373 0010 9446     		mov	ip, r2
 1374 0012 6344     		add	r3, r3, ip
 1375 0014 9D68     		ldr	r5, [r3, #8]
 1376 0016 1022     		movs	r2, #16
 1377 0018 1540     		ands	r5, r2
 1378              	.LVL114:
1999:Generated_Source\PSoC4/CyLib.c ****         CY_SYS_CLK_PLL_BASE.pll[pll].test |= CY_SYS_CLK_PLL_TEST_UNLOCK_OCCURRED_MASK;
 1379              		.loc 1 1999 0
 1380 001a 9B68     		ldr	r3, [r3, #8]
 1381 001c 1A43     		orrs	r2, r3
 1382 001e 0C19     		adds	r4, r1, r4
 1383              	.LVL115:
 1384 0020 A300     		lsls	r3, r4, #2
ARM GAS  C:\Users\essele\AppData\Local\Temp\cchUVvdf.s 			page 61


 1385 0022 6344     		add	r3, r3, ip
 1386 0024 9A60     		str	r2, [r3, #8]
2000:Generated_Source\PSoC4/CyLib.c **** 
2001:Generated_Source\PSoC4/CyLib.c ****         CyExitCriticalSection(interruptState);
 1387              		.loc 1 2001 0
 1388 0026 FFF7FEFF 		bl	CyExitCriticalSection
 1389              	.LVL116:
2002:Generated_Source\PSoC4/CyLib.c **** 
2003:Generated_Source\PSoC4/CyLib.c ****         return (returnStatus);
2004:Generated_Source\PSoC4/CyLib.c ****     }
 1390              		.loc 1 2004 0
 1391 002a 2800     		movs	r0, r5
 1392              		@ sp needed
 1393              	.LVL117:
 1394 002c 70BD     		pop	{r4, r5, r6, pc}
 1395              	.L112:
 1396 002e C046     		.align	2
 1397              	.L111:
 1398 0030 14000C40 		.word	1074528276
 1399              		.cfi_endproc
 1400              	.LFE26:
 1401              		.size	CySysClkPllGetUnlockStatus, .-CySysClkPllGetUnlockStatus
 1402              		.section	.text.CySysClkPllSetSource,"ax",%progbits
 1403              		.align	2
 1404              		.global	CySysClkPllSetSource
 1405              		.code	16
 1406              		.thumb_func
 1407              		.type	CySysClkPllSetSource, %function
 1408              	CySysClkPllSetSource:
 1409              	.LFB28:
2005:Generated_Source\PSoC4/CyLib.c **** 
2006:Generated_Source\PSoC4/CyLib.c **** 
2007:Generated_Source\PSoC4/CyLib.c ****     /*******************************************************************************
2008:Generated_Source\PSoC4/CyLib.c ****     * Function Name: CySysClkPllSetFrequency
2009:Generated_Source\PSoC4/CyLib.c ****     ****************************************************************************//**
2010:Generated_Source\PSoC4/CyLib.c ****     *
2011:Generated_Source\PSoC4/CyLib.c ****     * Configures either PLL#0 or PLL#1 for the requested input/output frequencies.
2012:Generated_Source\PSoC4/CyLib.c ****     * The input frequency is the frequency of the source to the PLL. The source is
2013:Generated_Source\PSoC4/CyLib.c ****     * set using the CySysClkPllSetSource() function.
2014:Generated_Source\PSoC4/CyLib.c ****     *
2015:Generated_Source\PSoC4/CyLib.c ****     * The PLL must not be the system clock source when calling this function. The
2016:Generated_Source\PSoC4/CyLib.c ****     * PLL output will glitch during this function call.
2017:Generated_Source\PSoC4/CyLib.c ****     *
2018:Generated_Source\PSoC4/CyLib.c ****     * This API is available only for PSoC 4200L / 4100S with PLL devices.
2019:Generated_Source\PSoC4/CyLib.c ****     *
2020:Generated_Source\PSoC4/CyLib.c ****     * \param pll:
2021:Generated_Source\PSoC4/CyLib.c ****     *  0   PLL#0
2022:Generated_Source\PSoC4/CyLib.c ****     *  1   PLL#1 (available only for PSoC 4200L)
2023:Generated_Source\PSoC4/CyLib.c ****     *
2024:Generated_Source\PSoC4/CyLib.c ****     * \param inputFreq The reference frequency in KHz. The valid range is from 1000 to 49152 KHz.
2025:Generated_Source\PSoC4/CyLib.c ****     *
2026:Generated_Source\PSoC4/CyLib.c ****     * \param pllFreq The target frequency in KHz. The valid range is from 22500 to 49152 KHz.
2027:Generated_Source\PSoC4/CyLib.c ****     *
2028:Generated_Source\PSoC4/CyLib.c ****     * \param divider The output clock divider for the PLL:
2029:Generated_Source\PSoC4/CyLib.c ****     * CY_SYS_PLL_OUTPUT_DIVPASS    Pass Through
2030:Generated_Source\PSoC4/CyLib.c ****     * CY_SYS_PLL_OUTPUT_DIV2       Divide by 2
2031:Generated_Source\PSoC4/CyLib.c ****     * CY_SYS_PLL_OUTPUT_DIV4       Divide by 4
ARM GAS  C:\Users\essele\AppData\Local\Temp\cchUVvdf.s 			page 62


2032:Generated_Source\PSoC4/CyLib.c ****     * CY_SYS_PLL_OUTPUT_DIV8       Divide by 8
2033:Generated_Source\PSoC4/CyLib.c ****     *
2034:Generated_Source\PSoC4/CyLib.c ****     * \param freqTol The tolerance in ppm, 10 ppm is equal to 0.001%.
2035:Generated_Source\PSoC4/CyLib.c ****     *
2036:Generated_Source\PSoC4/CyLib.c ****     * \return CYRET_SUCCESS The PLL was successfully configured for the requested
2037:Generated_Source\PSoC4/CyLib.c ****     * frequency.
2038:Generated_Source\PSoC4/CyLib.c ****     *
2039:Generated_Source\PSoC4/CyLib.c ****     * \return CYRET_BAD_PARAM The PLL was not able to successfully configure for the
2040:Generated_Source\PSoC4/CyLib.c ****     * requested frequency.
2041:Generated_Source\PSoC4/CyLib.c ****     *
2042:Generated_Source\PSoC4/CyLib.c ****     *******************************************************************************/
2043:Generated_Source\PSoC4/CyLib.c ****     cystatus CySysClkPllSetFrequency(uint32 pll, uint32 inputFreq, uint32 pllFreq, uint32 divider, 
2044:Generated_Source\PSoC4/CyLib.c ****     {
2045:Generated_Source\PSoC4/CyLib.c ****         uint32 qMin;
2046:Generated_Source\PSoC4/CyLib.c ****         uint32 qMax;
2047:Generated_Source\PSoC4/CyLib.c **** 
2048:Generated_Source\PSoC4/CyLib.c ****         uint32 qVal = CY_SYS_CLK_PLL_INVALID;
2049:Generated_Source\PSoC4/CyLib.c ****         uint32 pVal = CY_SYS_CLK_PLL_INVALID;
2050:Generated_Source\PSoC4/CyLib.c **** 
2051:Generated_Source\PSoC4/CyLib.c ****         uint32 q;
2052:Generated_Source\PSoC4/CyLib.c ****         uint32 p;
2053:Generated_Source\PSoC4/CyLib.c **** 
2054:Generated_Source\PSoC4/CyLib.c ****         uint32 fvco;
2055:Generated_Source\PSoC4/CyLib.c ****         int32 ferr;
2056:Generated_Source\PSoC4/CyLib.c **** 
2057:Generated_Source\PSoC4/CyLib.c ****         cystatus tmp;
2058:Generated_Source\PSoC4/CyLib.c ****         cystatus returnStatus = CYRET_BAD_PARAM;
2059:Generated_Source\PSoC4/CyLib.c **** 
2060:Generated_Source\PSoC4/CyLib.c **** 
2061:Generated_Source\PSoC4/CyLib.c ****         tmp = CySysClkPllConfigChangeAllowed(pll);
2062:Generated_Source\PSoC4/CyLib.c **** 
2063:Generated_Source\PSoC4/CyLib.c ****         if ((pll < CY_IP_PLL_NR) &&
2064:Generated_Source\PSoC4/CyLib.c ****             (inputFreq  >= CY_SYS_CLK_PLL_INPUT_FREQ_MIN )  && (inputFreq  <= CY_SYS_CLK_PLL_INPUT_
2065:Generated_Source\PSoC4/CyLib.c ****             (pllFreq >= CY_SYS_CLK_PLL_OUTPUT_FREQ_MIN ) && (pllFreq <= CY_SYS_CLK_PLL_OUTPUT_FREQ_
2066:Generated_Source\PSoC4/CyLib.c ****             (divider <= CY_SYS_PLL_OUTPUT_DIV8) &&
2067:Generated_Source\PSoC4/CyLib.c ****             (CYRET_SUCCESS == tmp))
2068:Generated_Source\PSoC4/CyLib.c ****         {
2069:Generated_Source\PSoC4/CyLib.c **** 
2070:Generated_Source\PSoC4/CyLib.c ****             /* Minimum feed forward loop divisor */
2071:Generated_Source\PSoC4/CyLib.c ****             qMin = (inputFreq + (CY_SYS_CLK_PLL_FPFDMAX - 1u)) / CY_SYS_CLK_PLL_FPFDMAX;
2072:Generated_Source\PSoC4/CyLib.c ****             qMin = (qMin < CY_SYS_CLK_PLL_QMINIP) ? CY_SYS_CLK_PLL_QMINIP : qMin;
2073:Generated_Source\PSoC4/CyLib.c **** 
2074:Generated_Source\PSoC4/CyLib.c ****             /* Maximum feed forward loop divisor */
2075:Generated_Source\PSoC4/CyLib.c ****             qMax = inputFreq / CY_SYS_CLK_PLL_FPFDMIN;
2076:Generated_Source\PSoC4/CyLib.c ****             qMax = (qMax > CY_SYS_CLK_PLL_QMAXIP) ? CY_SYS_CLK_PLL_QMAXIP : qMax;
2077:Generated_Source\PSoC4/CyLib.c **** 
2078:Generated_Source\PSoC4/CyLib.c ****             if (qMin <= qMax)
2079:Generated_Source\PSoC4/CyLib.c ****             {
2080:Generated_Source\PSoC4/CyLib.c ****                 for(q = qMin; q <= qMax; q++)
2081:Generated_Source\PSoC4/CyLib.c ****                 {
2082:Generated_Source\PSoC4/CyLib.c ****                     /* Solve for the feedback divisor value */
2083:Generated_Source\PSoC4/CyLib.c **** 
2084:Generated_Source\PSoC4/CyLib.c ****                     /* INT((pllFreq * q ) / inputFreq), where INT is normal rounding  */
2085:Generated_Source\PSoC4/CyLib.c ****                     p = ((pllFreq * q) + (inputFreq / 2u)) / inputFreq;
2086:Generated_Source\PSoC4/CyLib.c **** 
2087:Generated_Source\PSoC4/CyLib.c ****                     /* Calculate the actual VCO frequency (FVCO) */
2088:Generated_Source\PSoC4/CyLib.c ****                     fvco = ((inputFreq * p) / q);
ARM GAS  C:\Users\essele\AppData\Local\Temp\cchUVvdf.s 			page 63


2089:Generated_Source\PSoC4/CyLib.c **** 
2090:Generated_Source\PSoC4/CyLib.c ****                     /* Calculate the frequency error (FERR) */
2091:Generated_Source\PSoC4/CyLib.c ****                     ferr = ((1000000 * ((int32) fvco - (int32) pllFreq))/ (int32) pllFreq);
2092:Generated_Source\PSoC4/CyLib.c **** 
2093:Generated_Source\PSoC4/CyLib.c ****                     /* Bound check the frequency error and decide next action */
2094:Generated_Source\PSoC4/CyLib.c ****                     if ((( -1 * (int32) freqTol) <= ferr) && (ferr <= (int32) freqTol))
2095:Generated_Source\PSoC4/CyLib.c ****                     {
2096:Generated_Source\PSoC4/CyLib.c ****                         qVal = q;
2097:Generated_Source\PSoC4/CyLib.c ****                         pVal = p;
2098:Generated_Source\PSoC4/CyLib.c ****                         break;
2099:Generated_Source\PSoC4/CyLib.c ****                     }
2100:Generated_Source\PSoC4/CyLib.c ****                 }
2101:Generated_Source\PSoC4/CyLib.c **** 
2102:Generated_Source\PSoC4/CyLib.c **** 
2103:Generated_Source\PSoC4/CyLib.c ****                 if ((pVal != CY_SYS_CLK_PLL_INVALID) && (qVal != CY_SYS_CLK_PLL_INVALID))
2104:Generated_Source\PSoC4/CyLib.c ****                 {
2105:Generated_Source\PSoC4/CyLib.c ****                     if (CySysClkPllSetPQ(pll, pVal, qVal, CY_SYS_CLK_PLL_CURRENT_DEFAULT) == CYRET_
2106:Generated_Source\PSoC4/CyLib.c ****                     {
2107:Generated_Source\PSoC4/CyLib.c ****                         returnStatus = CySysClkPllSetOutputDivider(pll, divider);
2108:Generated_Source\PSoC4/CyLib.c ****                     }
2109:Generated_Source\PSoC4/CyLib.c ****                 }
2110:Generated_Source\PSoC4/CyLib.c ****             }
2111:Generated_Source\PSoC4/CyLib.c **** 
2112:Generated_Source\PSoC4/CyLib.c ****         }
2113:Generated_Source\PSoC4/CyLib.c **** 
2114:Generated_Source\PSoC4/CyLib.c ****         return (returnStatus);
2115:Generated_Source\PSoC4/CyLib.c ****     }
2116:Generated_Source\PSoC4/CyLib.c **** 
2117:Generated_Source\PSoC4/CyLib.c ****     /*******************************************************************************
2118:Generated_Source\PSoC4/CyLib.c ****     * Function Name: CySysClkPllSetSource
2119:Generated_Source\PSoC4/CyLib.c ****     ****************************************************************************//**
2120:Generated_Source\PSoC4/CyLib.c ****     *
2121:Generated_Source\PSoC4/CyLib.c ****     *  Sets the input clock source to the PLL. The PLL must be disabled before
2122:Generated_Source\PSoC4/CyLib.c ****     *  calling this function.
2123:Generated_Source\PSoC4/CyLib.c ****     *
2124:Generated_Source\PSoC4/CyLib.c ****     *  This API is available only for PSoC 4200L / 4100S with PLL devices.
2125:Generated_Source\PSoC4/CyLib.c ****     *
2126:Generated_Source\PSoC4/CyLib.c ****     *  \param PLL:
2127:Generated_Source\PSoC4/CyLib.c ****     *  0   PLL#0
2128:Generated_Source\PSoC4/CyLib.c ****     *  1   PLL#1 (available only for PSoC 4200L)
2129:Generated_Source\PSoC4/CyLib.c ****     *
2130:Generated_Source\PSoC4/CyLib.c ****     * \param source:
2131:Generated_Source\PSoC4/CyLib.c ****     *  CY_SYS_PLL_SOURCE_IMO        IMO
2132:Generated_Source\PSoC4/CyLib.c ****     *  CY_SYS_PLL_SOURCE_EXTCLK     External Clock (available only for PSoC 4200L)
2133:Generated_Source\PSoC4/CyLib.c ****     *  CY_SYS_PLL_SOURCE_ECO        ECO
2134:Generated_Source\PSoC4/CyLib.c ****     *  CY_SYS_PLL_SOURCE_DSI0       DSI_OUT[0] (available only for PSoC 4200L)
2135:Generated_Source\PSoC4/CyLib.c ****     *  CY_SYS_PLL_SOURCE_DSI1       DSI_OUT[1] (available only for PSoC 4200L)
2136:Generated_Source\PSoC4/CyLib.c ****     *  CY_SYS_PLL_SOURCE_DSI2       DSI_OUT[2] (available only for PSoC 4200L)
2137:Generated_Source\PSoC4/CyLib.c ****     *  CY_SYS_PLL_SOURCE_DSI3       DSI_OUT[3] (available only for PSoC 4200L)
2138:Generated_Source\PSoC4/CyLib.c ****     *
2139:Generated_Source\PSoC4/CyLib.c ****     *******************************************************************************/
2140:Generated_Source\PSoC4/CyLib.c ****     void CySysClkPllSetSource(uint32 pll, uint32 source)
2141:Generated_Source\PSoC4/CyLib.c ****     {
 1410              		.loc 1 2141 0
 1411              		.cfi_startproc
 1412              		@ args = 0, pretend = 0, frame = 0
 1413              		@ frame_needed = 0, uses_anonymous_args = 0
ARM GAS  C:\Users\essele\AppData\Local\Temp\cchUVvdf.s 			page 64


 1414              	.LVL118:
 1415 0000 70B5     		push	{r4, r5, r6, lr}
 1416              		.cfi_def_cfa_offset 16
 1417              		.cfi_offset 4, -16
 1418              		.cfi_offset 5, -12
 1419              		.cfi_offset 6, -8
 1420              		.cfi_offset 14, -4
 1421 0002 0400     		movs	r4, r0
 1422 0004 0D00     		movs	r5, r1
2142:Generated_Source\PSoC4/CyLib.c ****         uint32 regTmp;
2143:Generated_Source\PSoC4/CyLib.c ****         uint8  interruptState;
2144:Generated_Source\PSoC4/CyLib.c ****         
2145:Generated_Source\PSoC4/CyLib.c ****         #if (CY_IP_SRSSLT)
2146:Generated_Source\PSoC4/CyLib.c ****             uint8 i = 0u;
2147:Generated_Source\PSoC4/CyLib.c ****         #endif /* (CY_IP_SRSSLT) */
2148:Generated_Source\PSoC4/CyLib.c **** 
2149:Generated_Source\PSoC4/CyLib.c ****         interruptState = CyEnterCriticalSection();
 1423              		.loc 1 2149 0
 1424 0006 FFF7FEFF 		bl	CyEnterCriticalSection
 1425              	.LVL119:
2150:Generated_Source\PSoC4/CyLib.c **** 
2151:Generated_Source\PSoC4/CyLib.c ****         if (pll < CY_IP_PLL_NR)
 1426              		.loc 1 2151 0
 1427 000a 012C     		cmp	r4, #1
 1428 000c 0BD8     		bhi	.L114
2152:Generated_Source\PSoC4/CyLib.c ****         {
2153:Generated_Source\PSoC4/CyLib.c ****             #if(CY_IP_SRSSV2)
2154:Generated_Source\PSoC4/CyLib.c ****                 regTmp = CY_SYS_CLK_SELECT_REG & (uint32) ~CY_SYS_CLK_SELECT_PLL_MASK(pll);
 1429              		.loc 1 2154 0
 1430 000e 0749     		ldr	r1, .L115
 1431 0010 0A68     		ldr	r2, [r1]
 1432 0012 0134     		adds	r4, r4, #1
 1433              	.LVL120:
 1434 0014 6300     		lsls	r3, r4, #1
 1435 0016 1C19     		adds	r4, r3, r4
 1436              	.LVL121:
 1437 0018 0723     		movs	r3, #7
 1438 001a A340     		lsls	r3, r3, r4
 1439 001c 9A43     		bics	r2, r3
 1440              	.LVL122:
2155:Generated_Source\PSoC4/CyLib.c ****                 regTmp |= ((source << CY_SYS_CLK_SELECT_PLL_SHIFT(pll)) & CY_SYS_CLK_SELECT_PLL_MAS
 1441              		.loc 1 2155 0
 1442 001e A540     		lsls	r5, r5, r4
 1443              	.LVL123:
 1444 0020 2B40     		ands	r3, r5
 1445 0022 1343     		orrs	r3, r2
 1446              	.LVL124:
2156:Generated_Source\PSoC4/CyLib.c ****                 CY_SYS_CLK_SELECT_REG = regTmp;
 1447              		.loc 1 2156 0
 1448 0024 0B60     		str	r3, [r1]
 1449              	.LVL125:
 1450              	.L114:
2157:Generated_Source\PSoC4/CyLib.c ****             #else
2158:Generated_Source\PSoC4/CyLib.c ****                 regTmp = CY_SYS_ECO_CLK_SELECT_REG & (uint32) ~CY_SYS_ECO_CLK_SELECT_PLL0_MASK;
2159:Generated_Source\PSoC4/CyLib.c ****                 regTmp |= ((source << CY_SYS_ECO_CLK_SELECT_PLL0_SHIFT) & CY_SYS_ECO_CLK_SELECT_PLL
2160:Generated_Source\PSoC4/CyLib.c ****                 CY_SYS_ECO_CLK_SELECT_REG = regTmp;
2161:Generated_Source\PSoC4/CyLib.c ****                 
ARM GAS  C:\Users\essele\AppData\Local\Temp\cchUVvdf.s 			page 65


2162:Generated_Source\PSoC4/CyLib.c ****                 /* Generate clock sequence to change clock source in CY_SYS_ECO_CLK_SELECT_REG */
2163:Generated_Source\PSoC4/CyLib.c ****                 CY_SYS_EXCO_PGM_CLK_REG |= CY_SYS_EXCO_PGM_CLK_ENABLE_MASK;
2164:Generated_Source\PSoC4/CyLib.c ****                 
2165:Generated_Source\PSoC4/CyLib.c ****                 for(i = 0u; i < CY_SYS_EXCO_PGM_CLK_SEQ_GENERATOR; i++)
2166:Generated_Source\PSoC4/CyLib.c ****                 {
2167:Generated_Source\PSoC4/CyLib.c ****                     CY_SYS_EXCO_PGM_CLK_REG |= CY_SYS_EXCO_PGM_CLK_CLK_ECO_MASK;
2168:Generated_Source\PSoC4/CyLib.c ****                     CY_SYS_EXCO_PGM_CLK_REG &= ~CY_SYS_EXCO_PGM_CLK_CLK_ECO_MASK;
2169:Generated_Source\PSoC4/CyLib.c ****                 }
2170:Generated_Source\PSoC4/CyLib.c ****                 
2171:Generated_Source\PSoC4/CyLib.c ****                 CY_SYS_EXCO_PGM_CLK_REG &= ~CY_SYS_EXCO_PGM_CLK_ENABLE_MASK;
2172:Generated_Source\PSoC4/CyLib.c **** 
2173:Generated_Source\PSoC4/CyLib.c ****             #endif /* (CY_IP_SRSSV2) */
2174:Generated_Source\PSoC4/CyLib.c ****         }
2175:Generated_Source\PSoC4/CyLib.c **** 
2176:Generated_Source\PSoC4/CyLib.c ****         CyExitCriticalSection(interruptState);
 1451              		.loc 1 2176 0
 1452 0026 FFF7FEFF 		bl	CyExitCriticalSection
 1453              	.LVL126:
2177:Generated_Source\PSoC4/CyLib.c ****     }
 1454              		.loc 1 2177 0
 1455              		@ sp needed
 1456 002a 70BD     		pop	{r4, r5, r6, pc}
 1457              	.L116:
 1458              		.align	2
 1459              	.L115:
 1460 002c 00010B40 		.word	1074462976
 1461              		.cfi_endproc
 1462              	.LFE28:
 1463              		.size	CySysClkPllSetSource, .-CySysClkPllSetSource
 1464              		.section	.text.CySysLvdDisable,"ax",%progbits
 1465              		.align	2
 1466              		.global	CySysLvdDisable
 1467              		.code	16
 1468              		.thumb_func
 1469              		.type	CySysLvdDisable, %function
 1470              	CySysLvdDisable:
 1471              	.LFB31:
2178:Generated_Source\PSoC4/CyLib.c **** 
2179:Generated_Source\PSoC4/CyLib.c ****     
2180:Generated_Source\PSoC4/CyLib.c ****     /*******************************************************************************
2181:Generated_Source\PSoC4/CyLib.c ****     * Function Name: CySysClkPllSetOutputDivider
2182:Generated_Source\PSoC4/CyLib.c ****     ****************************************************************************//**
2183:Generated_Source\PSoC4/CyLib.c ****     *
2184:Generated_Source\PSoC4/CyLib.c ****     *  Sets the output clock divider for the PLL.
2185:Generated_Source\PSoC4/CyLib.c ****     *
2186:Generated_Source\PSoC4/CyLib.c ****     *  The PLL must not be the System Clock source when calling this function. The
2187:Generated_Source\PSoC4/CyLib.c ****     *  PLL output will glitch during this function call.
2188:Generated_Source\PSoC4/CyLib.c ****     *
2189:Generated_Source\PSoC4/CyLib.c ****     *  This API is available only for PSoC 4200L / 4100S with PLL devices.
2190:Generated_Source\PSoC4/CyLib.c ****     *
2191:Generated_Source\PSoC4/CyLib.c ****     *  \param PLL:
2192:Generated_Source\PSoC4/CyLib.c ****     *   0   PLL#0
2193:Generated_Source\PSoC4/CyLib.c ****     *   1   PLL#1 (available only for PSoC 4200L)
2194:Generated_Source\PSoC4/CyLib.c ****     *
2195:Generated_Source\PSoC4/CyLib.c ****     * \param divider:
2196:Generated_Source\PSoC4/CyLib.c ****     *  CY_SYS_PLL_OUTPUT_DIVPASS    Pass through
2197:Generated_Source\PSoC4/CyLib.c ****     *  CY_SYS_PLL_OUTPUT_DIV2       Divide by 2
ARM GAS  C:\Users\essele\AppData\Local\Temp\cchUVvdf.s 			page 66


2198:Generated_Source\PSoC4/CyLib.c ****     *  CY_SYS_PLL_OUTPUT_DIV4       Divide by 4
2199:Generated_Source\PSoC4/CyLib.c ****     *  CY_SYS_PLL_OUTPUT_DIV8       Divide by 8
2200:Generated_Source\PSoC4/CyLib.c ****     *
2201:Generated_Source\PSoC4/CyLib.c ****     * \return \ref CYRET_SUCCESS    Completed successfully.
2202:Generated_Source\PSoC4/CyLib.c ****     * \return \ref CYRET_BAD_PARAM  The parameters are out of range or the
2203:Generated_Source\PSoC4/CyLib.c ****     * specified PLL sources the System clock.
2204:Generated_Source\PSoC4/CyLib.c ****     *
2205:Generated_Source\PSoC4/CyLib.c ****     *******************************************************************************/
2206:Generated_Source\PSoC4/CyLib.c ****     cystatus CySysClkPllSetOutputDivider(uint32 pll, uint32 divider)
2207:Generated_Source\PSoC4/CyLib.c ****     {
2208:Generated_Source\PSoC4/CyLib.c ****         uint32   tmpReg;
2209:Generated_Source\PSoC4/CyLib.c ****         uint8    interruptState;
2210:Generated_Source\PSoC4/CyLib.c ****         cystatus returnStatus = CYRET_BAD_PARAM;
2211:Generated_Source\PSoC4/CyLib.c ****         cystatus tmp;
2212:Generated_Source\PSoC4/CyLib.c **** 
2213:Generated_Source\PSoC4/CyLib.c **** 
2214:Generated_Source\PSoC4/CyLib.c ****         interruptState = CyEnterCriticalSection();
2215:Generated_Source\PSoC4/CyLib.c **** 
2216:Generated_Source\PSoC4/CyLib.c ****         tmp = CySysClkPllConfigChangeAllowed(pll);
2217:Generated_Source\PSoC4/CyLib.c **** 
2218:Generated_Source\PSoC4/CyLib.c ****         if ((pll < CY_IP_PLL_NR) && (CYRET_SUCCESS == tmp) && (divider <= CY_SYS_PLL_OUTPUT_DIV8))
2219:Generated_Source\PSoC4/CyLib.c ****         {
2220:Generated_Source\PSoC4/CyLib.c ****             tmpReg  = CY_SYS_CLK_PLL_BASE.pll[pll].config & (uint32) ~(CY_SYS_CLK_PLL_CONFIG_OUTPUT
2221:Generated_Source\PSoC4/CyLib.c ****             tmpReg |= ((divider << CY_SYS_CLK_PLL_CONFIG_OUTPUT_DIV_SHIFT) & CY_SYS_CLK_PLL_CONFIG_
2222:Generated_Source\PSoC4/CyLib.c **** 
2223:Generated_Source\PSoC4/CyLib.c ****             CY_SYS_CLK_PLL_BASE.pll[pll].config = tmpReg;
2224:Generated_Source\PSoC4/CyLib.c **** 
2225:Generated_Source\PSoC4/CyLib.c ****             returnStatus = CYRET_SUCCESS;
2226:Generated_Source\PSoC4/CyLib.c ****         }
2227:Generated_Source\PSoC4/CyLib.c **** 
2228:Generated_Source\PSoC4/CyLib.c ****         CyExitCriticalSection(interruptState);
2229:Generated_Source\PSoC4/CyLib.c **** 
2230:Generated_Source\PSoC4/CyLib.c ****         return (returnStatus);
2231:Generated_Source\PSoC4/CyLib.c ****     }
2232:Generated_Source\PSoC4/CyLib.c **** #endif /* (CY_IP_PLL) */
2233:Generated_Source\PSoC4/CyLib.c **** 
2234:Generated_Source\PSoC4/CyLib.c **** 
2235:Generated_Source\PSoC4/CyLib.c **** #if(CY_IP_SRSSV2)
2236:Generated_Source\PSoC4/CyLib.c **** 
2237:Generated_Source\PSoC4/CyLib.c ****     /*******************************************************************************
2238:Generated_Source\PSoC4/CyLib.c ****     * Function Name: CySysLvdEnable
2239:Generated_Source\PSoC4/CyLib.c ****     ****************************************************************************//**
2240:Generated_Source\PSoC4/CyLib.c ****     *
2241:Generated_Source\PSoC4/CyLib.c ****     *  Enables the output of the low-voltage monitor when Vddd is at or below the
2242:Generated_Source\PSoC4/CyLib.c ****     *  trip point, configures the device to generate an interrupt, and sets the
2243:Generated_Source\PSoC4/CyLib.c ****     *  voltage trip level.
2244:Generated_Source\PSoC4/CyLib.c ****     *
2245:Generated_Source\PSoC4/CyLib.c ****     *  \param threshold: Threshold selection for Low Voltage Detect circuit.
2246:Generated_Source\PSoC4/CyLib.c ****     *  Threshold variation is +/- 2.5% from these typical voltage choices.
2247:Generated_Source\PSoC4/CyLib.c ****     *         Define                     Voltage threshold
2248:Generated_Source\PSoC4/CyLib.c ****     *    CY_LVD_THRESHOLD_1_75_V       1.7500 V
2249:Generated_Source\PSoC4/CyLib.c ****     *    CY_LVD_THRESHOLD_1_80_V       1.8000 V
2250:Generated_Source\PSoC4/CyLib.c ****     *    CY_LVD_THRESHOLD_1_90_V       1.9000 V
2251:Generated_Source\PSoC4/CyLib.c ****     *    CY_LVD_THRESHOLD_2_00_V       2.0000 V
2252:Generated_Source\PSoC4/CyLib.c ****     *    CY_LVD_THRESHOLD_2_10_V       2.1000 V
2253:Generated_Source\PSoC4/CyLib.c ****     *    CY_LVD_THRESHOLD_2_20_V       2.2000 V
2254:Generated_Source\PSoC4/CyLib.c ****     *    CY_LVD_THRESHOLD_2_30_V       2.3000 V
ARM GAS  C:\Users\essele\AppData\Local\Temp\cchUVvdf.s 			page 67


2255:Generated_Source\PSoC4/CyLib.c ****     *    CY_LVD_THRESHOLD_2_40_V       2.4000 V
2256:Generated_Source\PSoC4/CyLib.c ****     *    CY_LVD_THRESHOLD_2_50_V       2.5000 V
2257:Generated_Source\PSoC4/CyLib.c ****     *    CY_LVD_THRESHOLD_2_60_V       2.6000 V
2258:Generated_Source\PSoC4/CyLib.c ****     *    CY_LVD_THRESHOLD_2_70_V       2.7000 V
2259:Generated_Source\PSoC4/CyLib.c ****     *    CY_LVD_THRESHOLD_2_80_V       2.8000 V
2260:Generated_Source\PSoC4/CyLib.c ****     *    CY_LVD_THRESHOLD_2_90_V       2.9000 V
2261:Generated_Source\PSoC4/CyLib.c ****     *    CY_LVD_THRESHOLD_3_00_V       3.0000 V
2262:Generated_Source\PSoC4/CyLib.c ****     *    CY_LVD_THRESHOLD_3_20_V       3.2000 V
2263:Generated_Source\PSoC4/CyLib.c ****     *    CY_LVD_THRESHOLD_4_50_V       4.5000 V
2264:Generated_Source\PSoC4/CyLib.c ****     *
2265:Generated_Source\PSoC4/CyLib.c ****     *******************************************************************************/
2266:Generated_Source\PSoC4/CyLib.c ****     void CySysLvdEnable(uint32 threshold)
2267:Generated_Source\PSoC4/CyLib.c ****     {
2268:Generated_Source\PSoC4/CyLib.c ****         /* Prevent propagating a false interrupt */
2269:Generated_Source\PSoC4/CyLib.c ****         CY_LVD_PWR_INTR_MASK_REG   &= (uint32) ~CY_LVD_PROPAGATE_INT_TO_CPU;
2270:Generated_Source\PSoC4/CyLib.c **** 
