ARM GAS  C:\Users\essele\AppData\Local\Temp\cca3ux8d.s 			page 1


   1              		.syntax unified
   2              		.cpu cortex-m0
   3              		.fpu softvfp
   4              		.eabi_attribute 20, 1
   5              		.eabi_attribute 21, 1
   6              		.eabi_attribute 23, 3
   7              		.eabi_attribute 24, 1
   8              		.eabi_attribute 25, 1
   9              		.eabi_attribute 26, 1
  10              		.eabi_attribute 30, 6
  11              		.eabi_attribute 34, 0
  12              		.eabi_attribute 18, 4
  13              		.thumb
  14              		.syntax unified
  15              		.file	"gpib.c"
  16              		.text
  17              	.Ltext0:
  18              		.cfi_sections	.debug_frame
  19              		.comm	gpib_buffer,256,4
  20              		.section	.text.gpib_get_buffer,"ax",%progbits
  21              		.align	2
  22              		.global	gpib_get_buffer
  23              		.code	16
  24              		.thumb_func
  25              		.type	gpib_get_buffer, %function
  26              	gpib_get_buffer:
  27              	.LFB34:
  28              		.file 1 "gpib.c"
   1:gpib.c        **** /****
   2:gpib.c        ****  * YAUGI -- Yet Another USB GPIB Interface
   3:gpib.c        ****  * 
   4:gpib.c        ****  * Lee Essen, 2019
   5:gpib.c        ****  *
   6:gpib.c        ****  * This work is licensed under a Creative Commons 
   7:gpib.c        ****  * Attribution-NonCommercial-ShareAlike 4.0 International License.
   8:gpib.c        ****  *
   9:gpib.c        ****  */
  10:gpib.c        **** 
  11:gpib.c        **** #include "gpib.h"
  12:gpib.c        **** #include "settings.h"
  13:gpib.c        **** 
  14:gpib.c        **** /**
  15:gpib.c        ****  * How long after we start to see a device do we consider it ok to talk to
  16:gpib.c        ****  * (in ms)
  17:gpib.c        ****  */
  18:gpib.c        **** #define GPIB_INIT_TIME      3000
  19:gpib.c        **** 
  20:gpib.c        **** /**
  21:gpib.c        ****  * The internal gpib buffer
  22:gpib.c        ****  */
  23:gpib.c        **** #define GPIB_BUF_SIZE       256
  24:gpib.c        **** uint8_t gpib_buffer[GPIB_BUF_SIZE];
  25:gpib.c        **** 
  26:gpib.c        **** uint8_t *gpib_get_buffer() {
  29              		.loc 1 26 0
  30              		.cfi_startproc
  31              		@ args = 0, pretend = 0, frame = 0
ARM GAS  C:\Users\essele\AppData\Local\Temp\cca3ux8d.s 			page 2


  32              		@ frame_needed = 1, uses_anonymous_args = 0
  33 0000 80B5     		push	{r7, lr}
  34              		.cfi_def_cfa_offset 8
  35              		.cfi_offset 7, -8
  36              		.cfi_offset 14, -4
  37 0002 00AF     		add	r7, sp, #0
  38              		.cfi_def_cfa_register 7
  27:gpib.c        ****     return gpib_buffer;
  39              		.loc 1 27 0
  40 0004 014B     		ldr	r3, .L3
  28:gpib.c        **** }
  41              		.loc 1 28 0
  42 0006 1800     		movs	r0, r3
  43 0008 BD46     		mov	sp, r7
  44              		@ sp needed
  45 000a 80BD     		pop	{r7, pc}
  46              	.L4:
  47              		.align	2
  48              	.L3:
  49 000c 00000000 		.word	gpib_buffer
  50              		.cfi_endproc
  51              	.LFE34:
  52              		.size	gpib_get_buffer, .-gpib_get_buffer
  53              		.global	my_address
  54              		.data
  55              		.type	my_address, %object
  56              		.size	my_address, 1
  57              	my_address:
  58 0000 15       		.byte	21
  59              		.global	listening
  60 0001 000000   		.align	2
  61              		.type	listening, %object
  62              		.size	listening, 4
  63              	listening:
  64 0004 FFFFFFFF 		.word	-1
  65              		.global	talking
  66              		.align	2
  67              		.type	talking, %object
  68              		.size	talking, 4
  69              	talking:
  70 0008 FFFFFFFF 		.word	-1
  71              		.section	.text.gpib_init_pins,"ax",%progbits
  72              		.align	2
  73              		.global	gpib_init_pins
  74              		.code	16
  75              		.thumb_func
  76              		.type	gpib_init_pins, %function
  77              	gpib_init_pins:
  78              	.LFB35:
  29:gpib.c        **** 
  30:gpib.c        **** 
  31:gpib.c        **** /**
  32:gpib.c        ****  * Definitions of the various lines (for bitbanging)
  33:gpib.c        ****  */
  34:gpib.c        **** typedef enum {
  35:gpib.c        ****     ATN=0, SRQ, IFC, NDAC, NRFD, DAV, EOI, REN } gpib_line;
  36:gpib.c        **** 
ARM GAS  C:\Users\essele\AppData\Local\Temp\cca3ux8d.s 			page 3


  37:gpib.c        **** /**
  38:gpib.c        ****  * My internal GPIB address (default controller = 21)
  39:gpib.c        ****  */
  40:gpib.c        **** uint8_t my_address = 21;
  41:gpib.c        **** 
  42:gpib.c        **** /**
  43:gpib.c        ****  * Track who is listening and who is talking so we only send commands
  44:gpib.c        ****  * when we need to
  45:gpib.c        ****  */
  46:gpib.c        **** int listening = -1;
  47:gpib.c        **** int talking = -1;
  48:gpib.c        **** 
  49:gpib.c        **** /**
  50:gpib.c        ****  * Ensure the pin settings are correct for all of the pins. This should be
  51:gpib.c        ****  * open drain, with a drive low. (This will be done by the design)
  52:gpib.c        ****  *
  53:gpib.c        ****  */
  54:gpib.c        **** void gpib_init_pins() {
  79              		.loc 1 54 0
  80              		.cfi_startproc
  81              		@ args = 0, pretend = 0, frame = 0
  82              		@ frame_needed = 1, uses_anonymous_args = 0
  83 0000 80B5     		push	{r7, lr}
  84              		.cfi_def_cfa_offset 8
  85              		.cfi_offset 7, -8
  86              		.cfi_offset 14, -4
  87 0002 00AF     		add	r7, sp, #0
  88              		.cfi_def_cfa_register 7
  55:gpib.c        ****     
  56:gpib.c        **** }
  89              		.loc 1 56 0
  90 0004 C046     		nop
  91 0006 BD46     		mov	sp, r7
  92              		@ sp needed
  93 0008 80BD     		pop	{r7, pc}
  94              		.cfi_endproc
  95              	.LFE35:
  96              		.size	gpib_init_pins, .-gpib_init_pins
  97              		.section	.text.gpib_settle,"ax",%progbits
  98              		.align	2
  99              		.global	gpib_settle
 100              		.code	16
 101              		.thumb_func
 102              		.type	gpib_settle, %function
 103              	gpib_settle:
 104              	.LFB36:
  57:gpib.c        **** 
  58:gpib.c        **** void gpib_settle() {
 105              		.loc 1 58 0
 106              		.cfi_startproc
 107              		@ args = 0, pretend = 0, frame = 0
 108              		@ frame_needed = 1, uses_anonymous_args = 0
 109 0000 80B5     		push	{r7, lr}
 110              		.cfi_def_cfa_offset 8
 111              		.cfi_offset 7, -8
 112              		.cfi_offset 14, -4
 113 0002 00AF     		add	r7, sp, #0
ARM GAS  C:\Users\essele\AppData\Local\Temp\cca3ux8d.s 			page 4


 114              		.cfi_def_cfa_register 7
  59:gpib.c        ****     CyDelayUs(2);
 115              		.loc 1 59 0
 116 0004 0220     		movs	r0, #2
 117 0006 FFF7FEFF 		bl	CyDelayUs
  60:gpib.c        **** }
 118              		.loc 1 60 0
 119 000a C046     		nop
 120 000c BD46     		mov	sp, r7
 121              		@ sp needed
 122 000e 80BD     		pop	{r7, pc}
 123              		.cfi_endproc
 124              	.LFE36:
 125              		.size	gpib_settle, .-gpib_settle
 126              		.global	_gpib_mode
 127              		.bss
 128              		.align	2
 129              		.type	_gpib_mode, %object
 130              		.size	_gpib_mode, 4
 131              	_gpib_mode:
 132 0000 00000000 		.space	4
 133              		.section	.text.gpib_assert_line,"ax",%progbits
 134              		.align	2
 135              		.global	gpib_assert_line
 136              		.code	16
 137              		.thumb_func
 138              		.type	gpib_assert_line, %function
 139              	gpib_assert_line:
 140              	.LFB37:
  61:gpib.c        **** 
  62:gpib.c        **** /**
  63:gpib.c        ****  * We can detect if a device is not present since all the pins will be low, if
  64:gpib.c        ****  * that is the case then we don't want to proceed. We'll just check the SIG pins
  65:gpib.c        ****  * since all shouldn't be low in normal operation.
  66:gpib.c        ****  *
  67:gpib.c        ****  * TODO: we should only really do this check when we are not driving anything, otherwise
  68:gpib.c        ****  * we might get strange results.
  69:gpib.c        ****  */
  70:gpib.c        **** 
  71:gpib.c        **** int _gpib_mode = GPIB_NODEVICE;
  72:gpib.c        **** 
  73:gpib.c        **** 
  74:gpib.c        **** 
  75:gpib.c        **** 
  76:gpib.c        **** 
  77:gpib.c        **** /**
  78:gpib.c        ****  * Assert means pulling a line low
  79:gpib.c        ****  */
  80:gpib.c        **** void gpib_assert_line(gpib_line line) {
 141              		.loc 1 80 0
 142              		.cfi_startproc
 143              		@ args = 0, pretend = 0, frame = 8
 144              		@ frame_needed = 1, uses_anonymous_args = 0
 145 0000 80B5     		push	{r7, lr}
 146              		.cfi_def_cfa_offset 8
 147              		.cfi_offset 7, -8
 148              		.cfi_offset 14, -4
ARM GAS  C:\Users\essele\AppData\Local\Temp\cca3ux8d.s 			page 5


 149 0002 82B0     		sub	sp, sp, #8
 150              		.cfi_def_cfa_offset 16
 151 0004 00AF     		add	r7, sp, #0
 152              		.cfi_def_cfa_register 7
 153 0006 0200     		movs	r2, r0
 154 0008 FB1D     		adds	r3, r7, #7
 155 000a 1A70     		strb	r2, [r3]
  81:gpib.c        ****     (*(reg32 *)SIG__DR_CLR) = (1 << line);
 156              		.loc 1 81 0
 157 000c 054B     		ldr	r3, .L8
 158 000e FA1D     		adds	r2, r7, #7
 159 0010 1278     		ldrb	r2, [r2]
 160 0012 0121     		movs	r1, #1
 161 0014 9140     		lsls	r1, r1, r2
 162 0016 0A00     		movs	r2, r1
 163 0018 1A60     		str	r2, [r3]
  82:gpib.c        **** }
 164              		.loc 1 82 0
 165 001a C046     		nop
 166 001c BD46     		mov	sp, r7
 167 001e 02B0     		add	sp, sp, #8
 168              		@ sp needed
 169 0020 80BD     		pop	{r7, pc}
 170              	.L9:
 171 0022 C046     		.align	2
 172              	.L8:
 173 0024 44010440 		.word	1074004292
 174              		.cfi_endproc
 175              	.LFE37:
 176              		.size	gpib_assert_line, .-gpib_assert_line
 177              		.section	.text.gpib_unassert_line,"ax",%progbits
 178              		.align	2
 179              		.global	gpib_unassert_line
 180              		.code	16
 181              		.thumb_func
 182              		.type	gpib_unassert_line, %function
 183              	gpib_unassert_line:
 184              	.LFB38:
  83:gpib.c        **** 
  84:gpib.c        **** /**
  85:gpib.c        ****  * Unasserting means letting it float high
  86:gpib.c        ****  */
  87:gpib.c        **** void gpib_unassert_line(gpib_line line) {
 185              		.loc 1 87 0
 186              		.cfi_startproc
 187              		@ args = 0, pretend = 0, frame = 8
 188              		@ frame_needed = 1, uses_anonymous_args = 0
 189 0000 80B5     		push	{r7, lr}
 190              		.cfi_def_cfa_offset 8
 191              		.cfi_offset 7, -8
 192              		.cfi_offset 14, -4
 193 0002 82B0     		sub	sp, sp, #8
 194              		.cfi_def_cfa_offset 16
 195 0004 00AF     		add	r7, sp, #0
 196              		.cfi_def_cfa_register 7
 197 0006 0200     		movs	r2, r0
 198 0008 FB1D     		adds	r3, r7, #7
ARM GAS  C:\Users\essele\AppData\Local\Temp\cca3ux8d.s 			page 6


 199 000a 1A70     		strb	r2, [r3]
  88:gpib.c        ****     (*(reg32 *)SIG__DR_SET) = (1 << line);
 200              		.loc 1 88 0
 201 000c 054B     		ldr	r3, .L11
 202 000e FA1D     		adds	r2, r7, #7
 203 0010 1278     		ldrb	r2, [r2]
 204 0012 0121     		movs	r1, #1
 205 0014 9140     		lsls	r1, r1, r2
 206 0016 0A00     		movs	r2, r1
 207 0018 1A60     		str	r2, [r3]
  89:gpib.c        **** }
 208              		.loc 1 89 0
 209 001a C046     		nop
 210 001c BD46     		mov	sp, r7
 211 001e 02B0     		add	sp, sp, #8
 212              		@ sp needed
 213 0020 80BD     		pop	{r7, pc}
 214              	.L12:
 215 0022 C046     		.align	2
 216              	.L11:
 217 0024 40010440 		.word	1074004288
 218              		.cfi_endproc
 219              	.LFE38:
 220              		.size	gpib_unassert_line, .-gpib_unassert_line
 221              		.section	.text.gpib_readall,"ax",%progbits
 222              		.align	2
 223              		.global	gpib_readall
 224              		.code	16
 225              		.thumb_func
 226              		.type	gpib_readall, %function
 227              	gpib_readall:
 228              	.LFB39:
  90:gpib.c        **** 
  91:gpib.c        **** uint16_t gpib_readall() {
 229              		.loc 1 91 0
 230              		.cfi_startproc
 231              		@ args = 0, pretend = 0, frame = 8
 232              		@ frame_needed = 1, uses_anonymous_args = 0
 233 0000 80B5     		push	{r7, lr}
 234              		.cfi_def_cfa_offset 8
 235              		.cfi_offset 7, -8
 236              		.cfi_offset 14, -4
 237 0002 82B0     		sub	sp, sp, #8
 238              		.cfi_def_cfa_offset 16
 239 0004 00AF     		add	r7, sp, #0
 240              		.cfi_def_cfa_register 7
  92:gpib.c        ****     uint16_t rc = ((*(reg32 *)SIG__PS) & 0xff) << 8;
 241              		.loc 1 92 0
 242 0006 0C4B     		ldr	r3, .L15
 243 0008 1B68     		ldr	r3, [r3]
 244 000a 9BB2     		uxth	r3, r3
 245 000c FF22     		movs	r2, #255
 246 000e 1340     		ands	r3, r2
 247 0010 9AB2     		uxth	r2, r3
 248 0012 BB1D     		adds	r3, r7, #6
 249 0014 1202     		lsls	r2, r2, #8
 250 0016 1A80     		strh	r2, [r3]
ARM GAS  C:\Users\essele\AppData\Local\Temp\cca3ux8d.s 			page 7


  93:gpib.c        ****     rc |= ((*(reg32 *)DIO__PS) & 0xff);
 251              		.loc 1 93 0
 252 0018 084B     		ldr	r3, .L15+4
 253 001a 1B68     		ldr	r3, [r3]
 254 001c FF22     		movs	r2, #255
 255 001e 1340     		ands	r3, r2
 256 0020 99B2     		uxth	r1, r3
 257 0022 BB1D     		adds	r3, r7, #6
 258 0024 BA1D     		adds	r2, r7, #6
 259 0026 1288     		ldrh	r2, [r2]
 260 0028 0A43     		orrs	r2, r1
 261 002a 1A80     		strh	r2, [r3]
  94:gpib.c        ****     return rc;
 262              		.loc 1 94 0
 263 002c BB1D     		adds	r3, r7, #6
 264 002e 1B88     		ldrh	r3, [r3]
  95:gpib.c        **** }
 265              		.loc 1 95 0
 266 0030 1800     		movs	r0, r3
 267 0032 BD46     		mov	sp, r7
 268 0034 02B0     		add	sp, sp, #8
 269              		@ sp needed
 270 0036 80BD     		pop	{r7, pc}
 271              	.L16:
 272              		.align	2
 273              	.L15:
 274 0038 04010440 		.word	1074004228
 275 003c 04020440 		.word	1074004484
 276              		.cfi_endproc
 277              	.LFE39:
 278              		.size	gpib_readall, .-gpib_readall
 279              		.section	.text.gpib_read_line,"ax",%progbits
 280              		.align	2
 281              		.global	gpib_read_line
 282              		.code	16
 283              		.thumb_func
 284              		.type	gpib_read_line, %function
 285              	gpib_read_line:
 286              	.LFB40:
  96:gpib.c        **** 
  97:gpib.c        **** 
  98:gpib.c        **** /**
  99:gpib.c        ****  * Read the status of a line ... true is low! false is high!
 100:gpib.c        ****  */
 101:gpib.c        **** bool gpib_read_line(gpib_line line) {
 287              		.loc 1 101 0
 288              		.cfi_startproc
 289              		@ args = 0, pretend = 0, frame = 16
 290              		@ frame_needed = 1, uses_anonymous_args = 0
 291 0000 80B5     		push	{r7, lr}
 292              		.cfi_def_cfa_offset 8
 293              		.cfi_offset 7, -8
 294              		.cfi_offset 14, -4
 295 0002 84B0     		sub	sp, sp, #16
 296              		.cfi_def_cfa_offset 24
 297 0004 00AF     		add	r7, sp, #0
 298              		.cfi_def_cfa_register 7
ARM GAS  C:\Users\essele\AppData\Local\Temp\cca3ux8d.s 			page 8


 299 0006 0200     		movs	r2, r0
 300 0008 FB1D     		adds	r3, r7, #7
 301 000a 1A70     		strb	r2, [r3]
 102:gpib.c        ****     int v = ((*(reg32 *)SIG__PS) >> line) & 0x0001;
 302              		.loc 1 102 0
 303 000c 084B     		ldr	r3, .L19
 304 000e 1A68     		ldr	r2, [r3]
 305 0010 FB1D     		adds	r3, r7, #7
 306 0012 1B78     		ldrb	r3, [r3]
 307 0014 DA40     		lsrs	r2, r2, r3
 308 0016 1300     		movs	r3, r2
 309 0018 1A00     		movs	r2, r3
 310 001a 0123     		movs	r3, #1
 311 001c 1340     		ands	r3, r2
 312 001e FB60     		str	r3, [r7, #12]
 103:gpib.c        ****     return v == 0 ? true : false;
 313              		.loc 1 103 0
 314 0020 FB68     		ldr	r3, [r7, #12]
 315 0022 5A42     		rsbs	r2, r3, #0
 316 0024 5341     		adcs	r3, r3, r2
 317 0026 DBB2     		uxtb	r3, r3
 104:gpib.c        **** }
 318              		.loc 1 104 0
 319 0028 1800     		movs	r0, r3
 320 002a BD46     		mov	sp, r7
 321 002c 04B0     		add	sp, sp, #16
 322              		@ sp needed
 323 002e 80BD     		pop	{r7, pc}
 324              	.L20:
 325              		.align	2
 326              	.L19:
 327 0030 04010440 		.word	1074004228
 328              		.cfi_endproc
 329              	.LFE40:
 330              		.size	gpib_read_line, .-gpib_read_line
 331              		.section	.text.gpib_poll,"ax",%progbits
 332              		.align	2
 333              		.global	gpib_poll
 334              		.code	16
 335              		.thumb_func
 336              		.type	gpib_poll, %function
 337              	gpib_poll:
 338              	.LFB41:
 105:gpib.c        **** 
 106:gpib.c        **** 
 107:gpib.c        **** /**
 108:gpib.c        ****  * Called periodically, will announce state changes, return value of 1 indicates we have
 109:gpib.c        ****  * had a state change.
 110:gpib.c        ****  *
 111:gpib.c        ****  * We'll just keep an eye on IFC and ATN ... if either are low then (since we are the controller) t
 112:gpib.c        ****  * must be a power fail/missing device.
 113:gpib.c        ****  *
 114:gpib.c        ****  * Once a device looks like it's back, we start a timer so we don't jump the gun
 115:gpib.c        ****  */
 116:gpib.c        **** int gpib_poll() {
 339              		.loc 1 116 0
 340              		.cfi_startproc
ARM GAS  C:\Users\essele\AppData\Local\Temp\cca3ux8d.s 			page 9


 341              		@ args = 0, pretend = 0, frame = 8
 342              		@ frame_needed = 1, uses_anonymous_args = 0
 343 0000 90B5     		push	{r4, r7, lr}
 344              		.cfi_def_cfa_offset 12
 345              		.cfi_offset 4, -12
 346              		.cfi_offset 7, -8
 347              		.cfi_offset 14, -4
 348 0002 83B0     		sub	sp, sp, #12
 349              		.cfi_def_cfa_offset 24
 350 0004 00AF     		add	r7, sp, #0
 351              		.cfi_def_cfa_register 7
 117:gpib.c        ****     //uint8_t sig = (*(reg32 *)SIG__PS & 0xff);
 118:gpib.c        ****     int old_state = _gpib_mode;
 352              		.loc 1 118 0
 353 0006 1F4B     		ldr	r3, .L27
 354 0008 1B68     		ldr	r3, [r3]
 355 000a 7B60     		str	r3, [r7, #4]
 119:gpib.c        ****    
 120:gpib.c        ****     bool atn = gpib_read_line(ATN);
 356              		.loc 1 120 0
 357 000c FC1C     		adds	r4, r7, #3
 358 000e 0020     		movs	r0, #0
 359 0010 FFF7FEFF 		bl	gpib_read_line
 360 0014 0300     		movs	r3, r0
 361 0016 2370     		strb	r3, [r4]
 121:gpib.c        ****     bool ifc = gpib_read_line(IFC);
 362              		.loc 1 121 0
 363 0018 BC1C     		adds	r4, r7, #2
 364 001a 0220     		movs	r0, #2
 365 001c FFF7FEFF 		bl	gpib_read_line
 366 0020 0300     		movs	r3, r0
 367 0022 2370     		strb	r3, [r4]
 122:gpib.c        ****     
 123:gpib.c        ****     // Used to disable state checking (if a scope is on the lines!)
 124:gpib.c        ****     //    atn = ifc = false;
 125:gpib.c        ****     
 126:gpib.c        ****     // If either ATN or IFC are zero, then we must be missing a device ;-)
 127:gpib.c        ****     if (atn || ifc) {
 368              		.loc 1 127 0
 369 0024 FB1C     		adds	r3, r7, #3
 370 0026 1B78     		ldrb	r3, [r3]
 371 0028 002B     		cmp	r3, #0
 372 002a 03D1     		bne	.L22
 373              		.loc 1 127 0 is_stmt 0 discriminator 1
 374 002c BB1C     		adds	r3, r7, #2
 375 002e 1B78     		ldrb	r3, [r3]
 376 0030 002B     		cmp	r3, #0
 377 0032 03D0     		beq	.L23
 378              	.L22:
 128:gpib.c        ****         _gpib_mode = GPIB_NODEVICE;
 379              		.loc 1 128 0 is_stmt 1
 380 0034 134B     		ldr	r3, .L27
 381 0036 0022     		movs	r2, #0
 382 0038 1A60     		str	r2, [r3]
 383 003a 17E0     		b	.L24
 384              	.L23:
 129:gpib.c        ****     } else if (_gpib_mode == GPIB_NODEVICE) {
ARM GAS  C:\Users\essele\AppData\Local\Temp\cca3ux8d.s 			page 10


 385              		.loc 1 129 0
 386 003c 114B     		ldr	r3, .L27
 387 003e 1B68     		ldr	r3, [r3]
 388 0040 002B     		cmp	r3, #0
 389 0042 06D1     		bne	.L25
 130:gpib.c        ****         // device has potentially come back ... zero the timer..
 131:gpib.c        ****         Timer1_WriteCounter(0);
 390              		.loc 1 131 0
 391 0044 0020     		movs	r0, #0
 392 0046 FFF7FEFF 		bl	Timer1_WriteCounter
 132:gpib.c        ****         _gpib_mode = GPIB_INIT;
 393              		.loc 1 132 0
 394 004a 0E4B     		ldr	r3, .L27
 395 004c 0122     		movs	r2, #1
 396 004e 1A60     		str	r2, [r3]
 397 0050 0CE0     		b	.L24
 398              	.L25:
 133:gpib.c        ****     } else if (_gpib_mode == GPIB_INIT) {
 399              		.loc 1 133 0
 400 0052 0C4B     		ldr	r3, .L27
 401 0054 1B68     		ldr	r3, [r3]
 402 0056 012B     		cmp	r3, #1
 403 0058 08D1     		bne	.L24
 134:gpib.c        ****         // after a period we need to switch
 135:gpib.c        ****         if (Timer1_ReadCounter() > GPIB_INIT_TIME) {
 404              		.loc 1 135 0
 405 005a FFF7FEFF 		bl	Timer1_ReadCounter
 406 005e 0200     		movs	r2, r0
 407 0060 094B     		ldr	r3, .L27+4
 408 0062 9A42     		cmp	r2, r3
 409 0064 02D9     		bls	.L24
 136:gpib.c        ****             _gpib_mode = GPIB_RUNNING;
 410              		.loc 1 136 0
 411 0066 074B     		ldr	r3, .L27
 412 0068 0222     		movs	r2, #2
 413 006a 1A60     		str	r2, [r3]
 414              	.L24:
 137:gpib.c        ****         }
 138:gpib.c        ****     }    
 139:gpib.c        ****     return (_gpib_mode != old_state ? 1 : 0);
 415              		.loc 1 139 0
 416 006c 054B     		ldr	r3, .L27
 417 006e 1A68     		ldr	r2, [r3]
 418 0070 7B68     		ldr	r3, [r7, #4]
 419 0072 D31A     		subs	r3, r2, r3
 420 0074 5A1E     		subs	r2, r3, #1
 421 0076 9341     		sbcs	r3, r3, r2
 422 0078 DBB2     		uxtb	r3, r3
 140:gpib.c        **** }
 423              		.loc 1 140 0
 424 007a 1800     		movs	r0, r3
 425 007c BD46     		mov	sp, r7
 426 007e 03B0     		add	sp, sp, #12
 427              		@ sp needed
 428 0080 90BD     		pop	{r4, r7, pc}
 429              	.L28:
 430 0082 C046     		.align	2
ARM GAS  C:\Users\essele\AppData\Local\Temp\cca3ux8d.s 			page 11


 431              	.L27:
 432 0084 00000000 		.word	_gpib_mode
 433 0088 B80B0000 		.word	3000
 434              		.cfi_endproc
 435              	.LFE41:
 436              		.size	gpib_poll, .-gpib_poll
 437              		.section	.text.gpib_get_mode,"ax",%progbits
 438              		.align	2
 439              		.global	gpib_get_mode
 440              		.code	16
 441              		.thumb_func
 442              		.type	gpib_get_mode, %function
 443              	gpib_get_mode:
 444              	.LFB42:
 141:gpib.c        **** 
 142:gpib.c        **** int gpib_get_mode() {
 445              		.loc 1 142 0
 446              		.cfi_startproc
 447              		@ args = 0, pretend = 0, frame = 0
 448              		@ frame_needed = 1, uses_anonymous_args = 0
 449 0000 80B5     		push	{r7, lr}
 450              		.cfi_def_cfa_offset 8
 451              		.cfi_offset 7, -8
 452              		.cfi_offset 14, -4
 453 0002 00AF     		add	r7, sp, #0
 454              		.cfi_def_cfa_register 7
 143:gpib.c        ****     return _gpib_mode;
 455              		.loc 1 143 0
 456 0004 024B     		ldr	r3, .L31
 457 0006 1B68     		ldr	r3, [r3]
 144:gpib.c        **** }
 458              		.loc 1 144 0
 459 0008 1800     		movs	r0, r3
 460 000a BD46     		mov	sp, r7
 461              		@ sp needed
 462 000c 80BD     		pop	{r7, pc}
 463              	.L32:
 464 000e C046     		.align	2
 465              	.L31:
 466 0010 00000000 		.word	_gpib_mode
 467              		.cfi_endproc
 468              	.LFE42:
 469              		.size	gpib_get_mode, .-gpib_get_mode
 470              		.section	.text.gpib_wait_for_line_to_assert,"ax",%progbits
 471              		.align	2
 472              		.global	gpib_wait_for_line_to_assert
 473              		.code	16
 474              		.thumb_func
 475              		.type	gpib_wait_for_line_to_assert, %function
 476              	gpib_wait_for_line_to_assert:
 477              	.LFB43:
 145:gpib.c        **** 
 146:gpib.c        **** /**
 147:gpib.c        ****  * Wait for a line to go low, if it doesn't within read_tmo_ms then timeout
 148:gpib.c        ****  */
 149:gpib.c        **** bool gpib_wait_for_line_to_assert(gpib_line line) {
 478              		.loc 1 149 0
ARM GAS  C:\Users\essele\AppData\Local\Temp\cca3ux8d.s 			page 12


 479              		.cfi_startproc
 480              		@ args = 0, pretend = 0, frame = 8
 481              		@ frame_needed = 1, uses_anonymous_args = 0
 482 0000 80B5     		push	{r7, lr}
 483              		.cfi_def_cfa_offset 8
 484              		.cfi_offset 7, -8
 485              		.cfi_offset 14, -4
 486 0002 82B0     		sub	sp, sp, #8
 487              		.cfi_def_cfa_offset 16
 488 0004 00AF     		add	r7, sp, #0
 489              		.cfi_def_cfa_register 7
 490 0006 0200     		movs	r2, r0
 491 0008 FB1D     		adds	r3, r7, #7
 492 000a 1A70     		strb	r2, [r3]
 150:gpib.c        ****     // Prepare the counter...
 151:gpib.c        ****     Timer1_WriteCounter(0);
 493              		.loc 1 151 0
 494 000c 0020     		movs	r0, #0
 495 000e FFF7FEFF 		bl	Timer1_WriteCounter
 496              	.L37:
 152:gpib.c        ****     
 153:gpib.c        ****     while (1) {
 154:gpib.c        ****         if (gpib_read_line(line) == true) {
 497              		.loc 1 154 0
 498 0012 FB1D     		adds	r3, r7, #7
 499 0014 1B78     		ldrb	r3, [r3]
 500 0016 1800     		movs	r0, r3
 501 0018 FFF7FEFF 		bl	gpib_read_line
 502 001c 031E     		subs	r3, r0, #0
 503 001e 01D0     		beq	.L34
 155:gpib.c        ****             return true;
 504              		.loc 1 155 0
 505 0020 0123     		movs	r3, #1
 506 0022 07E0     		b	.L35
 507              	.L34:
 156:gpib.c        ****         }
 157:gpib.c        ****         if (Timer1_ReadCounter() > settings.read_tmo_ms) {
 508              		.loc 1 157 0
 509 0024 FFF7FEFF 		bl	Timer1_ReadCounter
 510 0028 0200     		movs	r2, r0
 511 002a 044B     		ldr	r3, .L38
 512 002c 5B8A     		ldrh	r3, [r3, #18]
 513 002e 9A42     		cmp	r2, r3
 514 0030 EFD9     		bls	.L37
 158:gpib.c        ****             return false;
 515              		.loc 1 158 0
 516 0032 0023     		movs	r3, #0
 517              	.L35:
 159:gpib.c        ****         }
 160:gpib.c        ****     }
 161:gpib.c        **** }
 518              		.loc 1 161 0
 519 0034 1800     		movs	r0, r3
 520 0036 BD46     		mov	sp, r7
 521 0038 02B0     		add	sp, sp, #8
 522              		@ sp needed
 523 003a 80BD     		pop	{r7, pc}
ARM GAS  C:\Users\essele\AppData\Local\Temp\cca3ux8d.s 			page 13


 524              	.L39:
 525              		.align	2
 526              	.L38:
 527 003c 00000000 		.word	settings
 528              		.cfi_endproc
 529              	.LFE43:
 530              		.size	gpib_wait_for_line_to_assert, .-gpib_wait_for_line_to_assert
 531              		.section	.text.gpib_wait_for_line_to_unassert,"ax",%progbits
 532              		.align	2
 533              		.global	gpib_wait_for_line_to_unassert
 534              		.code	16
 535              		.thumb_func
 536              		.type	gpib_wait_for_line_to_unassert, %function
 537              	gpib_wait_for_line_to_unassert:
 538              	.LFB44:
 162:gpib.c        **** 
 163:gpib.c        **** /**
 164:gpib.c        ****  * Wait for a line to go high, if it doesn't within read_tmo_ms then timeout
 165:gpib.c        ****  */
 166:gpib.c        **** bool gpib_wait_for_line_to_unassert(gpib_line line) {
 539              		.loc 1 166 0
 540              		.cfi_startproc
 541              		@ args = 0, pretend = 0, frame = 8
 542              		@ frame_needed = 1, uses_anonymous_args = 0
 543 0000 80B5     		push	{r7, lr}
 544              		.cfi_def_cfa_offset 8
 545              		.cfi_offset 7, -8
 546              		.cfi_offset 14, -4
 547 0002 82B0     		sub	sp, sp, #8
 548              		.cfi_def_cfa_offset 16
 549 0004 00AF     		add	r7, sp, #0
 550              		.cfi_def_cfa_register 7
 551 0006 0200     		movs	r2, r0
 552 0008 FB1D     		adds	r3, r7, #7
 553 000a 1A70     		strb	r2, [r3]
 167:gpib.c        ****     // Prepare the counter...
 168:gpib.c        ****     Timer1_WriteCounter(0);
 554              		.loc 1 168 0
 555 000c 0020     		movs	r0, #0
 556 000e FFF7FEFF 		bl	Timer1_WriteCounter
 557              	.L44:
 169:gpib.c        ****  
 170:gpib.c        ****     while (1) {
 171:gpib.c        ****         if (gpib_read_line(line) == false) {
 558              		.loc 1 171 0
 559 0012 FB1D     		adds	r3, r7, #7
 560 0014 1B78     		ldrb	r3, [r3]
 561 0016 1800     		movs	r0, r3
 562 0018 FFF7FEFF 		bl	gpib_read_line
 563 001c 0300     		movs	r3, r0
 564 001e 1A00     		movs	r2, r3
 565 0020 0123     		movs	r3, #1
 566 0022 5340     		eors	r3, r2
 567 0024 DBB2     		uxtb	r3, r3
 568 0026 002B     		cmp	r3, #0
 569 0028 01D0     		beq	.L41
 172:gpib.c        ****             return true;
ARM GAS  C:\Users\essele\AppData\Local\Temp\cca3ux8d.s 			page 14


 570              		.loc 1 172 0
 571 002a 0123     		movs	r3, #1
 572 002c 07E0     		b	.L42
 573              	.L41:
 173:gpib.c        ****         }
 174:gpib.c        ****         if (Timer1_ReadCounter() > settings.read_tmo_ms) {
 574              		.loc 1 174 0
 575 002e FFF7FEFF 		bl	Timer1_ReadCounter
 576 0032 0200     		movs	r2, r0
 577 0034 044B     		ldr	r3, .L45
 578 0036 5B8A     		ldrh	r3, [r3, #18]
 579 0038 9A42     		cmp	r2, r3
 580 003a EAD9     		bls	.L44
 175:gpib.c        ****             return false;
 581              		.loc 1 175 0
 582 003c 0023     		movs	r3, #0
 583              	.L42:
 176:gpib.c        ****         }
 177:gpib.c        ****     }
 178:gpib.c        **** }
 584              		.loc 1 178 0
 585 003e 1800     		movs	r0, r3
 586 0040 BD46     		mov	sp, r7
 587 0042 02B0     		add	sp, sp, #8
 588              		@ sp needed
 589 0044 80BD     		pop	{r7, pc}
 590              	.L46:
 591 0046 C046     		.align	2
 592              	.L45:
 593 0048 00000000 		.word	settings
 594              		.cfi_endproc
 595              	.LFE44:
 596              		.size	gpib_wait_for_line_to_unassert, .-gpib_wait_for_line_to_unassert
 597              		.section	.text.gpib_send_byte,"ax",%progbits
 598              		.align	2
 599              		.global	gpib_send_byte
 600              		.code	16
 601              		.thumb_func
 602              		.type	gpib_send_byte, %function
 603              	gpib_send_byte:
 604              	.LFB45:
 179:gpib.c        **** 
 180:gpib.c        **** /**
 181:gpib.c        ****  * Transmit a byte of data on the bus, post this call nothing should be
 182:gpib.c        ****  * asserted. An error returns false.
 183:gpib.c        ****  */
 184:gpib.c        **** bool gpib_send_byte(uint8_t byte, bool last) {
 605              		.loc 1 184 0
 606              		.cfi_startproc
 607              		@ args = 0, pretend = 0, frame = 16
 608              		@ frame_needed = 1, uses_anonymous_args = 0
 609 0000 90B5     		push	{r4, r7, lr}
 610              		.cfi_def_cfa_offset 12
 611              		.cfi_offset 4, -12
 612              		.cfi_offset 7, -8
 613              		.cfi_offset 14, -4
 614 0002 85B0     		sub	sp, sp, #20
ARM GAS  C:\Users\essele\AppData\Local\Temp\cca3ux8d.s 			page 15


 615              		.cfi_def_cfa_offset 32
 616 0004 00AF     		add	r7, sp, #0
 617              		.cfi_def_cfa_register 7
 618 0006 0200     		movs	r2, r0
 619 0008 FB1D     		adds	r3, r7, #7
 620 000a 1A70     		strb	r2, [r3]
 621 000c BB1D     		adds	r3, r7, #6
 622 000e 0A1C     		adds	r2, r1, #0
 623 0010 1A70     		strb	r2, [r3]
 185:gpib.c        ****     bool ok;
 186:gpib.c        ****     
 187:gpib.c        ****     if (last) {
 624              		.loc 1 187 0
 625 0012 BB1D     		adds	r3, r7, #6
 626 0014 1B78     		ldrb	r3, [r3]
 627 0016 002B     		cmp	r3, #0
 628 0018 02D0     		beq	.L48
 188:gpib.c        ****        gpib_assert_line(EOI);
 629              		.loc 1 188 0
 630 001a 0620     		movs	r0, #6
 631 001c FFF7FEFF 		bl	gpib_assert_line
 632              	.L48:
 189:gpib.c        ****     }
 190:gpib.c        ****     
 191:gpib.c        ****     // Wait for NRFD to be high...
 192:gpib.c        ****     ok = gpib_wait_for_line_to_unassert(NRFD);
 633              		.loc 1 192 0
 634 0020 0F23     		movs	r3, #15
 635 0022 FC18     		adds	r4, r7, r3
 636 0024 0420     		movs	r0, #4
 637 0026 FFF7FEFF 		bl	gpib_wait_for_line_to_unassert
 638 002a 0300     		movs	r3, r0
 639 002c 2370     		strb	r3, [r4]
 193:gpib.c        ****     if (!ok) goto cleanup;
 640              		.loc 1 193 0
 641 002e 0F23     		movs	r3, #15
 642 0030 FB18     		adds	r3, r7, r3
 643 0032 1B78     		ldrb	r3, [r3]
 644 0034 0122     		movs	r2, #1
 645 0036 5340     		eors	r3, r2
 646 0038 DBB2     		uxtb	r3, r3
 647 003a 002B     		cmp	r3, #0
 648 003c 11D1     		bne	.L52
 194:gpib.c        ****     
 195:gpib.c        ****     // Write data onto the bus... (reverse logic!)
 196:gpib.c        ****     (*(reg32 *)DIO__DR) = ~byte;
 649              		.loc 1 196 0
 650 003e 114B     		ldr	r3, .L53
 651 0040 FA1D     		adds	r2, r7, #7
 652 0042 1278     		ldrb	r2, [r2]
 653 0044 D243     		mvns	r2, r2
 654 0046 1A60     		str	r2, [r3]
 197:gpib.c        ****     
 198:gpib.c        ****     // Allow settling time...
 199:gpib.c        ****     gpib_settle();     // we may need to adjust this later
 655              		.loc 1 199 0
 656 0048 FFF7FEFF 		bl	gpib_settle
ARM GAS  C:\Users\essele\AppData\Local\Temp\cca3ux8d.s 			page 16


 200:gpib.c        ****     
 201:gpib.c        ****     // Signal data is valie...
 202:gpib.c        ****     gpib_assert_line(DAV);
 657              		.loc 1 202 0
 658 004c 0520     		movs	r0, #5
 659 004e FFF7FEFF 		bl	gpib_assert_line
 203:gpib.c        ****     
 204:gpib.c        ****     // Wait until everyone has received it...
 205:gpib.c        ****     ok = gpib_wait_for_line_to_unassert(NDAC);
 660              		.loc 1 205 0
 661 0052 0F23     		movs	r3, #15
 662 0054 FC18     		adds	r4, r7, r3
 663 0056 0320     		movs	r0, #3
 664 0058 FFF7FEFF 		bl	gpib_wait_for_line_to_unassert
 665 005c 0300     		movs	r3, r0
 666 005e 2370     		strb	r3, [r4]
 667 0060 00E0     		b	.L50
 668              	.L52:
 193:gpib.c        ****     
 669              		.loc 1 193 0
 670 0062 C046     		nop
 671              	.L50:
 206:gpib.c        **** 
 207:gpib.c        **** cleanup:    
 208:gpib.c        ****     // Stop transmitting and clear the data
 209:gpib.c        ****     gpib_unassert_line(DAV);
 672              		.loc 1 209 0
 673 0064 0520     		movs	r0, #5
 674 0066 FFF7FEFF 		bl	gpib_unassert_line
 210:gpib.c        ****     (*(reg32 *)DIO__DR) = 0xff;
 675              		.loc 1 210 0
 676 006a 064B     		ldr	r3, .L53
 677 006c FF22     		movs	r2, #255
 678 006e 1A60     		str	r2, [r3]
 211:gpib.c        **** 
 212:gpib.c        ****     // Unassert anyway...
 213:gpib.c        ****     gpib_unassert_line(EOI);
 679              		.loc 1 213 0
 680 0070 0620     		movs	r0, #6
 681 0072 FFF7FEFF 		bl	gpib_unassert_line
 214:gpib.c        ****     
 215:gpib.c        ****     return ok;
 682              		.loc 1 215 0
 683 0076 0F23     		movs	r3, #15
 684 0078 FB18     		adds	r3, r7, r3
 685 007a 1B78     		ldrb	r3, [r3]
 216:gpib.c        ****  }
 686              		.loc 1 216 0
 687 007c 1800     		movs	r0, r3
 688 007e BD46     		mov	sp, r7
 689 0080 05B0     		add	sp, sp, #20
 690              		@ sp needed
 691 0082 90BD     		pop	{r4, r7, pc}
 692              	.L54:
 693              		.align	2
 694              	.L53:
 695 0084 00020440 		.word	1074004480
ARM GAS  C:\Users\essele\AppData\Local\Temp\cca3ux8d.s 			page 17


 696              		.cfi_endproc
 697              	.LFE45:
 698              		.size	gpib_send_byte, .-gpib_send_byte
 699              		.section	.text.gpib_receive_byte,"ax",%progbits
 700              		.align	2
 701              		.global	gpib_receive_byte
 702              		.code	16
 703              		.thumb_func
 704              		.type	gpib_receive_byte, %function
 705              	gpib_receive_byte:
 706              	.LFB46:
 217:gpib.c        **** 
 218:gpib.c        **** /**
 219:gpib.c        ****  * Read a character from the GPIB bus, return 0 if we got a timeout
 220:gpib.c        ****  * or 1 on success.
 221:gpib.c        ****  */
 222:gpib.c        **** int gpib_receive_byte(uint8_t *byte, int *eoi) {
 707              		.loc 1 222 0
 708              		.cfi_startproc
 709              		@ args = 0, pretend = 0, frame = 16
 710              		@ frame_needed = 1, uses_anonymous_args = 0
 711 0000 80B5     		push	{r7, lr}
 712              		.cfi_def_cfa_offset 8
 713              		.cfi_offset 7, -8
 714              		.cfi_offset 14, -4
 715 0002 84B0     		sub	sp, sp, #16
 716              		.cfi_def_cfa_offset 24
 717 0004 00AF     		add	r7, sp, #0
 718              		.cfi_def_cfa_register 7
 719 0006 7860     		str	r0, [r7, #4]
 720 0008 3960     		str	r1, [r7]
 223:gpib.c        ****     int ok;
 224:gpib.c        ****     
 225:gpib.c        ****     gpib_assert_line(NDAC);
 721              		.loc 1 225 0
 722 000a 0320     		movs	r0, #3
 723 000c FFF7FEFF 		bl	gpib_assert_line
 226:gpib.c        ****     
 227:gpib.c        ****     /*
 228:gpib.c        ****     // Prepare to receive...
 229:gpib.c        ****     gpib_assert_line(NRFD);
 230:gpib.c        ****     
 231:gpib.c        ****     // Why do they unassert ATN if it's set??
 232:gpib.c        ****     */
 233:gpib.c        ****     
 234:gpib.c        ****     // Signal our readiness... (should alreadt be done)
 235:gpib.c        ****     gpib_unassert_line(NRFD);
 724              		.loc 1 235 0
 725 0010 0420     		movs	r0, #4
 726 0012 FFF7FEFF 		bl	gpib_unassert_line
 236:gpib.c        ****     
 237:gpib.c        ****     
 238:gpib.c        ****     // Wait for data to be available...
 239:gpib.c        ****     ok = gpib_wait_for_line_to_assert(DAV);
 727              		.loc 1 239 0
 728 0016 0520     		movs	r0, #5
 729 0018 FFF7FEFF 		bl	gpib_wait_for_line_to_assert
ARM GAS  C:\Users\essele\AppData\Local\Temp\cca3ux8d.s 			page 18


 730 001c 0300     		movs	r3, r0
 731 001e FB60     		str	r3, [r7, #12]
 240:gpib.c        ****     if (!ok) {
 732              		.loc 1 240 0
 733 0020 FB68     		ldr	r3, [r7, #12]
 734 0022 002B     		cmp	r3, #0
 735 0024 07D1     		bne	.L56
 241:gpib.c        ****         gpib_unassert_line(NRFD);
 736              		.loc 1 241 0
 737 0026 0420     		movs	r0, #4
 738 0028 FFF7FEFF 		bl	gpib_unassert_line
 242:gpib.c        ****         gpib_unassert_line(NDAC);
 739              		.loc 1 242 0
 740 002c 0320     		movs	r0, #3
 741 002e FFF7FEFF 		bl	gpib_unassert_line
 243:gpib.c        ****         return 0;
 742              		.loc 1 243 0
 743 0032 0023     		movs	r3, #0
 744 0034 26E0     		b	.L57
 745              	.L56:
 244:gpib.c        ****     }
 245:gpib.c        ****     // Not ready for more data at this point
 246:gpib.c        ****     gpib_assert_line(NRFD);
 746              		.loc 1 246 0
 747 0036 0420     		movs	r0, #4
 748 0038 FFF7FEFF 		bl	gpib_assert_line
 247:gpib.c        ****     
 248:gpib.c        ****     // Read the data...
 249:gpib.c        ****     *byte = ~(*(reg32 *)DIO__PS);
 749              		.loc 1 249 0
 750 003c 134B     		ldr	r3, .L59
 751 003e 1B68     		ldr	r3, [r3]
 752 0040 DBB2     		uxtb	r3, r3
 753 0042 DB43     		mvns	r3, r3
 754 0044 DAB2     		uxtb	r2, r3
 755 0046 7B68     		ldr	r3, [r7, #4]
 756 0048 1A70     		strb	r2, [r3]
 250:gpib.c        ****     *eoi = gpib_read_line(EOI);
 757              		.loc 1 250 0
 758 004a 0620     		movs	r0, #6
 759 004c FFF7FEFF 		bl	gpib_read_line
 760 0050 0300     		movs	r3, r0
 761 0052 1A00     		movs	r2, r3
 762 0054 3B68     		ldr	r3, [r7]
 763 0056 1A60     		str	r2, [r3]
 251:gpib.c        ****     
 252:gpib.c        ****     // If byte is NL (10 decimal) then it's the same as EOI
 253:gpib.c        ****     if (*byte == 10) {
 764              		.loc 1 253 0
 765 0058 7B68     		ldr	r3, [r7, #4]
 766 005a 1B78     		ldrb	r3, [r3]
 767 005c 0A2B     		cmp	r3, #10
 768 005e 02D1     		bne	.L58
 254:gpib.c        ****         *eoi = true;    // TODO
 769              		.loc 1 254 0
 770 0060 3B68     		ldr	r3, [r7]
 771 0062 0122     		movs	r2, #1
ARM GAS  C:\Users\essele\AppData\Local\Temp\cca3ux8d.s 			page 19


 772 0064 1A60     		str	r2, [r3]
 773              	.L58:
 255:gpib.c        ****     }
 256:gpib.c        ****     
 257:gpib.c        ****     
 258:gpib.c        ****     // We've read it...
 259:gpib.c        ****     gpib_unassert_line(NDAC);
 774              		.loc 1 259 0
 775 0066 0320     		movs	r0, #3
 776 0068 FFF7FEFF 		bl	gpib_unassert_line
 260:gpib.c        ****  //   gpib_settle();                  // why would we do this?
 261:gpib.c        ****     
 262:gpib.c        ****     // Wait for the talker to finish this byte
 263:gpib.c        ****     ok = gpib_wait_for_line_to_unassert(DAV);    
 777              		.loc 1 263 0
 778 006c 0520     		movs	r0, #5
 779 006e FFF7FEFF 		bl	gpib_wait_for_line_to_unassert
 780 0072 0300     		movs	r3, r0
 781 0074 FB60     		str	r3, [r7, #12]
 264:gpib.c        **** 
 265:gpib.c        **** //cleanup:
 266:gpib.c        ****     gpib_assert_line(NDAC);
 782              		.loc 1 266 0
 783 0076 0320     		movs	r0, #3
 784 0078 FFF7FEFF 		bl	gpib_assert_line
 267:gpib.c        ****     gpib_unassert_line(NRFD);   // we are still ready for data
 785              		.loc 1 267 0
 786 007c 0420     		movs	r0, #4
 787 007e FFF7FEFF 		bl	gpib_unassert_line
 268:gpib.c        ****  
 269:gpib.c        ****     //gpib_settle();
 270:gpib.c        ****     
 271:gpib.c        ****     return ok;
 788              		.loc 1 271 0
 789 0082 FB68     		ldr	r3, [r7, #12]
 790              	.L57:
 272:gpib.c        **** }
 791              		.loc 1 272 0
 792 0084 1800     		movs	r0, r3
 793 0086 BD46     		mov	sp, r7
 794 0088 04B0     		add	sp, sp, #16
 795              		@ sp needed
 796 008a 80BD     		pop	{r7, pc}
 797              	.L60:
 798              		.align	2
 799              	.L59:
 800 008c 04020440 		.word	1074004484
 801              		.cfi_endproc
 802              	.LFE46:
 803              		.size	gpib_receive_byte, .-gpib_receive_byte
 804              		.section	.text.gpib_interface_clear,"ax",%progbits
 805              		.align	2
 806              		.global	gpib_interface_clear
 807              		.code	16
 808              		.thumb_func
 809              		.type	gpib_interface_clear, %function
 810              	gpib_interface_clear:
ARM GAS  C:\Users\essele\AppData\Local\Temp\cca3ux8d.s 			page 20


 811              	.LFB47:
 273:gpib.c        **** 
 274:gpib.c        **** void gpib_interface_clear() {
 812              		.loc 1 274 0
 813              		.cfi_startproc
 814              		@ args = 0, pretend = 0, frame = 0
 815              		@ frame_needed = 1, uses_anonymous_args = 0
 816 0000 80B5     		push	{r7, lr}
 817              		.cfi_def_cfa_offset 8
 818              		.cfi_offset 7, -8
 819              		.cfi_offset 14, -4
 820 0002 00AF     		add	r7, sp, #0
 821              		.cfi_def_cfa_register 7
 275:gpib.c        ****     gpib_assert_line(IFC);
 822              		.loc 1 275 0
 823 0004 0220     		movs	r0, #2
 824 0006 FFF7FEFF 		bl	gpib_assert_line
 276:gpib.c        ****     CyDelayUs(150);
 825              		.loc 1 276 0
 826 000a 9620     		movs	r0, #150
 827 000c FFF7FEFF 		bl	CyDelayUs
 277:gpib.c        ****     gpib_unassert_line(IFC);
 828              		.loc 1 277 0
 829 0010 0220     		movs	r0, #2
 830 0012 FFF7FEFF 		bl	gpib_unassert_line
 278:gpib.c        ****     CyDelayUs(150);                 // do we need to delay afterwards?
 831              		.loc 1 278 0
 832 0016 9620     		movs	r0, #150
 833 0018 FFF7FEFF 		bl	CyDelayUs
 279:gpib.c        **** }
 834              		.loc 1 279 0
 835 001c C046     		nop
 836 001e BD46     		mov	sp, r7
 837              		@ sp needed
 838 0020 80BD     		pop	{r7, pc}
 839              		.cfi_endproc
 840              	.LFE47:
 841              		.size	gpib_interface_clear, .-gpib_interface_clear
 842 0022 C046     		.section	.text.gpib_LAD,"ax",%progbits
 843              		.align	2
 844              		.global	gpib_LAD
 845              		.code	16
 846              		.thumb_func
 847              		.type	gpib_LAD, %function
 848              	gpib_LAD:
 849              	.LFB48:
 280:gpib.c        **** 
 281:gpib.c        **** void gpib_LAD(uint8_t address) {
 850              		.loc 1 281 0
 851              		.cfi_startproc
 852              		@ args = 0, pretend = 0, frame = 8
 853              		@ frame_needed = 1, uses_anonymous_args = 0
 854 0000 80B5     		push	{r7, lr}
 855              		.cfi_def_cfa_offset 8
 856              		.cfi_offset 7, -8
 857              		.cfi_offset 14, -4
 858 0002 82B0     		sub	sp, sp, #8
ARM GAS  C:\Users\essele\AppData\Local\Temp\cca3ux8d.s 			page 21


 859              		.cfi_def_cfa_offset 16
 860 0004 00AF     		add	r7, sp, #0
 861              		.cfi_def_cfa_register 7
 862 0006 0200     		movs	r2, r0
 863 0008 FB1D     		adds	r3, r7, #7
 864 000a 1A70     		strb	r2, [r3]
 282:gpib.c        ****     gpib_send_byte(0x20 + address, false);
 865              		.loc 1 282 0
 866 000c FB1D     		adds	r3, r7, #7
 867 000e 1B78     		ldrb	r3, [r3]
 868 0010 2033     		adds	r3, r3, #32
 869 0012 DBB2     		uxtb	r3, r3
 870 0014 0021     		movs	r1, #0
 871 0016 1800     		movs	r0, r3
 872 0018 FFF7FEFF 		bl	gpib_send_byte
 283:gpib.c        **** }
 873              		.loc 1 283 0
 874 001c C046     		nop
 875 001e BD46     		mov	sp, r7
 876 0020 02B0     		add	sp, sp, #8
 877              		@ sp needed
 878 0022 80BD     		pop	{r7, pc}
 879              		.cfi_endproc
 880              	.LFE48:
 881              		.size	gpib_LAD, .-gpib_LAD
 882              		.section	.text.gpib_TAD,"ax",%progbits
 883              		.align	2
 884              		.global	gpib_TAD
 885              		.code	16
 886              		.thumb_func
 887              		.type	gpib_TAD, %function
 888              	gpib_TAD:
 889              	.LFB49:
 284:gpib.c        **** 
 285:gpib.c        **** void gpib_TAD(uint8_t address) {
 890              		.loc 1 285 0
 891              		.cfi_startproc
 892              		@ args = 0, pretend = 0, frame = 8
 893              		@ frame_needed = 1, uses_anonymous_args = 0
 894 0000 80B5     		push	{r7, lr}
 895              		.cfi_def_cfa_offset 8
 896              		.cfi_offset 7, -8
 897              		.cfi_offset 14, -4
 898 0002 82B0     		sub	sp, sp, #8
 899              		.cfi_def_cfa_offset 16
 900 0004 00AF     		add	r7, sp, #0
 901              		.cfi_def_cfa_register 7
 902 0006 0200     		movs	r2, r0
 903 0008 FB1D     		adds	r3, r7, #7
 904 000a 1A70     		strb	r2, [r3]
 286:gpib.c        ****     gpib_send_byte(0x40 + address, false);
 905              		.loc 1 286 0
 906 000c FB1D     		adds	r3, r7, #7
 907 000e 1B78     		ldrb	r3, [r3]
 908 0010 4033     		adds	r3, r3, #64
 909 0012 DBB2     		uxtb	r3, r3
 910 0014 0021     		movs	r1, #0
ARM GAS  C:\Users\essele\AppData\Local\Temp\cca3ux8d.s 			page 22


 911 0016 1800     		movs	r0, r3
 912 0018 FFF7FEFF 		bl	gpib_send_byte
 287:gpib.c        **** }
 913              		.loc 1 287 0
 914 001c C046     		nop
 915 001e BD46     		mov	sp, r7
 916 0020 02B0     		add	sp, sp, #8
 917              		@ sp needed
 918 0022 80BD     		pop	{r7, pc}
 919              		.cfi_endproc
 920              	.LFE49:
 921              		.size	gpib_TAD, .-gpib_TAD
 922              		.section	.text.gpib_UNL,"ax",%progbits
 923              		.align	2
 924              		.global	gpib_UNL
 925              		.code	16
 926              		.thumb_func
 927              		.type	gpib_UNL, %function
 928              	gpib_UNL:
 929              	.LFB50:
 288:gpib.c        **** 
 289:gpib.c        **** void gpib_UNL() {
 930              		.loc 1 289 0
 931              		.cfi_startproc
 932              		@ args = 0, pretend = 0, frame = 0
 933              		@ frame_needed = 1, uses_anonymous_args = 0
 934 0000 80B5     		push	{r7, lr}
 935              		.cfi_def_cfa_offset 8
 936              		.cfi_offset 7, -8
 937              		.cfi_offset 14, -4
 938 0002 00AF     		add	r7, sp, #0
 939              		.cfi_def_cfa_register 7
 290:gpib.c        ****     gpib_LAD(31);
 940              		.loc 1 290 0
 941 0004 1F20     		movs	r0, #31
 942 0006 FFF7FEFF 		bl	gpib_LAD
 291:gpib.c        **** }
 943              		.loc 1 291 0
 944 000a C046     		nop
 945 000c BD46     		mov	sp, r7
 946              		@ sp needed
 947 000e 80BD     		pop	{r7, pc}
 948              		.cfi_endproc
 949              	.LFE50:
 950              		.size	gpib_UNL, .-gpib_UNL
 951              		.section	.text.gpib_UNT,"ax",%progbits
 952              		.align	2
 953              		.global	gpib_UNT
 954              		.code	16
 955              		.thumb_func
 956              		.type	gpib_UNT, %function
 957              	gpib_UNT:
 958              	.LFB51:
 292:gpib.c        **** 
 293:gpib.c        **** void gpib_UNT() {
 959              		.loc 1 293 0
 960              		.cfi_startproc
ARM GAS  C:\Users\essele\AppData\Local\Temp\cca3ux8d.s 			page 23


 961              		@ args = 0, pretend = 0, frame = 0
 962              		@ frame_needed = 1, uses_anonymous_args = 0
 963 0000 80B5     		push	{r7, lr}
 964              		.cfi_def_cfa_offset 8
 965              		.cfi_offset 7, -8
 966              		.cfi_offset 14, -4
 967 0002 00AF     		add	r7, sp, #0
 968              		.cfi_def_cfa_register 7
 294:gpib.c        ****     gpib_TAD(31);
 969              		.loc 1 294 0
 970 0004 1F20     		movs	r0, #31
 971 0006 FFF7FEFF 		bl	gpib_TAD
 295:gpib.c        **** }
 972              		.loc 1 295 0
 973 000a C046     		nop
 974 000c BD46     		mov	sp, r7
 975              		@ sp needed
 976 000e 80BD     		pop	{r7, pc}
 977              		.cfi_endproc
 978              	.LFE51:
 979              		.size	gpib_UNT, .-gpib_UNT
 980              		.section	.text.gpib_send_SDC,"ax",%progbits
 981              		.align	2
 982              		.global	gpib_send_SDC
 983              		.code	16
 984              		.thumb_func
 985              		.type	gpib_send_SDC, %function
 986              	gpib_send_SDC:
 987              	.LFB52:
 296:gpib.c        **** 
 297:gpib.c        **** // TODO: this all needs to be tidied and parameterised ... horrible!
 298:gpib.c        **** void gpib_send_SDC() {
 988              		.loc 1 298 0
 989              		.cfi_startproc
 990              		@ args = 0, pretend = 0, frame = 0
 991              		@ frame_needed = 1, uses_anonymous_args = 0
 992 0000 80B5     		push	{r7, lr}
 993              		.cfi_def_cfa_offset 8
 994              		.cfi_offset 7, -8
 995              		.cfi_offset 14, -4
 996 0002 00AF     		add	r7, sp, #0
 997              		.cfi_def_cfa_register 7
 299:gpib.c        ****     gpib_assert_line(ATN);
 998              		.loc 1 299 0
 999 0004 0020     		movs	r0, #0
 1000 0006 FFF7FEFF 		bl	gpib_assert_line
 300:gpib.c        ****     gpib_settle();                  // do we need this?
 1001              		.loc 1 300 0
 1002 000a FFF7FEFF 		bl	gpib_settle
 301:gpib.c        ****     gpib_send_byte(0x04, false);
 1003              		.loc 1 301 0
 1004 000e 0021     		movs	r1, #0
 1005 0010 0420     		movs	r0, #4
 1006 0012 FFF7FEFF 		bl	gpib_send_byte
 302:gpib.c        ****     gpib_unassert_line(ATN);
 1007              		.loc 1 302 0
 1008 0016 0020     		movs	r0, #0
ARM GAS  C:\Users\essele\AppData\Local\Temp\cca3ux8d.s 			page 24


 1009 0018 FFF7FEFF 		bl	gpib_unassert_line
 303:gpib.c        ****     gpib_settle();                  // do we need this?
 1010              		.loc 1 303 0
 1011 001c FFF7FEFF 		bl	gpib_settle
 304:gpib.c        **** }
 1012              		.loc 1 304 0
 1013 0020 C046     		nop
 1014 0022 BD46     		mov	sp, r7
 1015              		@ sp needed
 1016 0024 80BD     		pop	{r7, pc}
 1017              		.cfi_endproc
 1018              	.LFE52:
 1019              		.size	gpib_send_SDC, .-gpib_send_SDC
 1020 0026 C046     		.section	.text.gpib_send_LLO,"ax",%progbits
 1021              		.align	2
 1022              		.global	gpib_send_LLO
 1023              		.code	16
 1024              		.thumb_func
 1025              		.type	gpib_send_LLO, %function
 1026              	gpib_send_LLO:
 1027              	.LFB53:
 305:gpib.c        **** void gpib_send_LLO() {
 1028              		.loc 1 305 0
 1029              		.cfi_startproc
 1030              		@ args = 0, pretend = 0, frame = 0
 1031              		@ frame_needed = 1, uses_anonymous_args = 0
 1032 0000 80B5     		push	{r7, lr}
 1033              		.cfi_def_cfa_offset 8
 1034              		.cfi_offset 7, -8
 1035              		.cfi_offset 14, -4
 1036 0002 00AF     		add	r7, sp, #0
 1037              		.cfi_def_cfa_register 7
 306:gpib.c        ****     gpib_assert_line(ATN);
 1038              		.loc 1 306 0
 1039 0004 0020     		movs	r0, #0
 1040 0006 FFF7FEFF 		bl	gpib_assert_line
 307:gpib.c        ****     gpib_settle();                  // do we need this?
 1041              		.loc 1 307 0
 1042 000a FFF7FEFF 		bl	gpib_settle
 308:gpib.c        ****     gpib_send_byte(0x11, false);
 1043              		.loc 1 308 0
 1044 000e 0021     		movs	r1, #0
 1045 0010 1120     		movs	r0, #17
 1046 0012 FFF7FEFF 		bl	gpib_send_byte
 309:gpib.c        ****     gpib_unassert_line(ATN);
 1047              		.loc 1 309 0
 1048 0016 0020     		movs	r0, #0
 1049 0018 FFF7FEFF 		bl	gpib_unassert_line
 310:gpib.c        ****     gpib_settle();                  // do we need this?
 1050              		.loc 1 310 0
 1051 001c FFF7FEFF 		bl	gpib_settle
 311:gpib.c        **** }
 1052              		.loc 1 311 0
 1053 0020 C046     		nop
 1054 0022 BD46     		mov	sp, r7
 1055              		@ sp needed
 1056 0024 80BD     		pop	{r7, pc}
ARM GAS  C:\Users\essele\AppData\Local\Temp\cca3ux8d.s 			page 25


 1057              		.cfi_endproc
 1058              	.LFE53:
 1059              		.size	gpib_send_LLO, .-gpib_send_LLO
 1060 0026 C046     		.section	.text.gpib_send_GTL,"ax",%progbits
 1061              		.align	2
 1062              		.global	gpib_send_GTL
 1063              		.code	16
 1064              		.thumb_func
 1065              		.type	gpib_send_GTL, %function
 1066              	gpib_send_GTL:
 1067              	.LFB54:
 312:gpib.c        **** // need REN unasserted for this one...
 313:gpib.c        **** void gpib_send_GTL() {
 1068              		.loc 1 313 0
 1069              		.cfi_startproc
 1070              		@ args = 0, pretend = 0, frame = 0
 1071              		@ frame_needed = 1, uses_anonymous_args = 0
 1072 0000 80B5     		push	{r7, lr}
 1073              		.cfi_def_cfa_offset 8
 1074              		.cfi_offset 7, -8
 1075              		.cfi_offset 14, -4
 1076 0002 00AF     		add	r7, sp, #0
 1077              		.cfi_def_cfa_register 7
 314:gpib.c        ****     gpib_unassert_line(REN);
 1078              		.loc 1 314 0
 1079 0004 0720     		movs	r0, #7
 1080 0006 FFF7FEFF 		bl	gpib_unassert_line
 315:gpib.c        ****     gpib_assert_line(ATN);
 1081              		.loc 1 315 0
 1082 000a 0020     		movs	r0, #0
 1083 000c FFF7FEFF 		bl	gpib_assert_line
 316:gpib.c        ****     gpib_settle();                  // do we need this?
 1084              		.loc 1 316 0
 1085 0010 FFF7FEFF 		bl	gpib_settle
 317:gpib.c        ****     gpib_send_byte(0x01, false);
 1086              		.loc 1 317 0
 1087 0014 0021     		movs	r1, #0
 1088 0016 0120     		movs	r0, #1
 1089 0018 FFF7FEFF 		bl	gpib_send_byte
 318:gpib.c        ****     gpib_unassert_line(ATN);
 1090              		.loc 1 318 0
 1091 001c 0020     		movs	r0, #0
 1092 001e FFF7FEFF 		bl	gpib_unassert_line
 319:gpib.c        ****     gpib_settle();                  // do we need this?
 1093              		.loc 1 319 0
 1094 0022 FFF7FEFF 		bl	gpib_settle
 320:gpib.c        **** }
 1095              		.loc 1 320 0
 1096 0026 C046     		nop
 1097 0028 BD46     		mov	sp, r7
 1098              		@ sp needed
 1099 002a 80BD     		pop	{r7, pc}
 1100              		.cfi_endproc
 1101              	.LFE54:
 1102              		.size	gpib_send_GTL, .-gpib_send_GTL
 1103              		.section	.text.gpib_address_listener,"ax",%progbits
 1104              		.align	2
ARM GAS  C:\Users\essele\AppData\Local\Temp\cca3ux8d.s 			page 26


 1105              		.global	gpib_address_listener
 1106              		.code	16
 1107              		.thumb_func
 1108              		.type	gpib_address_listener, %function
 1109              	gpib_address_listener:
 1110              	.LFB55:
 321:gpib.c        **** 
 322:gpib.c        **** void gpib_address_listener(uint8_t address) {
 1111              		.loc 1 322 0
 1112              		.cfi_startproc
 1113              		@ args = 0, pretend = 0, frame = 8
 1114              		@ frame_needed = 1, uses_anonymous_args = 0
 1115 0000 80B5     		push	{r7, lr}
 1116              		.cfi_def_cfa_offset 8
 1117              		.cfi_offset 7, -8
 1118              		.cfi_offset 14, -4
 1119 0002 82B0     		sub	sp, sp, #8
 1120              		.cfi_def_cfa_offset 16
 1121 0004 00AF     		add	r7, sp, #0
 1122              		.cfi_def_cfa_register 7
 1123 0006 0200     		movs	r2, r0
 1124 0008 FB1D     		adds	r3, r7, #7
 1125 000a 1A70     		strb	r2, [r3]
 323:gpib.c        ****     
 324:gpib.c        ****     if (listening == address) {
 1126              		.loc 1 324 0
 1127 000c FB1D     		adds	r3, r7, #7
 1128 000e 1A78     		ldrb	r2, [r3]
 1129 0010 1A4B     		ldr	r3, .L73
 1130 0012 1B68     		ldr	r3, [r3]
 1131 0014 9A42     		cmp	r2, r3
 1132 0016 2CD0     		beq	.L72
 325:gpib.c        ****         return;
 326:gpib.c        ****     }
 327:gpib.c        ****     
 328:gpib.c        ****     // Need to enable "REMOTE" so devices will enter remote mode
 329:gpib.c        ****     // TODO: this should probably be an option??
 330:gpib.c        ****     // TODO: do we need to undo this for a talker??
 331:gpib.c        ****     
 332:gpib.c        ****     gpib_unassert_line(NRFD);
 1133              		.loc 1 332 0
 1134 0018 0420     		movs	r0, #4
 1135 001a FFF7FEFF 		bl	gpib_unassert_line
 333:gpib.c        ****     gpib_unassert_line(NDAC);
 1136              		.loc 1 333 0
 1137 001e 0320     		movs	r0, #3
 1138 0020 FFF7FEFF 		bl	gpib_unassert_line
 334:gpib.c        ****     
 335:gpib.c        ****     gpib_assert_line(REN);
 1139              		.loc 1 335 0
 1140 0024 0720     		movs	r0, #7
 1141 0026 FFF7FEFF 		bl	gpib_assert_line
 336:gpib.c        ****     gpib_settle();                  // do we need this?
 1142              		.loc 1 336 0
 1143 002a FFF7FEFF 		bl	gpib_settle
 337:gpib.c        **** 
 338:gpib.c        ****     gpib_assert_line(ATN);
ARM GAS  C:\Users\essele\AppData\Local\Temp\cca3ux8d.s 			page 27


 1144              		.loc 1 338 0
 1145 002e 0020     		movs	r0, #0
 1146 0030 FFF7FEFF 		bl	gpib_assert_line
 339:gpib.c        ****     gpib_settle();                  // do we need this?
 1147              		.loc 1 339 0
 1148 0034 FFF7FEFF 		bl	gpib_settle
 340:gpib.c        ****     
 341:gpib.c        ****     gpib_UNL();     // stop everyone listening
 1149              		.loc 1 341 0
 1150 0038 FFF7FEFF 		bl	gpib_UNL
 342:gpib.c        ****     gpib_UNT();     // stop everyone talking
 1151              		.loc 1 342 0
 1152 003c FFF7FEFF 		bl	gpib_UNT
 343:gpib.c        ****     gpib_LAD(address);
 1153              		.loc 1 343 0
 1154 0040 FB1D     		adds	r3, r7, #7
 1155 0042 1B78     		ldrb	r3, [r3]
 1156 0044 1800     		movs	r0, r3
 1157 0046 FFF7FEFF 		bl	gpib_LAD
 344:gpib.c        ****     gpib_TAD(my_address);
 1158              		.loc 1 344 0
 1159 004a 0D4B     		ldr	r3, .L73+4
 1160 004c 1B78     		ldrb	r3, [r3]
 1161 004e 1800     		movs	r0, r3
 1162 0050 FFF7FEFF 		bl	gpib_TAD
 345:gpib.c        ****     
 346:gpib.c        ****     gpib_unassert_line(ATN);
 1163              		.loc 1 346 0
 1164 0054 0020     		movs	r0, #0
 1165 0056 FFF7FEFF 		bl	gpib_unassert_line
 347:gpib.c        ****     gpib_settle();              // do we need this?
 1166              		.loc 1 347 0
 1167 005a FFF7FEFF 		bl	gpib_settle
 348:gpib.c        ****     
 349:gpib.c        ****     listening = address;
 1168              		.loc 1 349 0
 1169 005e FB1D     		adds	r3, r7, #7
 1170 0060 1A78     		ldrb	r2, [r3]
 1171 0062 064B     		ldr	r3, .L73
 1172 0064 1A60     		str	r2, [r3]
 350:gpib.c        ****     talking = my_address;
 1173              		.loc 1 350 0
 1174 0066 064B     		ldr	r3, .L73+4
 1175 0068 1B78     		ldrb	r3, [r3]
 1176 006a 1A00     		movs	r2, r3
 1177 006c 054B     		ldr	r3, .L73+8
 1178 006e 1A60     		str	r2, [r3]
 1179 0070 00E0     		b	.L69
 1180              	.L72:
 325:gpib.c        ****     }
 1181              		.loc 1 325 0
 1182 0072 C046     		nop
 1183              	.L69:
 351:gpib.c        **** }
 1184              		.loc 1 351 0
 1185 0074 BD46     		mov	sp, r7
 1186 0076 02B0     		add	sp, sp, #8
ARM GAS  C:\Users\essele\AppData\Local\Temp\cca3ux8d.s 			page 28


 1187              		@ sp needed
 1188 0078 80BD     		pop	{r7, pc}
 1189              	.L74:
 1190 007a C046     		.align	2
 1191              	.L73:
 1192 007c 00000000 		.word	listening
 1193 0080 00000000 		.word	my_address
 1194 0084 00000000 		.word	talking
 1195              		.cfi_endproc
 1196              	.LFE55:
 1197              		.size	gpib_address_listener, .-gpib_address_listener
 1198              		.section	.text.gpib_address_talker,"ax",%progbits
 1199              		.align	2
 1200              		.global	gpib_address_talker
 1201              		.code	16
 1202              		.thumb_func
 1203              		.type	gpib_address_talker, %function
 1204              	gpib_address_talker:
 1205              	.LFB56:
 352:gpib.c        **** 
 353:gpib.c        **** void gpib_address_talker(uint8_t address) {
 1206              		.loc 1 353 0
 1207              		.cfi_startproc
 1208              		@ args = 0, pretend = 0, frame = 8
 1209              		@ frame_needed = 1, uses_anonymous_args = 0
 1210 0000 80B5     		push	{r7, lr}
 1211              		.cfi_def_cfa_offset 8
 1212              		.cfi_offset 7, -8
 1213              		.cfi_offset 14, -4
 1214 0002 82B0     		sub	sp, sp, #8
 1215              		.cfi_def_cfa_offset 16
 1216 0004 00AF     		add	r7, sp, #0
 1217              		.cfi_def_cfa_register 7
 1218 0006 0200     		movs	r2, r0
 1219 0008 FB1D     		adds	r3, r7, #7
 1220 000a 1A70     		strb	r2, [r3]
 354:gpib.c        **** 
 355:gpib.c        ****     if (talking == address) {
 1221              		.loc 1 355 0
 1222 000c FB1D     		adds	r3, r7, #7
 1223 000e 1A78     		ldrb	r2, [r3]
 1224 0010 1C4B     		ldr	r3, .L79
 1225 0012 1B68     		ldr	r3, [r3]
 1226 0014 9A42     		cmp	r2, r3
 1227 0016 30D0     		beq	.L78
 356:gpib.c        ****         return;
 357:gpib.c        ****     }
 358:gpib.c        ****     
 359:gpib.c        ****     // Make sure we are not asserting any handshake stuff...
 360:gpib.c        ****     gpib_unassert_line(NRFD);
 1228              		.loc 1 360 0
 1229 0018 0420     		movs	r0, #4
 1230 001a FFF7FEFF 		bl	gpib_unassert_line
 361:gpib.c        ****     gpib_unassert_line(NDAC);
 1231              		.loc 1 361 0
 1232 001e 0320     		movs	r0, #3
 1233 0020 FFF7FEFF 		bl	gpib_unassert_line
ARM GAS  C:\Users\essele\AppData\Local\Temp\cca3ux8d.s 			page 29


 362:gpib.c        ****  
 363:gpib.c        ****     // 
 364:gpib.c        ****     gpib_assert_line(ATN);
 1234              		.loc 1 364 0
 1235 0024 0020     		movs	r0, #0
 1236 0026 FFF7FEFF 		bl	gpib_assert_line
 365:gpib.c        ****     gpib_settle();                  // do we need this?
 1237              		.loc 1 365 0
 1238 002a FFF7FEFF 		bl	gpib_settle
 366:gpib.c        ****     
 367:gpib.c        ****     gpib_UNL();     // stop everyone listening
 1239              		.loc 1 367 0
 1240 002e FFF7FEFF 		bl	gpib_UNL
 368:gpib.c        ****     gpib_UNT();     // stop everyone talking
 1241              		.loc 1 368 0
 1242 0032 FFF7FEFF 		bl	gpib_UNT
 369:gpib.c        ****     gpib_LAD(my_address);
 1243              		.loc 1 369 0
 1244 0036 144B     		ldr	r3, .L79+4
 1245 0038 1B78     		ldrb	r3, [r3]
 1246 003a 1800     		movs	r0, r3
 1247 003c FFF7FEFF 		bl	gpib_LAD
 370:gpib.c        ****     gpib_TAD(address);
 1248              		.loc 1 370 0
 1249 0040 FB1D     		adds	r3, r7, #7
 1250 0042 1B78     		ldrb	r3, [r3]
 1251 0044 1800     		movs	r0, r3
 1252 0046 FFF7FEFF 		bl	gpib_TAD
 371:gpib.c        ****     
 372:gpib.c        ****     gpib_unassert_line(ATN);
 1253              		.loc 1 372 0
 1254 004a 0020     		movs	r0, #0
 1255 004c FFF7FEFF 		bl	gpib_unassert_line
 373:gpib.c        ****     gpib_settle();              // do we need this?
 1256              		.loc 1 373 0
 1257 0050 FFF7FEFF 		bl	gpib_settle
 374:gpib.c        ****     
 375:gpib.c        ****     // Prepare to receive... should NDAC be earlier to avoid both high errors
 376:gpib.c        ****     gpib_assert_line(NRFD);
 1258              		.loc 1 376 0
 1259 0054 0420     		movs	r0, #4
 1260 0056 FFF7FEFF 		bl	gpib_assert_line
 377:gpib.c        ****     gpib_assert_line(NDAC);
 1261              		.loc 1 377 0
 1262 005a 0320     		movs	r0, #3
 1263 005c FFF7FEFF 		bl	gpib_assert_line
 378:gpib.c        ****     
 379:gpib.c        ****     // Signal our readiness...
 380:gpib.c        ****     gpib_unassert_line(NRFD);
 1264              		.loc 1 380 0
 1265 0060 0420     		movs	r0, #4
 1266 0062 FFF7FEFF 		bl	gpib_unassert_line
 381:gpib.c        ****     
 382:gpib.c        ****     talking = address;
 1267              		.loc 1 382 0
 1268 0066 FB1D     		adds	r3, r7, #7
 1269 0068 1A78     		ldrb	r2, [r3]
ARM GAS  C:\Users\essele\AppData\Local\Temp\cca3ux8d.s 			page 30


 1270 006a 064B     		ldr	r3, .L79
 1271 006c 1A60     		str	r2, [r3]
 383:gpib.c        ****     listening = my_address;
 1272              		.loc 1 383 0
 1273 006e 064B     		ldr	r3, .L79+4
 1274 0070 1B78     		ldrb	r3, [r3]
 1275 0072 1A00     		movs	r2, r3
 1276 0074 054B     		ldr	r3, .L79+8
 1277 0076 1A60     		str	r2, [r3]
 1278 0078 00E0     		b	.L75
 1279              	.L78:
 356:gpib.c        ****     }
 1280              		.loc 1 356 0
 1281 007a C046     		nop
 1282              	.L75:
 384:gpib.c        **** }
 1283              		.loc 1 384 0
 1284 007c BD46     		mov	sp, r7
 1285 007e 02B0     		add	sp, sp, #8
 1286              		@ sp needed
 1287 0080 80BD     		pop	{r7, pc}
 1288              	.L80:
 1289 0082 C046     		.align	2
 1290              	.L79:
 1291 0084 00000000 		.word	talking
 1292 0088 00000000 		.word	my_address
 1293 008c 00000000 		.word	listening
 1294              		.cfi_endproc
 1295              	.LFE56:
 1296              		.size	gpib_address_talker, .-gpib_address_talker
 1297              		.section	.text.gpib_talking,"ax",%progbits
 1298              		.align	2
 1299              		.global	gpib_talking
 1300              		.code	16
 1301              		.thumb_func
 1302              		.type	gpib_talking, %function
 1303              	gpib_talking:
 1304              	.LFB57:
 385:gpib.c        **** 
 386:gpib.c        **** /**
 387:gpib.c        ****  * See if the talker has put some data on the bus...
 388:gpib.c        ****  */
 389:gpib.c        **** // TODO: get rid of bool
 390:gpib.c        **** bool gpib_talking() {
 1305              		.loc 1 390 0
 1306              		.cfi_startproc
 1307              		@ args = 0, pretend = 0, frame = 0
 1308              		@ frame_needed = 1, uses_anonymous_args = 0
 1309 0000 80B5     		push	{r7, lr}
 1310              		.cfi_def_cfa_offset 8
 1311              		.cfi_offset 7, -8
 1312              		.cfi_offset 14, -4
 1313 0002 00AF     		add	r7, sp, #0
 1314              		.cfi_def_cfa_register 7
 391:gpib.c        ****     return gpib_read_line(DAV);
 1315              		.loc 1 391 0
 1316 0004 0520     		movs	r0, #5
ARM GAS  C:\Users\essele\AppData\Local\Temp\cca3ux8d.s 			page 31


 1317 0006 FFF7FEFF 		bl	gpib_read_line
 1318 000a 0300     		movs	r3, r0
 392:gpib.c        **** }
 1319              		.loc 1 392 0
 1320 000c 1800     		movs	r0, r3
 1321 000e BD46     		mov	sp, r7
 1322              		@ sp needed
 1323 0010 80BD     		pop	{r7, pc}
 1324              		.cfi_endproc
 1325              	.LFE57:
 1326              		.size	gpib_talking, .-gpib_talking
 1327 0012 C046     		.section	.text.gpib_send,"ax",%progbits
 1328              		.align	2
 1329              		.global	gpib_send
 1330              		.code	16
 1331              		.thumb_func
 1332              		.type	gpib_send, %function
 1333              	gpib_send:
 1334              	.LFB58:
 393:gpib.c        **** 
 394:gpib.c        **** /**
 395:gpib.c        ****  * Send a buffer over the GPIB interface, do the right thing with EO
 396:gpib.c        ****  * unless we have it disabled.
 397:gpib.c        ****  */
 398:gpib.c        **** // TODO: error checking and return
 399:gpib.c        **** // TODO: should separate the address listener and the send, so we can send
 400:gpib.c        **** //       multiple chunks??
 401:gpib.c        **** void gpib_send(uint8_t address, const uint8_t *buf, int len) {
 1335              		.loc 1 401 0
 1336              		.cfi_startproc
 1337              		@ args = 0, pretend = 0, frame = 32
 1338              		@ frame_needed = 1, uses_anonymous_args = 0
 1339 0000 80B5     		push	{r7, lr}
 1340              		.cfi_def_cfa_offset 8
 1341              		.cfi_offset 7, -8
 1342              		.cfi_offset 14, -4
 1343 0002 88B0     		sub	sp, sp, #32
 1344              		.cfi_def_cfa_offset 40
 1345 0004 00AF     		add	r7, sp, #0
 1346              		.cfi_def_cfa_register 7
 1347 0006 B960     		str	r1, [r7, #8]
 1348 0008 7A60     		str	r2, [r7, #4]
 1349 000a 0F23     		movs	r3, #15
 1350 000c FB18     		adds	r3, r7, r3
 1351 000e 021C     		adds	r2, r0, #0
 1352 0010 1A70     		strb	r2, [r3]
 402:gpib.c        ****     char *p = (char *)buf;
 1353              		.loc 1 402 0
 1354 0012 BB68     		ldr	r3, [r7, #8]
 1355 0014 BB61     		str	r3, [r7, #24]
 403:gpib.c        ****     
 404:gpib.c        ****     int eoipos = (settings.eoi ? len-1 : -1);
 1356              		.loc 1 404 0
 1357 0016 154B     		ldr	r3, .L88
 1358 0018 5B89     		ldrh	r3, [r3, #10]
 1359 001a 002B     		cmp	r3, #0
 1360 001c 02D0     		beq	.L84
ARM GAS  C:\Users\essele\AppData\Local\Temp\cca3ux8d.s 			page 32


 1361              		.loc 1 404 0 is_stmt 0 discriminator 1
 1362 001e 7B68     		ldr	r3, [r7, #4]
 1363 0020 013B     		subs	r3, r3, #1
 1364 0022 01E0     		b	.L85
 1365              	.L84:
 1366              		.loc 1 404 0 discriminator 2
 1367 0024 0123     		movs	r3, #1
 1368 0026 5B42     		rsbs	r3, r3, #0
 1369              	.L85:
 1370              		.loc 1 404 0 discriminator 4
 1371 0028 7B61     		str	r3, [r7, #20]
 405:gpib.c        ****     
 406:gpib.c        ****     gpib_address_listener(address);
 1372              		.loc 1 406 0 is_stmt 1 discriminator 4
 1373 002a 0F23     		movs	r3, #15
 1374 002c FB18     		adds	r3, r7, r3
 1375 002e 1B78     		ldrb	r3, [r3]
 1376 0030 1800     		movs	r0, r3
 1377 0032 FFF7FEFF 		bl	gpib_address_listener
 1378              	.LBB2:
 407:gpib.c        ****     
 408:gpib.c        ****     for (int i=0; i < len; i++) {
 1379              		.loc 1 408 0 discriminator 4
 1380 0036 0023     		movs	r3, #0
 1381 0038 FB61     		str	r3, [r7, #28]
 1382 003a 0FE0     		b	.L86
 1383              	.L87:
 409:gpib.c        ****         gpib_send_byte(buf[i], (i == eoipos));
 1384              		.loc 1 409 0 discriminator 3
 1385 003c FB69     		ldr	r3, [r7, #28]
 1386 003e BA68     		ldr	r2, [r7, #8]
 1387 0040 D318     		adds	r3, r2, r3
 1388 0042 1878     		ldrb	r0, [r3]
 1389 0044 FA69     		ldr	r2, [r7, #28]
 1390 0046 7B69     		ldr	r3, [r7, #20]
 1391 0048 D31A     		subs	r3, r2, r3
 1392 004a 5A42     		rsbs	r2, r3, #0
 1393 004c 5341     		adcs	r3, r3, r2
 1394 004e DBB2     		uxtb	r3, r3
 1395 0050 1900     		movs	r1, r3
 1396 0052 FFF7FEFF 		bl	gpib_send_byte
 408:gpib.c        ****         gpib_send_byte(buf[i], (i == eoipos));
 1397              		.loc 1 408 0 discriminator 3
 1398 0056 FB69     		ldr	r3, [r7, #28]
 1399 0058 0133     		adds	r3, r3, #1
 1400 005a FB61     		str	r3, [r7, #28]
 1401              	.L86:
 408:gpib.c        ****         gpib_send_byte(buf[i], (i == eoipos));
 1402              		.loc 1 408 0 is_stmt 0 discriminator 1
 1403 005c FA69     		ldr	r2, [r7, #28]
 1404 005e 7B68     		ldr	r3, [r7, #4]
 1405 0060 9A42     		cmp	r2, r3
 1406 0062 EBDB     		blt	.L87
 1407              	.LBE2:
 410:gpib.c        ****     }
 411:gpib.c        **** }
 1408              		.loc 1 411 0 is_stmt 1
ARM GAS  C:\Users\essele\AppData\Local\Temp\cca3ux8d.s 			page 33


 1409 0064 C046     		nop
 1410 0066 BD46     		mov	sp, r7
 1411 0068 08B0     		add	sp, sp, #32
 1412              		@ sp needed
 1413 006a 80BD     		pop	{r7, pc}
 1414              	.L89:
 1415              		.align	2
 1416              	.L88:
 1417 006c 00000000 		.word	settings
 1418              		.cfi_endproc
 1419              	.LFE58:
 1420              		.size	gpib_send, .-gpib_send
 1421              		.section	.text.gpib_send_bytes,"ax",%progbits
 1422              		.align	2
 1423              		.global	gpib_send_bytes
 1424              		.code	16
 1425              		.thumb_func
 1426              		.type	gpib_send_bytes, %function
 1427              	gpib_send_bytes:
 1428              	.LFB59:
 412:gpib.c        **** void gpib_send_bytes(const uint8_t *buf, int len, int last) {
 1429              		.loc 1 412 0
 1430              		.cfi_startproc
 1431              		@ args = 0, pretend = 0, frame = 24
 1432              		@ frame_needed = 1, uses_anonymous_args = 0
 1433 0000 80B5     		push	{r7, lr}
 1434              		.cfi_def_cfa_offset 8
 1435              		.cfi_offset 7, -8
 1436              		.cfi_offset 14, -4
 1437 0002 86B0     		sub	sp, sp, #24
 1438              		.cfi_def_cfa_offset 32
 1439 0004 00AF     		add	r7, sp, #0
 1440              		.cfi_def_cfa_register 7
 1441 0006 F860     		str	r0, [r7, #12]
 1442 0008 B960     		str	r1, [r7, #8]
 1443 000a 7A60     		str	r2, [r7, #4]
 413:gpib.c        ****     int eoipos = (settings.eoi && last ? len-1 : -1);
 1444              		.loc 1 413 0
 1445 000c 134B     		ldr	r3, .L95
 1446 000e 5B89     		ldrh	r3, [r3, #10]
 1447 0010 002B     		cmp	r3, #0
 1448 0012 05D0     		beq	.L91
 1449              		.loc 1 413 0 is_stmt 0 discriminator 1
 1450 0014 7B68     		ldr	r3, [r7, #4]
 1451 0016 002B     		cmp	r3, #0
 1452 0018 02D0     		beq	.L91
 1453              		.loc 1 413 0 discriminator 3
 1454 001a BB68     		ldr	r3, [r7, #8]
 1455 001c 013B     		subs	r3, r3, #1
 1456 001e 01E0     		b	.L92
 1457              	.L91:
 1458              		.loc 1 413 0 discriminator 4
 1459 0020 0123     		movs	r3, #1
 1460 0022 5B42     		rsbs	r3, r3, #0
 1461              	.L92:
 1462              		.loc 1 413 0 discriminator 6
 1463 0024 3B61     		str	r3, [r7, #16]
ARM GAS  C:\Users\essele\AppData\Local\Temp\cca3ux8d.s 			page 34


 1464              	.LBB3:
 414:gpib.c        ****     
 415:gpib.c        ****     for (int i=0; i < len; i++) {
 1465              		.loc 1 415 0 is_stmt 1 discriminator 6
 1466 0026 0023     		movs	r3, #0
 1467 0028 7B61     		str	r3, [r7, #20]
 1468 002a 0FE0     		b	.L93
 1469              	.L94:
 416:gpib.c        ****         gpib_send_byte(buf[i], (i == eoipos));
 1470              		.loc 1 416 0 discriminator 3
 1471 002c 7B69     		ldr	r3, [r7, #20]
 1472 002e FA68     		ldr	r2, [r7, #12]
 1473 0030 D318     		adds	r3, r2, r3
 1474 0032 1878     		ldrb	r0, [r3]
 1475 0034 7A69     		ldr	r2, [r7, #20]
 1476 0036 3B69     		ldr	r3, [r7, #16]
 1477 0038 D31A     		subs	r3, r2, r3
 1478 003a 5A42     		rsbs	r2, r3, #0
 1479 003c 5341     		adcs	r3, r3, r2
 1480 003e DBB2     		uxtb	r3, r3
 1481 0040 1900     		movs	r1, r3
 1482 0042 FFF7FEFF 		bl	gpib_send_byte
 415:gpib.c        ****         gpib_send_byte(buf[i], (i == eoipos));
 1483              		.loc 1 415 0 discriminator 3
 1484 0046 7B69     		ldr	r3, [r7, #20]
 1485 0048 0133     		adds	r3, r3, #1
 1486 004a 7B61     		str	r3, [r7, #20]
 1487              	.L93:
 415:gpib.c        ****         gpib_send_byte(buf[i], (i == eoipos));
 1488              		.loc 1 415 0 is_stmt 0 discriminator 1
 1489 004c 7A69     		ldr	r2, [r7, #20]
 1490 004e BB68     		ldr	r3, [r7, #8]
 1491 0050 9A42     		cmp	r2, r3
 1492 0052 EBDB     		blt	.L94
 1493              	.LBE3:
 417:gpib.c        ****     }
 418:gpib.c        **** }
 1494              		.loc 1 418 0 is_stmt 1
 1495 0054 C046     		nop
 1496 0056 BD46     		mov	sp, r7
 1497 0058 06B0     		add	sp, sp, #24
 1498              		@ sp needed
 1499 005a 80BD     		pop	{r7, pc}
 1500              	.L96:
 1501              		.align	2
 1502              	.L95:
 1503 005c 00000000 		.word	settings
 1504              		.cfi_endproc
 1505              	.LFE59:
 1506              		.size	gpib_send_bytes, .-gpib_send_bytes
 1507              		.section	.text.gpib_read,"ax",%progbits
 1508              		.align	2
 1509              		.global	gpib_read
 1510              		.code	16
 1511              		.thumb_func
 1512              		.type	gpib_read, %function
 1513              	gpib_read:
ARM GAS  C:\Users\essele\AppData\Local\Temp\cca3ux8d.s 			page 35


 1514              	.LFB60:
 419:gpib.c        **** 
 420:gpib.c        **** /**
 421:gpib.c        ****  * Read from the GPIB interface, can use different end states:
 422:gpib.c        ****  *
 423:gpib.c        ****  * until = GPIB_TIMEOUT -- keep going until we get a timeout
 424:gpib.c        ****  * until = GPIB_EOI     -- wait for the EOI indication
 425:gpib.c        ****  * until = <char>       -- wait until we get <char>
 426:gpib.c        ****  *
 427:gpib.c        ****  * end = GPIB_TIMEOUT, or GPIB_ENDED, or GPIB_NOT_ENDED
 428:gpib.c        ****  * return = number of chars
 429:gpib.c        ****  *
 430:gpib.c        ****  */
 431:gpib.c        **** int gpib_read(int until, int *end) {
 1515              		.loc 1 431 0
 1516              		.cfi_startproc
 1517              		@ args = 0, pretend = 0, frame = 24
 1518              		@ frame_needed = 1, uses_anonymous_args = 0
 1519 0000 80B5     		push	{r7, lr}
 1520              		.cfi_def_cfa_offset 8
 1521              		.cfi_offset 7, -8
 1522              		.cfi_offset 14, -4
 1523 0002 86B0     		sub	sp, sp, #24
 1524              		.cfi_def_cfa_offset 32
 1525 0004 00AF     		add	r7, sp, #0
 1526              		.cfi_def_cfa_register 7
 1527 0006 7860     		str	r0, [r7, #4]
 1528 0008 3960     		str	r1, [r7]
 432:gpib.c        ****     int         i = 0;
 1529              		.loc 1 432 0
 1530 000a 0023     		movs	r3, #0
 1531 000c 7B61     		str	r3, [r7, #20]
 433:gpib.c        ****     int         ok;
 434:gpib.c        ****     int         eoi;
 435:gpib.c        ****     uint8_t     *buf;
 436:gpib.c        ****     
 437:gpib.c        ****     buf = gpib_buffer;
 1532              		.loc 1 437 0
 1533 000e 294B     		ldr	r3, .L107
 1534 0010 3B61     		str	r3, [r7, #16]
 438:gpib.c        ****     
 439:gpib.c        ****     while (i < (GPIB_BUF_SIZE-1)) {
 1535              		.loc 1 439 0
 1536 0012 44E0     		b	.L98
 1537              	.L105:
 440:gpib.c        ****         // First case is a potential timeout (no errors on read)
 441:gpib.c        ****         if (!gpib_receive_byte(buf, &eoi)) {
 1538              		.loc 1 441 0
 1539 0014 0C23     		movs	r3, #12
 1540 0016 FA18     		adds	r2, r7, r3
 1541 0018 3B69     		ldr	r3, [r7, #16]
 1542 001a 1100     		movs	r1, r2
 1543 001c 1800     		movs	r0, r3
 1544 001e FFF7FEFF 		bl	gpib_receive_byte
 1545 0022 031E     		subs	r3, r0, #0
 1546 0024 05D1     		bne	.L99
 442:gpib.c        ****             *end = GPIB_TIMEOUT;
ARM GAS  C:\Users\essele\AppData\Local\Temp\cca3ux8d.s 			page 36


 1547              		.loc 1 442 0
 1548 0026 3B68     		ldr	r3, [r7]
 1549 0028 0222     		movs	r2, #2
 1550 002a FF32     		adds	r2, r2, #255
 1551 002c 1A60     		str	r2, [r3]
 443:gpib.c        ****             return i;
 1552              		.loc 1 443 0
 1553 002e 7B69     		ldr	r3, [r7, #20]
 1554 0030 3CE0     		b	.L106
 1555              	.L99:
 444:gpib.c        ****         }
 445:gpib.c        ****                
 446:gpib.c        ****         // We assume is a valid character...
 447:gpib.c        ****         i++;
 1556              		.loc 1 447 0
 1557 0032 7B69     		ldr	r3, [r7, #20]
 1558 0034 0133     		adds	r3, r3, #1
 1559 0036 7B61     		str	r3, [r7, #20]
 448:gpib.c        **** 
 449:gpib.c        ****         // If we get an EOI then we might need to add an extra char and
 450:gpib.c        ****         // potentially end this read
 451:gpib.c        ****         if (eoi) {
 1560              		.loc 1 451 0
 1561 0038 FB68     		ldr	r3, [r7, #12]
 1562 003a 002B     		cmp	r3, #0
 1563 003c 18D0     		beq	.L101
 452:gpib.c        ****             if (settings.eot_enable) {
 1564              		.loc 1 452 0
 1565 003e 1E4B     		ldr	r3, .L107+4
 1566 0040 1B8A     		ldrh	r3, [r3, #16]
 1567 0042 002B     		cmp	r3, #0
 1568 0044 0AD0     		beq	.L102
 453:gpib.c        ****                 *++buf = settings.eot_char;
 1569              		.loc 1 453 0
 1570 0046 3B69     		ldr	r3, [r7, #16]
 1571 0048 0133     		adds	r3, r3, #1
 1572 004a 3B61     		str	r3, [r7, #16]
 1573 004c 1A4B     		ldr	r3, .L107+4
 1574 004e DB89     		ldrh	r3, [r3, #14]
 1575 0050 DAB2     		uxtb	r2, r3
 1576 0052 3B69     		ldr	r3, [r7, #16]
 1577 0054 1A70     		strb	r2, [r3]
 454:gpib.c        ****                 i++;
 1578              		.loc 1 454 0
 1579 0056 7B69     		ldr	r3, [r7, #20]
 1580 0058 0133     		adds	r3, r3, #1
 1581 005a 7B61     		str	r3, [r7, #20]
 1582              	.L102:
 455:gpib.c        ****             }
 456:gpib.c        ****             if (until == GPIB_EOI) {
 1583              		.loc 1 456 0
 1584 005c 7A68     		ldr	r2, [r7, #4]
 1585 005e 8023     		movs	r3, #128
 1586 0060 5B00     		lsls	r3, r3, #1
 1587 0062 9A42     		cmp	r2, r3
 1588 0064 04D1     		bne	.L101
 457:gpib.c        ****                 *end = GPIB_ENDED;
ARM GAS  C:\Users\essele\AppData\Local\Temp\cca3ux8d.s 			page 37


 1589              		.loc 1 457 0
 1590 0066 3B68     		ldr	r3, [r7]
 1591 0068 0122     		movs	r2, #1
 1592 006a 1A60     		str	r2, [r3]
 458:gpib.c        ****                 return i;
 1593              		.loc 1 458 0
 1594 006c 7B69     		ldr	r3, [r7, #20]
 1595 006e 1DE0     		b	.L106
 1596              	.L101:
 459:gpib.c        ****             }
 460:gpib.c        ****         }        
 461:gpib.c        ****         
 462:gpib.c        ****         // If we are only waiting for timeout, then loop...
 463:gpib.c        ****         if (until == GPIB_TIMEOUT) {    
 1597              		.loc 1 463 0
 1598 0070 7A68     		ldr	r2, [r7, #4]
 1599 0072 0223     		movs	r3, #2
 1600 0074 FF33     		adds	r3, r3, #255
 1601 0076 9A42     		cmp	r2, r3
 1602 0078 03D1     		bne	.L103
 464:gpib.c        ****             buf++;
 1603              		.loc 1 464 0
 1604 007a 3B69     		ldr	r3, [r7, #16]
 1605 007c 0133     		adds	r3, r3, #1
 1606 007e 3B61     		str	r3, [r7, #16]
 465:gpib.c        ****             continue;
 1607              		.loc 1 465 0
 1608 0080 0DE0     		b	.L98
 1609              	.L103:
 466:gpib.c        ****         }
 467:gpib.c        ****         
 468:gpib.c        ****         // If we match the given end char
 469:gpib.c        ****         if (until == *buf) {
 1610              		.loc 1 469 0
 1611 0082 3B69     		ldr	r3, [r7, #16]
 1612 0084 1B78     		ldrb	r3, [r3]
 1613 0086 1A00     		movs	r2, r3
 1614 0088 7B68     		ldr	r3, [r7, #4]
 1615 008a 9A42     		cmp	r2, r3
 1616 008c 04D1     		bne	.L104
 470:gpib.c        ****             *end = GPIB_ENDED;
 1617              		.loc 1 470 0
 1618 008e 3B68     		ldr	r3, [r7]
 1619 0090 0122     		movs	r2, #1
 1620 0092 1A60     		str	r2, [r3]
 471:gpib.c        ****             return i;
 1621              		.loc 1 471 0
 1622 0094 7B69     		ldr	r3, [r7, #20]
 1623 0096 09E0     		b	.L106
 1624              	.L104:
 472:gpib.c        ****         }     
 473:gpib.c        ****         buf++;
 1625              		.loc 1 473 0
 1626 0098 3B69     		ldr	r3, [r7, #16]
 1627 009a 0133     		adds	r3, r3, #1
 1628 009c 3B61     		str	r3, [r7, #16]
 1629              	.L98:
ARM GAS  C:\Users\essele\AppData\Local\Temp\cca3ux8d.s 			page 38


 439:gpib.c        ****         // First case is a potential timeout (no errors on read)
 1630              		.loc 1 439 0
 1631 009e 7B69     		ldr	r3, [r7, #20]
 1632 00a0 FE2B     		cmp	r3, #254
 1633 00a2 B7DD     		ble	.L105
 474:gpib.c        ****     }
 475:gpib.c        ****     *end = GPIB_NOT_ENDED;
 1634              		.loc 1 475 0
 1635 00a4 3B68     		ldr	r3, [r7]
 1636 00a6 0022     		movs	r2, #0
 1637 00a8 1A60     		str	r2, [r3]
 476:gpib.c        ****     return i;
 1638              		.loc 1 476 0
 1639 00aa 7B69     		ldr	r3, [r7, #20]
 1640              	.L106:
 477:gpib.c        **** }
 1641              		.loc 1 477 0 discriminator 1
 1642 00ac 1800     		movs	r0, r3
 1643 00ae BD46     		mov	sp, r7
 1644 00b0 06B0     		add	sp, sp, #24
 1645              		@ sp needed
 1646 00b2 80BD     		pop	{r7, pc}
 1647              	.L108:
 1648              		.align	2
 1649              	.L107:
 1650 00b4 00000000 		.word	gpib_buffer
 1651 00b8 00000000 		.word	settings
 1652              		.cfi_endproc
 1653              	.LFE60:
 1654              		.size	gpib_read, .-gpib_read
 1655              		.section	.text.gpib_read_bytes,"ax",%progbits
 1656              		.align	2
 1657              		.global	gpib_read_bytes
 1658              		.code	16
 1659              		.thumb_func
 1660              		.type	gpib_read_bytes, %function
 1661              	gpib_read_bytes:
 1662              	.LFB61:
 478:gpib.c        **** 
 479:gpib.c        **** /**
 480:gpib.c        ****  * Test routine ... assume EOI for now
 481:gpib.c        ****  */ 
 482:gpib.c        **** int gpib_read_bytes(uint8_t *dest, int maxlen, int *end) {
 1663              		.loc 1 482 0
 1664              		.cfi_startproc
 1665              		@ args = 0, pretend = 0, frame = 24
 1666              		@ frame_needed = 1, uses_anonymous_args = 0
 1667 0000 80B5     		push	{r7, lr}
 1668              		.cfi_def_cfa_offset 8
 1669              		.cfi_offset 7, -8
 1670              		.cfi_offset 14, -4
 1671 0002 86B0     		sub	sp, sp, #24
 1672              		.cfi_def_cfa_offset 32
 1673 0004 00AF     		add	r7, sp, #0
 1674              		.cfi_def_cfa_register 7
 1675 0006 F860     		str	r0, [r7, #12]
 1676 0008 B960     		str	r1, [r7, #8]
ARM GAS  C:\Users\essele\AppData\Local\Temp\cca3ux8d.s 			page 39


 1677 000a 7A60     		str	r2, [r7, #4]
 483:gpib.c        ****     int eoi;
 484:gpib.c        ****     int i = 0;
 1678              		.loc 1 484 0
 1679 000c 0023     		movs	r3, #0
 1680 000e 7B61     		str	r3, [r7, #20]
 485:gpib.c        ****     
 486:gpib.c        ****     while (i < maxlen) {
 1681              		.loc 1 486 0
 1682 0010 1BE0     		b	.L110
 1683              	.L113:
 487:gpib.c        ****         if (!gpib_receive_byte(dest++, &eoi)) {
 1684              		.loc 1 487 0
 1685 0012 FB68     		ldr	r3, [r7, #12]
 1686 0014 5A1C     		adds	r2, r3, #1
 1687 0016 FA60     		str	r2, [r7, #12]
 1688 0018 1022     		movs	r2, #16
 1689 001a BA18     		adds	r2, r7, r2
 1690 001c 1100     		movs	r1, r2
 1691 001e 1800     		movs	r0, r3
 1692 0020 FFF7FEFF 		bl	gpib_receive_byte
 1693 0024 031E     		subs	r3, r0, #0
 1694 0026 05D1     		bne	.L111
 488:gpib.c        ****             *end = GPIB_TIMEOUT;
 1695              		.loc 1 488 0
 1696 0028 7B68     		ldr	r3, [r7, #4]
 1697 002a 0222     		movs	r2, #2
 1698 002c FF32     		adds	r2, r2, #255
 1699 002e 1A60     		str	r2, [r3]
 489:gpib.c        ****             return i;
 1700              		.loc 1 489 0
 1701 0030 7B69     		ldr	r3, [r7, #20]
 1702 0032 12E0     		b	.L114
 1703              	.L111:
 490:gpib.c        ****         }
 491:gpib.c        ****         i++;
 1704              		.loc 1 491 0
 1705 0034 7B69     		ldr	r3, [r7, #20]
 1706 0036 0133     		adds	r3, r3, #1
 1707 0038 7B61     		str	r3, [r7, #20]
 492:gpib.c        ****         if (eoi) {
 1708              		.loc 1 492 0
 1709 003a 3B69     		ldr	r3, [r7, #16]
 1710 003c 002B     		cmp	r3, #0
 1711 003e 04D0     		beq	.L110
 493:gpib.c        ****             *end = GPIB_ENDED;
 1712              		.loc 1 493 0
 1713 0040 7B68     		ldr	r3, [r7, #4]
 1714 0042 0122     		movs	r2, #1
 1715 0044 1A60     		str	r2, [r3]
 494:gpib.c        ****             return i;
 1716              		.loc 1 494 0
 1717 0046 7B69     		ldr	r3, [r7, #20]
 1718 0048 07E0     		b	.L114
 1719              	.L110:
 486:gpib.c        ****         if (!gpib_receive_byte(dest++, &eoi)) {
 1720              		.loc 1 486 0
ARM GAS  C:\Users\essele\AppData\Local\Temp\cca3ux8d.s 			page 40


 1721 004a 7A69     		ldr	r2, [r7, #20]
 1722 004c BB68     		ldr	r3, [r7, #8]
 1723 004e 9A42     		cmp	r2, r3
 1724 0050 DFDB     		blt	.L113
 495:gpib.c        ****         }
 496:gpib.c        ****     }
 497:gpib.c        ****     *end = GPIB_NOT_ENDED;
 1725              		.loc 1 497 0
 1726 0052 7B68     		ldr	r3, [r7, #4]
 1727 0054 0022     		movs	r2, #0
 1728 0056 1A60     		str	r2, [r3]
 498:gpib.c        ****     return i;
 1729              		.loc 1 498 0
 1730 0058 7B69     		ldr	r3, [r7, #20]
 1731              	.L114:
 499:gpib.c        **** }
 1732              		.loc 1 499 0 discriminator 1
 1733 005a 1800     		movs	r0, r3
 1734 005c BD46     		mov	sp, r7
 1735 005e 06B0     		add	sp, sp, #24
 1736              		@ sp needed
 1737 0060 80BD     		pop	{r7, pc}
 1738              		.cfi_endproc
 1739              	.LFE61:
 1740              		.size	gpib_read_bytes, .-gpib_read_bytes
 1741 0062 C046     		.text
 1742              	.Letext0:
 1743              		.file 2 "c:\\program files (x86)\\cypress\\psoc creator\\4.2\\psoc creator\\import\\gnu\\arm\\5.4.
 1744              		.file 3 "c:\\program files (x86)\\cypress\\psoc creator\\4.2\\psoc creator\\import\\gnu\\arm\\5.4.
 1745              		.file 4 "Generated_Source\\PSoC4/cytypes.h"
 1746              		.file 5 "settings.h"