ARM GAS  C:\Users\essele\AppData\Local\Temp\ccyS5Pdr.s 			page 1


   1              		.syntax unified
   2              		.cpu cortex-m0
   3              		.fpu softvfp
   4              		.eabi_attribute 20, 1
   5              		.eabi_attribute 21, 1
   6              		.eabi_attribute 23, 3
   7              		.eabi_attribute 24, 1
   8              		.eabi_attribute 25, 1
   9              		.eabi_attribute 26, 1
  10              		.eabi_attribute 30, 6
  11              		.eabi_attribute 34, 0
  12              		.eabi_attribute 18, 4
  13              		.thumb
  14              		.syntax unified
  15              		.file	"input.c"
  16              		.text
  17              	.Ltext0:
  18              		.cfi_sections	.debug_frame
  19              		.comm	last_buf,128,4
  20              		.global	last_buf_len
  21              		.bss
  22              		.align	2
  23              		.type	last_buf_len, %object
  24              		.size	last_buf_len, 4
  25              	last_buf_len:
  26 0000 00000000 		.space	4
  27              		.comm	input_buf,128,4
  28              		.global	input_buf_len
  29              		.align	2
  30              		.type	input_buf_len, %object
  31              		.size	input_buf_len, 4
  32              	input_buf_len:
  33 0004 00000000 		.space	4
  34              		.global	input_cursor_pos
  35              		.align	2
  36              		.type	input_cursor_pos, %object
  37              		.size	input_cursor_pos, 4
  38              	input_cursor_pos:
  39 0008 00000000 		.space	4
  40              		.comm	esc_buf,5,4
  41              		.global	escape
  42              		.align	2
  43              		.type	escape, %object
  44              		.size	escape, 4
  45              	escape:
  46 000c 00000000 		.space	4
  47              		.global	escapes
  48              		.section	.rodata
  49              		.align	2
  50              	.LC0:
  51 0000 1B5B4100 		.ascii	"\033[A\000"
  52              		.align	2
  53              	.LC1:
  54 0004 1B5B4200 		.ascii	"\033[B\000"
  55              		.align	2
  56              	.LC2:
  57 0008 1B5B4300 		.ascii	"\033[C\000"
ARM GAS  C:\Users\essele\AppData\Local\Temp\ccyS5Pdr.s 			page 2


  58              		.align	2
  59              	.LC3:
  60 000c 1B5B4400 		.ascii	"\033[D\000"
  61              		.align	2
  62              		.type	escapes, %object
  63              		.size	escapes, 40
  64              	escapes:
  65 0010 00000000 		.word	.LC0
  66 0014 01100000 		.word	4097
  67 0018 04000000 		.word	.LC1
  68 001c 02100000 		.word	4098
  69 0020 08000000 		.word	.LC2
  70 0024 03100000 		.word	4099
  71 0028 0C000000 		.word	.LC3
  72 002c 04100000 		.word	4100
  73 0030 00000000 		.word	0
  74 0034 00000000 		.word	0
  75              		.section	.text.valid_escape,"ax",%progbits
  76              		.align	2
  77              		.global	valid_escape
  78              		.code	16
  79              		.thumb_func
  80              		.type	valid_escape, %function
  81              	valid_escape:
  82              	.LFB35:
  83              		.file 1 "input.c"
   1:input.c       **** /****
   2:input.c       ****  * YAUGI -- Yet Another USB GPIB Interface
   3:input.c       ****  * 
   4:input.c       ****  * Lee Essen, 2019
   5:input.c       ****  *
   6:input.c       ****  * This work is licensed under a Creative Commons 
   7:input.c       ****  * Attribution-NonCommercial-ShareAlike 4.0 International License.
   8:input.c       ****  *
   9:input.c       ****  */
  10:input.c       **** 
  11:input.c       **** 
  12:input.c       **** #include "input.h"
  13:input.c       **** #include "serial.h"
  14:input.c       **** #include <stdarg.h>
  15:input.c       **** #include <stdio.h>
  16:input.c       **** 
  17:input.c       **** 
  18:input.c       **** #define INPUT_BUF_SIZE 128
  19:input.c       **** #define PROMPT "yaugi> "
  20:input.c       **** 
  21:input.c       **** uint8_t last_buf[INPUT_BUF_SIZE];           // keep the last command for recall
  22:input.c       **** int     last_buf_len = 0;
  23:input.c       **** 
  24:input.c       **** uint8_t input_buf[INPUT_BUF_SIZE];
  25:input.c       **** int     input_buf_len = 0;
  26:input.c       **** int     input_cursor_pos = 0;
  27:input.c       **** 
  28:input.c       **** uint8_t esc_buf[5];
  29:input.c       **** int     escape = 0;
  30:input.c       **** 
  31:input.c       **** #define ESC_UP      0x1001
ARM GAS  C:\Users\essele\AppData\Local\Temp\ccyS5Pdr.s 			page 3


  32:input.c       **** #define ESC_DOWN    0x1002
  33:input.c       **** #define ESC_LEFT    0x1003
  34:input.c       **** #define ESC_RIGHT   0x1004
  35:input.c       **** 
  36:input.c       **** struct escape_sequence {
  37:input.c       ****     char *seq;
  38:input.c       ****     int  val;
  39:input.c       **** };
  40:input.c       **** 
  41:input.c       **** const struct escape_sequence escapes[] = {
  42:input.c       ****     { "\x1b[A", ESC_UP },
  43:input.c       ****     { "\x1b[B", ESC_DOWN },
  44:input.c       ****     { "\x1b[C", ESC_LEFT },
  45:input.c       ****     { "\x1b[D", ESC_RIGHT },
  46:input.c       ****     { NULL, 0 }
  47:input.c       **** };
  48:input.c       **** 
  49:input.c       **** /**
  50:input.c       ****  * See if the current escape sequence is valid, and potentially complete
  51:input.c       ****  * we return 0 for valid but not complete, -1 for invalid, or the value
  52:input.c       ****  * if valid.
  53:input.c       ****  */
  54:input.c       **** 
  55:input.c       **** int valid_escape(uint8_t *buf, unsigned int len) {
  84              		.loc 1 55 0
  85              		.cfi_startproc
  86              		@ args = 0, pretend = 0, frame = 16
  87              		@ frame_needed = 1, uses_anonymous_args = 0
  88 0000 80B5     		push	{r7, lr}
  89              		.cfi_def_cfa_offset 8
  90              		.cfi_offset 7, -8
  91              		.cfi_offset 14, -4
  92 0002 84B0     		sub	sp, sp, #16
  93              		.cfi_def_cfa_offset 24
  94 0004 00AF     		add	r7, sp, #0
  95              		.cfi_def_cfa_register 7
  96 0006 7860     		str	r0, [r7, #4]
  97 0008 3960     		str	r1, [r7]
  56:input.c       ****     unsigned int i = 0;
  98              		.loc 1 56 0
  99 000a 0023     		movs	r3, #0
 100 000c FB60     		str	r3, [r7, #12]
  57:input.c       ****     
  58:input.c       ****     while(escapes[i].val != 0) {
 101              		.loc 1 58 0
 102 000e 21E0     		b	.L2
 103              	.L6:
  59:input.c       ****         if (memcmp(escapes[i].seq, buf, len) == 0) {
 104              		.loc 1 59 0
 105 0010 174B     		ldr	r3, .L7
 106 0012 FA68     		ldr	r2, [r7, #12]
 107 0014 D200     		lsls	r2, r2, #3
 108 0016 D358     		ldr	r3, [r2, r3]
 109 0018 3A68     		ldr	r2, [r7]
 110 001a 7968     		ldr	r1, [r7, #4]
 111 001c 1800     		movs	r0, r3
 112 001e FFF7FEFF 		bl	memcmp
ARM GAS  C:\Users\essele\AppData\Local\Temp\ccyS5Pdr.s 			page 4


 113 0022 031E     		subs	r3, r0, #0
 114 0024 13D1     		bne	.L3
  60:input.c       ****             if (strlen(escapes[i].seq) == len) {
 115              		.loc 1 60 0
 116 0026 124B     		ldr	r3, .L7
 117 0028 FA68     		ldr	r2, [r7, #12]
 118 002a D200     		lsls	r2, r2, #3
 119 002c D358     		ldr	r3, [r2, r3]
 120 002e 1800     		movs	r0, r3
 121 0030 FFF7FEFF 		bl	strlen
 122 0034 0200     		movs	r2, r0
 123 0036 3B68     		ldr	r3, [r7]
 124 0038 9A42     		cmp	r2, r3
 125 003a 06D1     		bne	.L4
  61:input.c       ****                 return escapes[i].val;
 126              		.loc 1 61 0
 127 003c 0C4A     		ldr	r2, .L7
 128 003e FB68     		ldr	r3, [r7, #12]
 129 0040 DB00     		lsls	r3, r3, #3
 130 0042 D318     		adds	r3, r2, r3
 131 0044 0433     		adds	r3, r3, #4
 132 0046 1B68     		ldr	r3, [r3]
 133 0048 0EE0     		b	.L5
 134              	.L4:
  62:input.c       ****             } else {
  63:input.c       ****                 return 0;
 135              		.loc 1 63 0
 136 004a 0023     		movs	r3, #0
 137 004c 0CE0     		b	.L5
 138              	.L3:
  64:input.c       ****             }
  65:input.c       ****         }
  66:input.c       ****         i++;
 139              		.loc 1 66 0
 140 004e FB68     		ldr	r3, [r7, #12]
 141 0050 0133     		adds	r3, r3, #1
 142 0052 FB60     		str	r3, [r7, #12]
 143              	.L2:
  58:input.c       ****         if (memcmp(escapes[i].seq, buf, len) == 0) {
 144              		.loc 1 58 0
 145 0054 064A     		ldr	r2, .L7
 146 0056 FB68     		ldr	r3, [r7, #12]
 147 0058 DB00     		lsls	r3, r3, #3
 148 005a D318     		adds	r3, r2, r3
 149 005c 0433     		adds	r3, r3, #4
 150 005e 1B68     		ldr	r3, [r3]
 151 0060 002B     		cmp	r3, #0
 152 0062 D5D1     		bne	.L6
  67:input.c       ****     }
  68:input.c       ****     // No match at all
  69:input.c       ****     return -1;
 153              		.loc 1 69 0
 154 0064 0123     		movs	r3, #1
 155 0066 5B42     		rsbs	r3, r3, #0
 156              	.L5:
  70:input.c       **** }
 157              		.loc 1 70 0
ARM GAS  C:\Users\essele\AppData\Local\Temp\ccyS5Pdr.s 			page 5


 158 0068 1800     		movs	r0, r3
 159 006a BD46     		mov	sp, r7
 160 006c 04B0     		add	sp, sp, #16
 161              		@ sp needed
 162 006e 80BD     		pop	{r7, pc}
 163              	.L8:
 164              		.align	2
 165              	.L7:
 166 0070 00000000 		.word	escapes
 167              		.cfi_endproc
 168              	.LFE35:
 169              		.size	valid_escape, .-valid_escape
 170              		.section	.rodata
 171              		.align	2
 172              	.LC7:
 173 0038 79617567 		.ascii	"yaugi> \000"
 173      693E2000 
 174              		.section	.text.input_start,"ax",%progbits
 175              		.align	2
 176              		.global	input_start
 177              		.code	16
 178              		.thumb_func
 179              		.type	input_start, %function
 180              	input_start:
 181              	.LFB36:
  71:input.c       **** 
  72:input.c       **** /**
  73:input.c       ****  * Called when we need to start the input of a new line, just cleans up
  74:input.c       ****  * and shows the prompt
  75:input.c       ****  */
  76:input.c       **** void input_start() {
 182              		.loc 1 76 0
 183              		.cfi_startproc
 184              		@ args = 0, pretend = 0, frame = 0
 185              		@ frame_needed = 1, uses_anonymous_args = 0
 186 0000 80B5     		push	{r7, lr}
 187              		.cfi_def_cfa_offset 8
 188              		.cfi_offset 7, -8
 189              		.cfi_offset 14, -4
 190 0002 00AF     		add	r7, sp, #0
 191              		.cfi_def_cfa_register 7
  77:input.c       ****     input_buf[0] = 0;
 192              		.loc 1 77 0
 193 0004 074B     		ldr	r3, .L10
 194 0006 0022     		movs	r2, #0
 195 0008 1A70     		strb	r2, [r3]
  78:input.c       ****     input_buf_len = 0;
 196              		.loc 1 78 0
 197 000a 074B     		ldr	r3, .L10+4
 198 000c 0022     		movs	r2, #0
 199 000e 1A60     		str	r2, [r3]
  79:input.c       ****     serial_add_string(PROMPT);
 200              		.loc 1 79 0
 201 0010 064B     		ldr	r3, .L10+8
 202 0012 1800     		movs	r0, r3
 203 0014 FFF7FEFF 		bl	serial_add_string
  80:input.c       ****     serial_flush();
ARM GAS  C:\Users\essele\AppData\Local\Temp\ccyS5Pdr.s 			page 6


 204              		.loc 1 80 0
 205 0018 FFF7FEFF 		bl	serial_flush
  81:input.c       **** }
 206              		.loc 1 81 0
 207 001c C046     		nop
 208 001e BD46     		mov	sp, r7
 209              		@ sp needed
 210 0020 80BD     		pop	{r7, pc}
 211              	.L11:
 212 0022 C046     		.align	2
 213              	.L10:
 214 0024 00000000 		.word	input_buf
 215 0028 00000000 		.word	input_buf_len
 216 002c 38000000 		.word	.LC7
 217              		.cfi_endproc
 218              	.LFE36:
 219              		.size	input_start, .-input_start
 220              		.section	.text.input_getbuffer,"ax",%progbits
 221              		.align	2
 222              		.global	input_getbuffer
 223              		.code	16
 224              		.thumb_func
 225              		.type	input_getbuffer, %function
 226              	input_getbuffer:
 227              	.LFB37:
  82:input.c       **** 
  83:input.c       **** /**
  84:input.c       ****  * Allow access to the input buffer
  85:input.c       ****  */
  86:input.c       **** uint8_t *input_getbuffer() {
 228              		.loc 1 86 0
 229              		.cfi_startproc
 230              		@ args = 0, pretend = 0, frame = 0
 231              		@ frame_needed = 1, uses_anonymous_args = 0
 232 0000 80B5     		push	{r7, lr}
 233              		.cfi_def_cfa_offset 8
 234              		.cfi_offset 7, -8
 235              		.cfi_offset 14, -4
 236 0002 00AF     		add	r7, sp, #0
 237              		.cfi_def_cfa_register 7
  87:input.c       ****     return input_buf;
 238              		.loc 1 87 0
 239 0004 014B     		ldr	r3, .L14
  88:input.c       **** }
 240              		.loc 1 88 0
 241 0006 1800     		movs	r0, r3
 242 0008 BD46     		mov	sp, r7
 243              		@ sp needed
 244 000a 80BD     		pop	{r7, pc}
 245              	.L15:
 246              		.align	2
 247              	.L14:
 248 000c 00000000 		.word	input_buf
 249              		.cfi_endproc
 250              	.LFE37:
 251              		.size	input_getbuffer, .-input_getbuffer
 252              		.section	.text.input_getlength,"ax",%progbits
ARM GAS  C:\Users\essele\AppData\Local\Temp\ccyS5Pdr.s 			page 7


 253              		.align	2
 254              		.global	input_getlength
 255              		.code	16
 256              		.thumb_func
 257              		.type	input_getlength, %function
 258              	input_getlength:
 259              	.LFB38:
  89:input.c       **** 
  90:input.c       **** unsigned int input_getlength() {
 260              		.loc 1 90 0
 261              		.cfi_startproc
 262              		@ args = 0, pretend = 0, frame = 0
 263              		@ frame_needed = 1, uses_anonymous_args = 0
 264 0000 80B5     		push	{r7, lr}
 265              		.cfi_def_cfa_offset 8
 266              		.cfi_offset 7, -8
 267              		.cfi_offset 14, -4
 268 0002 00AF     		add	r7, sp, #0
 269              		.cfi_def_cfa_register 7
  91:input.c       ****     return input_buf_len;
 270              		.loc 1 91 0
 271 0004 024B     		ldr	r3, .L18
 272 0006 1B68     		ldr	r3, [r3]
  92:input.c       **** }
 273              		.loc 1 92 0
 274 0008 1800     		movs	r0, r3
 275 000a BD46     		mov	sp, r7
 276              		@ sp needed
 277 000c 80BD     		pop	{r7, pc}
 278              	.L19:
 279 000e C046     		.align	2
 280              	.L18:
 281 0010 00000000 		.word	input_buf_len
 282              		.cfi_endproc
 283              	.LFE38:
 284              		.size	input_getlength, .-input_getlength
 285              		.section	.rodata
 286              		.align	2
 287              	.LC14:
 288 0040 7F00     		.ascii	"\177\000"
 289 0042 0000     		.align	2
 290              	.LC16:
 291 0044 08200800 		.ascii	"\010 \010\000"
 292              		.align	2
 293              	.LC19:
 294 0048 0D0A00   		.ascii	"\015\012\000"
 295 004b 00       		.align	2
 296              	.LC23:
 297 004c 0D1B5B4B 		.ascii	"\015\033[K\000"
 297      00
 298              		.section	.text.input_data,"ax",%progbits
 299              		.align	2
 300              		.global	input_data
 301              		.code	16
 302              		.thumb_func
 303              		.type	input_data, %function
 304              	input_data:
ARM GAS  C:\Users\essele\AppData\Local\Temp\ccyS5Pdr.s 			page 8


 305              	.LFB39:
  93:input.c       **** 
  94:input.c       **** /**
  95:input.c       ****  * Handles incoming serial data, processes interactive stuff and then returns
  96:input.c       ****  * 1 when we are ready with the line, or 0 otherwise.
  97:input.c       ****  */
  98:input.c       **** int input_data() {
 306              		.loc 1 98 0
 307              		.cfi_startproc
 308              		@ args = 0, pretend = 0, frame = 8
 309              		@ frame_needed = 1, uses_anonymous_args = 0
 310 0000 80B5     		push	{r7, lr}
 311              		.cfi_def_cfa_offset 8
 312              		.cfi_offset 7, -8
 313              		.cfi_offset 14, -4
 314 0002 82B0     		sub	sp, sp, #8
 315              		.cfi_def_cfa_offset 16
 316 0004 00AF     		add	r7, sp, #0
 317              		.cfi_def_cfa_register 7
  99:input.c       ****     int c = serial_getbyte();
 318              		.loc 1 99 0
 319 0006 FFF7FEFF 		bl	serial_getbyte
 320 000a 0300     		movs	r3, r0
 321 000c 7B60     		str	r3, [r7, #4]
 100:input.c       ****     
 101:input.c       ****     // First check if we are in the middle of an escape sequence...
 102:input.c       ****     if (escape) {
 322              		.loc 1 102 0
 323 000e 5F4B     		ldr	r3, .L43
 324 0010 1B68     		ldr	r3, [r3]
 325 0012 002B     		cmp	r3, #0
 326 0014 24D0     		beq	.L21
 103:input.c       ****         esc_buf[escape++] = c;
 327              		.loc 1 103 0
 328 0016 5D4B     		ldr	r3, .L43
 329 0018 1B68     		ldr	r3, [r3]
 330 001a 591C     		adds	r1, r3, #1
 331 001c 5B4A     		ldr	r2, .L43
 332 001e 1160     		str	r1, [r2]
 333 0020 7A68     		ldr	r2, [r7, #4]
 334 0022 D1B2     		uxtb	r1, r2
 335 0024 5A4A     		ldr	r2, .L43+4
 336 0026 D154     		strb	r1, [r2, r3]
 104:input.c       ****         
 105:input.c       ****         c = valid_escape(esc_buf, escape);
 337              		.loc 1 105 0
 338 0028 584B     		ldr	r3, .L43
 339 002a 1B68     		ldr	r3, [r3]
 340 002c 1A00     		movs	r2, r3
 341 002e 584B     		ldr	r3, .L43+4
 342 0030 1100     		movs	r1, r2
 343 0032 1800     		movs	r0, r3
 344 0034 FFF7FEFF 		bl	valid_escape
 345 0038 0300     		movs	r3, r0
 346 003a 7B60     		str	r3, [r7, #4]
 106:input.c       ****         if (c == -1) {
 347              		.loc 1 106 0
ARM GAS  C:\Users\essele\AppData\Local\Temp\ccyS5Pdr.s 			page 9


 348 003c 7B68     		ldr	r3, [r7, #4]
 349 003e 0133     		adds	r3, r3, #1
 350 0040 05D1     		bne	.L22
 107:input.c       ****             // Not valid... we'll translate into a '?'
 108:input.c       ****             c = '?';
 351              		.loc 1 108 0
 352 0042 3F23     		movs	r3, #63
 353 0044 7B60     		str	r3, [r7, #4]
 109:input.c       ****             escape = 0;
 354              		.loc 1 109 0
 355 0046 514B     		ldr	r3, .L43
 356 0048 0022     		movs	r2, #0
 357 004a 1A60     		str	r2, [r3]
 358 004c 08E0     		b	.L21
 359              	.L22:
 110:input.c       ****         } else if (c != 0) {
 360              		.loc 1 110 0
 361 004e 7B68     		ldr	r3, [r7, #4]
 362 0050 002B     		cmp	r3, #0
 363 0052 03D0     		beq	.L23
 111:input.c       ****             // Must be a complete one...
 112:input.c       ****             escape = 0;
 364              		.loc 1 112 0
 365 0054 4D4B     		ldr	r3, .L43
 366 0056 0022     		movs	r2, #0
 367 0058 1A60     		str	r2, [r3]
 368 005a 01E0     		b	.L21
 369              	.L23:
 113:input.c       ****         } else {
 114:input.c       ****             // Partial match ... do nothing more
 115:input.c       ****             return 0;
 370              		.loc 1 115 0
 371 005c 0023     		movs	r3, #0
 372 005e 91E0     		b	.L39
 373              	.L21:
 116:input.c       ****         }
 117:input.c       ****     }
 118:input.c       ****     
 119:input.c       ****     // Now we can process incoming keys/data...
 120:input.c       ****     switch(c) {
 374              		.loc 1 120 0
 375 0060 7B68     		ldr	r3, [r7, #4]
 376 0062 1B2B     		cmp	r3, #27
 377 0064 15D0     		beq	.L26
 378 0066 07DC     		bgt	.L27
 379 0068 0A2B     		cmp	r3, #10
 380 006a 00D1     		bne	.LCB251
 381 006c 84E0     		b	.L40	@long jump
 382              	.LCB251:
 383 006e 0D2B     		cmp	r3, #13
 384 0070 36D0     		beq	.L29
 385 0072 082B     		cmp	r3, #8
 386 0074 24D0     		beq	.L30
 387 0076 6EE0     		b	.L25
 388              	.L27:
 389 0078 464A     		ldr	r2, .L43+8
 390 007a 9342     		cmp	r3, r2
ARM GAS  C:\Users\essele\AppData\Local\Temp\ccyS5Pdr.s 			page 10


 391 007c 4DD0     		beq	.L31
 392 007e 454A     		ldr	r2, .L43+8
 393 0080 9342     		cmp	r3, r2
 394 0082 02DC     		bgt	.L32
 395 0084 7F2B     		cmp	r3, #127
 396 0086 0BD0     		beq	.L33
 397 0088 65E0     		b	.L25
 398              	.L32:
 399 008a 434A     		ldr	r2, .L43+12
 400 008c 9342     		cmp	r3, r2
 401 008e 62DC     		bgt	.L25
 121:input.c       ****         case 0x1b:      // Escape
 122:input.c       ****                         esc_buf[0] = 0x1b;
 123:input.c       ****                         escape = 1;
 124:input.c       ****                         break;
 125:input.c       ****                         
 126:input.c       ****         case 0x7f:      // Backspace
 127:input.c       ****                         if (input_buf_len > 0) {
 128:input.c       ****                             input_buf_len--;
 129:input.c       ****                             serial_add_string("\x7f");
 130:input.c       ****                             serial_flush();
 131:input.c       ****                         }
 132:input.c       ****                         break;
 133:input.c       **** 
 134:input.c       ****         case 0x08:      // Delete
 135:input.c       ****                         if (input_buf_len > 0) {
 136:input.c       ****                             input_buf_len--;
 137:input.c       ****                             serial_add_string("\x08 \x08");
 138:input.c       ****                             serial_flush();
 139:input.c       ****                         }
 140:input.c       ****                         break;
 141:input.c       ****                         
 142:input.c       ****         case '\n':      // Newline, just ignore
 143:input.c       ****                         break;
 144:input.c       ****                         
 145:input.c       ****         case '\r':      // Carriage return, end of line...
 146:input.c       ****                         input_buf[input_buf_len] = 0;
 147:input.c       ****                         serial_add_string("\r\n");
 148:input.c       ****                         serial_flush();
 149:input.c       ****                         
 150:input.c       ****                         // Keep the last command (if there was one)
 151:input.c       ****                         if (input_buf_len > 0) {
 152:input.c       ****                             memcpy(last_buf, input_buf, input_buf_len);
 153:input.c       ****                             last_buf_len = input_buf_len;
 154:input.c       ****                         }
 155:input.c       ****                         return 1;
 156:input.c       ****                         break;
 157:input.c       ****                         
 158:input.c       ****         case ESC_UP:    // Recall the last buffer
 159:input.c       ****                         memcpy(input_buf, last_buf, last_buf_len);
 160:input.c       ****                         input_buf_len = last_buf_len;
 161:input.c       ****                         
 162:input.c       ****                         // Clear the line, redraw the prompt and the line
 163:input.c       ****                         serial_add_string("\r\x1b[K");
 164:input.c       ****                         serial_add_string(PROMPT);
 165:input.c       ****                         serial_add(input_buf, input_buf_len);
 166:input.c       ****                         serial_flush();
ARM GAS  C:\Users\essele\AppData\Local\Temp\ccyS5Pdr.s 			page 11


 167:input.c       ****                         break;
 168:input.c       ****                         
 169:input.c       ****         case ESC_DOWN:
 170:input.c       ****         case ESC_LEFT:
 171:input.c       ****         case ESC_RIGHT:
 172:input.c       ****                         break;
 402              		.loc 1 172 0
 403 0090 77E0     		b	.L35
 404              	.L26:
 122:input.c       ****                         escape = 1;
 405              		.loc 1 122 0
 406 0092 3F4B     		ldr	r3, .L43+4
 407 0094 1B22     		movs	r2, #27
 408 0096 1A70     		strb	r2, [r3]
 123:input.c       ****                         break;
 409              		.loc 1 123 0
 410 0098 3C4B     		ldr	r3, .L43
 411 009a 0122     		movs	r2, #1
 412 009c 1A60     		str	r2, [r3]
 124:input.c       ****                         
 413              		.loc 1 124 0
 414 009e 70E0     		b	.L35
 415              	.L33:
 127:input.c       ****                             input_buf_len--;
 416              		.loc 1 127 0
 417 00a0 3E4B     		ldr	r3, .L43+16
 418 00a2 1B68     		ldr	r3, [r3]
 419 00a4 002B     		cmp	r3, #0
 420 00a6 69DD     		ble	.L41
 128:input.c       ****                             serial_add_string("\x7f");
 421              		.loc 1 128 0
 422 00a8 3C4B     		ldr	r3, .L43+16
 423 00aa 1B68     		ldr	r3, [r3]
 424 00ac 5A1E     		subs	r2, r3, #1
 425 00ae 3B4B     		ldr	r3, .L43+16
 426 00b0 1A60     		str	r2, [r3]
 129:input.c       ****                             serial_flush();
 427              		.loc 1 129 0
 428 00b2 3B4B     		ldr	r3, .L43+20
 429 00b4 1800     		movs	r0, r3
 430 00b6 FFF7FEFF 		bl	serial_add_string
 130:input.c       ****                         }
 431              		.loc 1 130 0
 432 00ba FFF7FEFF 		bl	serial_flush
 132:input.c       **** 
 433              		.loc 1 132 0
 434 00be 5DE0     		b	.L41
 435              	.L30:
 135:input.c       ****                             input_buf_len--;
 436              		.loc 1 135 0
 437 00c0 364B     		ldr	r3, .L43+16
 438 00c2 1B68     		ldr	r3, [r3]
 439 00c4 002B     		cmp	r3, #0
 440 00c6 5BDD     		ble	.L42
 136:input.c       ****                             serial_add_string("\x08 \x08");
 441              		.loc 1 136 0
 442 00c8 344B     		ldr	r3, .L43+16
ARM GAS  C:\Users\essele\AppData\Local\Temp\ccyS5Pdr.s 			page 12


 443 00ca 1B68     		ldr	r3, [r3]
 444 00cc 5A1E     		subs	r2, r3, #1
 445 00ce 334B     		ldr	r3, .L43+16
 446 00d0 1A60     		str	r2, [r3]
 137:input.c       ****                             serial_flush();
 447              		.loc 1 137 0
 448 00d2 344B     		ldr	r3, .L43+24
 449 00d4 1800     		movs	r0, r3
 450 00d6 FFF7FEFF 		bl	serial_add_string
 138:input.c       ****                         }
 451              		.loc 1 138 0
 452 00da FFF7FEFF 		bl	serial_flush
 140:input.c       ****                         
 453              		.loc 1 140 0
 454 00de 4FE0     		b	.L42
 455              	.L29:
 146:input.c       ****                         serial_add_string("\r\n");
 456              		.loc 1 146 0
 457 00e0 2E4B     		ldr	r3, .L43+16
 458 00e2 1B68     		ldr	r3, [r3]
 459 00e4 304A     		ldr	r2, .L43+28
 460 00e6 0021     		movs	r1, #0
 461 00e8 D154     		strb	r1, [r2, r3]
 147:input.c       ****                         serial_flush();
 462              		.loc 1 147 0
 463 00ea 304B     		ldr	r3, .L43+32
 464 00ec 1800     		movs	r0, r3
 465 00ee FFF7FEFF 		bl	serial_add_string
 148:input.c       ****                         
 466              		.loc 1 148 0
 467 00f2 FFF7FEFF 		bl	serial_flush
 151:input.c       ****                             memcpy(last_buf, input_buf, input_buf_len);
 468              		.loc 1 151 0
 469 00f6 294B     		ldr	r3, .L43+16
 470 00f8 1B68     		ldr	r3, [r3]
 471 00fa 002B     		cmp	r3, #0
 472 00fc 0BDD     		ble	.L38
 152:input.c       ****                             last_buf_len = input_buf_len;
 473              		.loc 1 152 0
 474 00fe 274B     		ldr	r3, .L43+16
 475 0100 1B68     		ldr	r3, [r3]
 476 0102 1A00     		movs	r2, r3
 477 0104 2849     		ldr	r1, .L43+28
 478 0106 2A4B     		ldr	r3, .L43+36
 479 0108 1800     		movs	r0, r3
 480 010a FFF7FEFF 		bl	memcpy
 153:input.c       ****                         }
 481              		.loc 1 153 0
 482 010e 234B     		ldr	r3, .L43+16
 483 0110 1A68     		ldr	r2, [r3]
 484 0112 284B     		ldr	r3, .L43+40
 485 0114 1A60     		str	r2, [r3]
 486              	.L38:
 155:input.c       ****                         break;
 487              		.loc 1 155 0
 488 0116 0123     		movs	r3, #1
 489 0118 34E0     		b	.L39
ARM GAS  C:\Users\essele\AppData\Local\Temp\ccyS5Pdr.s 			page 13


 490              	.L31:
 159:input.c       ****                         input_buf_len = last_buf_len;
 491              		.loc 1 159 0
 492 011a 264B     		ldr	r3, .L43+40
 493 011c 1B68     		ldr	r3, [r3]
 494 011e 1A00     		movs	r2, r3
 495 0120 2349     		ldr	r1, .L43+36
 496 0122 214B     		ldr	r3, .L43+28
 497 0124 1800     		movs	r0, r3
 498 0126 FFF7FEFF 		bl	memcpy
 160:input.c       ****                         
 499              		.loc 1 160 0
 500 012a 224B     		ldr	r3, .L43+40
 501 012c 1A68     		ldr	r2, [r3]
 502 012e 1B4B     		ldr	r3, .L43+16
 503 0130 1A60     		str	r2, [r3]
 163:input.c       ****                         serial_add_string(PROMPT);
 504              		.loc 1 163 0
 505 0132 214B     		ldr	r3, .L43+44
 506 0134 1800     		movs	r0, r3
 507 0136 FFF7FEFF 		bl	serial_add_string
 164:input.c       ****                         serial_add(input_buf, input_buf_len);
 508              		.loc 1 164 0
 509 013a 204B     		ldr	r3, .L43+48
 510 013c 1800     		movs	r0, r3
 511 013e FFF7FEFF 		bl	serial_add_string
 165:input.c       ****                         serial_flush();
 512              		.loc 1 165 0
 513 0142 164B     		ldr	r3, .L43+16
 514 0144 1A68     		ldr	r2, [r3]
 515 0146 184B     		ldr	r3, .L43+28
 516 0148 1100     		movs	r1, r2
 517 014a 1800     		movs	r0, r3
 518 014c FFF7FEFF 		bl	serial_add
 166:input.c       ****                         break;
 519              		.loc 1 166 0
 520 0150 FFF7FEFF 		bl	serial_flush
 167:input.c       ****                         
 521              		.loc 1 167 0
 522 0154 15E0     		b	.L35
 523              	.L25:
 173:input.c       ****     
 174:input.c       ****         default:        // Normal character
 175:input.c       ****                         input_buf[input_buf_len++] = c;
 524              		.loc 1 175 0
 525 0156 114B     		ldr	r3, .L43+16
 526 0158 1B68     		ldr	r3, [r3]
 527 015a 591C     		adds	r1, r3, #1
 528 015c 0F4A     		ldr	r2, .L43+16
 529 015e 1160     		str	r1, [r2]
 530 0160 7A68     		ldr	r2, [r7, #4]
 531 0162 D1B2     		uxtb	r1, r2
 532 0164 104A     		ldr	r2, .L43+28
 533 0166 D154     		strb	r1, [r2, r3]
 176:input.c       ****                         serial_add((uint8_t *)&c, 1);
 534              		.loc 1 176 0
 535 0168 3B1D     		adds	r3, r7, #4
ARM GAS  C:\Users\essele\AppData\Local\Temp\ccyS5Pdr.s 			page 14


 536 016a 0121     		movs	r1, #1
 537 016c 1800     		movs	r0, r3
 538 016e FFF7FEFF 		bl	serial_add
 177:input.c       ****                         serial_flush();
 539              		.loc 1 177 0
 540 0172 FFF7FEFF 		bl	serial_flush
 178:input.c       ****                         break;
 541              		.loc 1 178 0
 542 0176 04E0     		b	.L35
 543              	.L40:
 143:input.c       ****                         
 544              		.loc 1 143 0
 545 0178 C046     		nop
 546 017a 02E0     		b	.L35
 547              	.L41:
 132:input.c       **** 
 548              		.loc 1 132 0
 549 017c C046     		nop
 550 017e 00E0     		b	.L35
 551              	.L42:
 140:input.c       ****                         
 552              		.loc 1 140 0
 553 0180 C046     		nop
 554              	.L35:
 179:input.c       **** 
 180:input.c       ****     }
 181:input.c       ****     return 0;
 555              		.loc 1 181 0
 556 0182 0023     		movs	r3, #0
 557              	.L39:
 182:input.c       **** }
 558              		.loc 1 182 0 discriminator 1
 559 0184 1800     		movs	r0, r3
 560 0186 BD46     		mov	sp, r7
 561 0188 02B0     		add	sp, sp, #8
 562              		@ sp needed
 563 018a 80BD     		pop	{r7, pc}
 564              	.L44:
 565              		.align	2
 566              	.L43:
 567 018c 00000000 		.word	escape
 568 0190 00000000 		.word	esc_buf
 569 0194 01100000 		.word	4097
 570 0198 04100000 		.word	4100
 571 019c 00000000 		.word	input_buf_len
 572 01a0 40000000 		.word	.LC14
 573 01a4 44000000 		.word	.LC16
 574 01a8 00000000 		.word	input_buf
 575 01ac 48000000 		.word	.LC19
 576 01b0 00000000 		.word	last_buf
 577 01b4 00000000 		.word	last_buf_len
 578 01b8 4C000000 		.word	.LC23
 579 01bc 38000000 		.word	.LC7
 580              		.cfi_endproc
 581              	.LFE39:
 582              		.size	input_data, .-input_data
 583              		.section	.text.input_printf,"ax",%progbits
ARM GAS  C:\Users\essele\AppData\Local\Temp\ccyS5Pdr.s 			page 15


 584              		.align	2
 585              		.global	input_printf
 586              		.code	16
 587              		.thumb_func
 588              		.type	input_printf, %function
 589              	input_printf:
 590              	.LFB40:
 183:input.c       **** 
 184:input.c       **** /**
 185:input.c       ****  * If we need to show some output then we need to clear the line, send the output and
 186:input.c       ****  * then recreate the state on the following line.
 187:input.c       ****  *
 188:input.c       ****  * Two ways of doing this...
 189:input.c       ****  */
 190:input.c       **** void input_printf(char *fmt, ...) {
 591              		.loc 1 190 0
 592              		.cfi_startproc
 593              		@ args = 4, pretend = 16, frame = 8
 594              		@ frame_needed = 1, uses_anonymous_args = 1
 595 0000 0FB4     		push	{r0, r1, r2, r3}
 596              		.cfi_def_cfa_offset 16
 597 0002 80B5     		push	{r7, lr}
 598              		.cfi_def_cfa_offset 24
 599              		.cfi_offset 7, -24
 600              		.cfi_offset 14, -20
 601 0004 82B0     		sub	sp, sp, #8
 602              		.cfi_def_cfa_offset 32
 603 0006 00AF     		add	r7, sp, #0
 604              		.cfi_def_cfa_register 7
 191:input.c       ****     
 192:input.c       ****     va_list args;
 193:input.c       ****     va_start(args, fmt);
 605              		.loc 1 193 0
 606 0008 1423     		movs	r3, #20
 607 000a FB18     		adds	r3, r7, r3
 608 000c 7B60     		str	r3, [r7, #4]
 194:input.c       **** 
 195:input.c       ****     serial_add_string("\r\x1b[K");
 609              		.loc 1 195 0
 610 000e 124B     		ldr	r3, .L46
 611 0010 1800     		movs	r0, r3
 612 0012 FFF7FEFF 		bl	serial_add_string
 196:input.c       ****     serial_vprintf(fmt, args);
 613              		.loc 1 196 0
 614 0016 7A68     		ldr	r2, [r7, #4]
 615 0018 3B69     		ldr	r3, [r7, #16]
 616 001a 1100     		movs	r1, r2
 617 001c 1800     		movs	r0, r3
 618 001e FFF7FEFF 		bl	serial_vprintf
 197:input.c       ****     serial_add_string("\r\n");
 619              		.loc 1 197 0
 620 0022 0E4B     		ldr	r3, .L46+4
 621 0024 1800     		movs	r0, r3
 622 0026 FFF7FEFF 		bl	serial_add_string
 198:input.c       ****     serial_add_string(PROMPT);
 623              		.loc 1 198 0
 624 002a 0D4B     		ldr	r3, .L46+8
ARM GAS  C:\Users\essele\AppData\Local\Temp\ccyS5Pdr.s 			page 16


 625 002c 1800     		movs	r0, r3
 626 002e FFF7FEFF 		bl	serial_add_string
 199:input.c       ****     serial_add(input_buf, input_buf_len);
 627              		.loc 1 199 0
 628 0032 0C4B     		ldr	r3, .L46+12
 629 0034 1A68     		ldr	r2, [r3]
 630 0036 0C4B     		ldr	r3, .L46+16
 631 0038 1100     		movs	r1, r2
 632 003a 1800     		movs	r0, r3
 633 003c FFF7FEFF 		bl	serial_add
 200:input.c       ****     serial_flush();
 634              		.loc 1 200 0
 635 0040 FFF7FEFF 		bl	serial_flush
 201:input.c       ****     serial_flush();
 636              		.loc 1 201 0
 637 0044 FFF7FEFF 		bl	serial_flush
 202:input.c       **** }
 638              		.loc 1 202 0
 639 0048 C046     		nop
 640 004a BD46     		mov	sp, r7
 641 004c 02B0     		add	sp, sp, #8
 642              		@ sp needed
 643 004e 80BC     		pop	{r7}
 644 0050 08BC     		pop	{r3}
 645 0052 04B0     		add	sp, sp, #16
 646 0054 1847     		bx	r3
 647              	.L47:
 648 0056 C046     		.align	2
 649              	.L46:
 650 0058 4C000000 		.word	.LC23
 651 005c 48000000 		.word	.LC19
 652 0060 38000000 		.word	.LC7
 653 0064 00000000 		.word	input_buf_len
 654 0068 00000000 		.word	input_buf
 655              		.cfi_endproc
 656              	.LFE40:
 657              		.size	input_printf, .-input_printf
 658              		.section	.text.input_show_output,"ax",%progbits
 659              		.align	2
 660              		.global	input_show_output
 661              		.code	16
 662              		.thumb_func
 663              		.type	input_show_output, %function
 664              	input_show_output:
 665              	.LFB41:
 203:input.c       **** 
 204:input.c       **** void input_show_output(uint8_t *output, int len) {
 666              		.loc 1 204 0
 667              		.cfi_startproc
 668              		@ args = 0, pretend = 0, frame = 8
 669              		@ frame_needed = 1, uses_anonymous_args = 0
 670 0000 80B5     		push	{r7, lr}
 671              		.cfi_def_cfa_offset 8
 672              		.cfi_offset 7, -8
 673              		.cfi_offset 14, -4
 674 0002 82B0     		sub	sp, sp, #8
 675              		.cfi_def_cfa_offset 16
ARM GAS  C:\Users\essele\AppData\Local\Temp\ccyS5Pdr.s 			page 17


 676 0004 00AF     		add	r7, sp, #0
 677              		.cfi_def_cfa_register 7
 678 0006 7860     		str	r0, [r7, #4]
 679 0008 3960     		str	r1, [r7]
 205:input.c       ****     serial_add_string("\r\x1b[K");
 680              		.loc 1 205 0
 681 000a 0F4B     		ldr	r3, .L49
 682 000c 1800     		movs	r0, r3
 683 000e FFF7FEFF 		bl	serial_add_string
 206:input.c       ****     serial_add(output, len);
 684              		.loc 1 206 0
 685 0012 3A68     		ldr	r2, [r7]
 686 0014 7B68     		ldr	r3, [r7, #4]
 687 0016 1100     		movs	r1, r2
 688 0018 1800     		movs	r0, r3
 689 001a FFF7FEFF 		bl	serial_add
 207:input.c       ****     serial_add_string("\r\n");
 690              		.loc 1 207 0
 691 001e 0B4B     		ldr	r3, .L49+4
 692 0020 1800     		movs	r0, r3
 693 0022 FFF7FEFF 		bl	serial_add_string
 208:input.c       ****     serial_add_string(PROMPT);
 694              		.loc 1 208 0
 695 0026 0A4B     		ldr	r3, .L49+8
 696 0028 1800     		movs	r0, r3
 697 002a FFF7FEFF 		bl	serial_add_string
 209:input.c       ****     serial_add(input_buf, input_buf_len);
 698              		.loc 1 209 0
 699 002e 094B     		ldr	r3, .L49+12
 700 0030 1A68     		ldr	r2, [r3]
 701 0032 094B     		ldr	r3, .L49+16
 702 0034 1100     		movs	r1, r2
 703 0036 1800     		movs	r0, r3
 704 0038 FFF7FEFF 		bl	serial_add
 210:input.c       ****     serial_flush();
 705              		.loc 1 210 0
 706 003c FFF7FEFF 		bl	serial_flush
 211:input.c       **** }
 707              		.loc 1 211 0
 708 0040 C046     		nop
 709 0042 BD46     		mov	sp, r7
 710 0044 02B0     		add	sp, sp, #8
 711              		@ sp needed
 712 0046 80BD     		pop	{r7, pc}
 713              	.L50:
 714              		.align	2
 715              	.L49:
 716 0048 4C000000 		.word	.LC23
 717 004c 48000000 		.word	.LC19
 718 0050 38000000 		.word	.LC7
 719 0054 00000000 		.word	input_buf_len
 720 0058 00000000 		.word	input_buf
 721              		.cfi_endproc
 722              	.LFE41:
 723              		.size	input_show_output, .-input_show_output
 724              		.text
 725              	.Letext0:
ARM GAS  C:\Users\essele\AppData\Local\Temp\ccyS5Pdr.s 			page 18


 726              		.file 2 "c:\\program files (x86)\\cypress\\psoc creator\\4.2\\psoc creator\\import\\gnu\\arm\\5.4.
 727              		.file 3 "c:\\program files (x86)\\cypress\\psoc creator\\4.2\\psoc creator\\import\\gnu\\arm\\5.4.
 728              		.file 4 "c:\\program files (x86)\\cypress\\psoc creator\\4.2\\psoc creator\\import\\gnu\\arm\\5.4.
 729              		.file 5 "<built-in>"