ARM GAS  C:\Users\essele\AppData\Local\Temp\ccZneKWa.s 			page 1


   1              		.syntax unified
   2              		.cpu cortex-m0
   3              		.fpu softvfp
   4              		.eabi_attribute 20, 1
   5              		.eabi_attribute 21, 1
   6              		.eabi_attribute 23, 3
   7              		.eabi_attribute 24, 1
   8              		.eabi_attribute 25, 1
   9              		.eabi_attribute 26, 1
  10              		.eabi_attribute 30, 1
  11              		.eabi_attribute 34, 0
  12              		.eabi_attribute 18, 4
  13              		.thumb
  14              		.syntax unified
  15              		.file	"Port_1.c"
  16              		.text
  17              	.Ltext0:
  18              		.cfi_sections	.debug_frame
  19              		.section	.text.Port_1_SetDriveMode,"ax",%progbits
  20              		.align	2
  21              		.global	Port_1_SetDriveMode
  22              		.code	16
  23              		.thumb_func
  24              		.type	Port_1_SetDriveMode, %function
  25              	Port_1_SetDriveMode:
  26              	.LFB0:
  27              		.file 1 "Generated_Source\\PSoC4\\Port_1.c"
   1:Generated_Source\PSoC4/Port_1.c **** /*******************************************************************************
   2:Generated_Source\PSoC4/Port_1.c **** * File Name: Port_1.c  
   3:Generated_Source\PSoC4/Port_1.c **** * Version 2.20
   4:Generated_Source\PSoC4/Port_1.c **** *
   5:Generated_Source\PSoC4/Port_1.c **** * Description:
   6:Generated_Source\PSoC4/Port_1.c **** *  This file contains API to enable firmware control of a Pins component.
   7:Generated_Source\PSoC4/Port_1.c **** *
   8:Generated_Source\PSoC4/Port_1.c **** ********************************************************************************
   9:Generated_Source\PSoC4/Port_1.c **** * Copyright 2008-2015, Cypress Semiconductor Corporation.  All rights reserved.
  10:Generated_Source\PSoC4/Port_1.c **** * You may use this file only in accordance with the license, terms, conditions, 
  11:Generated_Source\PSoC4/Port_1.c **** * disclaimers, and limitations in the end user license agreement accompanying 
  12:Generated_Source\PSoC4/Port_1.c **** * the software package with which this file was provided.
  13:Generated_Source\PSoC4/Port_1.c **** *******************************************************************************/
  14:Generated_Source\PSoC4/Port_1.c **** 
  15:Generated_Source\PSoC4/Port_1.c **** #include "cytypes.h"
  16:Generated_Source\PSoC4/Port_1.c **** #include "Port_1.h"
  17:Generated_Source\PSoC4/Port_1.c **** 
  18:Generated_Source\PSoC4/Port_1.c **** 
  19:Generated_Source\PSoC4/Port_1.c **** #if defined(Port_1__PC)
  20:Generated_Source\PSoC4/Port_1.c ****     #define Port_1_SetP4PinDriveMode(shift, mode)  \
  21:Generated_Source\PSoC4/Port_1.c ****     do { \
  22:Generated_Source\PSoC4/Port_1.c ****         Port_1_PC =   (Port_1_PC & \
  23:Generated_Source\PSoC4/Port_1.c ****                                 (uint32)(~(uint32)(Port_1_DRIVE_MODE_IND_MASK << \
  24:Generated_Source\PSoC4/Port_1.c ****                                 (Port_1_DRIVE_MODE_BITS * (shift))))) | \
  25:Generated_Source\PSoC4/Port_1.c ****                                 (uint32)((uint32)(mode) << \
  26:Generated_Source\PSoC4/Port_1.c ****                                 (Port_1_DRIVE_MODE_BITS * (shift))); \
  27:Generated_Source\PSoC4/Port_1.c ****     } while (0)
  28:Generated_Source\PSoC4/Port_1.c **** #else
  29:Generated_Source\PSoC4/Port_1.c ****     #if (CY_PSOC4_4200L)
  30:Generated_Source\PSoC4/Port_1.c ****         #define Port_1_SetP4PinDriveMode(shift, mode)  \
ARM GAS  C:\Users\essele\AppData\Local\Temp\ccZneKWa.s 			page 2


  31:Generated_Source\PSoC4/Port_1.c ****         do { \
  32:Generated_Source\PSoC4/Port_1.c ****             Port_1_USBIO_CTRL_REG = (Port_1_USBIO_CTRL_REG & \
  33:Generated_Source\PSoC4/Port_1.c ****                                     (uint32)(~(uint32)(Port_1_DRIVE_MODE_IND_MASK << \
  34:Generated_Source\PSoC4/Port_1.c ****                                     (Port_1_DRIVE_MODE_BITS * (shift))))) | \
  35:Generated_Source\PSoC4/Port_1.c ****                                     (uint32)((uint32)(mode) << \
  36:Generated_Source\PSoC4/Port_1.c ****                                     (Port_1_DRIVE_MODE_BITS * (shift))); \
  37:Generated_Source\PSoC4/Port_1.c ****         } while (0)
  38:Generated_Source\PSoC4/Port_1.c ****     #endif
  39:Generated_Source\PSoC4/Port_1.c **** #endif
  40:Generated_Source\PSoC4/Port_1.c ****   
  41:Generated_Source\PSoC4/Port_1.c **** 
  42:Generated_Source\PSoC4/Port_1.c **** #if defined(Port_1__PC) || (CY_PSOC4_4200L) 
  43:Generated_Source\PSoC4/Port_1.c ****     /*******************************************************************************
  44:Generated_Source\PSoC4/Port_1.c ****     * Function Name: Port_1_SetDriveMode
  45:Generated_Source\PSoC4/Port_1.c ****     ****************************************************************************//**
  46:Generated_Source\PSoC4/Port_1.c ****     *
  47:Generated_Source\PSoC4/Port_1.c ****     * \brief Sets the drive mode for each of the Pins component's pins.
  48:Generated_Source\PSoC4/Port_1.c ****     * 
  49:Generated_Source\PSoC4/Port_1.c ****     * <b>Note</b> This affects all pins in the Pins component instance. Use the
  50:Generated_Source\PSoC4/Port_1.c ****     * Per-Pin APIs if you wish to control individual pin's drive modes.
  51:Generated_Source\PSoC4/Port_1.c ****     *
  52:Generated_Source\PSoC4/Port_1.c ****     * <b>Note</b> USBIOs have limited drive functionality. Refer to the Drive Mode
  53:Generated_Source\PSoC4/Port_1.c ****     * parameter for more information.
  54:Generated_Source\PSoC4/Port_1.c ****     *
  55:Generated_Source\PSoC4/Port_1.c ****     * \param mode
  56:Generated_Source\PSoC4/Port_1.c ****     *  Mode for the selected signals. Valid options are documented in 
  57:Generated_Source\PSoC4/Port_1.c ****     *  \ref driveMode.
  58:Generated_Source\PSoC4/Port_1.c ****     *
  59:Generated_Source\PSoC4/Port_1.c ****     * \return
  60:Generated_Source\PSoC4/Port_1.c ****     *  None
  61:Generated_Source\PSoC4/Port_1.c ****     *
  62:Generated_Source\PSoC4/Port_1.c ****     * \sideeffect
  63:Generated_Source\PSoC4/Port_1.c ****     *  If you use read-modify-write operations that are not atomic, the ISR can
  64:Generated_Source\PSoC4/Port_1.c ****     *  cause corruption of this function. An ISR that interrupts this function 
  65:Generated_Source\PSoC4/Port_1.c ****     *  and performs writes to the Pins component Drive Mode registers can cause 
  66:Generated_Source\PSoC4/Port_1.c ****     *  corrupted port data. To avoid this issue, you should either use the Per-Pin
  67:Generated_Source\PSoC4/Port_1.c ****     *  APIs (primary method) or disable interrupts around this function.
  68:Generated_Source\PSoC4/Port_1.c ****     *
  69:Generated_Source\PSoC4/Port_1.c ****     * \funcusage
  70:Generated_Source\PSoC4/Port_1.c ****     *  \snippet Port_1_SUT.c usage_Port_1_SetDriveMode
  71:Generated_Source\PSoC4/Port_1.c ****     *******************************************************************************/
  72:Generated_Source\PSoC4/Port_1.c ****     void Port_1_SetDriveMode(uint8 mode)
  73:Generated_Source\PSoC4/Port_1.c ****     {
  28              		.loc 1 73 0
  29              		.cfi_startproc
  30              		@ args = 0, pretend = 0, frame = 0
  31              		@ frame_needed = 0, uses_anonymous_args = 0
  32              		@ link register save eliminated.
  33              	.LVL0:
  74:Generated_Source\PSoC4/Port_1.c **** 		Port_1_SetP4PinDriveMode(Port_1__0__SHIFT, mode);
  34              		.loc 1 74 0
  35 0000 184B     		ldr	r3, .L2
  36 0002 1A68     		ldr	r2, [r3]
  37 0004 0721     		movs	r1, #7
  38 0006 8A43     		bics	r2, r1
  39 0008 0243     		orrs	r2, r0
  40 000a 1A60     		str	r2, [r3]
ARM GAS  C:\Users\essele\AppData\Local\Temp\ccZneKWa.s 			page 3


  75:Generated_Source\PSoC4/Port_1.c **** 		Port_1_SetP4PinDriveMode(Port_1__1__SHIFT, mode);
  41              		.loc 1 75 0
  42 000c 1A68     		ldr	r2, [r3]
  43 000e 3131     		adds	r1, r1, #49
  44 0010 8A43     		bics	r2, r1
  45 0012 C100     		lsls	r1, r0, #3
  46 0014 0A43     		orrs	r2, r1
  47 0016 1A60     		str	r2, [r3]
  76:Generated_Source\PSoC4/Port_1.c **** 		Port_1_SetP4PinDriveMode(Port_1__2__SHIFT, mode);
  48              		.loc 1 76 0
  49 0018 1968     		ldr	r1, [r3]
  50 001a 134A     		ldr	r2, .L2+4
  51 001c 0A40     		ands	r2, r1
  52 001e 8101     		lsls	r1, r0, #6
  53 0020 0A43     		orrs	r2, r1
  54 0022 1A60     		str	r2, [r3]
  77:Generated_Source\PSoC4/Port_1.c **** 		Port_1_SetP4PinDriveMode(Port_1__3__SHIFT, mode);
  55              		.loc 1 77 0
  56 0024 1968     		ldr	r1, [r3]
  57 0026 114A     		ldr	r2, .L2+8
  58 0028 0A40     		ands	r2, r1
  59 002a 4102     		lsls	r1, r0, #9
  60 002c 0A43     		orrs	r2, r1
  61 002e 1A60     		str	r2, [r3]
  78:Generated_Source\PSoC4/Port_1.c **** 		Port_1_SetP4PinDriveMode(Port_1__4__SHIFT, mode);
  62              		.loc 1 78 0
  63 0030 1968     		ldr	r1, [r3]
  64 0032 0F4A     		ldr	r2, .L2+12
  65 0034 0A40     		ands	r2, r1
  66 0036 0103     		lsls	r1, r0, #12
  67 0038 0A43     		orrs	r2, r1
  68 003a 1A60     		str	r2, [r3]
  79:Generated_Source\PSoC4/Port_1.c **** 		Port_1_SetP4PinDriveMode(Port_1__5__SHIFT, mode);
  69              		.loc 1 79 0
  70 003c 1968     		ldr	r1, [r3]
  71 003e 0D4A     		ldr	r2, .L2+16
  72 0040 0A40     		ands	r2, r1
  73 0042 C103     		lsls	r1, r0, #15
  74 0044 0A43     		orrs	r2, r1
  75 0046 1A60     		str	r2, [r3]
  80:Generated_Source\PSoC4/Port_1.c **** 		Port_1_SetP4PinDriveMode(Port_1__6__SHIFT, mode);
  76              		.loc 1 80 0
  77 0048 1968     		ldr	r1, [r3]
  78 004a 0B4A     		ldr	r2, .L2+20
  79 004c 0A40     		ands	r2, r1
  80 004e 8104     		lsls	r1, r0, #18
  81 0050 0A43     		orrs	r2, r1
  82 0052 1A60     		str	r2, [r3]
  81:Generated_Source\PSoC4/Port_1.c **** 		Port_1_SetP4PinDriveMode(Port_1__7__SHIFT, mode);
  83              		.loc 1 81 0
  84 0054 1968     		ldr	r1, [r3]
  85 0056 094A     		ldr	r2, .L2+24
  86 0058 0A40     		ands	r2, r1
  87 005a 4005     		lsls	r0, r0, #21
  88              	.LVL1:
  89 005c 1043     		orrs	r0, r2
  90 005e 1860     		str	r0, [r3]
ARM GAS  C:\Users\essele\AppData\Local\Temp\ccZneKWa.s 			page 4


  82:Generated_Source\PSoC4/Port_1.c ****     }
  91              		.loc 1 82 0
  92              		@ sp needed
  93 0060 7047     		bx	lr
  94              	.L3:
  95 0062 C046     		.align	2
  96              	.L2:
  97 0064 08010440 		.word	1074004232
  98 0068 3FFEFFFF 		.word	-449
  99 006c FFF1FFFF 		.word	-3585
 100 0070 FF8FFFFF 		.word	-28673
 101 0074 FF7FFCFF 		.word	-229377
 102 0078 FFFFE3FF 		.word	-1835009
 103 007c FFFF1FFF 		.word	-14680065
 104              		.cfi_endproc
 105              	.LFE0:
 106              		.size	Port_1_SetDriveMode, .-Port_1_SetDriveMode
 107              		.section	.text.Port_1_Write,"ax",%progbits
 108              		.align	2
 109              		.global	Port_1_Write
 110              		.code	16
 111              		.thumb_func
 112              		.type	Port_1_Write, %function
 113              	Port_1_Write:
 114              	.LFB1:
  83:Generated_Source\PSoC4/Port_1.c **** #endif
  84:Generated_Source\PSoC4/Port_1.c **** 
  85:Generated_Source\PSoC4/Port_1.c **** 
  86:Generated_Source\PSoC4/Port_1.c **** /*******************************************************************************
  87:Generated_Source\PSoC4/Port_1.c **** * Function Name: Port_1_Write
  88:Generated_Source\PSoC4/Port_1.c **** ****************************************************************************//**
  89:Generated_Source\PSoC4/Port_1.c **** *
  90:Generated_Source\PSoC4/Port_1.c **** * \brief Writes the value to the physical port (data output register), masking
  91:Generated_Source\PSoC4/Port_1.c **** *  and shifting the bits appropriately. 
  92:Generated_Source\PSoC4/Port_1.c **** *
  93:Generated_Source\PSoC4/Port_1.c **** * The data output register controls the signal applied to the physical pin in 
  94:Generated_Source\PSoC4/Port_1.c **** * conjunction with the drive mode parameter. This function avoids changing 
  95:Generated_Source\PSoC4/Port_1.c **** * other bits in the port by using the appropriate method (read-modify-write or
  96:Generated_Source\PSoC4/Port_1.c **** * bit banding).
  97:Generated_Source\PSoC4/Port_1.c **** *
  98:Generated_Source\PSoC4/Port_1.c **** * <b>Note</b> This function should not be used on a hardware digital output pin 
  99:Generated_Source\PSoC4/Port_1.c **** * as it is driven by the hardware signal attached to it.
 100:Generated_Source\PSoC4/Port_1.c **** *
 101:Generated_Source\PSoC4/Port_1.c **** * \param value
 102:Generated_Source\PSoC4/Port_1.c **** *  Value to write to the component instance.
 103:Generated_Source\PSoC4/Port_1.c **** *
 104:Generated_Source\PSoC4/Port_1.c **** * \return 
 105:Generated_Source\PSoC4/Port_1.c **** *  None 
 106:Generated_Source\PSoC4/Port_1.c **** *
 107:Generated_Source\PSoC4/Port_1.c **** * \sideeffect
 108:Generated_Source\PSoC4/Port_1.c **** *  If you use read-modify-write operations that are not atomic; the Interrupt 
 109:Generated_Source\PSoC4/Port_1.c **** *  Service Routines (ISR) can cause corruption of this function. An ISR that 
 110:Generated_Source\PSoC4/Port_1.c **** *  interrupts this function and performs writes to the Pins component data 
 111:Generated_Source\PSoC4/Port_1.c **** *  register can cause corrupted port data. To avoid this issue, you should 
 112:Generated_Source\PSoC4/Port_1.c **** *  either use the Per-Pin APIs (primary method) or disable interrupts around 
 113:Generated_Source\PSoC4/Port_1.c **** *  this function.
 114:Generated_Source\PSoC4/Port_1.c **** *
ARM GAS  C:\Users\essele\AppData\Local\Temp\ccZneKWa.s 			page 5


 115:Generated_Source\PSoC4/Port_1.c **** * \funcusage
 116:Generated_Source\PSoC4/Port_1.c **** *  \snippet Port_1_SUT.c usage_Port_1_Write
 117:Generated_Source\PSoC4/Port_1.c **** *******************************************************************************/
 118:Generated_Source\PSoC4/Port_1.c **** void Port_1_Write(uint8 value)
 119:Generated_Source\PSoC4/Port_1.c **** {
 115              		.loc 1 119 0
 116              		.cfi_startproc
 117              		@ args = 0, pretend = 0, frame = 0
 118              		@ frame_needed = 0, uses_anonymous_args = 0
 119              		@ link register save eliminated.
 120              	.LVL2:
 120:Generated_Source\PSoC4/Port_1.c ****     uint8 drVal = (uint8)(Port_1_DR & (uint8)(~Port_1_MASK));
 121              		.loc 1 120 0
 122 0000 014B     		ldr	r3, .L5
 123 0002 1A68     		ldr	r2, [r3]
 124              	.LVL3:
 121:Generated_Source\PSoC4/Port_1.c ****     drVal = (drVal | ((uint8)(value << Port_1_SHIFT) & Port_1_MASK));
 122:Generated_Source\PSoC4/Port_1.c ****     Port_1_DR = (uint32)drVal;
 125              		.loc 1 122 0
 126 0004 1860     		str	r0, [r3]
 123:Generated_Source\PSoC4/Port_1.c **** }
 127              		.loc 1 123 0
 128              		@ sp needed
 129 0006 7047     		bx	lr
 130              	.L6:
 131              		.align	2
 132              	.L5:
 133 0008 00010440 		.word	1074004224
 134              		.cfi_endproc
 135              	.LFE1:
 136              		.size	Port_1_Write, .-Port_1_Write
 137              		.section	.text.Port_1_Read,"ax",%progbits
 138              		.align	2
 139              		.global	Port_1_Read
 140              		.code	16
 141              		.thumb_func
 142              		.type	Port_1_Read, %function
 143              	Port_1_Read:
 144              	.LFB2:
 124:Generated_Source\PSoC4/Port_1.c **** 
 125:Generated_Source\PSoC4/Port_1.c **** 
 126:Generated_Source\PSoC4/Port_1.c **** /*******************************************************************************
 127:Generated_Source\PSoC4/Port_1.c **** * Function Name: Port_1_Read
 128:Generated_Source\PSoC4/Port_1.c **** ****************************************************************************//**
 129:Generated_Source\PSoC4/Port_1.c **** *
 130:Generated_Source\PSoC4/Port_1.c **** * \brief Reads the associated physical port (pin status register) and masks 
 131:Generated_Source\PSoC4/Port_1.c **** *  the required bits according to the width and bit position of the component
 132:Generated_Source\PSoC4/Port_1.c **** *  instance. 
 133:Generated_Source\PSoC4/Port_1.c **** *
 134:Generated_Source\PSoC4/Port_1.c **** * The pin's status register returns the current logic level present on the 
 135:Generated_Source\PSoC4/Port_1.c **** * physical pin.
 136:Generated_Source\PSoC4/Port_1.c **** *
 137:Generated_Source\PSoC4/Port_1.c **** * \return 
 138:Generated_Source\PSoC4/Port_1.c **** *  The current value for the pins in the component as a right justified number.
 139:Generated_Source\PSoC4/Port_1.c **** *
 140:Generated_Source\PSoC4/Port_1.c **** * \funcusage
 141:Generated_Source\PSoC4/Port_1.c **** *  \snippet Port_1_SUT.c usage_Port_1_Read  
ARM GAS  C:\Users\essele\AppData\Local\Temp\ccZneKWa.s 			page 6


 142:Generated_Source\PSoC4/Port_1.c **** *******************************************************************************/
 143:Generated_Source\PSoC4/Port_1.c **** uint8 Port_1_Read(void)
 144:Generated_Source\PSoC4/Port_1.c **** {
 145              		.loc 1 144 0
 146              		.cfi_startproc
 147              		@ args = 0, pretend = 0, frame = 0
 148              		@ frame_needed = 0, uses_anonymous_args = 0
 149              		@ link register save eliminated.
 145:Generated_Source\PSoC4/Port_1.c ****     return (uint8)((Port_1_PS & Port_1_MASK) >> Port_1_SHIFT);
 150              		.loc 1 145 0
 151 0000 014B     		ldr	r3, .L8
 152 0002 1868     		ldr	r0, [r3]
 153 0004 C0B2     		uxtb	r0, r0
 146:Generated_Source\PSoC4/Port_1.c **** }
 154              		.loc 1 146 0
 155              		@ sp needed
 156 0006 7047     		bx	lr
 157              	.L9:
 158              		.align	2
 159              	.L8:
 160 0008 04010440 		.word	1074004228
 161              		.cfi_endproc
 162              	.LFE2:
 163              		.size	Port_1_Read, .-Port_1_Read
 164              		.section	.text.Port_1_ReadDataReg,"ax",%progbits
 165              		.align	2
 166              		.global	Port_1_ReadDataReg
 167              		.code	16
 168              		.thumb_func
 169              		.type	Port_1_ReadDataReg, %function
 170              	Port_1_ReadDataReg:
 171              	.LFB3:
 147:Generated_Source\PSoC4/Port_1.c **** 
 148:Generated_Source\PSoC4/Port_1.c **** 
 149:Generated_Source\PSoC4/Port_1.c **** /*******************************************************************************
 150:Generated_Source\PSoC4/Port_1.c **** * Function Name: Port_1_ReadDataReg
 151:Generated_Source\PSoC4/Port_1.c **** ****************************************************************************//**
 152:Generated_Source\PSoC4/Port_1.c **** *
 153:Generated_Source\PSoC4/Port_1.c **** * \brief Reads the associated physical port's data output register and masks 
 154:Generated_Source\PSoC4/Port_1.c **** *  the correct bits according to the width and bit position of the component 
 155:Generated_Source\PSoC4/Port_1.c **** *  instance. 
 156:Generated_Source\PSoC4/Port_1.c **** *
 157:Generated_Source\PSoC4/Port_1.c **** * The data output register controls the signal applied to the physical pin in 
 158:Generated_Source\PSoC4/Port_1.c **** * conjunction with the drive mode parameter. This is not the same as the 
 159:Generated_Source\PSoC4/Port_1.c **** * preferred Port_1_Read() API because the 
 160:Generated_Source\PSoC4/Port_1.c **** * Port_1_ReadDataReg() reads the data register instead of the status 
 161:Generated_Source\PSoC4/Port_1.c **** * register. For output pins this is a useful function to determine the value 
 162:Generated_Source\PSoC4/Port_1.c **** * just written to the pin.
 163:Generated_Source\PSoC4/Port_1.c **** *
 164:Generated_Source\PSoC4/Port_1.c **** * \return 
 165:Generated_Source\PSoC4/Port_1.c **** *  The current value of the data register masked and shifted into a right 
 166:Generated_Source\PSoC4/Port_1.c **** *  justified number for the component instance.
 167:Generated_Source\PSoC4/Port_1.c **** *
 168:Generated_Source\PSoC4/Port_1.c **** * \funcusage
 169:Generated_Source\PSoC4/Port_1.c **** *  \snippet Port_1_SUT.c usage_Port_1_ReadDataReg 
 170:Generated_Source\PSoC4/Port_1.c **** *******************************************************************************/
 171:Generated_Source\PSoC4/Port_1.c **** uint8 Port_1_ReadDataReg(void)
ARM GAS  C:\Users\essele\AppData\Local\Temp\ccZneKWa.s 			page 7


 172:Generated_Source\PSoC4/Port_1.c **** {
 172              		.loc 1 172 0
 173              		.cfi_startproc
 174              		@ args = 0, pretend = 0, frame = 0
 175              		@ frame_needed = 0, uses_anonymous_args = 0
 176              		@ link register save eliminated.
 173:Generated_Source\PSoC4/Port_1.c ****     return (uint8)((Port_1_DR & Port_1_MASK) >> Port_1_SHIFT);
 177              		.loc 1 173 0
 178 0000 014B     		ldr	r3, .L11
 179 0002 1868     		ldr	r0, [r3]
 180 0004 C0B2     		uxtb	r0, r0
 174:Generated_Source\PSoC4/Port_1.c **** }
 181              		.loc 1 174 0
 182              		@ sp needed
 183 0006 7047     		bx	lr
 184              	.L12:
 185              		.align	2
 186              	.L11:
 187 0008 00010440 		.word	1074004224
 188              		.cfi_endproc
 189              	.LFE3:
 190              		.size	Port_1_ReadDataReg, .-Port_1_ReadDataReg
 191              		.section	.text.Port_1_SetInterruptMode,"ax",%progbits
 192              		.align	2
 193              		.global	Port_1_SetInterruptMode
 194              		.code	16
 195              		.thumb_func
 196              		.type	Port_1_SetInterruptMode, %function
 197              	Port_1_SetInterruptMode:
 198              	.LFB4:
 175:Generated_Source\PSoC4/Port_1.c **** 
 176:Generated_Source\PSoC4/Port_1.c **** 
 177:Generated_Source\PSoC4/Port_1.c **** /*******************************************************************************
 178:Generated_Source\PSoC4/Port_1.c **** * Function Name: Port_1_SetInterruptMode
 179:Generated_Source\PSoC4/Port_1.c **** ****************************************************************************//**
 180:Generated_Source\PSoC4/Port_1.c **** *
 181:Generated_Source\PSoC4/Port_1.c **** * \brief Configures the interrupt mode for each of the Pins component's
 182:Generated_Source\PSoC4/Port_1.c **** *  pins. Alternatively you may set the interrupt mode for all the pins
 183:Generated_Source\PSoC4/Port_1.c **** *  specified in the Pins component.
 184:Generated_Source\PSoC4/Port_1.c **** *
 185:Generated_Source\PSoC4/Port_1.c **** *  <b>Note</b> The interrupt is port-wide and therefore any enabled pin
 186:Generated_Source\PSoC4/Port_1.c **** *  interrupt may trigger it.
 187:Generated_Source\PSoC4/Port_1.c **** *
 188:Generated_Source\PSoC4/Port_1.c **** * \param position
 189:Generated_Source\PSoC4/Port_1.c **** *  The pin position as listed in the Pins component. You may OR these to be 
 190:Generated_Source\PSoC4/Port_1.c **** *  able to configure the interrupt mode of multiple pins within a Pins 
 191:Generated_Source\PSoC4/Port_1.c **** *  component. Or you may use Port_1_INTR_ALL to configure the
 192:Generated_Source\PSoC4/Port_1.c **** *  interrupt mode of all the pins in the Pins component.       
 193:Generated_Source\PSoC4/Port_1.c **** *  - Port_1_0_INTR       (First pin in the list)
 194:Generated_Source\PSoC4/Port_1.c **** *  - Port_1_1_INTR       (Second pin in the list)
 195:Generated_Source\PSoC4/Port_1.c **** *  - ...
 196:Generated_Source\PSoC4/Port_1.c **** *  - Port_1_INTR_ALL     (All pins in Pins component)
 197:Generated_Source\PSoC4/Port_1.c **** *
 198:Generated_Source\PSoC4/Port_1.c **** * \param mode
 199:Generated_Source\PSoC4/Port_1.c **** *  Interrupt mode for the selected pins. Valid options are documented in
 200:Generated_Source\PSoC4/Port_1.c **** *  \ref intrMode.
 201:Generated_Source\PSoC4/Port_1.c **** *
ARM GAS  C:\Users\essele\AppData\Local\Temp\ccZneKWa.s 			page 8


 202:Generated_Source\PSoC4/Port_1.c **** * \return 
 203:Generated_Source\PSoC4/Port_1.c **** *  None
 204:Generated_Source\PSoC4/Port_1.c **** *  
 205:Generated_Source\PSoC4/Port_1.c **** * \sideeffect
 206:Generated_Source\PSoC4/Port_1.c **** *  It is recommended that the interrupt be disabled before calling this 
 207:Generated_Source\PSoC4/Port_1.c **** *  function to avoid unintended interrupt requests. Note that the interrupt
 208:Generated_Source\PSoC4/Port_1.c **** *  type is port wide, and therefore will trigger for any enabled pin on the 
 209:Generated_Source\PSoC4/Port_1.c **** *  port.
 210:Generated_Source\PSoC4/Port_1.c **** *
 211:Generated_Source\PSoC4/Port_1.c **** * \funcusage
 212:Generated_Source\PSoC4/Port_1.c **** *  \snippet Port_1_SUT.c usage_Port_1_SetInterruptMode
 213:Generated_Source\PSoC4/Port_1.c **** *******************************************************************************/
 214:Generated_Source\PSoC4/Port_1.c **** void Port_1_SetInterruptMode(uint16 position, uint16 mode)
 215:Generated_Source\PSoC4/Port_1.c **** {
 199              		.loc 1 215 0
 200              		.cfi_startproc
 201              		@ args = 0, pretend = 0, frame = 0
 202              		@ frame_needed = 0, uses_anonymous_args = 0
 203              		@ link register save eliminated.
 204              	.LVL4:
 216:Generated_Source\PSoC4/Port_1.c ****     uint32 intrCfg;
 217:Generated_Source\PSoC4/Port_1.c ****     
 218:Generated_Source\PSoC4/Port_1.c ****     intrCfg =  Port_1_INTCFG & (uint32)(~(uint32)position);
 205              		.loc 1 218 0
 206 0000 034A     		ldr	r2, .L14
 207 0002 1368     		ldr	r3, [r2]
 208 0004 8343     		bics	r3, r0
 209              	.LVL5:
 219:Generated_Source\PSoC4/Port_1.c ****     Port_1_INTCFG = intrCfg | ((uint32)position & (uint32)mode);
 210              		.loc 1 219 0
 211 0006 0840     		ands	r0, r1
 212              	.LVL6:
 213 0008 1843     		orrs	r0, r3
 214 000a 1060     		str	r0, [r2]
 220:Generated_Source\PSoC4/Port_1.c **** }
 215              		.loc 1 220 0
 216              		@ sp needed
 217 000c 7047     		bx	lr
 218              	.L15:
 219 000e C046     		.align	2
 220              	.L14:
 221 0010 0C010440 		.word	1074004236
 222              		.cfi_endproc
 223              	.LFE4:
 224              		.size	Port_1_SetInterruptMode, .-Port_1_SetInterruptMode
 225              		.section	.text.Port_1_ClearInterrupt,"ax",%progbits
 226              		.align	2
 227              		.global	Port_1_ClearInterrupt
 228              		.code	16
 229              		.thumb_func
 230              		.type	Port_1_ClearInterrupt, %function
 231              	Port_1_ClearInterrupt:
 232              	.LFB5:
 221:Generated_Source\PSoC4/Port_1.c **** 
 222:Generated_Source\PSoC4/Port_1.c **** 
 223:Generated_Source\PSoC4/Port_1.c **** /*******************************************************************************
 224:Generated_Source\PSoC4/Port_1.c **** * Function Name: Port_1_ClearInterrupt
ARM GAS  C:\Users\essele\AppData\Local\Temp\ccZneKWa.s 			page 9


 225:Generated_Source\PSoC4/Port_1.c **** ****************************************************************************//**
 226:Generated_Source\PSoC4/Port_1.c **** *
 227:Generated_Source\PSoC4/Port_1.c **** * \brief Clears any active interrupts attached with the component and returns 
 228:Generated_Source\PSoC4/Port_1.c **** *  the value of the interrupt status register allowing determination of which
 229:Generated_Source\PSoC4/Port_1.c **** *  pins generated an interrupt event.
 230:Generated_Source\PSoC4/Port_1.c **** *
 231:Generated_Source\PSoC4/Port_1.c **** * \return 
 232:Generated_Source\PSoC4/Port_1.c **** *  The right-shifted current value of the interrupt status register. Each pin 
 233:Generated_Source\PSoC4/Port_1.c **** *  has one bit set if it generated an interrupt event. For example, bit 0 is 
 234:Generated_Source\PSoC4/Port_1.c **** *  for pin 0 and bit 1 is for pin 1 of the Pins component.
 235:Generated_Source\PSoC4/Port_1.c **** *  
 236:Generated_Source\PSoC4/Port_1.c **** * \sideeffect
 237:Generated_Source\PSoC4/Port_1.c **** *  Clears all bits of the physical port's interrupt status register, not just
 238:Generated_Source\PSoC4/Port_1.c **** *  those associated with the Pins component.
 239:Generated_Source\PSoC4/Port_1.c **** *
 240:Generated_Source\PSoC4/Port_1.c **** * \funcusage
 241:Generated_Source\PSoC4/Port_1.c **** *  \snippet Port_1_SUT.c usage_Port_1_ClearInterrupt
 242:Generated_Source\PSoC4/Port_1.c **** *******************************************************************************/
 243:Generated_Source\PSoC4/Port_1.c **** uint8 Port_1_ClearInterrupt(void)
 244:Generated_Source\PSoC4/Port_1.c **** {
 233              		.loc 1 244 0
 234              		.cfi_startproc
 235              		@ args = 0, pretend = 0, frame = 0
 236              		@ frame_needed = 0, uses_anonymous_args = 0
 237              		@ link register save eliminated.
 245:Generated_Source\PSoC4/Port_1.c **** 	uint8 maskedStatus = (uint8)(Port_1_INTSTAT & Port_1_MASK);
 238              		.loc 1 245 0
 239 0000 034A     		ldr	r2, .L17
 240 0002 1368     		ldr	r3, [r2]
 241 0004 D8B2     		uxtb	r0, r3
 242              	.LVL7:
 243 0006 FF21     		movs	r1, #255
 244 0008 0B40     		ands	r3, r1
 246:Generated_Source\PSoC4/Port_1.c **** 	Port_1_INTSTAT = maskedStatus;
 245              		.loc 1 246 0
 246 000a 1360     		str	r3, [r2]
 247:Generated_Source\PSoC4/Port_1.c ****     return maskedStatus >> Port_1_SHIFT;
 248:Generated_Source\PSoC4/Port_1.c **** }
 247              		.loc 1 248 0
 248              		@ sp needed
 249 000c 7047     		bx	lr
 250              	.L18:
 251 000e C046     		.align	2
 252              	.L17:
 253 0010 10010440 		.word	1074004240
 254              		.cfi_endproc
 255              	.LFE5:
 256              		.size	Port_1_ClearInterrupt, .-Port_1_ClearInterrupt
 257              		.text
 258              	.Letext0:
 259              		.file 2 "Generated_Source\\PSoC4\\cytypes.h"