ARM GAS  C:\Users\essele\AppData\Local\Temp\cc47R33J.s 			page 1


   1              		.syntax unified
   2              		.cpu cortex-m0
   3              		.fpu softvfp
   4              		.eabi_attribute 20, 1
   5              		.eabi_attribute 21, 1
   6              		.eabi_attribute 23, 3
   7              		.eabi_attribute 24, 1
   8              		.eabi_attribute 25, 1
   9              		.eabi_attribute 26, 1
  10              		.eabi_attribute 30, 6
  11              		.eabi_attribute 34, 0
  12              		.eabi_attribute 18, 4
  13              		.thumb
  14              		.syntax unified
  15              		.file	"serial.c"
  16              		.text
  17              	.Ltext0:
  18              		.cfi_sections	.debug_frame
  19              		.comm	output_buffer,64,4
  20              		.global	output_free
  21              		.data
  22              		.align	2
  23              		.type	output_free, %object
  24              		.size	output_free, 4
  25              	output_free:
  26 0000 40000000 		.word	64
  27              		.comm	input_buffer,64,4
  28              		.global	input_avail
  29              		.bss
  30              		.align	2
  31              		.type	input_avail, %object
  32              		.size	input_avail, 4
  33              	input_avail:
  34 0000 00000000 		.space	4
  35              		.global	input_p
  36              		.data
  37              		.align	2
  38              		.type	input_p, %object
  39              		.size	input_p, 4
  40              	input_p:
  41 0004 00000000 		.word	input_buffer
  42              		.global	autoread
  43              		.bss
  44              		.align	2
  45              		.type	autoread, %object
  46              		.size	autoread, 4
  47              	autoread:
  48 0004 00000000 		.space	4
  49              		.comm	general_buffer,512,4
  50              		.section	.text.serial_printf,"ax",%progbits
  51              		.align	2
  52              		.global	serial_printf
  53              		.code	16
  54              		.thumb_func
  55              		.type	serial_printf, %function
  56              	serial_printf:
  57              	.LFB35:
ARM GAS  C:\Users\essele\AppData\Local\Temp\cc47R33J.s 			page 2


  58              		.file 1 "serial.c"
   1:serial.c      **** /* ========================================
   2:serial.c      ****  *
   3:serial.c      ****  * Copyright YOUR COMPANY, THE YEAR
   4:serial.c      ****  * All Rights Reserved
   5:serial.c      ****  * UNPUBLISHED, LICENSED SOFTWARE.
   6:serial.c      ****  *
   7:serial.c      ****  * CONFIDENTIAL AND PROPRIETARY INFORMATION
   8:serial.c      ****  * WHICH IS THE PROPERTY OF your company.
   9:serial.c      ****  *
  10:serial.c      ****  * ========================================
  11:serial.c      **** */
  12:serial.c      **** #include "project.h"
  13:serial.c      **** #include <stdio.h>
  14:serial.c      **** 
  15:serial.c      **** // We only include this file if we have a UART device configured...
  16:serial.c      **** #if defined(USBUART_TRUE) || defined(USBCOMP_TRUE)
  17:serial.c      **** 
  18:serial.c      **** #include "serial.h"
  19:serial.c      **** #include "input.h"
  20:serial.c      **** #include "gpib.h"
  21:serial.c      **** #include "command.h"
  22:serial.c      **** #include "settings.h"
  23:serial.c      **** #include "utils.h"
  24:serial.c      ****     
  25:serial.c      **** #if defined(USBCOMP_TRUE)
  26:serial.c      ****     
  27:serial.c      **** // Map functions...
  28:serial.c      **** #define USBUART_CDCIsReady(args...)         USBCOMP_CDCIsReady(args)   
  29:serial.c      **** #define USBUART_PutData(args...)            USBCOMP_PutData(args)   
  30:serial.c      **** #define USBUART_DataIsReady(args...)        USBCOMP_DataIsReady(args)   
  31:serial.c      **** #define USBUART_GetAll(args...)             USBCOMP_GetAll(args)   
  32:serial.c      **** #define USBUART_CDC_Init(args...)           USBCOMP_CDC_Init(args) 
  33:serial.c      **** 
  34:serial.c      **** #endif 
  35:serial.c      **** 
  36:serial.c      **** 
  37:serial.c      **** #define MAX_BUF          64
  38:serial.c      **** #define MAX(a,b)        (a > b ? a : b)
  39:serial.c      **** #define MIN(a,b)        (a < b ? a : b)
  40:serial.c      **** 
  41:serial.c      **** uint8_t output_buffer[MAX_BUF];
  42:serial.c      **** int     output_free = MAX_BUF;
  43:serial.c      **** 
  44:serial.c      **** uint8_t input_buffer[MAX_BUF];
  45:serial.c      **** int     input_avail = 0;
  46:serial.c      **** uint8_t *input_p = input_buffer;
  47:serial.c      **** 
  48:serial.c      **** // Persist autoread from query to reply
  49:serial.c      **** int autoread = 0;    
  50:serial.c      **** 
  51:serial.c      **** 
  52:serial.c      **** 
  53:serial.c      **** #define GEN_BUF_SIZE          512
  54:serial.c      **** uint8_t general_buffer[GEN_BUF_SIZE];
  55:serial.c      **** 
  56:serial.c      **** void serial_printf(char *fmt, ...) {
ARM GAS  C:\Users\essele\AppData\Local\Temp\cc47R33J.s 			page 3


  59              		.loc 1 56 0
  60              		.cfi_startproc
  61              		@ args = 4, pretend = 16, frame = 8
  62              		@ frame_needed = 1, uses_anonymous_args = 1
  63 0000 0FB4     		push	{r0, r1, r2, r3}
  64              		.cfi_def_cfa_offset 16
  65 0002 80B5     		push	{r7, lr}
  66              		.cfi_def_cfa_offset 24
  67              		.cfi_offset 7, -24
  68              		.cfi_offset 14, -20
  69 0004 82B0     		sub	sp, sp, #8
  70              		.cfi_def_cfa_offset 32
  71 0006 00AF     		add	r7, sp, #0
  72              		.cfi_def_cfa_register 7
  57:serial.c      ****     va_list args;
  58:serial.c      ****     va_start(args, fmt);
  73              		.loc 1 58 0
  74 0008 1423     		movs	r3, #20
  75 000a FB18     		adds	r3, r7, r3
  76 000c 7B60     		str	r3, [r7, #4]
  59:serial.c      ****     vsnprintf((char *)general_buffer, GEN_BUF_SIZE-1, fmt, args);
  77              		.loc 1 59 0
  78 000e 7B68     		ldr	r3, [r7, #4]
  79 0010 3A69     		ldr	r2, [r7, #16]
  80 0012 0849     		ldr	r1, .L2
  81 0014 0848     		ldr	r0, .L2+4
  82 0016 FFF7FEFF 		bl	vsnprintf
  60:serial.c      ****     serial_add_string((char *)general_buffer);
  83              		.loc 1 60 0
  84 001a 074B     		ldr	r3, .L2+4
  85 001c 1800     		movs	r0, r3
  86 001e FFF7FEFF 		bl	serial_add_string
  61:serial.c      ****     serial_flush();
  87              		.loc 1 61 0
  88 0022 FFF7FEFF 		bl	serial_flush
  62:serial.c      **** }
  89              		.loc 1 62 0
  90 0026 C046     		nop
  91 0028 BD46     		mov	sp, r7
  92 002a 02B0     		add	sp, sp, #8
  93              		@ sp needed
  94 002c 80BC     		pop	{r7}
  95 002e 08BC     		pop	{r3}
  96 0030 04B0     		add	sp, sp, #16
  97 0032 1847     		bx	r3
  98              	.L3:
  99              		.align	2
 100              	.L2:
 101 0034 FF010000 		.word	511
 102 0038 00000000 		.word	general_buffer
 103              		.cfi_endproc
 104              	.LFE35:
 105              		.size	serial_printf, .-serial_printf
 106              		.section	.text.serial_vprintf,"ax",%progbits
 107              		.align	2
 108              		.global	serial_vprintf
 109              		.code	16
ARM GAS  C:\Users\essele\AppData\Local\Temp\cc47R33J.s 			page 4


 110              		.thumb_func
 111              		.type	serial_vprintf, %function
 112              	serial_vprintf:
 113              	.LFB36:
  63:serial.c      **** void serial_vprintf(char *fmt, va_list args) {
 114              		.loc 1 63 0
 115              		.cfi_startproc
 116              		@ args = 0, pretend = 0, frame = 8
 117              		@ frame_needed = 1, uses_anonymous_args = 0
 118 0000 80B5     		push	{r7, lr}
 119              		.cfi_def_cfa_offset 8
 120              		.cfi_offset 7, -8
 121              		.cfi_offset 14, -4
 122 0002 82B0     		sub	sp, sp, #8
 123              		.cfi_def_cfa_offset 16
 124 0004 00AF     		add	r7, sp, #0
 125              		.cfi_def_cfa_register 7
 126 0006 7860     		str	r0, [r7, #4]
 127 0008 3960     		str	r1, [r7]
  64:serial.c      **** //    va_list args;
  65:serial.c      **** //    va_start(args, fmt);
  66:serial.c      ****     vsnprintf((char *)general_buffer, GEN_BUF_SIZE-1, fmt, args);
 128              		.loc 1 66 0
 129 000a 3B68     		ldr	r3, [r7]
 130 000c 7A68     		ldr	r2, [r7, #4]
 131 000e 0749     		ldr	r1, .L5
 132 0010 0748     		ldr	r0, .L5+4
 133 0012 FFF7FEFF 		bl	vsnprintf
  67:serial.c      ****     serial_add_string((char *)general_buffer);
 134              		.loc 1 67 0
 135 0016 064B     		ldr	r3, .L5+4
 136 0018 1800     		movs	r0, r3
 137 001a FFF7FEFF 		bl	serial_add_string
  68:serial.c      ****     serial_flush();
 138              		.loc 1 68 0
 139 001e FFF7FEFF 		bl	serial_flush
  69:serial.c      **** }
 140              		.loc 1 69 0
 141 0022 C046     		nop
 142 0024 BD46     		mov	sp, r7
 143 0026 02B0     		add	sp, sp, #8
 144              		@ sp needed
 145 0028 80BD     		pop	{r7, pc}
 146              	.L6:
 147 002a C046     		.align	2
 148              	.L5:
 149 002c FF010000 		.word	511
 150 0030 00000000 		.word	general_buffer
 151              		.cfi_endproc
 152              	.LFE36:
 153              		.size	serial_vprintf, .-serial_vprintf
 154              		.section	.text.serial_add,"ax",%progbits
 155              		.align	2
 156              		.global	serial_add
 157              		.code	16
 158              		.thumb_func
 159              		.type	serial_add, %function
ARM GAS  C:\Users\essele\AppData\Local\Temp\cc47R33J.s 			page 5


 160              	serial_add:
 161              	.LFB37:
  70:serial.c      **** 
  71:serial.c      **** 
  72:serial.c      **** 
  73:serial.c      **** 
  74:serial.c      **** // TODO: some kind of serial_error("fmt", v, v, v); //
  75:serial.c      **** 
  76:serial.c      **** 
  77:serial.c      **** 
  78:serial.c      **** /**
  79:serial.c      ****  * Add some data to the serial output buffer, if we have enough to fill the
  80:serial.c      ****  * buffer then we will send, otherwise we'll save for the call to flush.
  81:serial.c      ****  * (this will automatically handle sending a zero if a full prior buffer
  82:serial.c      ****  * has been sent.)
  83:serial.c      ****  */
  84:serial.c      **** void serial_add(uint8_t *buf, int len) {
 162              		.loc 1 84 0
 163              		.cfi_startproc
 164              		@ args = 0, pretend = 0, frame = 16
 165              		@ frame_needed = 1, uses_anonymous_args = 0
 166 0000 80B5     		push	{r7, lr}
 167              		.cfi_def_cfa_offset 8
 168              		.cfi_offset 7, -8
 169              		.cfi_offset 14, -4
 170 0002 84B0     		sub	sp, sp, #16
 171              		.cfi_def_cfa_offset 24
 172 0004 00AF     		add	r7, sp, #0
 173              		.cfi_def_cfa_register 7
 174 0006 7860     		str	r0, [r7, #4]
 175 0008 3960     		str	r1, [r7]
  85:serial.c      ****     
  86:serial.c      ****     while (len > 0) {
 176              		.loc 1 86 0
 177 000a 28E0     		b	.L8
 178              	.L10:
 179              	.LBB2:
  87:serial.c      ****         int         copy_size = MIN(len, output_free);
 180              		.loc 1 87 0
 181 000c 174B     		ldr	r3, .L11
 182 000e 1B68     		ldr	r3, [r3]
 183 0010 3A68     		ldr	r2, [r7]
 184 0012 9342     		cmp	r3, r2
 185 0014 00DD     		ble	.L9
 186 0016 1300     		movs	r3, r2
 187              	.L9:
 188 0018 FB60     		str	r3, [r7, #12]
  88:serial.c      ****         uint8_t     *out_dest = output_buffer + (MAX_BUF - output_free);
 189              		.loc 1 88 0
 190 001a 144B     		ldr	r3, .L11
 191 001c 1B68     		ldr	r3, [r3]
 192 001e 4022     		movs	r2, #64
 193 0020 D31A     		subs	r3, r2, r3
 194 0022 1A00     		movs	r2, r3
 195 0024 124B     		ldr	r3, .L11+4
 196 0026 D318     		adds	r3, r2, r3
 197 0028 BB60     		str	r3, [r7, #8]
ARM GAS  C:\Users\essele\AppData\Local\Temp\cc47R33J.s 			page 6


  89:serial.c      ****         
  90:serial.c      ****         // Copy the data and update the counters
  91:serial.c      ****         memcpy(out_dest, buf, copy_size);
 198              		.loc 1 91 0
 199 002a FA68     		ldr	r2, [r7, #12]
 200 002c 7968     		ldr	r1, [r7, #4]
 201 002e BB68     		ldr	r3, [r7, #8]
 202 0030 1800     		movs	r0, r3
 203 0032 FFF7FEFF 		bl	memcpy
  92:serial.c      ****         buf += copy_size;
 204              		.loc 1 92 0
 205 0036 FB68     		ldr	r3, [r7, #12]
 206 0038 7A68     		ldr	r2, [r7, #4]
 207 003a D318     		adds	r3, r2, r3
 208 003c 7B60     		str	r3, [r7, #4]
  93:serial.c      ****         len -= copy_size;
 209              		.loc 1 93 0
 210 003e 3A68     		ldr	r2, [r7]
 211 0040 FB68     		ldr	r3, [r7, #12]
 212 0042 D31A     		subs	r3, r2, r3
 213 0044 3B60     		str	r3, [r7]
  94:serial.c      ****         output_free -= copy_size;
 214              		.loc 1 94 0
 215 0046 094B     		ldr	r3, .L11
 216 0048 1A68     		ldr	r2, [r3]
 217 004a FB68     		ldr	r3, [r7, #12]
 218 004c D21A     		subs	r2, r2, r3
 219 004e 074B     		ldr	r3, .L11
 220 0050 1A60     		str	r2, [r3]
  95:serial.c      ****             
  96:serial.c      ****         // If the buffer is full then we need to send it
  97:serial.c      ****         if (output_free == 0) {
 221              		.loc 1 97 0
 222 0052 064B     		ldr	r3, .L11
 223 0054 1B68     		ldr	r3, [r3]
 224 0056 002B     		cmp	r3, #0
 225 0058 01D1     		bne	.L8
  98:serial.c      ****             serial_flush();
 226              		.loc 1 98 0
 227 005a FFF7FEFF 		bl	serial_flush
 228              	.L8:
 229              	.LBE2:
  86:serial.c      ****         int         copy_size = MIN(len, output_free);
 230              		.loc 1 86 0
 231 005e 3B68     		ldr	r3, [r7]
 232 0060 002B     		cmp	r3, #0
 233 0062 D3DC     		bgt	.L10
  99:serial.c      ****         }
 100:serial.c      ****     }
 101:serial.c      **** }
 234              		.loc 1 101 0
 235 0064 C046     		nop
 236 0066 BD46     		mov	sp, r7
 237 0068 04B0     		add	sp, sp, #16
 238              		@ sp needed
 239 006a 80BD     		pop	{r7, pc}
 240              	.L12:
ARM GAS  C:\Users\essele\AppData\Local\Temp\cc47R33J.s 			page 7


 241              		.align	2
 242              	.L11:
 243 006c 00000000 		.word	output_free
 244 0070 00000000 		.word	output_buffer
 245              		.cfi_endproc
 246              	.LFE37:
 247              		.size	serial_add, .-serial_add
 248              		.section	.text.serial_add_string,"ax",%progbits
 249              		.align	2
 250              		.global	serial_add_string
 251              		.code	16
 252              		.thumb_func
 253              		.type	serial_add_string, %function
 254              	serial_add_string:
 255              	.LFB38:
 102:serial.c      **** void serial_add_string(char *string) {
 256              		.loc 1 102 0
 257              		.cfi_startproc
 258              		@ args = 0, pretend = 0, frame = 8
 259              		@ frame_needed = 1, uses_anonymous_args = 0
 260 0000 80B5     		push	{r7, lr}
 261              		.cfi_def_cfa_offset 8
 262              		.cfi_offset 7, -8
 263              		.cfi_offset 14, -4
 264 0002 82B0     		sub	sp, sp, #8
 265              		.cfi_def_cfa_offset 16
 266 0004 00AF     		add	r7, sp, #0
 267              		.cfi_def_cfa_register 7
 268 0006 7860     		str	r0, [r7, #4]
 103:serial.c      ****     serial_add((uint8_t *)string, strlen(string));
 269              		.loc 1 103 0
 270 0008 7B68     		ldr	r3, [r7, #4]
 271 000a 1800     		movs	r0, r3
 272 000c FFF7FEFF 		bl	strlen
 273 0010 0300     		movs	r3, r0
 274 0012 1A00     		movs	r2, r3
 275 0014 7B68     		ldr	r3, [r7, #4]
 276 0016 1100     		movs	r1, r2
 277 0018 1800     		movs	r0, r3
 278 001a FFF7FEFF 		bl	serial_add
 104:serial.c      **** }
 279              		.loc 1 104 0
 280 001e C046     		nop
 281 0020 BD46     		mov	sp, r7
 282 0022 02B0     		add	sp, sp, #8
 283              		@ sp needed
 284 0024 80BD     		pop	{r7, pc}
 285              		.cfi_endproc
 286              	.LFE38:
 287              		.size	serial_add_string, .-serial_add_string
 288 0026 C046     		.section	.text.serial_flush,"ax",%progbits
 289              		.align	2
 290              		.global	serial_flush
 291              		.code	16
 292              		.thumb_func
 293              		.type	serial_flush, %function
 294              	serial_flush:
ARM GAS  C:\Users\essele\AppData\Local\Temp\cc47R33J.s 			page 8


 295              	.LFB39:
 105:serial.c      **** 
 106:serial.c      **** /**
 107:serial.c      ****  * Flush whatever is in the output buffer, we'll do this even if there is nothing
 108:serial.c      ****  * since that likely means we've just sent a full buffer, so need to send a zero
 109:serial.c      ****  * length packet.
 110:serial.c      ****  */
 111:serial.c      **** void serial_flush() {
 296              		.loc 1 111 0
 297              		.cfi_startproc
 298              		@ args = 0, pretend = 0, frame = 0
 299              		@ frame_needed = 1, uses_anonymous_args = 0
 300 0000 80B5     		push	{r7, lr}
 301              		.cfi_def_cfa_offset 8
 302              		.cfi_offset 7, -8
 303              		.cfi_offset 14, -4
 304 0002 00AF     		add	r7, sp, #0
 305              		.cfi_def_cfa_register 7
 112:serial.c      ****     while (USBUART_CDCIsReady() == 0) {}
 306              		.loc 1 112 0
 307 0004 C046     		nop
 308              	.L15:
 309              		.loc 1 112 0 is_stmt 0 discriminator 1
 310 0006 FFF7FEFF 		bl	USBUART_CDCIsReady
 311 000a 031E     		subs	r3, r0, #0
 312 000c FBD0     		beq	.L15
 113:serial.c      ****     USBUART_PutData(output_buffer, MAX_BUF - output_free);    
 313              		.loc 1 113 0 is_stmt 1
 314 000e 084B     		ldr	r3, .L16
 315 0010 1B68     		ldr	r3, [r3]
 316 0012 9BB2     		uxth	r3, r3
 317 0014 4022     		movs	r2, #64
 318 0016 D31A     		subs	r3, r2, r3
 319 0018 9AB2     		uxth	r2, r3
 320 001a 064B     		ldr	r3, .L16+4
 321 001c 1100     		movs	r1, r2
 322 001e 1800     		movs	r0, r3
 323 0020 FFF7FEFF 		bl	USBUART_PutData
 114:serial.c      ****     output_free = MAX_BUF;
 324              		.loc 1 114 0
 325 0024 024B     		ldr	r3, .L16
 326 0026 4022     		movs	r2, #64
 327 0028 1A60     		str	r2, [r3]
 115:serial.c      **** }
 328              		.loc 1 115 0
 329 002a C046     		nop
 330 002c BD46     		mov	sp, r7
 331              		@ sp needed
 332 002e 80BD     		pop	{r7, pc}
 333              	.L17:
 334              		.align	2
 335              	.L16:
 336 0030 00000000 		.word	output_free
 337 0034 00000000 		.word	output_buffer
 338              		.cfi_endproc
 339              	.LFE39:
 340              		.size	serial_flush, .-serial_flush
ARM GAS  C:\Users\essele\AppData\Local\Temp\cc47R33J.s 			page 9


 341              		.section	.text.serial_available,"ax",%progbits
 342              		.align	2
 343              		.global	serial_available
 344              		.code	16
 345              		.thumb_func
 346              		.type	serial_available, %function
 347              	serial_available:
 348              	.LFB40:
 116:serial.c      **** 
 117:serial.c      **** 
 118:serial.c      **** bool serial_available() {
 349              		.loc 1 118 0
 350              		.cfi_startproc
 351              		@ args = 0, pretend = 0, frame = 0
 352              		@ frame_needed = 1, uses_anonymous_args = 0
 353 0000 80B5     		push	{r7, lr}
 354              		.cfi_def_cfa_offset 8
 355              		.cfi_offset 7, -8
 356              		.cfi_offset 14, -4
 357 0002 00AF     		add	r7, sp, #0
 358              		.cfi_def_cfa_register 7
 119:serial.c      ****     if (input_avail > 0) {
 359              		.loc 1 119 0
 360 0004 074B     		ldr	r3, .L21
 361 0006 1B68     		ldr	r3, [r3]
 362 0008 002B     		cmp	r3, #0
 363 000a 01DD     		ble	.L19
 120:serial.c      ****         return true;
 364              		.loc 1 120 0
 365 000c 0123     		movs	r3, #1
 366 000e 05E0     		b	.L20
 367              	.L19:
 121:serial.c      ****     }
 122:serial.c      ****     return (USBUART_DataIsReady() != 0);
 368              		.loc 1 122 0
 369 0010 FFF7FEFF 		bl	USBUART_DataIsReady
 370 0014 0300     		movs	r3, r0
 371 0016 5A1E     		subs	r2, r3, #1
 372 0018 9341     		sbcs	r3, r3, r2
 373 001a DBB2     		uxtb	r3, r3
 374              	.L20:
 123:serial.c      **** }
 375              		.loc 1 123 0
 376 001c 1800     		movs	r0, r3
 377 001e BD46     		mov	sp, r7
 378              		@ sp needed
 379 0020 80BD     		pop	{r7, pc}
 380              	.L22:
 381 0022 C046     		.align	2
 382              	.L21:
 383 0024 00000000 		.word	input_avail
 384              		.cfi_endproc
 385              	.LFE40:
 386              		.size	serial_available, .-serial_available
 387              		.section	.text.serial_getbyte,"ax",%progbits
 388              		.align	2
 389              		.global	serial_getbyte
ARM GAS  C:\Users\essele\AppData\Local\Temp\cc47R33J.s 			page 10


 390              		.code	16
 391              		.thumb_func
 392              		.type	serial_getbyte, %function
 393              	serial_getbyte:
 394              	.LFB41:
 124:serial.c      **** 
 125:serial.c      **** uint8_t serial_getbyte() {
 395              		.loc 1 125 0
 396              		.cfi_startproc
 397              		@ args = 0, pretend = 0, frame = 0
 398              		@ frame_needed = 1, uses_anonymous_args = 0
 399 0000 80B5     		push	{r7, lr}
 400              		.cfi_def_cfa_offset 8
 401              		.cfi_offset 7, -8
 402              		.cfi_offset 14, -4
 403 0002 00AF     		add	r7, sp, #0
 404              		.cfi_def_cfa_register 7
 126:serial.c      ****     // Needs to be a while, just in case we get a zero size input??
 127:serial.c      ****     while (input_avail == 0) {
 405              		.loc 1 127 0
 406 0004 0FE0     		b	.L24
 407              	.L26:
 128:serial.c      ****         // Block for more data...
 129:serial.c      ****         while(USBUART_DataIsReady() == 0) {};
 408              		.loc 1 129 0
 409 0006 C046     		nop
 410              	.L25:
 411              		.loc 1 129 0 is_stmt 0 discriminator 1
 412 0008 FFF7FEFF 		bl	USBUART_DataIsReady
 413 000c 031E     		subs	r3, r0, #0
 414 000e FBD0     		beq	.L25
 130:serial.c      ****         input_avail = USBUART_GetAll(input_buffer);
 415              		.loc 1 130 0 is_stmt 1
 416 0010 0E4B     		ldr	r3, .L28
 417 0012 1800     		movs	r0, r3
 418 0014 FFF7FEFF 		bl	USBUART_GetAll
 419 0018 0300     		movs	r3, r0
 420 001a 1A00     		movs	r2, r3
 421 001c 0C4B     		ldr	r3, .L28+4
 422 001e 1A60     		str	r2, [r3]
 131:serial.c      ****         input_p = input_buffer;
 423              		.loc 1 131 0
 424 0020 0C4B     		ldr	r3, .L28+8
 425 0022 0A4A     		ldr	r2, .L28
 426 0024 1A60     		str	r2, [r3]
 427              	.L24:
 127:serial.c      ****         // Block for more data...
 428              		.loc 1 127 0
 429 0026 0A4B     		ldr	r3, .L28+4
 430 0028 1B68     		ldr	r3, [r3]
 431 002a 002B     		cmp	r3, #0
 432 002c EBD0     		beq	.L26
 132:serial.c      ****     }
 133:serial.c      ****     
 134:serial.c      ****     input_avail--;
 433              		.loc 1 134 0
 434 002e 084B     		ldr	r3, .L28+4
ARM GAS  C:\Users\essele\AppData\Local\Temp\cc47R33J.s 			page 11


 435 0030 1B68     		ldr	r3, [r3]
 436 0032 5A1E     		subs	r2, r3, #1
 437 0034 064B     		ldr	r3, .L28+4
 438 0036 1A60     		str	r2, [r3]
 135:serial.c      ****     return *input_p++;
 439              		.loc 1 135 0
 440 0038 064B     		ldr	r3, .L28+8
 441 003a 1B68     		ldr	r3, [r3]
 442 003c 591C     		adds	r1, r3, #1
 443 003e 054A     		ldr	r2, .L28+8
 444 0040 1160     		str	r1, [r2]
 445 0042 1B78     		ldrb	r3, [r3]
 136:serial.c      **** }
 446              		.loc 1 136 0
 447 0044 1800     		movs	r0, r3
 448 0046 BD46     		mov	sp, r7
 449              		@ sp needed
 450 0048 80BD     		pop	{r7, pc}
 451              	.L29:
 452 004a C046     		.align	2
 453              	.L28:
 454 004c 00000000 		.word	input_buffer
 455 0050 00000000 		.word	input_avail
 456 0054 00000000 		.word	input_p
 457              		.cfi_endproc
 458              	.LFE41:
 459              		.size	serial_getbyte, .-serial_getbyte
 460              		.section	.text.usbuart_reconfig,"ax",%progbits
 461              		.align	2
 462              		.global	usbuart_reconfig
 463              		.code	16
 464              		.thumb_func
 465              		.type	usbuart_reconfig, %function
 466              	usbuart_reconfig:
 467              	.LFB42:
 137:serial.c      **** 
 138:serial.c      **** 
 139:serial.c      **** 
 140:serial.c      **** 
 141:serial.c      **** /**
 142:serial.c      ****  * Handle USB configuration changes
 143:serial.c      ****  */
 144:serial.c      **** void usbuart_reconfig() {
 468              		.loc 1 144 0
 469              		.cfi_startproc
 470              		@ args = 0, pretend = 0, frame = 0
 471              		@ frame_needed = 1, uses_anonymous_args = 0
 472 0000 80B5     		push	{r7, lr}
 473              		.cfi_def_cfa_offset 8
 474              		.cfi_offset 7, -8
 475              		.cfi_offset 14, -4
 476 0002 00AF     		add	r7, sp, #0
 477              		.cfi_def_cfa_register 7
 145:serial.c      ****     USBUART_CDC_Init();
 478              		.loc 1 145 0
 479 0004 FFF7FEFF 		bl	USBUART_CDC_Init
 146:serial.c      **** }    
ARM GAS  C:\Users\essele\AppData\Local\Temp\cc47R33J.s 			page 12


 480              		.loc 1 146 0
 481 0008 C046     		nop
 482 000a BD46     		mov	sp, r7
 483              		@ sp needed
 484 000c 80BD     		pop	{r7, pc}
 485              		.cfi_endproc
 486              	.LFE42:
 487              		.size	usbuart_reconfig, .-usbuart_reconfig
 488              		.comm	cmdbuf,64,4
 489              		.global	cmdbuf_len
 490 000e C046     		.bss
 491              		.align	2
 492              		.type	cmdbuf_len, %object
 493              		.size	cmdbuf_len, 4
 494              	cmdbuf_len:
 495 0008 00000000 		.space	4
 496              		.global	mode
 497              		.align	2
 498              		.type	mode, %object
 499              		.size	mode, 4
 500              	mode:
 501 000c 00000000 		.space	4
 502              		.global	charmode
 503              		.align	2
 504              		.type	charmode, %object
 505              		.size	charmode, 4
 506              	charmode:
 507 0010 00000000 		.space	4
 508              		.global	last
 509              		.type	last, %object
 510              		.size	last, 1
 511              	last:
 512 0014 00       		.space	1
 513              		.global	was_query
 514 0015 000000   		.align	2
 515              		.type	was_query, %object
 516              		.size	was_query, 4
 517              	was_query:
 518 0018 00000000 		.space	4
 519              		.comm	s,4,4
 520              		.comm	d,4,4
 521              		.comm	end,4,4
 522              		.section	.rodata
 523              		.align	2
 524              	.LC17:
 525 0000 434D4420 		.ascii	"CMD overrun\015\012\000"
 525      6F766572 
 525      72756E0D 
 525      0A00
 526 000e 0000     		.align	2
 527              	.LC19:
 528 0010 676F7420 		.ascii	"got cmd=\000"
 528      636D643D 
 528      00
 529 0019 000000   		.align	2
 530              	.LC22:
 531 001c 2A0D0A00 		.ascii	"*\015\012\000"
ARM GAS  C:\Users\essele\AppData\Local\Temp\cc47R33J.s 			page 13


 532              		.align	2
 533              	.LC26:
 534 0020 0A00     		.ascii	"\012\000"
 535              		.section	.text.non_interactive,"ax",%progbits
 536              		.align	2
 537              		.global	non_interactive
 538              		.code	16
 539              		.thumb_func
 540              		.type	non_interactive, %function
 541              	non_interactive:
 542              	.LFB43:
 147:serial.c      **** 
 148:serial.c      **** /**
 149:serial.c      ****  * For non-interactive mode we need to read the serial port, we need to catch "+" and
 150:serial.c      ****  * do the right thing, we need to un-escape certain characters depending on the escaping
 151:serial.c      ****  * mode... otherwise just move data as quickly as possible.
 152:serial.c      ****  */
 153:serial.c      **** #define CMD_BUF_SIZE        64
 154:serial.c      **** uint8_t cmdbuf[CMD_BUF_SIZE];
 155:serial.c      **** int     cmdbuf_len = 0;
 156:serial.c      **** 
 157:serial.c      **** #define WAITING         0
 158:serial.c      **** #define FROM_HOST       1
 159:serial.c      **** #define TO_HOST         2
 160:serial.c      **** 
 161:serial.c      **** int     mode = WAITING;
 162:serial.c      **** 
 163:serial.c      **** 
 164:serial.c      **** #define NORMAL          0
 165:serial.c      **** #define PLUS            1
 166:serial.c      **** #define ESCAPE          2
 167:serial.c      **** #define CMD             3
 168:serial.c      **** 
 169:serial.c      **** int     charmode = NORMAL;
 170:serial.c      **** uint8_t last = 0;
 171:serial.c      **** int     was_query = 0;
 172:serial.c      **** 
 173:serial.c      **** // Used to walk through the buffer...
 174:serial.c      **** uint8_t *s;
 175:serial.c      **** uint8_t *d;
 176:serial.c      **** uint8_t *end;
 177:serial.c      **** 
 178:serial.c      **** 
 179:serial.c      **** void non_interactive() {
 543              		.loc 1 179 0
 544              		.cfi_startproc
 545              		@ args = 0, pretend = 0, frame = 24
 546              		@ frame_needed = 1, uses_anonymous_args = 0
 547 0000 80B5     		push	{r7, lr}
 548              		.cfi_def_cfa_offset 8
 549              		.cfi_offset 7, -8
 550              		.cfi_offset 14, -4
 551 0002 86B0     		sub	sp, sp, #24
 552              		.cfi_def_cfa_offset 32
 553 0004 00AF     		add	r7, sp, #0
 554              		.cfi_def_cfa_register 7
 180:serial.c      ****     // First check to see if we are reading, but have processed the current
ARM GAS  C:\Users\essele\AppData\Local\Temp\cc47R33J.s 			page 14


 181:serial.c      ****     // block, then we can trigger a read of more data
 182:serial.c      ****     if (mode == FROM_HOST && s == end) {
 555              		.loc 1 182 0
 556 0006 BA4B     		ldr	r3, .L66
 557 0008 1B68     		ldr	r3, [r3]
 558 000a 012B     		cmp	r3, #1
 559 000c 08D1     		bne	.L32
 560              		.loc 1 182 0 is_stmt 0 discriminator 1
 561 000e B94B     		ldr	r3, .L66+4
 562 0010 1A68     		ldr	r2, [r3]
 563 0012 B94B     		ldr	r3, .L66+8
 564 0014 1B68     		ldr	r3, [r3]
 565 0016 9A42     		cmp	r2, r3
 566 0018 02D1     		bne	.L32
 183:serial.c      ****         mode = WAITING;
 567              		.loc 1 183 0 is_stmt 1
 568 001a B54B     		ldr	r3, .L66
 569 001c 0022     		movs	r2, #0
 570 001e 1A60     		str	r2, [r3]
 571              	.L32:
 184:serial.c      ****     }
 185:serial.c      ****     
 186:serial.c      ****     // Are we waiting for incoming data...
 187:serial.c      ****     if (mode == WAITING) {
 572              		.loc 1 187 0
 573 0020 B34B     		ldr	r3, .L66
 574 0022 1B68     		ldr	r3, [r3]
 575 0024 002B     		cmp	r3, #0
 576 0026 1BD1     		bne	.L33
 188:serial.c      ****         if (USBUART_DataIsReady()) {
 577              		.loc 1 188 0
 578 0028 FFF7FEFF 		bl	USBUART_DataIsReady
 579 002c 031E     		subs	r3, r0, #0
 580 002e 00D1     		bne	.LCB401
 581 0030 59E1     		b	.L65	@long jump
 582              	.LCB401:
 583              	.LBB3:
 189:serial.c      ****             int len = USBUART_GetAll(input_buffer);
 584              		.loc 1 189 0
 585 0032 B24B     		ldr	r3, .L66+12
 586 0034 1800     		movs	r0, r3
 587 0036 FFF7FEFF 		bl	USBUART_GetAll
 588 003a 0300     		movs	r3, r0
 589 003c 7B61     		str	r3, [r7, #20]
 190:serial.c      ****             
 191:serial.c      ****             if (len > 0) {
 590              		.loc 1 191 0
 591 003e 7B69     		ldr	r3, [r7, #20]
 592 0040 002B     		cmp	r3, #0
 593 0042 0DDD     		ble	.L33
 192:serial.c      ****                 end = input_buffer + len;
 594              		.loc 1 192 0
 595 0044 7A69     		ldr	r2, [r7, #20]
 596 0046 AD4B     		ldr	r3, .L66+12
 597 0048 D218     		adds	r2, r2, r3
 598 004a AB4B     		ldr	r3, .L66+8
 599 004c 1A60     		str	r2, [r3]
ARM GAS  C:\Users\essele\AppData\Local\Temp\cc47R33J.s 			page 15


 193:serial.c      ****                 s = input_buffer;
 600              		.loc 1 193 0
 601 004e A94B     		ldr	r3, .L66+4
 602 0050 AA4A     		ldr	r2, .L66+12
 603 0052 1A60     		str	r2, [r3]
 194:serial.c      ****                 d = input_buffer;
 604              		.loc 1 194 0
 605 0054 AA4B     		ldr	r3, .L66+16
 606 0056 A94A     		ldr	r2, .L66+12
 607 0058 1A60     		str	r2, [r3]
 195:serial.c      ****                 mode = FROM_HOST;
 608              		.loc 1 195 0
 609 005a A54B     		ldr	r3, .L66
 610 005c 0122     		movs	r2, #1
 611 005e 1A60     		str	r2, [r3]
 612              	.L33:
 613              	.LBE3:
 196:serial.c      ****             }
 197:serial.c      ****         } else {
 198:serial.c      ****             return;
 199:serial.c      ****         }
 200:serial.c      ****     }
 201:serial.c      ****     
 202:serial.c      ****     // We pass anything from the serial port to GPIB, but we need to process
 203:serial.c      ****     // escapes to ensure we properly detect the end, and detect ++
 204:serial.c      ****     if (mode == FROM_HOST) {
 614              		.loc 1 204 0
 615 0060 A34B     		ldr	r3, .L66
 616 0062 1B68     		ldr	r3, [r3]
 617 0064 012B     		cmp	r3, #1
 618 0066 00D0     		beq	.LCB431
 619 0068 17E1     		b	.L37	@long jump
 620              	.LCB431:
 621              	.LBB4:
 205:serial.c      ****         while (s < end) {
 622              		.loc 1 205 0
 623 006a FAE0     		b	.L38
 624              	.L61:
 625              	.LBB5:
 206:serial.c      ****             // If we are in command mode, then keep going until we get NL
 207:serial.c      ****             // if we overrun the buffer, we just eat chars until NL
 208:serial.c      ****             if (charmode == CMD) {
 626              		.loc 1 208 0
 627 006c A54B     		ldr	r3, .L66+20
 628 006e 1B68     		ldr	r3, [r3]
 629 0070 032B     		cmp	r3, #3
 630 0072 51D1     		bne	.L39
 209:serial.c      ****                 if (*s == '\r' || *s == '\n') {
 631              		.loc 1 209 0
 632 0074 9F4B     		ldr	r3, .L66+4
 633 0076 1B68     		ldr	r3, [r3]
 634 0078 1B78     		ldrb	r3, [r3]
 635 007a 0D2B     		cmp	r3, #13
 636 007c 04D0     		beq	.L40
 637              		.loc 1 209 0 is_stmt 0 discriminator 1
 638 007e 9D4B     		ldr	r3, .L66+4
 639 0080 1B68     		ldr	r3, [r3]
ARM GAS  C:\Users\essele\AppData\Local\Temp\cc47R33J.s 			page 16


 640 0082 1B78     		ldrb	r3, [r3]
 641 0084 0A2B     		cmp	r3, #10
 642 0086 2FD1     		bne	.L41
 643              	.L40:
 210:serial.c      ****                     if (cmdbuf_len == CMD_BUF_SIZE) {
 644              		.loc 1 210 0 is_stmt 1
 645 0088 9F4B     		ldr	r3, .L66+24
 646 008a 1B68     		ldr	r3, [r3]
 647 008c 402B     		cmp	r3, #64
 648 008e 06D1     		bne	.L42
 211:serial.c      ****                         // this is an overrun
 212:serial.c      ****                         serial_printf("CMD overrun\r\n");
 649              		.loc 1 212 0
 650 0090 9E4B     		ldr	r3, .L66+28
 651 0092 1800     		movs	r0, r3
 652 0094 FFF7FEFF 		bl	serial_printf
 213:serial.c      ****                         serial_flush();                        
 653              		.loc 1 213 0
 654 0098 FFF7FEFF 		bl	serial_flush
 655 009c 17E0     		b	.L43
 656              	.L42:
 214:serial.c      ****                     } else {
 215:serial.c      ****                         // process a command
 216:serial.c      ****                         serial_printf("got cmd=");
 657              		.loc 1 216 0
 658 009e 9C4B     		ldr	r3, .L66+32
 659 00a0 1800     		movs	r0, r3
 660 00a2 FFF7FEFF 		bl	serial_printf
 217:serial.c      ****                         serial_add(cmdbuf, cmdbuf_len);
 661              		.loc 1 217 0
 662 00a6 984B     		ldr	r3, .L66+24
 663 00a8 1A68     		ldr	r2, [r3]
 664 00aa 9A4B     		ldr	r3, .L66+36
 665 00ac 1100     		movs	r1, r2
 666 00ae 1800     		movs	r0, r3
 667 00b0 FFF7FEFF 		bl	serial_add
 218:serial.c      ****                         serial_printf("*\r\n");
 668              		.loc 1 218 0
 669 00b4 984B     		ldr	r3, .L66+40
 670 00b6 1800     		movs	r0, r3
 671 00b8 FFF7FEFF 		bl	serial_printf
 219:serial.c      ****                         serial_flush();
 672              		.loc 1 219 0
 673 00bc FFF7FEFF 		bl	serial_flush
 220:serial.c      ****                         cmd_process(cmdbuf, cmdbuf_len);
 674              		.loc 1 220 0
 675 00c0 914B     		ldr	r3, .L66+24
 676 00c2 1A68     		ldr	r2, [r3]
 677 00c4 934B     		ldr	r3, .L66+36
 678 00c6 1100     		movs	r1, r2
 679 00c8 1800     		movs	r0, r3
 680 00ca FFF7FEFF 		bl	cmd_process
 681              	.L43:
 221:serial.c      ****                     }
 222:serial.c      ****                     charmode = NORMAL;
 682              		.loc 1 222 0
 683 00ce 8D4B     		ldr	r3, .L66+20
ARM GAS  C:\Users\essele\AppData\Local\Temp\cc47R33J.s 			page 17


 684 00d0 0022     		movs	r2, #0
 685 00d2 1A60     		str	r2, [r3]
 223:serial.c      ****                     cmdbuf_len = 0;
 686              		.loc 1 223 0
 687 00d4 8C4B     		ldr	r3, .L66+24
 688 00d6 0022     		movs	r2, #0
 689 00d8 1A60     		str	r2, [r3]
 224:serial.c      ****                     d = input_buffer;
 690              		.loc 1 224 0
 691 00da 894B     		ldr	r3, .L66+16
 692 00dc 874A     		ldr	r2, .L66+12
 693 00de 1A60     		str	r2, [r3]
 225:serial.c      ****                     last = '\r';                // make sure we chomp any left over
 694              		.loc 1 225 0
 695 00e0 8E4B     		ldr	r3, .L66+44
 696 00e2 0D22     		movs	r2, #13
 697 00e4 1A70     		strb	r2, [r3]
 226:serial.c      ****                     continue;
 698              		.loc 1 226 0
 699 00e6 BCE0     		b	.L38
 700              	.L41:
 227:serial.c      ****                 }
 228:serial.c      ****                 if (cmdbuf_len < CMD_BUF_SIZE) {
 701              		.loc 1 228 0
 702 00e8 874B     		ldr	r3, .L66+24
 703 00ea 1B68     		ldr	r3, [r3]
 704 00ec 3F2B     		cmp	r3, #63
 705 00ee 0DDC     		bgt	.L44
 229:serial.c      ****                     cmdbuf[cmdbuf_len++] = *s++;
 706              		.loc 1 229 0
 707 00f0 854B     		ldr	r3, .L66+24
 708 00f2 1B68     		ldr	r3, [r3]
 709 00f4 591C     		adds	r1, r3, #1
 710 00f6 844A     		ldr	r2, .L66+24
 711 00f8 1160     		str	r1, [r2]
 712 00fa 7E4A     		ldr	r2, .L66+4
 713 00fc 1268     		ldr	r2, [r2]
 714 00fe 501C     		adds	r0, r2, #1
 715 0100 7C49     		ldr	r1, .L66+4
 716 0102 0860     		str	r0, [r1]
 717 0104 1178     		ldrb	r1, [r2]
 718 0106 834A     		ldr	r2, .L66+36
 719 0108 D154     		strb	r1, [r2, r3]
 720 010a AAE0     		b	.L38
 721              	.L44:
 230:serial.c      ****                 } else {
 231:serial.c      ****                     s++;
 722              		.loc 1 231 0
 723 010c 794B     		ldr	r3, .L66+4
 724 010e 1B68     		ldr	r3, [r3]
 725 0110 5A1C     		adds	r2, r3, #1
 726 0112 784B     		ldr	r3, .L66+4
 727 0114 1A60     		str	r2, [r3]
 232:serial.c      ****                 }
 233:serial.c      ****                 continue;
 728              		.loc 1 233 0
 729 0116 A4E0     		b	.L38
ARM GAS  C:\Users\essele\AppData\Local\Temp\cc47R33J.s 			page 18


 730              	.L39:
 234:serial.c      ****             }
 235:serial.c      ****             
 236:serial.c      ****             // If we were escaped, then we always keep the next char
 237:serial.c      ****             if (charmode == ESCAPE) {
 731              		.loc 1 237 0
 732 0118 7A4B     		ldr	r3, .L66+20
 733 011a 1B68     		ldr	r3, [r3]
 734 011c 022B     		cmp	r3, #2
 735 011e 0FD1     		bne	.L46
 238:serial.c      ****                 *d++ = *s++;
 736              		.loc 1 238 0
 737 0120 774B     		ldr	r3, .L66+16
 738 0122 1B68     		ldr	r3, [r3]
 739 0124 591C     		adds	r1, r3, #1
 740 0126 764A     		ldr	r2, .L66+16
 741 0128 1160     		str	r1, [r2]
 742 012a 724A     		ldr	r2, .L66+4
 743 012c 1268     		ldr	r2, [r2]
 744 012e 501C     		adds	r0, r2, #1
 745 0130 7049     		ldr	r1, .L66+4
 746 0132 0860     		str	r0, [r1]
 747 0134 1278     		ldrb	r2, [r2]
 748 0136 1A70     		strb	r2, [r3]
 239:serial.c      ****                 charmode = NORMAL;
 749              		.loc 1 239 0
 750 0138 724B     		ldr	r3, .L66+20
 751 013a 0022     		movs	r2, #0
 752 013c 1A60     		str	r2, [r3]
 240:serial.c      ****                 continue;
 753              		.loc 1 240 0
 754 013e 90E0     		b	.L38
 755              	.L46:
 241:serial.c      ****             }
 242:serial.c      ****             
 243:serial.c      ****             uint8_t     ch = *s;
 756              		.loc 1 243 0
 757 0140 6C4B     		ldr	r3, .L66+4
 758 0142 1A68     		ldr	r2, [r3]
 759 0144 1323     		movs	r3, #19
 760 0146 FB18     		adds	r3, r7, r3
 761 0148 1278     		ldrb	r2, [r2]
 762 014a 1A70     		strb	r2, [r3]
 244:serial.c      ****             
 245:serial.c      ****             switch(*s) {
 763              		.loc 1 245 0
 764 014c 694B     		ldr	r3, .L66+4
 765 014e 1B68     		ldr	r3, [r3]
 766 0150 1B78     		ldrb	r3, [r3]
 767 0152 0D2B     		cmp	r3, #13
 768 0154 18D0     		beq	.L48
 769 0156 02DC     		bgt	.L49
 770 0158 0A2B     		cmp	r3, #10
 771 015a 15D0     		beq	.L48
 772 015c 65E0     		b	.L47
 773              	.L49:
 774 015e 1B2B     		cmp	r3, #27
ARM GAS  C:\Users\essele\AppData\Local\Temp\cc47R33J.s 			page 19


 775 0160 5AD0     		beq	.L50
 776 0162 2B2B     		cmp	r3, #43
 777 0164 61D1     		bne	.L47
 246:serial.c      ****                 // Need to track for two plusses, and remove them anyway...
 247:serial.c      ****                 case '+':
 248:serial.c      ****                     if (charmode == PLUS) {
 778              		.loc 1 248 0
 779 0166 674B     		ldr	r3, .L66+20
 780 0168 1B68     		ldr	r3, [r3]
 781 016a 012B     		cmp	r3, #1
 782 016c 03D1     		bne	.L52
 249:serial.c      ****                         charmode = CMD;
 783              		.loc 1 249 0
 784 016e 654B     		ldr	r3, .L66+20
 785 0170 0322     		movs	r2, #3
 786 0172 1A60     		str	r2, [r3]
 787 0174 02E0     		b	.L53
 788              	.L52:
 250:serial.c      ****                     } else {
 251:serial.c      ****                         charmode = PLUS;
 789              		.loc 1 251 0
 790 0176 634B     		ldr	r3, .L66+20
 791 0178 0122     		movs	r2, #1
 792 017a 1A60     		str	r2, [r3]
 793              	.L53:
 252:serial.c      ****                     }
 253:serial.c      ****                     s++;
 794              		.loc 1 253 0
 795 017c 5D4B     		ldr	r3, .L66+4
 796 017e 1B68     		ldr	r3, [r3]
 797 0180 5A1C     		adds	r2, r3, #1
 798 0182 5C4B     		ldr	r3, .L66+4
 799 0184 1A60     		str	r2, [r3]
 254:serial.c      ****                     break;
 800              		.loc 1 254 0
 801 0186 67E0     		b	.L54
 802              	.L48:
 255:serial.c      ****                     
 256:serial.c      ****                 // Thia is the line terminator, so process unless we are following
 257:serial.c      ****                 // a prior one (to remove CRLF dups etc)
 258:serial.c      ****                 case '\r':
 259:serial.c      ****                 case '\n':
 260:serial.c      ****                     if (last != '\r' && last != '\n') {
 803              		.loc 1 260 0
 804 0188 644B     		ldr	r3, .L66+44
 805 018a 1B78     		ldrb	r3, [r3]
 806 018c 0D2B     		cmp	r3, #13
 807 018e 3AD0     		beq	.L55
 808              		.loc 1 260 0 is_stmt 0 discriminator 1
 809 0190 624B     		ldr	r3, .L66+44
 810 0192 1B78     		ldrb	r3, [r3]
 811 0194 0A2B     		cmp	r3, #10
 812 0196 36D0     		beq	.L55
 813              	.LBB6:
 261:serial.c      ****                         int len = d - input_buffer;
 814              		.loc 1 261 0 is_stmt 1
 815 0198 594B     		ldr	r3, .L66+16
ARM GAS  C:\Users\essele\AppData\Local\Temp\cc47R33J.s 			page 20


 816 019a 1B68     		ldr	r3, [r3]
 817 019c 1A00     		movs	r2, r3
 818 019e 574B     		ldr	r3, .L66+12
 819 01a0 D31A     		subs	r3, r2, r3
 820 01a2 FB60     		str	r3, [r7, #12]
 262:serial.c      ****                         gpib_address_listener(settings.address);
 821              		.loc 1 262 0
 822 01a4 5E4B     		ldr	r3, .L66+48
 823 01a6 DB88     		ldrh	r3, [r3, #6]
 824 01a8 DBB2     		uxtb	r3, r3
 825 01aa 1800     		movs	r0, r3
 826 01ac FFF7FEFF 		bl	gpib_address_listener
 263:serial.c      ****                         if (len == 0) {
 827              		.loc 1 263 0
 828 01b0 FB68     		ldr	r3, [r7, #12]
 829 01b2 002B     		cmp	r3, #0
 830 01b4 06D1     		bne	.L56
 264:serial.c      ****                             // We can add a NL if we really have to (shouldn't really happen in non
 265:serial.c      ****                             gpib_send_bytes((uint8_t *)"\n", 1, 1);
 831              		.loc 1 265 0
 832 01b6 5B4B     		ldr	r3, .L66+52
 833 01b8 0122     		movs	r2, #1
 834 01ba 0121     		movs	r1, #1
 835 01bc 1800     		movs	r0, r3
 836 01be FFF7FEFF 		bl	gpib_send_bytes
 837 01c2 05E0     		b	.L57
 838              	.L56:
 266:serial.c      ****                         } else {
 267:serial.c      ****                             gpib_send_bytes(input_buffer, len, 1);
 839              		.loc 1 267 0
 840 01c4 F968     		ldr	r1, [r7, #12]
 841 01c6 4D4B     		ldr	r3, .L66+12
 842 01c8 0122     		movs	r2, #1
 843 01ca 1800     		movs	r0, r3
 844 01cc FFF7FEFF 		bl	gpib_send_bytes
 845              	.L57:
 268:serial.c      ****                         }
 269:serial.c      ****                         
 270:serial.c      ****                         if (settings.autoread == 1 || (settings.autoread == 2 && was_query)) {     
 846              		.loc 1 270 0
 847 01d0 534B     		ldr	r3, .L66+48
 848 01d2 1B89     		ldrh	r3, [r3, #8]
 849 01d4 012B     		cmp	r3, #1
 850 01d6 07D0     		beq	.L58
 851              		.loc 1 270 0 is_stmt 0 discriminator 1
 852 01d8 514B     		ldr	r3, .L66+48
 853 01da 1B89     		ldrh	r3, [r3, #8]
 854 01dc 022B     		cmp	r3, #2
 855 01de 0CD1     		bne	.L59
 856              		.loc 1 270 0 discriminator 2
 857 01e0 514B     		ldr	r3, .L66+56
 858 01e2 1B68     		ldr	r3, [r3]
 859 01e4 002B     		cmp	r3, #0
 860 01e6 08D0     		beq	.L59
 861              	.L58:
 271:serial.c      ****                             gpib_address_talker(settings.address);
 862              		.loc 1 271 0 is_stmt 1
ARM GAS  C:\Users\essele\AppData\Local\Temp\cc47R33J.s 			page 21


 863 01e8 4D4B     		ldr	r3, .L66+48
 864 01ea DB88     		ldrh	r3, [r3, #6]
 865 01ec DBB2     		uxtb	r3, r3
 866 01ee 1800     		movs	r0, r3
 867 01f0 FFF7FEFF 		bl	gpib_address_talker
 272:serial.c      ****                             mode = TO_HOST;
 868              		.loc 1 272 0
 869 01f4 3E4B     		ldr	r3, .L66
 870 01f6 0222     		movs	r2, #2
 871 01f8 1A60     		str	r2, [r3]
 872              	.L59:
 273:serial.c      ****                         }
 274:serial.c      ****                         was_query = 0;
 873              		.loc 1 274 0
 874 01fa 4B4B     		ldr	r3, .L66+56
 875 01fc 0022     		movs	r2, #0
 876 01fe 1A60     		str	r2, [r3]
 275:serial.c      ****                         // Maybe more data to process...
 276:serial.c      ****                         d = input_buffer;
 877              		.loc 1 276 0
 878 0200 3F4B     		ldr	r3, .L66+16
 879 0202 3E4A     		ldr	r2, .L66+12
 880 0204 1A60     		str	r2, [r3]
 881              	.L55:
 882              	.LBE6:
 277:serial.c      ****                     }
 278:serial.c      ****                     s++;
 883              		.loc 1 278 0
 884 0206 3B4B     		ldr	r3, .L66+4
 885 0208 1B68     		ldr	r3, [r3]
 886 020a 5A1C     		adds	r2, r3, #1
 887 020c 394B     		ldr	r3, .L66+4
 888 020e 1A60     		str	r2, [r3]
 279:serial.c      ****                     charmode = NORMAL;
 889              		.loc 1 279 0
 890 0210 3C4B     		ldr	r3, .L66+20
 891 0212 0022     		movs	r2, #0
 892 0214 1A60     		str	r2, [r3]
 280:serial.c      ****                     break;
 893              		.loc 1 280 0
 894 0216 1FE0     		b	.L54
 895              	.L50:
 281:serial.c      ****                     
 282:serial.c      ****                 // Escape ... we ignore this and allow the next..
 283:serial.c      ****                 case 0x1b:
 284:serial.c      ****                     charmode = ESCAPE;
 896              		.loc 1 284 0
 897 0218 3A4B     		ldr	r3, .L66+20
 898 021a 0222     		movs	r2, #2
 899 021c 1A60     		str	r2, [r3]
 285:serial.c      ****                     s++;
 900              		.loc 1 285 0
 901 021e 354B     		ldr	r3, .L66+4
 902 0220 1B68     		ldr	r3, [r3]
 903 0222 5A1C     		adds	r2, r3, #1
 904 0224 334B     		ldr	r3, .L66+4
 905 0226 1A60     		str	r2, [r3]
ARM GAS  C:\Users\essele\AppData\Local\Temp\cc47R33J.s 			page 22


 286:serial.c      ****                     break;
 906              		.loc 1 286 0
 907 0228 16E0     		b	.L54
 908              	.L47:
 287:serial.c      ****                     
 288:serial.c      ****                 default:
 289:serial.c      ****                     if (*s == '?') {
 909              		.loc 1 289 0
 910 022a 324B     		ldr	r3, .L66+4
 911 022c 1B68     		ldr	r3, [r3]
 912 022e 1B78     		ldrb	r3, [r3]
 913 0230 3F2B     		cmp	r3, #63
 914 0232 02D1     		bne	.L60
 290:serial.c      ****                         was_query = 1;
 915              		.loc 1 290 0
 916 0234 3C4B     		ldr	r3, .L66+56
 917 0236 0122     		movs	r2, #1
 918 0238 1A60     		str	r2, [r3]
 919              	.L60:
 291:serial.c      ****                     }
 292:serial.c      ****                     charmode = NORMAL;
 920              		.loc 1 292 0
 921 023a 324B     		ldr	r3, .L66+20
 922 023c 0022     		movs	r2, #0
 923 023e 1A60     		str	r2, [r3]
 293:serial.c      ****                     *d++ = *s++;
 924              		.loc 1 293 0
 925 0240 2F4B     		ldr	r3, .L66+16
 926 0242 1B68     		ldr	r3, [r3]
 927 0244 591C     		adds	r1, r3, #1
 928 0246 2E4A     		ldr	r2, .L66+16
 929 0248 1160     		str	r1, [r2]
 930 024a 2A4A     		ldr	r2, .L66+4
 931 024c 1268     		ldr	r2, [r2]
 932 024e 501C     		adds	r0, r2, #1
 933 0250 2849     		ldr	r1, .L66+4
 934 0252 0860     		str	r0, [r1]
 935 0254 1278     		ldrb	r2, [r2]
 936 0256 1A70     		strb	r2, [r3]
 937              	.L54:
 294:serial.c      ****             }
 295:serial.c      ****             last = ch;
 938              		.loc 1 295 0
 939 0258 304B     		ldr	r3, .L66+44
 940 025a 1322     		movs	r2, #19
 941 025c BA18     		adds	r2, r7, r2
 942 025e 1278     		ldrb	r2, [r2]
 943 0260 1A70     		strb	r2, [r3]
 944              	.L38:
 945              	.LBE5:
 205:serial.c      ****             // If we are in command mode, then keep going until we get NL
 946              		.loc 1 205 0
 947 0262 244B     		ldr	r3, .L66+4
 948 0264 1A68     		ldr	r2, [r3]
 949 0266 244B     		ldr	r3, .L66+8
 950 0268 1B68     		ldr	r3, [r3]
 951 026a 9A42     		cmp	r2, r3
ARM GAS  C:\Users\essele\AppData\Local\Temp\cc47R33J.s 			page 23


 952 026c 00D2     		bcs	.LCB738
 953 026e FDE6     		b	.L61	@long jump
 954              	.LCB738:
 296:serial.c      ****         }
 297:serial.c      ****         
 298:serial.c      ****         // We will have non-ending data to send if we didn't contain a
 299:serial.c      ****         // terminated line...
 300:serial.c      ****         int len = d - input_buffer;
 955              		.loc 1 300 0
 956 0270 234B     		ldr	r3, .L66+16
 957 0272 1B68     		ldr	r3, [r3]
 958 0274 1A00     		movs	r2, r3
 959 0276 214B     		ldr	r3, .L66+12
 960 0278 D31A     		subs	r3, r2, r3
 961 027a BB60     		str	r3, [r7, #8]
 301:serial.c      ****         if (len > 0) {
 962              		.loc 1 301 0
 963 027c BB68     		ldr	r3, [r7, #8]
 964 027e 002B     		cmp	r3, #0
 965 0280 0BDD     		ble	.L37
 302:serial.c      ****             gpib_address_listener(settings.address);
 966              		.loc 1 302 0
 967 0282 274B     		ldr	r3, .L66+48
 968 0284 DB88     		ldrh	r3, [r3, #6]
 969 0286 DBB2     		uxtb	r3, r3
 970 0288 1800     		movs	r0, r3
 971 028a FFF7FEFF 		bl	gpib_address_listener
 303:serial.c      ****             gpib_send_bytes(input_buffer, len, 0);
 972              		.loc 1 303 0
 973 028e B968     		ldr	r1, [r7, #8]
 974 0290 1A4B     		ldr	r3, .L66+12
 975 0292 0022     		movs	r2, #0
 976 0294 1800     		movs	r0, r3
 977 0296 FFF7FEFF 		bl	gpib_send_bytes
 978              	.L37:
 979              	.LBE4:
 304:serial.c      ****         }
 305:serial.c      ****     }
 306:serial.c      ****     
 307:serial.c      ****     // If we are TO_HOST then we need to read from GPIB and send it back to
 308:serial.c      ****     // the host
 309:serial.c      ****     if (mode == TO_HOST) {
 980              		.loc 1 309 0
 981 029a 154B     		ldr	r3, .L66
 982 029c 1B68     		ldr	r3, [r3]
 983 029e 022B     		cmp	r3, #2
 984 02a0 22D1     		bne	.L31
 985              	.LBB7:
 310:serial.c      ****         // If we have pending serial data to send then flush, so we can use the whole
 311:serial.c      ****         // serial output buffer
 312:serial.c      ****         if (output_free != MAX_BUF) {
 986              		.loc 1 312 0
 987 02a2 224B     		ldr	r3, .L66+60
 988 02a4 1B68     		ldr	r3, [r3]
 989 02a6 402B     		cmp	r3, #64
 990 02a8 01D0     		beq	.L62
 313:serial.c      ****             serial_flush();
ARM GAS  C:\Users\essele\AppData\Local\Temp\cc47R33J.s 			page 24


 991              		.loc 1 313 0
 992 02aa FFF7FEFF 		bl	serial_flush
 993              	.L62:
 314:serial.c      ****         }
 315:serial.c      ****         
 316:serial.c      ****         // Now read GPIB into the output buffer and send it...
 317:serial.c      ****         int ended = 0;
 994              		.loc 1 317 0
 995 02ae 0023     		movs	r3, #0
 996 02b0 3B60     		str	r3, [r7]
 318:serial.c      ****         
 319:serial.c      ****         // Read data from GPIB...
 320:serial.c      ****         int gpiblen = gpib_read_bytes(output_buffer, MAX_BUF, &ended);
 997              		.loc 1 320 0
 998 02b2 3A00     		movs	r2, r7
 999 02b4 1E4B     		ldr	r3, .L66+64
 1000 02b6 4021     		movs	r1, #64
 1001 02b8 1800     		movs	r0, r3
 1002 02ba FFF7FEFF 		bl	gpib_read_bytes
 1003 02be 0300     		movs	r3, r0
 1004 02c0 7B60     		str	r3, [r7, #4]
 321:serial.c      ****         if (gpiblen > 0) {
 1005              		.loc 1 321 0
 1006 02c2 7B68     		ldr	r3, [r7, #4]
 1007 02c4 002B     		cmp	r3, #0
 1008 02c6 07DD     		ble	.L63
 322:serial.c      ****             output_free -= gpiblen;
 1009              		.loc 1 322 0
 1010 02c8 184B     		ldr	r3, .L66+60
 1011 02ca 1A68     		ldr	r2, [r3]
 1012 02cc 7B68     		ldr	r3, [r7, #4]
 1013 02ce D21A     		subs	r2, r2, r3
 1014 02d0 164B     		ldr	r3, .L66+60
 1015 02d2 1A60     		str	r2, [r3]
 323:serial.c      ****             serial_flush();
 1016              		.loc 1 323 0
 1017 02d4 FFF7FEFF 		bl	serial_flush
 1018              	.L63:
 324:serial.c      ****         }
 325:serial.c      ****         if (ended) {
 1019              		.loc 1 325 0
 1020 02d8 3B68     		ldr	r3, [r7]
 1021 02da 002B     		cmp	r3, #0
 1022 02dc 04D0     		beq	.L31
 326:serial.c      ****             mode = FROM_HOST;
 1023              		.loc 1 326 0
 1024 02de 044B     		ldr	r3, .L66
 1025 02e0 0122     		movs	r2, #1
 1026 02e2 1A60     		str	r2, [r3]
 1027 02e4 00E0     		b	.L31
 1028              	.L65:
 1029              	.LBE7:
 198:serial.c      ****         }
 1030              		.loc 1 198 0
 1031 02e6 C046     		nop
 1032              	.L31:
 327:serial.c      ****         }
ARM GAS  C:\Users\essele\AppData\Local\Temp\cc47R33J.s 			page 25


 328:serial.c      ****     }
 329:serial.c      **** }
 1033              		.loc 1 329 0
 1034 02e8 BD46     		mov	sp, r7
 1035 02ea 06B0     		add	sp, sp, #24
 1036              		@ sp needed
 1037 02ec 80BD     		pop	{r7, pc}
 1038              	.L67:
 1039 02ee C046     		.align	2
 1040              	.L66:
 1041 02f0 00000000 		.word	mode
 1042 02f4 00000000 		.word	s
 1043 02f8 00000000 		.word	end
 1044 02fc 00000000 		.word	input_buffer
 1045 0300 00000000 		.word	d
 1046 0304 00000000 		.word	charmode
 1047 0308 00000000 		.word	cmdbuf_len
 1048 030c 00000000 		.word	.LC17
 1049 0310 10000000 		.word	.LC19
 1050 0314 00000000 		.word	cmdbuf
 1051 0318 1C000000 		.word	.LC22
 1052 031c 00000000 		.word	last
 1053 0320 00000000 		.word	settings
 1054 0324 20000000 		.word	.LC26
 1055 0328 00000000 		.word	was_query
 1056 032c 00000000 		.word	output_free
 1057 0330 00000000 		.word	output_buffer
 1058              		.cfi_endproc
 1059              	.LFE43:
 1060              		.size	non_interactive, .-non_interactive
 1061              		.section	.text.usbuart_poll,"ax",%progbits
 1062              		.align	2
 1063              		.global	usbuart_poll
 1064              		.code	16
 1065              		.thumb_func
 1066              		.type	usbuart_poll, %function
 1067              	usbuart_poll:
 1068              	.LFB44:
 330:serial.c      **** 
 331:serial.c      **** /**
 332:serial.c      ****  * Main poll function for uart support
 333:serial.c      ****  */
 334:serial.c      **** void usbuart_poll() {
 1069              		.loc 1 334 0
 1070              		.cfi_startproc
 1071              		@ args = 0, pretend = 0, frame = 8
 1072              		@ frame_needed = 1, uses_anonymous_args = 0
 1073 0000 80B5     		push	{r7, lr}
 1074              		.cfi_def_cfa_offset 8
 1075              		.cfi_offset 7, -8
 1076              		.cfi_offset 14, -4
 1077 0002 82B0     		sub	sp, sp, #8
 1078              		.cfi_def_cfa_offset 16
 1079 0004 00AF     		add	r7, sp, #0
 1080              		.cfi_def_cfa_register 7
 335:serial.c      ****     // Process all the incoming serial data...
 336:serial.c      ****     
ARM GAS  C:\Users\essele\AppData\Local\Temp\cc47R33J.s 			page 26


 337:serial.c      ****     non_interactive();
 1081              		.loc 1 337 0
 1082 0006 FFF7FEFF 		bl	non_interactive
 338:serial.c      ****     return;
 1083              		.loc 1 338 0
 1084 000a C046     		nop
 339:serial.c      ****     
 340:serial.c      ****     
 341:serial.c      ****     while (serial_available()) {
 342:serial.c      ****         // Do we have a full line of input?
 343:serial.c      ****         if (input_data() == 1) {
 344:serial.c      ****             uint8_t *buf = input_getbuffer();
 345:serial.c      ****             unsigned int len = input_getlength();
 346:serial.c      ****                     
 347:serial.c      ****             if (len == 0) {
 348:serial.c      ****                 // Empty ... just reprompt
 349:serial.c      ****             } else if (len >= 2 && buf[0] == '+' && buf[1] == '+') {
 350:serial.c      ****                 cmd_process(buf, len);
 351:serial.c      ****                         
 352:serial.c      ****                 // TODO: if this was a ++auto command we need to change autoread????
 353:serial.c      ****             } else {
 354:serial.c      ****                 
 355:serial.c      ****                 // We've already stripped CR/NL from the input, so now we can just add
 356:serial.c      ****                 // whatever is needed...
 357:serial.c      ****                 switch (settings.eos) {
 358:serial.c      ****                     case 0:     // add CR + LF
 359:serial.c      ****                                 buf[len++] = 13;
 360:serial.c      ****                                 buf[len++] = 10;
 361:serial.c      ****                                 break;
 362:serial.c      ****                                 
 363:serial.c      ****                     case 1:     // add CR
 364:serial.c      ****                                 buf[len++] = 13;
 365:serial.c      ****                                 break;
 366:serial.c      ****                                 
 367:serial.c      ****                     case 2:     // add LF
 368:serial.c      ****                                 buf[len++] = 10;
 369:serial.c      ****                                 break;
 370:serial.c      ****                                 
 371:serial.c      ****                     case 3:     // do nothing
 372:serial.c      ****                                 break;
 373:serial.c      ****                 }               
 374:serial.c      ****                 
 375:serial.c      ****                 if (gpib_get_mode() == GPIB_RUNNING) {
 376:serial.c      ****                     //buf[len] = 0;
 377:serial.c      ****                     gpib_send(settings.address, buf, len);
 378:serial.c      ****                     
 379:serial.c      ****                     // Only auto-query if we should
 380:serial.c      ****                     autoread = 0;
 381:serial.c      ****                     if (settings.autoread) {
 382:serial.c      ****                         if (settings.autoread == 1 || (settings.autoread == 2 && contains_byte(buf,
 383:serial.c      ****                             gpib_address_talker(settings.address);
 384:serial.c      ****                             autoread = 1;
 385:serial.c      ****                         }
 386:serial.c      ****                     }                            
 387:serial.c      ****                 } else {
 388:serial.c      ****                     serial_printf("<no GPIB device connected>\r\n");
 389:serial.c      ****                 }
ARM GAS  C:\Users\essele\AppData\Local\Temp\cc47R33J.s 			page 27


 390:serial.c      ****             }
 391:serial.c      ****             input_start();
 392:serial.c      ****         }    
 393:serial.c      ****     }
 394:serial.c      ****             
 395:serial.c      ****     if (autoread && gpib_get_mode() == GPIB_RUNNING && gpib_talking()) {                
 396:serial.c      ****         uint8_t *buf;
 397:serial.c      ****         int     len;
 398:serial.c      ****         int     ended;
 399:serial.c      ****         
 400:serial.c      ****         buf = gpib_get_buffer();
 401:serial.c      ****         
 402:serial.c      ****         do {
 403:serial.c      ****             len = gpib_read(GPIB_EOI, &ended);
 404:serial.c      **** 
 405:serial.c      ****             // Remove CR/LF's...
 406:serial.c      ****             len = chomp(buf, len);
 407:serial.c      ****                               
 408:serial.c      ****             input_show_output(buf, len);
 409:serial.c      ****             
 410:serial.c      ****         } while(ended == GPIB_NOT_ENDED);   
 411:serial.c      ****     }        
 412:serial.c      **** }
 1085              		.loc 1 412 0
 1086 000c BD46     		mov	sp, r7
 1087 000e 02B0     		add	sp, sp, #8
 1088              		@ sp needed
 1089 0010 80BD     		pop	{r7, pc}
 1090              		.cfi_endproc
 1091              	.LFE44:
 1092              		.size	usbuart_poll, .-usbuart_poll
 1093 0012 C046     		.text
 1094              	.Letext0:
 1095              		.file 2 "c:\\program files (x86)\\cypress\\psoc creator\\4.2\\psoc creator\\import\\gnu\\arm\\5.4.
 1096              		.file 3 "c:\\program files (x86)\\cypress\\psoc creator\\4.2\\psoc creator\\import\\gnu\\arm\\5.4.
 1097              		.file 4 "c:\\program files (x86)\\cypress\\psoc creator\\4.2\\psoc creator\\import\\gnu\\arm\\5.4.
 1098              		.file 5 "<built-in>"
 1099              		.file 6 "settings.h"