ARM GAS  C:\Users\essele\AppData\Local\Temp\ccUeLsA3.s 			page 1


   1              		.syntax unified
   2              		.cpu cortex-m0
   3              		.fpu softvfp
   4              		.eabi_attribute 20, 1
   5              		.eabi_attribute 21, 1
   6              		.eabi_attribute 23, 3
   7              		.eabi_attribute 24, 1
   8              		.eabi_attribute 25, 1
   9              		.eabi_attribute 26, 1
  10              		.eabi_attribute 30, 1
  11              		.eabi_attribute 34, 0
  12              		.eabi_attribute 18, 4
  13              		.thumb
  14              		.syntax unified
  15              		.file	"settings.c"
  16              		.text
  17              	.Ltext0:
  18              		.cfi_sections	.debug_frame
  19              		.section	.text.defaults,"ax",%progbits
  20              		.align	2
  21              		.global	defaults
  22              		.code	16
  23              		.thumb_func
  24              		.type	defaults, %function
  25              	defaults:
  26              	.LFB34:
  27              		.file 1 "settings.c"
   1:settings.c    **** /****
   2:settings.c    ****  * YAUGI -- Yet Another USB GPIB Interface
   3:settings.c    ****  * 
   4:settings.c    ****  * Lee Essen, 2019
   5:settings.c    ****  *
   6:settings.c    ****  * This work is licensed under a Creative Commons 
   7:settings.c    ****  * Attribution-NonCommercial-ShareAlike 4.0 International License.
   8:settings.c    ****  *
   9:settings.c    ****  */
  10:settings.c    **** 
  11:settings.c    **** #include "settings.h"
  12:settings.c    **** 
  13:settings.c    **** const uint8 eeprom[EEPROM_PHYSICAL_SIZE]   __ALIGNED(CY_FLASH_SIZEOF_ROW) = {0u}; 
  14:settings.c    **** 
  15:settings.c    **** #define SIGNATURE   0xBADDAD49
  16:settings.c    **** #define VERSION     1
  17:settings.c    **** 
  18:settings.c    **** // The main settings structure
  19:settings.c    **** struct settings settings;
  20:settings.c    **** 
  21:settings.c    **** /**
  22:settings.c    ****  * Set the default settings...
  23:settings.c    ****  */
  24:settings.c    **** void defaults() {
  28              		.loc 1 24 0
  29              		.cfi_startproc
  30              		@ args = 0, pretend = 0, frame = 0
  31              		@ frame_needed = 0, uses_anonymous_args = 0
  32              		@ link register save eliminated.
  25:settings.c    ****     settings.address = 1;
ARM GAS  C:\Users\essele\AppData\Local\Temp\ccUeLsA3.s 			page 2


  33              		.loc 1 25 0
  34 0000 074B     		ldr	r3, .L2
  35 0002 0122     		movs	r2, #1
  36 0004 DA80     		strh	r2, [r3, #6]
  26:settings.c    ****     settings.autoread = 2;
  37              		.loc 1 26 0
  38 0006 0221     		movs	r1, #2
  39 0008 1981     		strh	r1, [r3, #8]
  27:settings.c    ****     settings.eoi = 1;
  40              		.loc 1 27 0
  41 000a 5A81     		strh	r2, [r3, #10]
  28:settings.c    ****     settings.eos = 0;
  42              		.loc 1 28 0
  43 000c 0021     		movs	r1, #0
  44 000e 9981     		strh	r1, [r3, #12]
  29:settings.c    ****     settings.eot_enable = 1;
  45              		.loc 1 29 0
  46 0010 1A82     		strh	r2, [r3, #16]
  30:settings.c    ****     settings.eot_char = '*';
  47              		.loc 1 30 0
  48 0012 2932     		adds	r2, r2, #41
  49 0014 DA81     		strh	r2, [r3, #14]
  31:settings.c    ****     settings.read_tmo_ms = 1000;
  50              		.loc 1 31 0
  51 0016 FA22     		movs	r2, #250
  52 0018 9200     		lsls	r2, r2, #2
  53 001a 5A82     		strh	r2, [r3, #18]
  32:settings.c    ****  }
  54              		.loc 1 32 0
  55              		@ sp needed
  56 001c 7047     		bx	lr
  57              	.L3:
  58 001e C046     		.align	2
  59              	.L2:
  60 0020 00000000 		.word	settings
  61              		.cfi_endproc
  62              	.LFE34:
  63              		.size	defaults, .-defaults
  64              		.section	.text.settings_init,"ax",%progbits
  65              		.align	2
  66              		.global	settings_init
  67              		.code	16
  68              		.thumb_func
  69              		.type	settings_init, %function
  70              	settings_init:
  71              	.LFB35:
  33:settings.c    **** 
  34:settings.c    **** /**
  35:settings.c    ****  * Read existing settings from the EEPROM, and setup some defaults if
  36:settings.c    ****  * we don't have anything sensible
  37:settings.c    ****  */
  38:settings.c    **** int settings_init() {
  72              		.loc 1 38 0
  73              		.cfi_startproc
  74              		@ args = 0, pretend = 0, frame = 0
  75              		@ frame_needed = 0, uses_anonymous_args = 0
  76 0000 10B5     		push	{r4, lr}
ARM GAS  C:\Users\essele\AppData\Local\Temp\ccUeLsA3.s 			page 3


  77              		.cfi_def_cfa_offset 8
  78              		.cfi_offset 4, -8
  79              		.cfi_offset 14, -4
  39:settings.c    ****     cy_en_em_eeprom_status_t rc; 
  40:settings.c    **** 
  41:settings.c    ****     // Initialise the EEPROM
  42:settings.c    ****     rc = EEPROM_Init((uint32_t)&eeprom[0]);
  80              		.loc 1 42 0
  81 0002 1248     		ldr	r0, .L9
  82 0004 FFF7FEFF 		bl	EEPROM_Init
  83              	.LVL0:
  43:settings.c    ****     if (rc != CY_EM_EEPROM_SUCCESS) {
  84              		.loc 1 43 0
  85 0008 0028     		cmp	r0, #0
  86 000a 1BD1     		bne	.L8
  44:settings.c    ****         return -1;
  45:settings.c    ****     }
  46:settings.c    **** 
  47:settings.c    ****     // Read the current values into settings...
  48:settings.c    ****     rc = EEPROM_Read(0, &settings, sizeof(struct settings));
  87              		.loc 1 48 0
  88 000c 104B     		ldr	r3, .L9+4
  89 000e 1422     		movs	r2, #20
  90 0010 1049     		ldr	r1, .L9+8
  91 0012 FFF7FEFF 		bl	Cy_Em_EEPROM_Read
  92              	.LVL1:
  49:settings.c    ****     if (rc != CY_EM_EEPROM_SUCCESS) {
  93              		.loc 1 49 0
  94 0016 0028     		cmp	r0, #0
  95 0018 04D0     		beq	.L6
  50:settings.c    ****         //TODO: defaults
  51:settings.c    ****         defaults();
  96              		.loc 1 51 0
  97 001a FFF7FEFF 		bl	defaults
  98              	.LVL2:
  52:settings.c    ****         return -1;
  99              		.loc 1 52 0
 100 001e 0120     		movs	r0, #1
 101 0020 4042     		rsbs	r0, r0, #0
 102 0022 11E0     		b	.L5
 103              	.LVL3:
 104              	.L6:
  53:settings.c    ****     }
  54:settings.c    **** 
  55:settings.c    ****     // See if we have some valid settings... if not create some...
  56:settings.c    ****     if (settings.signature != SIGNATURE) {
 105              		.loc 1 56 0
 106 0024 0B4B     		ldr	r3, .L9+8
 107 0026 1A68     		ldr	r2, [r3]
 108 0028 0B4B     		ldr	r3, .L9+12
 109 002a 9A42     		cmp	r2, r3
 110 002c 06D0     		beq	.L7
  57:settings.c    ****         settings.signature = SIGNATURE;
 111              		.loc 1 57 0
 112 002e 094B     		ldr	r3, .L9+8
 113 0030 094A     		ldr	r2, .L9+12
 114 0032 1A60     		str	r2, [r3]
ARM GAS  C:\Users\essele\AppData\Local\Temp\ccUeLsA3.s 			page 4


  58:settings.c    ****         settings.version = VERSION;
 115              		.loc 1 58 0
 116 0034 0122     		movs	r2, #1
 117 0036 9A80     		strh	r2, [r3, #4]
  59:settings.c    **** 
  60:settings.c    ****         defaults();    
 118              		.loc 1 60 0
 119 0038 FFF7FEFF 		bl	defaults
 120              	.LVL4:
 121              	.L7:
  61:settings.c    ****     }
  62:settings.c    ****     // Force defaults for testing (REMOVE!)
  63:settings.c    ****     // REMOVE
  64:settings.c    ****     // REMOVE
  65:settings.c    ****     // REMOVE
  66:settings.c    ****     defaults();
 122              		.loc 1 66 0
 123 003c FFF7FEFF 		bl	defaults
 124              	.LVL5:
  67:settings.c    ****     return 0;
 125              		.loc 1 67 0
 126 0040 0020     		movs	r0, #0
 127 0042 01E0     		b	.L5
 128              	.LVL6:
 129              	.L8:
  44:settings.c    ****     }
 130              		.loc 1 44 0
 131 0044 0120     		movs	r0, #1
 132              	.LVL7:
 133 0046 4042     		rsbs	r0, r0, #0
 134              	.L5:
  68:settings.c    **** }
 135              		.loc 1 68 0
 136              		@ sp needed
 137 0048 10BD     		pop	{r4, pc}
 138              	.L10:
 139 004a C046     		.align	2
 140              	.L9:
 141 004c 00000000 		.word	.LANCHOR0
 142 0050 00000000 		.word	EEPROM_context
 143 0054 00000000 		.word	settings
 144 0058 49ADDDBA 		.word	-1159877303
 145              		.cfi_endproc
 146              	.LFE35:
 147              		.size	settings_init, .-settings_init
 148              		.section	.text.settings_save,"ax",%progbits
 149              		.align	2
 150              		.global	settings_save
 151              		.code	16
 152              		.thumb_func
 153              		.type	settings_save, %function
 154              	settings_save:
 155              	.LFB36:
  69:settings.c    **** 
  70:settings.c    **** int settings_save() {
 156              		.loc 1 70 0
 157              		.cfi_startproc
ARM GAS  C:\Users\essele\AppData\Local\Temp\ccUeLsA3.s 			page 5


 158              		@ args = 0, pretend = 0, frame = 0
 159              		@ frame_needed = 0, uses_anonymous_args = 0
 160 0000 10B5     		push	{r4, lr}
 161              		.cfi_def_cfa_offset 8
 162              		.cfi_offset 4, -8
 163              		.cfi_offset 14, -4
  71:settings.c    ****     cy_en_em_eeprom_status_t rc; 
  72:settings.c    **** 
  73:settings.c    ****     rc = EEPROM_Write(0, &settings, sizeof(struct settings));
 164              		.loc 1 73 0
 165 0002 064B     		ldr	r3, .L14
 166 0004 1422     		movs	r2, #20
 167 0006 0649     		ldr	r1, .L14+4
 168 0008 0020     		movs	r0, #0
 169 000a FFF7FEFF 		bl	Cy_Em_EEPROM_Write
 170              	.LVL8:
  74:settings.c    ****     if (rc != CY_EM_EEPROM_SUCCESS) {
 171              		.loc 1 74 0
 172 000e 0028     		cmp	r0, #0
 173 0010 02D0     		beq	.L13
  75:settings.c    ****         // TODO: error handling
  76:settings.c    ****         return -1;
 174              		.loc 1 76 0
 175 0012 0120     		movs	r0, #1
 176              	.LVL9:
 177 0014 4042     		rsbs	r0, r0, #0
 178 0016 00E0     		b	.L12
 179              	.LVL10:
 180              	.L13:
  77:settings.c    ****     }
  78:settings.c    ****     return 0;
 181              		.loc 1 78 0
 182 0018 0020     		movs	r0, #0
 183              	.LVL11:
 184              	.L12:
  79:settings.c    **** }
 185              		.loc 1 79 0
 186              		@ sp needed
 187 001a 10BD     		pop	{r4, pc}
 188              	.L15:
 189              		.align	2
 190              	.L14:
 191 001c 00000000 		.word	EEPROM_context
 192 0020 00000000 		.word	settings
 193              		.cfi_endproc
 194              	.LFE36:
 195              		.size	settings_save, .-settings_save
 196              		.comm	settings,20,4
 197              		.global	eeprom
 198              		.section	.rodata
 199              		.align	8
 200              		.set	.LANCHOR0,. + 0
 201              		.type	eeprom, %object
 202              		.size	eeprom, 512
 203              	eeprom:
 204 0000 00000000 		.space	512
 204      00000000 
ARM GAS  C:\Users\essele\AppData\Local\Temp\ccUeLsA3.s 			page 6


 204      00000000 
 204      00000000 
 204      00000000 
 205              		.text
 206              	.Letext0:
 207              		.file 2 "c:\\program files (x86)\\cypress\\psoc creator\\4.2\\psoc creator\\import\\gnu\\arm\\5.4.
 208              		.file 3 "c:\\program files (x86)\\cypress\\psoc creator\\4.2\\psoc creator\\import\\gnu\\arm\\5.4.
 209              		.file 4 "Generated_Source\\PSoC4/cytypes.h"
 210              		.file 5 "Generated_Source\\PSoC4/cy_em_eeprom.h"
 211              		.file 6 "settings.h"
 212              		.file 7 "Generated_Source\\PSoC4/EEPROM.h"