ARM GAS  C:\Users\essele\AppData\Local\Temp\ccwDBPw1.s 			page 1


   1              		.syntax unified
   2              		.cpu cortex-m0
   3              		.fpu softvfp
   4              		.eabi_attribute 20, 1
   5              		.eabi_attribute 21, 1
   6              		.eabi_attribute 23, 3
   7              		.eabi_attribute 24, 1
   8              		.eabi_attribute 25, 1
   9              		.eabi_attribute 26, 1
  10              		.eabi_attribute 30, 6
  11              		.eabi_attribute 34, 0
  12              		.eabi_attribute 18, 4
  13              		.thumb
  14              		.syntax unified
  15              		.file	"Timer1.c"
  16              		.text
  17              	.Ltext0:
  18              		.cfi_sections	.debug_frame
  19              		.global	Timer1_initVar
  20              		.bss
  21              		.type	Timer1_initVar, %object
  22              		.size	Timer1_initVar, 1
  23              	Timer1_initVar:
  24 0000 00       		.space	1
  25              		.section	.text.Timer1_Init,"ax",%progbits
  26              		.align	2
  27              		.global	Timer1_Init
  28              		.code	16
  29              		.thumb_func
  30              		.type	Timer1_Init, %function
  31              	Timer1_Init:
  32              	.LFB1:
  33              		.file 1 "Generated_Source\\PSoC4\\Timer1.c"
   1:Generated_Source\PSoC4/Timer1.c **** /*******************************************************************************
   2:Generated_Source\PSoC4/Timer1.c **** * File Name: Timer1.c
   3:Generated_Source\PSoC4/Timer1.c **** * Version 2.10
   4:Generated_Source\PSoC4/Timer1.c **** *
   5:Generated_Source\PSoC4/Timer1.c **** * Description:
   6:Generated_Source\PSoC4/Timer1.c **** *  This file provides the source code to the API for the Timer1
   7:Generated_Source\PSoC4/Timer1.c **** *  component
   8:Generated_Source\PSoC4/Timer1.c **** *
   9:Generated_Source\PSoC4/Timer1.c **** * Note:
  10:Generated_Source\PSoC4/Timer1.c **** *  None
  11:Generated_Source\PSoC4/Timer1.c **** *
  12:Generated_Source\PSoC4/Timer1.c **** ********************************************************************************
  13:Generated_Source\PSoC4/Timer1.c **** * Copyright 2013-2015, Cypress Semiconductor Corporation.  All rights reserved.
  14:Generated_Source\PSoC4/Timer1.c **** * You may use this file only in accordance with the license, terms, conditions,
  15:Generated_Source\PSoC4/Timer1.c **** * disclaimers, and limitations in the end user license agreement accompanying
  16:Generated_Source\PSoC4/Timer1.c **** * the software package with which this file was provided.
  17:Generated_Source\PSoC4/Timer1.c **** *******************************************************************************/
  18:Generated_Source\PSoC4/Timer1.c **** 
  19:Generated_Source\PSoC4/Timer1.c **** #include "Timer1.h"
  20:Generated_Source\PSoC4/Timer1.c **** 
  21:Generated_Source\PSoC4/Timer1.c **** uint8 Timer1_initVar = 0u;
  22:Generated_Source\PSoC4/Timer1.c **** 
  23:Generated_Source\PSoC4/Timer1.c **** 
  24:Generated_Source\PSoC4/Timer1.c **** /*******************************************************************************
ARM GAS  C:\Users\essele\AppData\Local\Temp\ccwDBPw1.s 			page 2


  25:Generated_Source\PSoC4/Timer1.c **** * Function Name: Timer1_Init
  26:Generated_Source\PSoC4/Timer1.c **** ********************************************************************************
  27:Generated_Source\PSoC4/Timer1.c **** *
  28:Generated_Source\PSoC4/Timer1.c **** * Summary:
  29:Generated_Source\PSoC4/Timer1.c **** *  Initialize/Restore default Timer1 configuration.
  30:Generated_Source\PSoC4/Timer1.c **** *
  31:Generated_Source\PSoC4/Timer1.c **** * Parameters:
  32:Generated_Source\PSoC4/Timer1.c **** *  None
  33:Generated_Source\PSoC4/Timer1.c **** *
  34:Generated_Source\PSoC4/Timer1.c **** * Return:
  35:Generated_Source\PSoC4/Timer1.c **** *  None
  36:Generated_Source\PSoC4/Timer1.c **** *
  37:Generated_Source\PSoC4/Timer1.c **** *******************************************************************************/
  38:Generated_Source\PSoC4/Timer1.c **** void Timer1_Init(void)
  39:Generated_Source\PSoC4/Timer1.c **** {
  34              		.loc 1 39 0
  35              		.cfi_startproc
  36              		@ args = 0, pretend = 0, frame = 0
  37              		@ frame_needed = 1, uses_anonymous_args = 0
  38 0000 80B5     		push	{r7, lr}
  39              		.cfi_def_cfa_offset 8
  40              		.cfi_offset 7, -8
  41              		.cfi_offset 14, -4
  42 0002 00AF     		add	r7, sp, #0
  43              		.cfi_def_cfa_register 7
  40:Generated_Source\PSoC4/Timer1.c **** 
  41:Generated_Source\PSoC4/Timer1.c ****     /* Set values from customizer to CTRL */
  42:Generated_Source\PSoC4/Timer1.c ****     #if (Timer1__QUAD == Timer1_CONFIG)
  43:Generated_Source\PSoC4/Timer1.c ****         Timer1_CONTROL_REG = Timer1_CTRL_QUAD_BASE_CONFIG;
  44:Generated_Source\PSoC4/Timer1.c ****         
  45:Generated_Source\PSoC4/Timer1.c ****         /* Set values from customizer to CTRL1 */
  46:Generated_Source\PSoC4/Timer1.c ****         Timer1_TRIG_CONTROL1_REG  = Timer1_QUAD_SIGNALS_MODES;
  47:Generated_Source\PSoC4/Timer1.c **** 
  48:Generated_Source\PSoC4/Timer1.c ****         /* Set values from customizer to INTR */
  49:Generated_Source\PSoC4/Timer1.c ****         Timer1_SetInterruptMode(Timer1_QUAD_INTERRUPT_MASK);
  50:Generated_Source\PSoC4/Timer1.c ****         
  51:Generated_Source\PSoC4/Timer1.c ****          /* Set other values */
  52:Generated_Source\PSoC4/Timer1.c ****         Timer1_SetCounterMode(Timer1_COUNT_DOWN);
  53:Generated_Source\PSoC4/Timer1.c ****         Timer1_WritePeriod(Timer1_QUAD_PERIOD_INIT_VALUE);
  54:Generated_Source\PSoC4/Timer1.c ****         Timer1_WriteCounter(Timer1_QUAD_PERIOD_INIT_VALUE);
  55:Generated_Source\PSoC4/Timer1.c ****     #endif  /* (Timer1__QUAD == Timer1_CONFIG) */
  56:Generated_Source\PSoC4/Timer1.c **** 
  57:Generated_Source\PSoC4/Timer1.c ****     #if (Timer1__TIMER == Timer1_CONFIG)
  58:Generated_Source\PSoC4/Timer1.c ****         Timer1_CONTROL_REG = Timer1_CTRL_TIMER_BASE_CONFIG;
  44              		.loc 1 58 0
  45 0004 094B     		ldr	r3, .L2
  46 0006 8122     		movs	r2, #129
  47 0008 9204     		lsls	r2, r2, #18
  48 000a 1A60     		str	r2, [r3]
  59:Generated_Source\PSoC4/Timer1.c ****         
  60:Generated_Source\PSoC4/Timer1.c ****         /* Set values from customizer to CTRL1 */
  61:Generated_Source\PSoC4/Timer1.c ****         Timer1_TRIG_CONTROL1_REG  = Timer1_TIMER_SIGNALS_MODES;
  49              		.loc 1 61 0
  50 000c 084B     		ldr	r3, .L2+4
  51 000e 0C22     		movs	r2, #12
  52 0010 1A60     		str	r2, [r3]
  62:Generated_Source\PSoC4/Timer1.c ****     
ARM GAS  C:\Users\essele\AppData\Local\Temp\ccwDBPw1.s 			page 3


  63:Generated_Source\PSoC4/Timer1.c ****         /* Set values from customizer to INTR */
  64:Generated_Source\PSoC4/Timer1.c ****         Timer1_SetInterruptMode(Timer1_TC_INTERRUPT_MASK);
  53              		.loc 1 64 0
  54 0012 0020     		movs	r0, #0
  55 0014 FFF7FEFF 		bl	Timer1_SetInterruptMode
  65:Generated_Source\PSoC4/Timer1.c ****         
  66:Generated_Source\PSoC4/Timer1.c ****         /* Set other values from customizer */
  67:Generated_Source\PSoC4/Timer1.c ****         Timer1_WritePeriod(Timer1_TC_PERIOD_VALUE );
  56              		.loc 1 67 0
  57 0018 064B     		ldr	r3, .L2+8
  58 001a 1800     		movs	r0, r3
  59 001c FFF7FEFF 		bl	Timer1_WritePeriod
  68:Generated_Source\PSoC4/Timer1.c **** 
  69:Generated_Source\PSoC4/Timer1.c ****         #if (Timer1__COMPARE == Timer1_TC_COMP_CAP_MODE)
  70:Generated_Source\PSoC4/Timer1.c ****             Timer1_WriteCompare(Timer1_TC_COMPARE_VALUE);
  71:Generated_Source\PSoC4/Timer1.c **** 
  72:Generated_Source\PSoC4/Timer1.c ****             #if (1u == Timer1_TC_COMPARE_SWAP)
  73:Generated_Source\PSoC4/Timer1.c ****                 Timer1_SetCompareSwap(1u);
  74:Generated_Source\PSoC4/Timer1.c ****                 Timer1_WriteCompareBuf(Timer1_TC_COMPARE_BUF_VALUE);
  75:Generated_Source\PSoC4/Timer1.c ****             #endif  /* (1u == Timer1_TC_COMPARE_SWAP) */
  76:Generated_Source\PSoC4/Timer1.c ****         #endif  /* (Timer1__COMPARE == Timer1_TC_COMP_CAP_MODE) */
  77:Generated_Source\PSoC4/Timer1.c **** 
  78:Generated_Source\PSoC4/Timer1.c ****         /* Initialize counter value */
  79:Generated_Source\PSoC4/Timer1.c ****         #if (Timer1_CY_TCPWM_V2 && Timer1_TIMER_UPDOWN_CNT_USED && !Timer1_CY_TCPWM_4000)
  80:Generated_Source\PSoC4/Timer1.c ****             Timer1_WriteCounter(1u);
  81:Generated_Source\PSoC4/Timer1.c ****         #elif(Timer1__COUNT_DOWN == Timer1_TC_COUNTER_MODE)
  82:Generated_Source\PSoC4/Timer1.c ****             Timer1_WriteCounter(Timer1_TC_PERIOD_VALUE);
  83:Generated_Source\PSoC4/Timer1.c ****         #else
  84:Generated_Source\PSoC4/Timer1.c ****             Timer1_WriteCounter(0u);
  60              		.loc 1 84 0
  61 0020 0020     		movs	r0, #0
  62 0022 FFF7FEFF 		bl	Timer1_WriteCounter
  85:Generated_Source\PSoC4/Timer1.c ****         #endif /* (Timer1_CY_TCPWM_V2 && Timer1_TIMER_UPDOWN_CNT_USED && !Timer1_CY_TCPWM_4000) */
  86:Generated_Source\PSoC4/Timer1.c ****     #endif  /* (Timer1__TIMER == Timer1_CONFIG) */
  87:Generated_Source\PSoC4/Timer1.c **** 
  88:Generated_Source\PSoC4/Timer1.c ****     #if (Timer1__PWM_SEL == Timer1_CONFIG)
  89:Generated_Source\PSoC4/Timer1.c ****         Timer1_CONTROL_REG = Timer1_CTRL_PWM_BASE_CONFIG;
  90:Generated_Source\PSoC4/Timer1.c **** 
  91:Generated_Source\PSoC4/Timer1.c ****         #if (Timer1__PWM_PR == Timer1_PWM_MODE)
  92:Generated_Source\PSoC4/Timer1.c ****             Timer1_CONTROL_REG |= Timer1_CTRL_PWM_RUN_MODE;
  93:Generated_Source\PSoC4/Timer1.c ****             Timer1_WriteCounter(Timer1_PWM_PR_INIT_VALUE);
  94:Generated_Source\PSoC4/Timer1.c ****         #else
  95:Generated_Source\PSoC4/Timer1.c ****             Timer1_CONTROL_REG |= Timer1_CTRL_PWM_ALIGN | Timer1_CTRL_PWM_KILL_EVENT;
  96:Generated_Source\PSoC4/Timer1.c ****             
  97:Generated_Source\PSoC4/Timer1.c ****             /* Initialize counter value */
  98:Generated_Source\PSoC4/Timer1.c ****             #if (Timer1_CY_TCPWM_V2 && Timer1_PWM_UPDOWN_CNT_USED && !Timer1_CY_TCPWM_4000)
  99:Generated_Source\PSoC4/Timer1.c ****                 Timer1_WriteCounter(1u);
 100:Generated_Source\PSoC4/Timer1.c ****             #elif (Timer1__RIGHT == Timer1_PWM_ALIGN)
 101:Generated_Source\PSoC4/Timer1.c ****                 Timer1_WriteCounter(Timer1_PWM_PERIOD_VALUE);
 102:Generated_Source\PSoC4/Timer1.c ****             #else 
 103:Generated_Source\PSoC4/Timer1.c ****                 Timer1_WriteCounter(0u);
 104:Generated_Source\PSoC4/Timer1.c ****             #endif  /* (Timer1_CY_TCPWM_V2 && Timer1_PWM_UPDOWN_CNT_USED && !Timer1_CY_TCPWM_4000) 
 105:Generated_Source\PSoC4/Timer1.c ****         #endif  /* (Timer1__PWM_PR == Timer1_PWM_MODE) */
 106:Generated_Source\PSoC4/Timer1.c **** 
 107:Generated_Source\PSoC4/Timer1.c ****         #if (Timer1__PWM_DT == Timer1_PWM_MODE)
 108:Generated_Source\PSoC4/Timer1.c ****             Timer1_CONTROL_REG |= Timer1_CTRL_PWM_DEAD_TIME_CYCLE;
 109:Generated_Source\PSoC4/Timer1.c ****         #endif  /* (Timer1__PWM_DT == Timer1_PWM_MODE) */
ARM GAS  C:\Users\essele\AppData\Local\Temp\ccwDBPw1.s 			page 4


 110:Generated_Source\PSoC4/Timer1.c **** 
 111:Generated_Source\PSoC4/Timer1.c ****         #if (Timer1__PWM == Timer1_PWM_MODE)
 112:Generated_Source\PSoC4/Timer1.c ****             Timer1_CONTROL_REG |= Timer1_CTRL_PWM_PRESCALER;
 113:Generated_Source\PSoC4/Timer1.c ****         #endif  /* (Timer1__PWM == Timer1_PWM_MODE) */
 114:Generated_Source\PSoC4/Timer1.c **** 
 115:Generated_Source\PSoC4/Timer1.c ****         /* Set values from customizer to CTRL1 */
 116:Generated_Source\PSoC4/Timer1.c ****         Timer1_TRIG_CONTROL1_REG  = Timer1_PWM_SIGNALS_MODES;
 117:Generated_Source\PSoC4/Timer1.c ****     
 118:Generated_Source\PSoC4/Timer1.c ****         /* Set values from customizer to INTR */
 119:Generated_Source\PSoC4/Timer1.c ****         Timer1_SetInterruptMode(Timer1_PWM_INTERRUPT_MASK);
 120:Generated_Source\PSoC4/Timer1.c **** 
 121:Generated_Source\PSoC4/Timer1.c ****         /* Set values from customizer to CTRL2 */
 122:Generated_Source\PSoC4/Timer1.c ****         #if (Timer1__PWM_PR == Timer1_PWM_MODE)
 123:Generated_Source\PSoC4/Timer1.c ****             Timer1_TRIG_CONTROL2_REG =
 124:Generated_Source\PSoC4/Timer1.c ****                     (Timer1_CC_MATCH_NO_CHANGE    |
 125:Generated_Source\PSoC4/Timer1.c ****                     Timer1_OVERLOW_NO_CHANGE      |
 126:Generated_Source\PSoC4/Timer1.c ****                     Timer1_UNDERFLOW_NO_CHANGE);
 127:Generated_Source\PSoC4/Timer1.c ****         #else
 128:Generated_Source\PSoC4/Timer1.c ****             #if (Timer1__LEFT == Timer1_PWM_ALIGN)
 129:Generated_Source\PSoC4/Timer1.c ****                 Timer1_TRIG_CONTROL2_REG = Timer1_PWM_MODE_LEFT;
 130:Generated_Source\PSoC4/Timer1.c ****             #endif  /* ( Timer1_PWM_LEFT == Timer1_PWM_ALIGN) */
 131:Generated_Source\PSoC4/Timer1.c **** 
 132:Generated_Source\PSoC4/Timer1.c ****             #if (Timer1__RIGHT == Timer1_PWM_ALIGN)
 133:Generated_Source\PSoC4/Timer1.c ****                 Timer1_TRIG_CONTROL2_REG = Timer1_PWM_MODE_RIGHT;
 134:Generated_Source\PSoC4/Timer1.c ****             #endif  /* ( Timer1_PWM_RIGHT == Timer1_PWM_ALIGN) */
 135:Generated_Source\PSoC4/Timer1.c **** 
 136:Generated_Source\PSoC4/Timer1.c ****             #if (Timer1__CENTER == Timer1_PWM_ALIGN)
 137:Generated_Source\PSoC4/Timer1.c ****                 Timer1_TRIG_CONTROL2_REG = Timer1_PWM_MODE_CENTER;
 138:Generated_Source\PSoC4/Timer1.c ****             #endif  /* ( Timer1_PWM_CENTER == Timer1_PWM_ALIGN) */
 139:Generated_Source\PSoC4/Timer1.c **** 
 140:Generated_Source\PSoC4/Timer1.c ****             #if (Timer1__ASYMMETRIC == Timer1_PWM_ALIGN)
 141:Generated_Source\PSoC4/Timer1.c ****                 Timer1_TRIG_CONTROL2_REG = Timer1_PWM_MODE_ASYM;
 142:Generated_Source\PSoC4/Timer1.c ****             #endif  /* (Timer1__ASYMMETRIC == Timer1_PWM_ALIGN) */
 143:Generated_Source\PSoC4/Timer1.c ****         #endif  /* (Timer1__PWM_PR == Timer1_PWM_MODE) */
 144:Generated_Source\PSoC4/Timer1.c **** 
 145:Generated_Source\PSoC4/Timer1.c ****         /* Set other values from customizer */
 146:Generated_Source\PSoC4/Timer1.c ****         Timer1_WritePeriod(Timer1_PWM_PERIOD_VALUE );
 147:Generated_Source\PSoC4/Timer1.c ****         Timer1_WriteCompare(Timer1_PWM_COMPARE_VALUE);
 148:Generated_Source\PSoC4/Timer1.c **** 
 149:Generated_Source\PSoC4/Timer1.c ****         #if (1u == Timer1_PWM_COMPARE_SWAP)
 150:Generated_Source\PSoC4/Timer1.c ****             Timer1_SetCompareSwap(1u);
 151:Generated_Source\PSoC4/Timer1.c ****             Timer1_WriteCompareBuf(Timer1_PWM_COMPARE_BUF_VALUE);
 152:Generated_Source\PSoC4/Timer1.c ****         #endif  /* (1u == Timer1_PWM_COMPARE_SWAP) */
 153:Generated_Source\PSoC4/Timer1.c **** 
 154:Generated_Source\PSoC4/Timer1.c ****         #if (1u == Timer1_PWM_PERIOD_SWAP)
 155:Generated_Source\PSoC4/Timer1.c ****             Timer1_SetPeriodSwap(1u);
 156:Generated_Source\PSoC4/Timer1.c ****             Timer1_WritePeriodBuf(Timer1_PWM_PERIOD_BUF_VALUE);
 157:Generated_Source\PSoC4/Timer1.c ****         #endif  /* (1u == Timer1_PWM_PERIOD_SWAP) */
 158:Generated_Source\PSoC4/Timer1.c ****     #endif  /* (Timer1__PWM_SEL == Timer1_CONFIG) */
 159:Generated_Source\PSoC4/Timer1.c ****     
 160:Generated_Source\PSoC4/Timer1.c **** }
  63              		.loc 1 160 0
  64 0026 C046     		nop
  65 0028 BD46     		mov	sp, r7
  66              		@ sp needed
  67 002a 80BD     		pop	{r7, pc}
  68              	.L3:
ARM GAS  C:\Users\essele\AppData\Local\Temp\ccwDBPw1.s 			page 5


  69              		.align	2
  70              	.L2:
  71 002c 00012040 		.word	1075839232
  72 0030 24012040 		.word	1075839268
  73 0034 FFFF0000 		.word	65535
  74              		.cfi_endproc
  75              	.LFE1:
  76              		.size	Timer1_Init, .-Timer1_Init
  77              		.section	.text.Timer1_Enable,"ax",%progbits
  78              		.align	2
  79              		.global	Timer1_Enable
  80              		.code	16
  81              		.thumb_func
  82              		.type	Timer1_Enable, %function
  83              	Timer1_Enable:
  84              	.LFB2:
 161:Generated_Source\PSoC4/Timer1.c **** 
 162:Generated_Source\PSoC4/Timer1.c **** 
 163:Generated_Source\PSoC4/Timer1.c **** /*******************************************************************************
 164:Generated_Source\PSoC4/Timer1.c **** * Function Name: Timer1_Enable
 165:Generated_Source\PSoC4/Timer1.c **** ********************************************************************************
 166:Generated_Source\PSoC4/Timer1.c **** *
 167:Generated_Source\PSoC4/Timer1.c **** * Summary:
 168:Generated_Source\PSoC4/Timer1.c **** *  Enables the Timer1.
 169:Generated_Source\PSoC4/Timer1.c **** *
 170:Generated_Source\PSoC4/Timer1.c **** * Parameters:
 171:Generated_Source\PSoC4/Timer1.c **** *  None
 172:Generated_Source\PSoC4/Timer1.c **** *
 173:Generated_Source\PSoC4/Timer1.c **** * Return:
 174:Generated_Source\PSoC4/Timer1.c **** *  None
 175:Generated_Source\PSoC4/Timer1.c **** *
 176:Generated_Source\PSoC4/Timer1.c **** *******************************************************************************/
 177:Generated_Source\PSoC4/Timer1.c **** void Timer1_Enable(void)
 178:Generated_Source\PSoC4/Timer1.c **** {
  85              		.loc 1 178 0
  86              		.cfi_startproc
  87              		@ args = 0, pretend = 0, frame = 8
  88              		@ frame_needed = 1, uses_anonymous_args = 0
  89 0000 90B5     		push	{r4, r7, lr}
  90              		.cfi_def_cfa_offset 12
  91              		.cfi_offset 4, -12
  92              		.cfi_offset 7, -8
  93              		.cfi_offset 14, -4
  94 0002 83B0     		sub	sp, sp, #12
  95              		.cfi_def_cfa_offset 24
  96 0004 00AF     		add	r7, sp, #0
  97              		.cfi_def_cfa_register 7
 179:Generated_Source\PSoC4/Timer1.c ****     uint8 enableInterrupts;
 180:Generated_Source\PSoC4/Timer1.c **** 
 181:Generated_Source\PSoC4/Timer1.c ****     enableInterrupts = CyEnterCriticalSection();
  98              		.loc 1 181 0
  99 0006 FC1D     		adds	r4, r7, #7
 100 0008 FFF7FEFF 		bl	CyEnterCriticalSection
 101 000c 0300     		movs	r3, r0
 102 000e 2370     		strb	r3, [r4]
 182:Generated_Source\PSoC4/Timer1.c ****     Timer1_BLOCK_CONTROL_REG |= Timer1_MASK;
 103              		.loc 1 182 0
ARM GAS  C:\Users\essele\AppData\Local\Temp\ccwDBPw1.s 			page 6


 104 0010 094B     		ldr	r3, .L5
 105 0012 094A     		ldr	r2, .L5
 106 0014 1268     		ldr	r2, [r2]
 107 0016 0121     		movs	r1, #1
 108 0018 0A43     		orrs	r2, r1
 109 001a 1A60     		str	r2, [r3]
 183:Generated_Source\PSoC4/Timer1.c ****     CyExitCriticalSection(enableInterrupts);
 110              		.loc 1 183 0
 111 001c FB1D     		adds	r3, r7, #7
 112 001e 1B78     		ldrb	r3, [r3]
 113 0020 1800     		movs	r0, r3
 114 0022 FFF7FEFF 		bl	CyExitCriticalSection
 184:Generated_Source\PSoC4/Timer1.c **** 
 185:Generated_Source\PSoC4/Timer1.c ****     /* Start Timer or PWM if start input is absent */
 186:Generated_Source\PSoC4/Timer1.c ****     #if (Timer1__PWM_SEL == Timer1_CONFIG)
 187:Generated_Source\PSoC4/Timer1.c ****         #if (0u == Timer1_PWM_START_SIGNAL_PRESENT)
 188:Generated_Source\PSoC4/Timer1.c ****             Timer1_TriggerCommand(Timer1_MASK, Timer1_CMD_START);
 189:Generated_Source\PSoC4/Timer1.c ****         #endif /* (0u == Timer1_PWM_START_SIGNAL_PRESENT) */
 190:Generated_Source\PSoC4/Timer1.c ****     #endif /* (Timer1__PWM_SEL == Timer1_CONFIG) */
 191:Generated_Source\PSoC4/Timer1.c **** 
 192:Generated_Source\PSoC4/Timer1.c ****     #if (Timer1__TIMER == Timer1_CONFIG)
 193:Generated_Source\PSoC4/Timer1.c ****         #if (0u == Timer1_TC_START_SIGNAL_PRESENT)
 194:Generated_Source\PSoC4/Timer1.c ****             Timer1_TriggerCommand(Timer1_MASK, Timer1_CMD_START);
 115              		.loc 1 194 0
 116 0026 1821     		movs	r1, #24
 117 0028 0120     		movs	r0, #1
 118 002a FFF7FEFF 		bl	Timer1_TriggerCommand
 195:Generated_Source\PSoC4/Timer1.c ****         #endif /* (0u == Timer1_TC_START_SIGNAL_PRESENT) */
 196:Generated_Source\PSoC4/Timer1.c ****     #endif /* (Timer1__TIMER == Timer1_CONFIG) */
 197:Generated_Source\PSoC4/Timer1.c ****     
 198:Generated_Source\PSoC4/Timer1.c ****     #if (Timer1__QUAD == Timer1_CONFIG)
 199:Generated_Source\PSoC4/Timer1.c ****         #if (0u != Timer1_QUAD_AUTO_START)
 200:Generated_Source\PSoC4/Timer1.c ****             Timer1_TriggerCommand(Timer1_MASK, Timer1_CMD_RELOAD);
 201:Generated_Source\PSoC4/Timer1.c ****         #endif /* (0u != Timer1_QUAD_AUTO_START) */
 202:Generated_Source\PSoC4/Timer1.c ****     #endif  /* (Timer1__QUAD == Timer1_CONFIG) */
 203:Generated_Source\PSoC4/Timer1.c **** }
 119              		.loc 1 203 0
 120 002e C046     		nop
 121 0030 BD46     		mov	sp, r7
 122 0032 03B0     		add	sp, sp, #12
 123              		@ sp needed
 124 0034 90BD     		pop	{r4, r7, pc}
 125              	.L6:
 126 0036 C046     		.align	2
 127              	.L5:
 128 0038 00002040 		.word	1075838976
 129              		.cfi_endproc
 130              	.LFE2:
 131              		.size	Timer1_Enable, .-Timer1_Enable
 132              		.section	.text.Timer1_Start,"ax",%progbits
 133              		.align	2
 134              		.global	Timer1_Start
 135              		.code	16
 136              		.thumb_func
 137              		.type	Timer1_Start, %function
 138              	Timer1_Start:
 139              	.LFB3:
ARM GAS  C:\Users\essele\AppData\Local\Temp\ccwDBPw1.s 			page 7


 204:Generated_Source\PSoC4/Timer1.c **** 
 205:Generated_Source\PSoC4/Timer1.c **** 
 206:Generated_Source\PSoC4/Timer1.c **** /*******************************************************************************
 207:Generated_Source\PSoC4/Timer1.c **** * Function Name: Timer1_Start
 208:Generated_Source\PSoC4/Timer1.c **** ********************************************************************************
 209:Generated_Source\PSoC4/Timer1.c **** *
 210:Generated_Source\PSoC4/Timer1.c **** * Summary:
 211:Generated_Source\PSoC4/Timer1.c **** *  Initializes the Timer1 with default customizer
 212:Generated_Source\PSoC4/Timer1.c **** *  values when called the first time and enables the Timer1.
 213:Generated_Source\PSoC4/Timer1.c **** *  For subsequent calls the configuration is left unchanged and the component is
 214:Generated_Source\PSoC4/Timer1.c **** *  just enabled.
 215:Generated_Source\PSoC4/Timer1.c **** *
 216:Generated_Source\PSoC4/Timer1.c **** * Parameters:
 217:Generated_Source\PSoC4/Timer1.c **** *  None
 218:Generated_Source\PSoC4/Timer1.c **** *
 219:Generated_Source\PSoC4/Timer1.c **** * Return:
 220:Generated_Source\PSoC4/Timer1.c **** *  None
 221:Generated_Source\PSoC4/Timer1.c **** *
 222:Generated_Source\PSoC4/Timer1.c **** * Global variables:
 223:Generated_Source\PSoC4/Timer1.c **** *  Timer1_initVar: global variable is used to indicate initial
 224:Generated_Source\PSoC4/Timer1.c **** *  configuration of this component.  The variable is initialized to zero and set
 225:Generated_Source\PSoC4/Timer1.c **** *  to 1 the first time Timer1_Start() is called. This allows
 226:Generated_Source\PSoC4/Timer1.c **** *  enabling/disabling a component without re-initialization in all subsequent
 227:Generated_Source\PSoC4/Timer1.c **** *  calls to the Timer1_Start() routine.
 228:Generated_Source\PSoC4/Timer1.c **** *
 229:Generated_Source\PSoC4/Timer1.c **** *******************************************************************************/
 230:Generated_Source\PSoC4/Timer1.c **** void Timer1_Start(void)
 231:Generated_Source\PSoC4/Timer1.c **** {
 140              		.loc 1 231 0
 141              		.cfi_startproc
 142              		@ args = 0, pretend = 0, frame = 0
 143              		@ frame_needed = 1, uses_anonymous_args = 0
 144 0000 80B5     		push	{r7, lr}
 145              		.cfi_def_cfa_offset 8
 146              		.cfi_offset 7, -8
 147              		.cfi_offset 14, -4
 148 0002 00AF     		add	r7, sp, #0
 149              		.cfi_def_cfa_register 7
 232:Generated_Source\PSoC4/Timer1.c ****     if (0u == Timer1_initVar)
 150              		.loc 1 232 0
 151 0004 064B     		ldr	r3, .L9
 152 0006 1B78     		ldrb	r3, [r3]
 153 0008 002B     		cmp	r3, #0
 154 000a 04D1     		bne	.L8
 233:Generated_Source\PSoC4/Timer1.c ****     {
 234:Generated_Source\PSoC4/Timer1.c ****         Timer1_Init();
 155              		.loc 1 234 0
 156 000c FFF7FEFF 		bl	Timer1_Init
 235:Generated_Source\PSoC4/Timer1.c ****         Timer1_initVar = 1u;
 157              		.loc 1 235 0
 158 0010 034B     		ldr	r3, .L9
 159 0012 0122     		movs	r2, #1
 160 0014 1A70     		strb	r2, [r3]
 161              	.L8:
 236:Generated_Source\PSoC4/Timer1.c ****     }
 237:Generated_Source\PSoC4/Timer1.c **** 
 238:Generated_Source\PSoC4/Timer1.c ****     Timer1_Enable();
ARM GAS  C:\Users\essele\AppData\Local\Temp\ccwDBPw1.s 			page 8


 162              		.loc 1 238 0
 163 0016 FFF7FEFF 		bl	Timer1_Enable
 239:Generated_Source\PSoC4/Timer1.c **** }
 164              		.loc 1 239 0
 165 001a C046     		nop
 166 001c BD46     		mov	sp, r7
 167              		@ sp needed
 168 001e 80BD     		pop	{r7, pc}
 169              	.L10:
 170              		.align	2
 171              	.L9:
 172 0020 00000000 		.word	Timer1_initVar
 173              		.cfi_endproc
 174              	.LFE3:
 175              		.size	Timer1_Start, .-Timer1_Start
 176              		.section	.text.Timer1_Stop,"ax",%progbits
 177              		.align	2
 178              		.global	Timer1_Stop
 179              		.code	16
 180              		.thumb_func
 181              		.type	Timer1_Stop, %function
 182              	Timer1_Stop:
 183              	.LFB4:
 240:Generated_Source\PSoC4/Timer1.c **** 
 241:Generated_Source\PSoC4/Timer1.c **** 
 242:Generated_Source\PSoC4/Timer1.c **** /*******************************************************************************
 243:Generated_Source\PSoC4/Timer1.c **** * Function Name: Timer1_Stop
 244:Generated_Source\PSoC4/Timer1.c **** ********************************************************************************
 245:Generated_Source\PSoC4/Timer1.c **** *
 246:Generated_Source\PSoC4/Timer1.c **** * Summary:
 247:Generated_Source\PSoC4/Timer1.c **** *  Disables the Timer1.
 248:Generated_Source\PSoC4/Timer1.c **** *
 249:Generated_Source\PSoC4/Timer1.c **** * Parameters:
 250:Generated_Source\PSoC4/Timer1.c **** *  None
 251:Generated_Source\PSoC4/Timer1.c **** *
 252:Generated_Source\PSoC4/Timer1.c **** * Return:
 253:Generated_Source\PSoC4/Timer1.c **** *  None
 254:Generated_Source\PSoC4/Timer1.c **** *
 255:Generated_Source\PSoC4/Timer1.c **** *******************************************************************************/
 256:Generated_Source\PSoC4/Timer1.c **** void Timer1_Stop(void)
 257:Generated_Source\PSoC4/Timer1.c **** {
 184              		.loc 1 257 0
 185              		.cfi_startproc
 186              		@ args = 0, pretend = 0, frame = 8
 187              		@ frame_needed = 1, uses_anonymous_args = 0
 188 0000 90B5     		push	{r4, r7, lr}
 189              		.cfi_def_cfa_offset 12
 190              		.cfi_offset 4, -12
 191              		.cfi_offset 7, -8
 192              		.cfi_offset 14, -4
 193 0002 83B0     		sub	sp, sp, #12
 194              		.cfi_def_cfa_offset 24
 195 0004 00AF     		add	r7, sp, #0
 196              		.cfi_def_cfa_register 7
 258:Generated_Source\PSoC4/Timer1.c ****     uint8 enableInterrupts;
 259:Generated_Source\PSoC4/Timer1.c **** 
 260:Generated_Source\PSoC4/Timer1.c ****     enableInterrupts = CyEnterCriticalSection();
ARM GAS  C:\Users\essele\AppData\Local\Temp\ccwDBPw1.s 			page 9


 197              		.loc 1 260 0
 198 0006 FC1D     		adds	r4, r7, #7
 199 0008 FFF7FEFF 		bl	CyEnterCriticalSection
 200 000c 0300     		movs	r3, r0
 201 000e 2370     		strb	r3, [r4]
 261:Generated_Source\PSoC4/Timer1.c **** 
 262:Generated_Source\PSoC4/Timer1.c ****     Timer1_BLOCK_CONTROL_REG &= (uint32)~Timer1_MASK;
 202              		.loc 1 262 0
 203 0010 074B     		ldr	r3, .L12
 204 0012 074A     		ldr	r2, .L12
 205 0014 1268     		ldr	r2, [r2]
 206 0016 0121     		movs	r1, #1
 207 0018 8A43     		bics	r2, r1
 208 001a 1A60     		str	r2, [r3]
 263:Generated_Source\PSoC4/Timer1.c **** 
 264:Generated_Source\PSoC4/Timer1.c ****     CyExitCriticalSection(enableInterrupts);
 209              		.loc 1 264 0
 210 001c FB1D     		adds	r3, r7, #7
 211 001e 1B78     		ldrb	r3, [r3]
 212 0020 1800     		movs	r0, r3
 213 0022 FFF7FEFF 		bl	CyExitCriticalSection
 265:Generated_Source\PSoC4/Timer1.c **** }
 214              		.loc 1 265 0
 215 0026 C046     		nop
 216 0028 BD46     		mov	sp, r7
 217 002a 03B0     		add	sp, sp, #12
 218              		@ sp needed
 219 002c 90BD     		pop	{r4, r7, pc}
 220              	.L13:
 221 002e C046     		.align	2
 222              	.L12:
 223 0030 00002040 		.word	1075838976
 224              		.cfi_endproc
 225              	.LFE4:
 226              		.size	Timer1_Stop, .-Timer1_Stop
 227              		.section	.text.Timer1_SetMode,"ax",%progbits
 228              		.align	2
 229              		.global	Timer1_SetMode
 230              		.code	16
 231              		.thumb_func
 232              		.type	Timer1_SetMode, %function
 233              	Timer1_SetMode:
 234              	.LFB5:
 266:Generated_Source\PSoC4/Timer1.c **** 
 267:Generated_Source\PSoC4/Timer1.c **** 
 268:Generated_Source\PSoC4/Timer1.c **** /*******************************************************************************
 269:Generated_Source\PSoC4/Timer1.c **** * Function Name: Timer1_SetMode
 270:Generated_Source\PSoC4/Timer1.c **** ********************************************************************************
 271:Generated_Source\PSoC4/Timer1.c **** *
 272:Generated_Source\PSoC4/Timer1.c **** * Summary:
 273:Generated_Source\PSoC4/Timer1.c **** *  Sets the operation mode of the Timer1. This function is used when
 274:Generated_Source\PSoC4/Timer1.c **** *  configured as a generic Timer1 and the actual mode of operation is
 275:Generated_Source\PSoC4/Timer1.c **** *  set at runtime. The mode must be set while the component is disabled.
 276:Generated_Source\PSoC4/Timer1.c **** *
 277:Generated_Source\PSoC4/Timer1.c **** * Parameters:
 278:Generated_Source\PSoC4/Timer1.c **** *  mode: Mode for the Timer1 to operate in
 279:Generated_Source\PSoC4/Timer1.c **** *   Values:
ARM GAS  C:\Users\essele\AppData\Local\Temp\ccwDBPw1.s 			page 10


 280:Generated_Source\PSoC4/Timer1.c **** *   - Timer1_MODE_TIMER_COMPARE - Timer / Counter with
 281:Generated_Source\PSoC4/Timer1.c **** *                                                 compare capability
 282:Generated_Source\PSoC4/Timer1.c **** *         - Timer1_MODE_TIMER_CAPTURE - Timer / Counter with
 283:Generated_Source\PSoC4/Timer1.c **** *                                                 capture capability
 284:Generated_Source\PSoC4/Timer1.c **** *         - Timer1_MODE_QUAD - Quadrature decoder
 285:Generated_Source\PSoC4/Timer1.c **** *         - Timer1_MODE_PWM - PWM
 286:Generated_Source\PSoC4/Timer1.c **** *         - Timer1_MODE_PWM_DT - PWM with dead time
 287:Generated_Source\PSoC4/Timer1.c **** *         - Timer1_MODE_PWM_PR - PWM with pseudo random capability
 288:Generated_Source\PSoC4/Timer1.c **** *
 289:Generated_Source\PSoC4/Timer1.c **** * Return:
 290:Generated_Source\PSoC4/Timer1.c **** *  None
 291:Generated_Source\PSoC4/Timer1.c **** *
 292:Generated_Source\PSoC4/Timer1.c **** *******************************************************************************/
 293:Generated_Source\PSoC4/Timer1.c **** void Timer1_SetMode(uint32 mode)
 294:Generated_Source\PSoC4/Timer1.c **** {
 235              		.loc 1 294 0
 236              		.cfi_startproc
 237              		@ args = 0, pretend = 0, frame = 16
 238              		@ frame_needed = 1, uses_anonymous_args = 0
 239 0000 90B5     		push	{r4, r7, lr}
 240              		.cfi_def_cfa_offset 12
 241              		.cfi_offset 4, -12
 242              		.cfi_offset 7, -8
 243              		.cfi_offset 14, -4
 244 0002 85B0     		sub	sp, sp, #20
 245              		.cfi_def_cfa_offset 32
 246 0004 00AF     		add	r7, sp, #0
 247              		.cfi_def_cfa_register 7
 248 0006 7860     		str	r0, [r7, #4]
 295:Generated_Source\PSoC4/Timer1.c ****     uint8 enableInterrupts;
 296:Generated_Source\PSoC4/Timer1.c **** 
 297:Generated_Source\PSoC4/Timer1.c ****     enableInterrupts = CyEnterCriticalSection();
 249              		.loc 1 297 0
 250 0008 0F23     		movs	r3, #15
 251 000a FC18     		adds	r4, r7, r3
 252 000c FFF7FEFF 		bl	CyEnterCriticalSection
 253 0010 0300     		movs	r3, r0
 254 0012 2370     		strb	r3, [r4]
 298:Generated_Source\PSoC4/Timer1.c **** 
 299:Generated_Source\PSoC4/Timer1.c ****     Timer1_CONTROL_REG &= (uint32)~Timer1_MODE_MASK;
 255              		.loc 1 299 0
 256 0014 0A4B     		ldr	r3, .L15
 257 0016 0A4A     		ldr	r2, .L15
 258 0018 1268     		ldr	r2, [r2]
 259 001a 0A49     		ldr	r1, .L15+4
 260 001c 0A40     		ands	r2, r1
 261 001e 1A60     		str	r2, [r3]
 300:Generated_Source\PSoC4/Timer1.c ****     Timer1_CONTROL_REG |= mode;
 262              		.loc 1 300 0
 263 0020 074B     		ldr	r3, .L15
 264 0022 074A     		ldr	r2, .L15
 265 0024 1168     		ldr	r1, [r2]
 266 0026 7A68     		ldr	r2, [r7, #4]
 267 0028 0A43     		orrs	r2, r1
 268 002a 1A60     		str	r2, [r3]
 301:Generated_Source\PSoC4/Timer1.c **** 
 302:Generated_Source\PSoC4/Timer1.c ****     CyExitCriticalSection(enableInterrupts);
ARM GAS  C:\Users\essele\AppData\Local\Temp\ccwDBPw1.s 			page 11


 269              		.loc 1 302 0
 270 002c 0F23     		movs	r3, #15
 271 002e FB18     		adds	r3, r7, r3
 272 0030 1B78     		ldrb	r3, [r3]
 273 0032 1800     		movs	r0, r3
 274 0034 FFF7FEFF 		bl	CyExitCriticalSection
 303:Generated_Source\PSoC4/Timer1.c **** }
 275              		.loc 1 303 0
 276 0038 C046     		nop
 277 003a BD46     		mov	sp, r7
 278 003c 05B0     		add	sp, sp, #20
 279              		@ sp needed
 280 003e 90BD     		pop	{r4, r7, pc}
 281              	.L16:
 282              		.align	2
 283              	.L15:
 284 0040 00012040 		.word	1075839232
 285 0044 FFFFFFF8 		.word	-117440513
 286              		.cfi_endproc
 287              	.LFE5:
 288              		.size	Timer1_SetMode, .-Timer1_SetMode
 289              		.section	.text.Timer1_SetQDMode,"ax",%progbits
 290              		.align	2
 291              		.global	Timer1_SetQDMode
 292              		.code	16
 293              		.thumb_func
 294              		.type	Timer1_SetQDMode, %function
 295              	Timer1_SetQDMode:
 296              	.LFB6:
 304:Generated_Source\PSoC4/Timer1.c **** 
 305:Generated_Source\PSoC4/Timer1.c **** 
 306:Generated_Source\PSoC4/Timer1.c **** /*******************************************************************************
 307:Generated_Source\PSoC4/Timer1.c **** * Function Name: Timer1_SetQDMode
 308:Generated_Source\PSoC4/Timer1.c **** ********************************************************************************
 309:Generated_Source\PSoC4/Timer1.c **** *
 310:Generated_Source\PSoC4/Timer1.c **** * Summary:
 311:Generated_Source\PSoC4/Timer1.c **** *  Sets the the Quadrature Decoder to one of the 3 supported modes.
 312:Generated_Source\PSoC4/Timer1.c **** *  Its functionality is only applicable to Quadrature Decoder operation.
 313:Generated_Source\PSoC4/Timer1.c **** *
 314:Generated_Source\PSoC4/Timer1.c **** * Parameters:
 315:Generated_Source\PSoC4/Timer1.c **** *  qdMode: Quadrature Decoder mode
 316:Generated_Source\PSoC4/Timer1.c **** *   Values:
 317:Generated_Source\PSoC4/Timer1.c **** *         - Timer1_MODE_X1 - Counts on phi 1 rising
 318:Generated_Source\PSoC4/Timer1.c **** *         - Timer1_MODE_X2 - Counts on both edges of phi1 (2x faster)
 319:Generated_Source\PSoC4/Timer1.c **** *         - Timer1_MODE_X4 - Counts on both edges of phi1 and phi2
 320:Generated_Source\PSoC4/Timer1.c **** *                                        (4x faster)
 321:Generated_Source\PSoC4/Timer1.c **** *
 322:Generated_Source\PSoC4/Timer1.c **** * Return:
 323:Generated_Source\PSoC4/Timer1.c **** *  None
 324:Generated_Source\PSoC4/Timer1.c **** *
 325:Generated_Source\PSoC4/Timer1.c **** *******************************************************************************/
 326:Generated_Source\PSoC4/Timer1.c **** void Timer1_SetQDMode(uint32 qdMode)
 327:Generated_Source\PSoC4/Timer1.c **** {
 297              		.loc 1 327 0
 298              		.cfi_startproc
 299              		@ args = 0, pretend = 0, frame = 16
 300              		@ frame_needed = 1, uses_anonymous_args = 0
ARM GAS  C:\Users\essele\AppData\Local\Temp\ccwDBPw1.s 			page 12


 301 0000 90B5     		push	{r4, r7, lr}
 302              		.cfi_def_cfa_offset 12
 303              		.cfi_offset 4, -12
 304              		.cfi_offset 7, -8
 305              		.cfi_offset 14, -4
 306 0002 85B0     		sub	sp, sp, #20
 307              		.cfi_def_cfa_offset 32
 308 0004 00AF     		add	r7, sp, #0
 309              		.cfi_def_cfa_register 7
 310 0006 7860     		str	r0, [r7, #4]
 328:Generated_Source\PSoC4/Timer1.c ****     uint8 enableInterrupts;
 329:Generated_Source\PSoC4/Timer1.c **** 
 330:Generated_Source\PSoC4/Timer1.c ****     enableInterrupts = CyEnterCriticalSection();
 311              		.loc 1 330 0
 312 0008 0F23     		movs	r3, #15
 313 000a FC18     		adds	r4, r7, r3
 314 000c FFF7FEFF 		bl	CyEnterCriticalSection
 315 0010 0300     		movs	r3, r0
 316 0012 2370     		strb	r3, [r4]
 331:Generated_Source\PSoC4/Timer1.c **** 
 332:Generated_Source\PSoC4/Timer1.c ****     Timer1_CONTROL_REG &= (uint32)~Timer1_QUAD_MODE_MASK;
 317              		.loc 1 332 0
 318 0014 0A4B     		ldr	r3, .L18
 319 0016 0A4A     		ldr	r2, .L18
 320 0018 1268     		ldr	r2, [r2]
 321 001a 0A49     		ldr	r1, .L18+4
 322 001c 0A40     		ands	r2, r1
 323 001e 1A60     		str	r2, [r3]
 333:Generated_Source\PSoC4/Timer1.c ****     Timer1_CONTROL_REG |= qdMode;
 324              		.loc 1 333 0
 325 0020 074B     		ldr	r3, .L18
 326 0022 074A     		ldr	r2, .L18
 327 0024 1168     		ldr	r1, [r2]
 328 0026 7A68     		ldr	r2, [r7, #4]
 329 0028 0A43     		orrs	r2, r1
 330 002a 1A60     		str	r2, [r3]
 334:Generated_Source\PSoC4/Timer1.c **** 
 335:Generated_Source\PSoC4/Timer1.c ****     CyExitCriticalSection(enableInterrupts);
 331              		.loc 1 335 0
 332 002c 0F23     		movs	r3, #15
 333 002e FB18     		adds	r3, r7, r3
 334 0030 1B78     		ldrb	r3, [r3]
 335 0032 1800     		movs	r0, r3
 336 0034 FFF7FEFF 		bl	CyExitCriticalSection
 336:Generated_Source\PSoC4/Timer1.c **** }
 337              		.loc 1 336 0
 338 0038 C046     		nop
 339 003a BD46     		mov	sp, r7
 340 003c 05B0     		add	sp, sp, #20
 341              		@ sp needed
 342 003e 90BD     		pop	{r4, r7, pc}
 343              	.L19:
 344              		.align	2
 345              	.L18:
 346 0040 00012040 		.word	1075839232
 347 0044 FFFF8FFF 		.word	-7340033
 348              		.cfi_endproc
ARM GAS  C:\Users\essele\AppData\Local\Temp\ccwDBPw1.s 			page 13


 349              	.LFE6:
 350              		.size	Timer1_SetQDMode, .-Timer1_SetQDMode
 351              		.section	.text.Timer1_SetPrescaler,"ax",%progbits
 352              		.align	2
 353              		.global	Timer1_SetPrescaler
 354              		.code	16
 355              		.thumb_func
 356              		.type	Timer1_SetPrescaler, %function
 357              	Timer1_SetPrescaler:
 358              	.LFB7:
 337:Generated_Source\PSoC4/Timer1.c **** 
 338:Generated_Source\PSoC4/Timer1.c **** 
 339:Generated_Source\PSoC4/Timer1.c **** /*******************************************************************************
 340:Generated_Source\PSoC4/Timer1.c **** * Function Name: Timer1_SetPrescaler
 341:Generated_Source\PSoC4/Timer1.c **** ********************************************************************************
 342:Generated_Source\PSoC4/Timer1.c **** *
 343:Generated_Source\PSoC4/Timer1.c **** * Summary:
 344:Generated_Source\PSoC4/Timer1.c **** *  Sets the prescaler value that is applied to the clock input.  Not applicable
 345:Generated_Source\PSoC4/Timer1.c **** *  to a PWM with the dead time mode or Quadrature Decoder mode.
 346:Generated_Source\PSoC4/Timer1.c **** *
 347:Generated_Source\PSoC4/Timer1.c **** * Parameters:
 348:Generated_Source\PSoC4/Timer1.c **** *  prescaler: Prescaler divider value
 349:Generated_Source\PSoC4/Timer1.c **** *   Values:
 350:Generated_Source\PSoC4/Timer1.c **** *         - Timer1_PRESCALE_DIVBY1    - Divide by 1 (no prescaling)
 351:Generated_Source\PSoC4/Timer1.c **** *         - Timer1_PRESCALE_DIVBY2    - Divide by 2
 352:Generated_Source\PSoC4/Timer1.c **** *         - Timer1_PRESCALE_DIVBY4    - Divide by 4
 353:Generated_Source\PSoC4/Timer1.c **** *         - Timer1_PRESCALE_DIVBY8    - Divide by 8
 354:Generated_Source\PSoC4/Timer1.c **** *         - Timer1_PRESCALE_DIVBY16   - Divide by 16
 355:Generated_Source\PSoC4/Timer1.c **** *         - Timer1_PRESCALE_DIVBY32   - Divide by 32
 356:Generated_Source\PSoC4/Timer1.c **** *         - Timer1_PRESCALE_DIVBY64   - Divide by 64
 357:Generated_Source\PSoC4/Timer1.c **** *         - Timer1_PRESCALE_DIVBY128  - Divide by 128
 358:Generated_Source\PSoC4/Timer1.c **** *
 359:Generated_Source\PSoC4/Timer1.c **** * Return:
 360:Generated_Source\PSoC4/Timer1.c **** *  None
 361:Generated_Source\PSoC4/Timer1.c **** *
 362:Generated_Source\PSoC4/Timer1.c **** *******************************************************************************/
 363:Generated_Source\PSoC4/Timer1.c **** void Timer1_SetPrescaler(uint32 prescaler)
 364:Generated_Source\PSoC4/Timer1.c **** {
 359              		.loc 1 364 0
 360              		.cfi_startproc
 361              		@ args = 0, pretend = 0, frame = 16
 362              		@ frame_needed = 1, uses_anonymous_args = 0
 363 0000 90B5     		push	{r4, r7, lr}
 364              		.cfi_def_cfa_offset 12
 365              		.cfi_offset 4, -12
 366              		.cfi_offset 7, -8
 367              		.cfi_offset 14, -4
 368 0002 85B0     		sub	sp, sp, #20
 369              		.cfi_def_cfa_offset 32
 370 0004 00AF     		add	r7, sp, #0
 371              		.cfi_def_cfa_register 7
 372 0006 7860     		str	r0, [r7, #4]
 365:Generated_Source\PSoC4/Timer1.c ****     uint8 enableInterrupts;
 366:Generated_Source\PSoC4/Timer1.c **** 
 367:Generated_Source\PSoC4/Timer1.c ****     enableInterrupts = CyEnterCriticalSection();
 373              		.loc 1 367 0
 374 0008 0F23     		movs	r3, #15
ARM GAS  C:\Users\essele\AppData\Local\Temp\ccwDBPw1.s 			page 14


 375 000a FC18     		adds	r4, r7, r3
 376 000c FFF7FEFF 		bl	CyEnterCriticalSection
 377 0010 0300     		movs	r3, r0
 378 0012 2370     		strb	r3, [r4]
 368:Generated_Source\PSoC4/Timer1.c **** 
 369:Generated_Source\PSoC4/Timer1.c ****     Timer1_CONTROL_REG &= (uint32)~Timer1_PRESCALER_MASK;
 379              		.loc 1 369 0
 380 0014 0A4B     		ldr	r3, .L21
 381 0016 0A4A     		ldr	r2, .L21
 382 0018 1268     		ldr	r2, [r2]
 383 001a 0A49     		ldr	r1, .L21+4
 384 001c 0A40     		ands	r2, r1
 385 001e 1A60     		str	r2, [r3]
 370:Generated_Source\PSoC4/Timer1.c ****     Timer1_CONTROL_REG |= prescaler;
 386              		.loc 1 370 0
 387 0020 074B     		ldr	r3, .L21
 388 0022 074A     		ldr	r2, .L21
 389 0024 1168     		ldr	r1, [r2]
 390 0026 7A68     		ldr	r2, [r7, #4]
 391 0028 0A43     		orrs	r2, r1
 392 002a 1A60     		str	r2, [r3]
 371:Generated_Source\PSoC4/Timer1.c **** 
 372:Generated_Source\PSoC4/Timer1.c ****     CyExitCriticalSection(enableInterrupts);
 393              		.loc 1 372 0
 394 002c 0F23     		movs	r3, #15
 395 002e FB18     		adds	r3, r7, r3
 396 0030 1B78     		ldrb	r3, [r3]
 397 0032 1800     		movs	r0, r3
 398 0034 FFF7FEFF 		bl	CyExitCriticalSection
 373:Generated_Source\PSoC4/Timer1.c **** }
 399              		.loc 1 373 0
 400 0038 C046     		nop
 401 003a BD46     		mov	sp, r7
 402 003c 05B0     		add	sp, sp, #20
 403              		@ sp needed
 404 003e 90BD     		pop	{r4, r7, pc}
 405              	.L22:
 406              		.align	2
 407              	.L21:
 408 0040 00012040 		.word	1075839232
 409 0044 FF00FFFF 		.word	-65281
 410              		.cfi_endproc
 411              	.LFE7:
 412              		.size	Timer1_SetPrescaler, .-Timer1_SetPrescaler
 413              		.section	.text.Timer1_SetOneShot,"ax",%progbits
 414              		.align	2
 415              		.global	Timer1_SetOneShot
 416              		.code	16
 417              		.thumb_func
 418              		.type	Timer1_SetOneShot, %function
 419              	Timer1_SetOneShot:
 420              	.LFB8:
 374:Generated_Source\PSoC4/Timer1.c **** 
 375:Generated_Source\PSoC4/Timer1.c **** 
 376:Generated_Source\PSoC4/Timer1.c **** /*******************************************************************************
 377:Generated_Source\PSoC4/Timer1.c **** * Function Name: Timer1_SetOneShot
 378:Generated_Source\PSoC4/Timer1.c **** ********************************************************************************
ARM GAS  C:\Users\essele\AppData\Local\Temp\ccwDBPw1.s 			page 15


 379:Generated_Source\PSoC4/Timer1.c **** *
 380:Generated_Source\PSoC4/Timer1.c **** * Summary:
 381:Generated_Source\PSoC4/Timer1.c **** *  Writes the register that controls whether the Timer1 runs
 382:Generated_Source\PSoC4/Timer1.c **** *  continuously or stops when terminal count is reached.  By default the
 383:Generated_Source\PSoC4/Timer1.c **** *  Timer1 operates in the continuous mode.
 384:Generated_Source\PSoC4/Timer1.c **** *
 385:Generated_Source\PSoC4/Timer1.c **** * Parameters:
 386:Generated_Source\PSoC4/Timer1.c **** *  oneShotEnable
 387:Generated_Source\PSoC4/Timer1.c **** *   Values:
 388:Generated_Source\PSoC4/Timer1.c **** *     - 0 - Continuous
 389:Generated_Source\PSoC4/Timer1.c **** *     - 1 - Enable One Shot
 390:Generated_Source\PSoC4/Timer1.c **** *
 391:Generated_Source\PSoC4/Timer1.c **** * Return:
 392:Generated_Source\PSoC4/Timer1.c **** *  None
 393:Generated_Source\PSoC4/Timer1.c **** *
 394:Generated_Source\PSoC4/Timer1.c **** *******************************************************************************/
 395:Generated_Source\PSoC4/Timer1.c **** void Timer1_SetOneShot(uint32 oneShotEnable)
 396:Generated_Source\PSoC4/Timer1.c **** {
 421              		.loc 1 396 0
 422              		.cfi_startproc
 423              		@ args = 0, pretend = 0, frame = 16
 424              		@ frame_needed = 1, uses_anonymous_args = 0
 425 0000 90B5     		push	{r4, r7, lr}
 426              		.cfi_def_cfa_offset 12
 427              		.cfi_offset 4, -12
 428              		.cfi_offset 7, -8
 429              		.cfi_offset 14, -4
 430 0002 85B0     		sub	sp, sp, #20
 431              		.cfi_def_cfa_offset 32
 432 0004 00AF     		add	r7, sp, #0
 433              		.cfi_def_cfa_register 7
 434 0006 7860     		str	r0, [r7, #4]
 397:Generated_Source\PSoC4/Timer1.c ****     uint8 enableInterrupts;
 398:Generated_Source\PSoC4/Timer1.c **** 
 399:Generated_Source\PSoC4/Timer1.c ****     enableInterrupts = CyEnterCriticalSection();
 435              		.loc 1 399 0
 436 0008 0F23     		movs	r3, #15
 437 000a FC18     		adds	r4, r7, r3
 438 000c FFF7FEFF 		bl	CyEnterCriticalSection
 439 0010 0300     		movs	r3, r0
 440 0012 2370     		strb	r3, [r4]
 400:Generated_Source\PSoC4/Timer1.c **** 
 401:Generated_Source\PSoC4/Timer1.c ****     Timer1_CONTROL_REG &= (uint32)~Timer1_ONESHOT_MASK;
 441              		.loc 1 401 0
 442 0014 0C4B     		ldr	r3, .L24
 443 0016 0C4A     		ldr	r2, .L24
 444 0018 1268     		ldr	r2, [r2]
 445 001a 0C49     		ldr	r1, .L24+4
 446 001c 0A40     		ands	r2, r1
 447 001e 1A60     		str	r2, [r3]
 402:Generated_Source\PSoC4/Timer1.c ****     Timer1_CONTROL_REG |= ((uint32)((oneShotEnable & Timer1_1BIT_MASK) <<
 448              		.loc 1 402 0
 449 0020 094B     		ldr	r3, .L24
 450 0022 094A     		ldr	r2, .L24
 451 0024 1168     		ldr	r1, [r2]
 452 0026 7A68     		ldr	r2, [r7, #4]
 453 0028 9004     		lsls	r0, r2, #18
ARM GAS  C:\Users\essele\AppData\Local\Temp\ccwDBPw1.s 			page 16


 454 002a 8022     		movs	r2, #128
 455 002c D202     		lsls	r2, r2, #11
 456 002e 0240     		ands	r2, r0
 457 0030 0A43     		orrs	r2, r1
 458 0032 1A60     		str	r2, [r3]
 403:Generated_Source\PSoC4/Timer1.c ****                                                                Timer1_ONESHOT_SHIFT));
 404:Generated_Source\PSoC4/Timer1.c **** 
 405:Generated_Source\PSoC4/Timer1.c ****     CyExitCriticalSection(enableInterrupts);
 459              		.loc 1 405 0
 460 0034 0F23     		movs	r3, #15
 461 0036 FB18     		adds	r3, r7, r3
 462 0038 1B78     		ldrb	r3, [r3]
 463 003a 1800     		movs	r0, r3
 464 003c FFF7FEFF 		bl	CyExitCriticalSection
 406:Generated_Source\PSoC4/Timer1.c **** }
 465              		.loc 1 406 0
 466 0040 C046     		nop
 467 0042 BD46     		mov	sp, r7
 468 0044 05B0     		add	sp, sp, #20
 469              		@ sp needed
 470 0046 90BD     		pop	{r4, r7, pc}
 471              	.L25:
 472              		.align	2
 473              	.L24:
 474 0048 00012040 		.word	1075839232
 475 004c FFFFFBFF 		.word	-262145
 476              		.cfi_endproc
 477              	.LFE8:
 478              		.size	Timer1_SetOneShot, .-Timer1_SetOneShot
 479              		.section	.text.Timer1_SetPWMMode,"ax",%progbits
 480              		.align	2
 481              		.global	Timer1_SetPWMMode
 482              		.code	16
 483              		.thumb_func
 484              		.type	Timer1_SetPWMMode, %function
 485              	Timer1_SetPWMMode:
 486              	.LFB9:
 407:Generated_Source\PSoC4/Timer1.c **** 
 408:Generated_Source\PSoC4/Timer1.c **** 
 409:Generated_Source\PSoC4/Timer1.c **** /*******************************************************************************
 410:Generated_Source\PSoC4/Timer1.c **** * Function Name: Timer1_SetPWMMode
 411:Generated_Source\PSoC4/Timer1.c **** ********************************************************************************
 412:Generated_Source\PSoC4/Timer1.c **** *
 413:Generated_Source\PSoC4/Timer1.c **** * Summary:
 414:Generated_Source\PSoC4/Timer1.c **** *  Writes the control register that determines what mode of operation the PWM
 415:Generated_Source\PSoC4/Timer1.c **** *  output lines are driven in.  There is a setting for what to do on a
 416:Generated_Source\PSoC4/Timer1.c **** *  comparison match (CC_MATCH), on an overflow (OVERFLOW) and on an underflow
 417:Generated_Source\PSoC4/Timer1.c **** *  (UNDERFLOW).  The value for each of the three must be ORed together to form
 418:Generated_Source\PSoC4/Timer1.c **** *  the mode.
 419:Generated_Source\PSoC4/Timer1.c **** *
 420:Generated_Source\PSoC4/Timer1.c **** * Parameters:
 421:Generated_Source\PSoC4/Timer1.c **** *  modeMask: A combination of three mode settings.  Mask must include a value
 422:Generated_Source\PSoC4/Timer1.c **** *  for each of the three or use one of the preconfigured PWM settings.
 423:Generated_Source\PSoC4/Timer1.c **** *   Values:
 424:Generated_Source\PSoC4/Timer1.c **** *     - CC_MATCH_SET        - Set on comparison match
 425:Generated_Source\PSoC4/Timer1.c **** *     - CC_MATCH_CLEAR      - Clear on comparison match
 426:Generated_Source\PSoC4/Timer1.c **** *     - CC_MATCH_INVERT     - Invert on comparison match
ARM GAS  C:\Users\essele\AppData\Local\Temp\ccwDBPw1.s 			page 17


 427:Generated_Source\PSoC4/Timer1.c **** *     - CC_MATCH_NO_CHANGE  - No change on comparison match
 428:Generated_Source\PSoC4/Timer1.c **** *     - OVERLOW_SET         - Set on overflow
 429:Generated_Source\PSoC4/Timer1.c **** *     - OVERLOW_CLEAR       - Clear on  overflow
 430:Generated_Source\PSoC4/Timer1.c **** *     - OVERLOW_INVERT      - Invert on overflow
 431:Generated_Source\PSoC4/Timer1.c **** *     - OVERLOW_NO_CHANGE   - No change on overflow
 432:Generated_Source\PSoC4/Timer1.c **** *     - UNDERFLOW_SET       - Set on underflow
 433:Generated_Source\PSoC4/Timer1.c **** *     - UNDERFLOW_CLEAR     - Clear on underflow
 434:Generated_Source\PSoC4/Timer1.c **** *     - UNDERFLOW_INVERT    - Invert on underflow
 435:Generated_Source\PSoC4/Timer1.c **** *     - UNDERFLOW_NO_CHANGE - No change on underflow
 436:Generated_Source\PSoC4/Timer1.c **** *     - PWM_MODE_LEFT       - Setting for left aligned PWM.  Should be combined
 437:Generated_Source\PSoC4/Timer1.c **** *                             with up counting mode
 438:Generated_Source\PSoC4/Timer1.c **** *     - PWM_MODE_RIGHT      - Setting for right aligned PWM.  Should be combined
 439:Generated_Source\PSoC4/Timer1.c **** *                             with down counting mode
 440:Generated_Source\PSoC4/Timer1.c **** *     - PWM_MODE_CENTER     - Setting for center aligned PWM.  Should be
 441:Generated_Source\PSoC4/Timer1.c **** *                             combined with up/down 0 mode
 442:Generated_Source\PSoC4/Timer1.c **** *     - PWM_MODE_ASYM       - Setting for asymmetric PWM.  Should be combined
 443:Generated_Source\PSoC4/Timer1.c **** *                             with up/down 1 mode
 444:Generated_Source\PSoC4/Timer1.c **** *
 445:Generated_Source\PSoC4/Timer1.c **** * Return:
 446:Generated_Source\PSoC4/Timer1.c **** *  None
 447:Generated_Source\PSoC4/Timer1.c **** *
 448:Generated_Source\PSoC4/Timer1.c **** *******************************************************************************/
 449:Generated_Source\PSoC4/Timer1.c **** void Timer1_SetPWMMode(uint32 modeMask)
 450:Generated_Source\PSoC4/Timer1.c **** {
 487              		.loc 1 450 0
 488              		.cfi_startproc
 489              		@ args = 0, pretend = 0, frame = 8
 490              		@ frame_needed = 1, uses_anonymous_args = 0
 491 0000 80B5     		push	{r7, lr}
 492              		.cfi_def_cfa_offset 8
 493              		.cfi_offset 7, -8
 494              		.cfi_offset 14, -4
 495 0002 82B0     		sub	sp, sp, #8
 496              		.cfi_def_cfa_offset 16
 497 0004 00AF     		add	r7, sp, #0
 498              		.cfi_def_cfa_register 7
 499 0006 7860     		str	r0, [r7, #4]
 451:Generated_Source\PSoC4/Timer1.c ****     Timer1_TRIG_CONTROL2_REG = (modeMask & Timer1_6BIT_MASK);
 500              		.loc 1 451 0
 501 0008 044B     		ldr	r3, .L27
 502 000a 7A68     		ldr	r2, [r7, #4]
 503 000c 3F21     		movs	r1, #63
 504 000e 0A40     		ands	r2, r1
 505 0010 1A60     		str	r2, [r3]
 452:Generated_Source\PSoC4/Timer1.c **** }
 506              		.loc 1 452 0
 507 0012 C046     		nop
 508 0014 BD46     		mov	sp, r7
 509 0016 02B0     		add	sp, sp, #8
 510              		@ sp needed
 511 0018 80BD     		pop	{r7, pc}
 512              	.L28:
 513 001a C046     		.align	2
 514              	.L27:
 515 001c 28012040 		.word	1075839272
 516              		.cfi_endproc
 517              	.LFE9:
ARM GAS  C:\Users\essele\AppData\Local\Temp\ccwDBPw1.s 			page 18


 518              		.size	Timer1_SetPWMMode, .-Timer1_SetPWMMode
 519              		.section	.text.Timer1_SetPWMSyncKill,"ax",%progbits
 520              		.align	2
 521              		.global	Timer1_SetPWMSyncKill
 522              		.code	16
 523              		.thumb_func
 524              		.type	Timer1_SetPWMSyncKill, %function
 525              	Timer1_SetPWMSyncKill:
 526              	.LFB10:
 453:Generated_Source\PSoC4/Timer1.c **** 
 454:Generated_Source\PSoC4/Timer1.c **** 
 455:Generated_Source\PSoC4/Timer1.c **** 
 456:Generated_Source\PSoC4/Timer1.c **** /*******************************************************************************
 457:Generated_Source\PSoC4/Timer1.c **** * Function Name: Timer1_SetPWMSyncKill
 458:Generated_Source\PSoC4/Timer1.c **** ********************************************************************************
 459:Generated_Source\PSoC4/Timer1.c **** *
 460:Generated_Source\PSoC4/Timer1.c **** * Summary:
 461:Generated_Source\PSoC4/Timer1.c **** *  Writes the register that controls whether the PWM kill signal (stop input)
 462:Generated_Source\PSoC4/Timer1.c **** *  causes asynchronous or synchronous kill operation.  By default the kill
 463:Generated_Source\PSoC4/Timer1.c **** *  operation is asynchronous.  This functionality is only applicable to the PWM
 464:Generated_Source\PSoC4/Timer1.c **** *  and PWM with dead time modes.
 465:Generated_Source\PSoC4/Timer1.c **** *
 466:Generated_Source\PSoC4/Timer1.c **** *  For Synchronous mode the kill signal disables both the line and line_n
 467:Generated_Source\PSoC4/Timer1.c **** *  signals until the next terminal count.
 468:Generated_Source\PSoC4/Timer1.c **** *
 469:Generated_Source\PSoC4/Timer1.c **** *  For Asynchronous mode the kill signal disables both the line and line_n
 470:Generated_Source\PSoC4/Timer1.c **** *  signals when the kill signal is present.  This mode should only be used
 471:Generated_Source\PSoC4/Timer1.c **** *  when the kill signal (stop input) is configured in the pass through mode
 472:Generated_Source\PSoC4/Timer1.c **** *  (Level sensitive signal).
 473:Generated_Source\PSoC4/Timer1.c **** 
 474:Generated_Source\PSoC4/Timer1.c **** *
 475:Generated_Source\PSoC4/Timer1.c **** * Parameters:
 476:Generated_Source\PSoC4/Timer1.c **** *  syncKillEnable
 477:Generated_Source\PSoC4/Timer1.c **** *   Values:
 478:Generated_Source\PSoC4/Timer1.c **** *     - 0 - Asynchronous
 479:Generated_Source\PSoC4/Timer1.c **** *     - 1 - Synchronous
 480:Generated_Source\PSoC4/Timer1.c **** *
 481:Generated_Source\PSoC4/Timer1.c **** * Return:
 482:Generated_Source\PSoC4/Timer1.c **** *  None
 483:Generated_Source\PSoC4/Timer1.c **** *
 484:Generated_Source\PSoC4/Timer1.c **** *******************************************************************************/
 485:Generated_Source\PSoC4/Timer1.c **** void Timer1_SetPWMSyncKill(uint32 syncKillEnable)
 486:Generated_Source\PSoC4/Timer1.c **** {
 527              		.loc 1 486 0
 528              		.cfi_startproc
 529              		@ args = 0, pretend = 0, frame = 16
 530              		@ frame_needed = 1, uses_anonymous_args = 0
 531 0000 90B5     		push	{r4, r7, lr}
 532              		.cfi_def_cfa_offset 12
 533              		.cfi_offset 4, -12
 534              		.cfi_offset 7, -8
 535              		.cfi_offset 14, -4
 536 0002 85B0     		sub	sp, sp, #20
 537              		.cfi_def_cfa_offset 32
 538 0004 00AF     		add	r7, sp, #0
 539              		.cfi_def_cfa_register 7
 540 0006 7860     		str	r0, [r7, #4]
ARM GAS  C:\Users\essele\AppData\Local\Temp\ccwDBPw1.s 			page 19


 487:Generated_Source\PSoC4/Timer1.c ****     uint8 enableInterrupts;
 488:Generated_Source\PSoC4/Timer1.c **** 
 489:Generated_Source\PSoC4/Timer1.c ****     enableInterrupts = CyEnterCriticalSection();
 541              		.loc 1 489 0
 542 0008 0F23     		movs	r3, #15
 543 000a FC18     		adds	r4, r7, r3
 544 000c FFF7FEFF 		bl	CyEnterCriticalSection
 545 0010 0300     		movs	r3, r0
 546 0012 2370     		strb	r3, [r4]
 490:Generated_Source\PSoC4/Timer1.c **** 
 491:Generated_Source\PSoC4/Timer1.c ****     Timer1_CONTROL_REG &= (uint32)~Timer1_PWM_SYNC_KILL_MASK;
 547              		.loc 1 491 0
 548 0014 0C4B     		ldr	r3, .L30
 549 0016 0C4A     		ldr	r2, .L30
 550 0018 1268     		ldr	r2, [r2]
 551 001a 0421     		movs	r1, #4
 552 001c 8A43     		bics	r2, r1
 553 001e 1A60     		str	r2, [r3]
 492:Generated_Source\PSoC4/Timer1.c ****     Timer1_CONTROL_REG |= ((uint32)((syncKillEnable & Timer1_1BIT_MASK)  <<
 554              		.loc 1 492 0
 555 0020 094B     		ldr	r3, .L30
 556 0022 094A     		ldr	r2, .L30
 557 0024 1168     		ldr	r1, [r2]
 558 0026 7A68     		ldr	r2, [r7, #4]
 559 0028 9200     		lsls	r2, r2, #2
 560 002a 0420     		movs	r0, #4
 561 002c 0240     		ands	r2, r0
 562 002e 0A43     		orrs	r2, r1
 563 0030 1A60     		str	r2, [r3]
 493:Generated_Source\PSoC4/Timer1.c ****                                                Timer1_PWM_SYNC_KILL_SHIFT));
 494:Generated_Source\PSoC4/Timer1.c **** 
 495:Generated_Source\PSoC4/Timer1.c ****     CyExitCriticalSection(enableInterrupts);
 564              		.loc 1 495 0
 565 0032 0F23     		movs	r3, #15
 566 0034 FB18     		adds	r3, r7, r3
 567 0036 1B78     		ldrb	r3, [r3]
 568 0038 1800     		movs	r0, r3
 569 003a FFF7FEFF 		bl	CyExitCriticalSection
 496:Generated_Source\PSoC4/Timer1.c **** }
 570              		.loc 1 496 0
 571 003e C046     		nop
 572 0040 BD46     		mov	sp, r7
 573 0042 05B0     		add	sp, sp, #20
 574              		@ sp needed
 575 0044 90BD     		pop	{r4, r7, pc}
 576              	.L31:
 577 0046 C046     		.align	2
 578              	.L30:
 579 0048 00012040 		.word	1075839232
 580              		.cfi_endproc
 581              	.LFE10:
 582              		.size	Timer1_SetPWMSyncKill, .-Timer1_SetPWMSyncKill
 583              		.section	.text.Timer1_SetPWMStopOnKill,"ax",%progbits
 584              		.align	2
 585              		.global	Timer1_SetPWMStopOnKill
 586              		.code	16
 587              		.thumb_func
ARM GAS  C:\Users\essele\AppData\Local\Temp\ccwDBPw1.s 			page 20


 588              		.type	Timer1_SetPWMStopOnKill, %function
 589              	Timer1_SetPWMStopOnKill:
 590              	.LFB11:
 497:Generated_Source\PSoC4/Timer1.c **** 
 498:Generated_Source\PSoC4/Timer1.c **** 
 499:Generated_Source\PSoC4/Timer1.c **** /*******************************************************************************
 500:Generated_Source\PSoC4/Timer1.c **** * Function Name: Timer1_SetPWMStopOnKill
 501:Generated_Source\PSoC4/Timer1.c **** ********************************************************************************
 502:Generated_Source\PSoC4/Timer1.c **** *
 503:Generated_Source\PSoC4/Timer1.c **** * Summary:
 504:Generated_Source\PSoC4/Timer1.c **** *  Writes the register that controls whether the PWM kill signal (stop input)
 505:Generated_Source\PSoC4/Timer1.c **** *  causes the PWM counter to stop.  By default the kill operation does not stop
 506:Generated_Source\PSoC4/Timer1.c **** *  the counter.  This functionality is only applicable to the three PWM modes.
 507:Generated_Source\PSoC4/Timer1.c **** *
 508:Generated_Source\PSoC4/Timer1.c **** *
 509:Generated_Source\PSoC4/Timer1.c **** * Parameters:
 510:Generated_Source\PSoC4/Timer1.c **** *  stopOnKillEnable
 511:Generated_Source\PSoC4/Timer1.c **** *   Values:
 512:Generated_Source\PSoC4/Timer1.c **** *     - 0 - Don't stop
 513:Generated_Source\PSoC4/Timer1.c **** *     - 1 - Stop
 514:Generated_Source\PSoC4/Timer1.c **** *
 515:Generated_Source\PSoC4/Timer1.c **** * Return:
 516:Generated_Source\PSoC4/Timer1.c **** *  None
 517:Generated_Source\PSoC4/Timer1.c **** *
 518:Generated_Source\PSoC4/Timer1.c **** *******************************************************************************/
 519:Generated_Source\PSoC4/Timer1.c **** void Timer1_SetPWMStopOnKill(uint32 stopOnKillEnable)
 520:Generated_Source\PSoC4/Timer1.c **** {
 591              		.loc 1 520 0
 592              		.cfi_startproc
 593              		@ args = 0, pretend = 0, frame = 16
 594              		@ frame_needed = 1, uses_anonymous_args = 0
 595 0000 90B5     		push	{r4, r7, lr}
 596              		.cfi_def_cfa_offset 12
 597              		.cfi_offset 4, -12
 598              		.cfi_offset 7, -8
 599              		.cfi_offset 14, -4
 600 0002 85B0     		sub	sp, sp, #20
 601              		.cfi_def_cfa_offset 32
 602 0004 00AF     		add	r7, sp, #0
 603              		.cfi_def_cfa_register 7
 604 0006 7860     		str	r0, [r7, #4]
 521:Generated_Source\PSoC4/Timer1.c ****     uint8 enableInterrupts;
 522:Generated_Source\PSoC4/Timer1.c **** 
 523:Generated_Source\PSoC4/Timer1.c ****     enableInterrupts = CyEnterCriticalSection();
 605              		.loc 1 523 0
 606 0008 0F23     		movs	r3, #15
 607 000a FC18     		adds	r4, r7, r3
 608 000c FFF7FEFF 		bl	CyEnterCriticalSection
 609 0010 0300     		movs	r3, r0
 610 0012 2370     		strb	r3, [r4]
 524:Generated_Source\PSoC4/Timer1.c **** 
 525:Generated_Source\PSoC4/Timer1.c ****     Timer1_CONTROL_REG &= (uint32)~Timer1_PWM_STOP_KILL_MASK;
 611              		.loc 1 525 0
 612 0014 0C4B     		ldr	r3, .L33
 613 0016 0C4A     		ldr	r2, .L33
 614 0018 1268     		ldr	r2, [r2]
 615 001a 0821     		movs	r1, #8
ARM GAS  C:\Users\essele\AppData\Local\Temp\ccwDBPw1.s 			page 21


 616 001c 8A43     		bics	r2, r1
 617 001e 1A60     		str	r2, [r3]
 526:Generated_Source\PSoC4/Timer1.c ****     Timer1_CONTROL_REG |= ((uint32)((stopOnKillEnable & Timer1_1BIT_MASK)  <<
 618              		.loc 1 526 0
 619 0020 094B     		ldr	r3, .L33
 620 0022 094A     		ldr	r2, .L33
 621 0024 1168     		ldr	r1, [r2]
 622 0026 7A68     		ldr	r2, [r7, #4]
 623 0028 D200     		lsls	r2, r2, #3
 624 002a 0820     		movs	r0, #8
 625 002c 0240     		ands	r2, r0
 626 002e 0A43     		orrs	r2, r1
 627 0030 1A60     		str	r2, [r3]
 527:Generated_Source\PSoC4/Timer1.c ****                                                          Timer1_PWM_STOP_KILL_SHIFT));
 528:Generated_Source\PSoC4/Timer1.c **** 
 529:Generated_Source\PSoC4/Timer1.c ****     CyExitCriticalSection(enableInterrupts);
 628              		.loc 1 529 0
 629 0032 0F23     		movs	r3, #15
 630 0034 FB18     		adds	r3, r7, r3
 631 0036 1B78     		ldrb	r3, [r3]
 632 0038 1800     		movs	r0, r3
 633 003a FFF7FEFF 		bl	CyExitCriticalSection
 530:Generated_Source\PSoC4/Timer1.c **** }
 634              		.loc 1 530 0
 635 003e C046     		nop
 636 0040 BD46     		mov	sp, r7
 637 0042 05B0     		add	sp, sp, #20
 638              		@ sp needed
 639 0044 90BD     		pop	{r4, r7, pc}
 640              	.L34:
 641 0046 C046     		.align	2
 642              	.L33:
 643 0048 00012040 		.word	1075839232
 644              		.cfi_endproc
 645              	.LFE11:
 646              		.size	Timer1_SetPWMStopOnKill, .-Timer1_SetPWMStopOnKill
 647              		.section	.text.Timer1_SetPWMDeadTime,"ax",%progbits
 648              		.align	2
 649              		.global	Timer1_SetPWMDeadTime
 650              		.code	16
 651              		.thumb_func
 652              		.type	Timer1_SetPWMDeadTime, %function
 653              	Timer1_SetPWMDeadTime:
 654              	.LFB12:
 531:Generated_Source\PSoC4/Timer1.c **** 
 532:Generated_Source\PSoC4/Timer1.c **** 
 533:Generated_Source\PSoC4/Timer1.c **** /*******************************************************************************
 534:Generated_Source\PSoC4/Timer1.c **** * Function Name: Timer1_SetPWMDeadTime
 535:Generated_Source\PSoC4/Timer1.c **** ********************************************************************************
 536:Generated_Source\PSoC4/Timer1.c **** *
 537:Generated_Source\PSoC4/Timer1.c **** * Summary:
 538:Generated_Source\PSoC4/Timer1.c **** *  Writes the dead time control value.  This value delays the rising edge of
 539:Generated_Source\PSoC4/Timer1.c **** *  both the line and line_n signals the designated number of cycles resulting
 540:Generated_Source\PSoC4/Timer1.c **** *  in both signals being inactive for that many cycles.  This functionality is
 541:Generated_Source\PSoC4/Timer1.c **** *  only applicable to the PWM in the dead time mode.
 542:Generated_Source\PSoC4/Timer1.c **** 
 543:Generated_Source\PSoC4/Timer1.c **** *
ARM GAS  C:\Users\essele\AppData\Local\Temp\ccwDBPw1.s 			page 22


 544:Generated_Source\PSoC4/Timer1.c **** * Parameters:
 545:Generated_Source\PSoC4/Timer1.c **** *  Dead time to insert
 546:Generated_Source\PSoC4/Timer1.c **** *   Values: 0 to 255
 547:Generated_Source\PSoC4/Timer1.c **** *
 548:Generated_Source\PSoC4/Timer1.c **** * Return:
 549:Generated_Source\PSoC4/Timer1.c **** *  None
 550:Generated_Source\PSoC4/Timer1.c **** *
 551:Generated_Source\PSoC4/Timer1.c **** *******************************************************************************/
 552:Generated_Source\PSoC4/Timer1.c **** void Timer1_SetPWMDeadTime(uint32 deadTime)
 553:Generated_Source\PSoC4/Timer1.c **** {
 655              		.loc 1 553 0
 656              		.cfi_startproc
 657              		@ args = 0, pretend = 0, frame = 16
 658              		@ frame_needed = 1, uses_anonymous_args = 0
 659 0000 90B5     		push	{r4, r7, lr}
 660              		.cfi_def_cfa_offset 12
 661              		.cfi_offset 4, -12
 662              		.cfi_offset 7, -8
 663              		.cfi_offset 14, -4
 664 0002 85B0     		sub	sp, sp, #20
 665              		.cfi_def_cfa_offset 32
 666 0004 00AF     		add	r7, sp, #0
 667              		.cfi_def_cfa_register 7
 668 0006 7860     		str	r0, [r7, #4]
 554:Generated_Source\PSoC4/Timer1.c ****     uint8 enableInterrupts;
 555:Generated_Source\PSoC4/Timer1.c **** 
 556:Generated_Source\PSoC4/Timer1.c ****     enableInterrupts = CyEnterCriticalSection();
 669              		.loc 1 556 0
 670 0008 0F23     		movs	r3, #15
 671 000a FC18     		adds	r4, r7, r3
 672 000c FFF7FEFF 		bl	CyEnterCriticalSection
 673 0010 0300     		movs	r3, r0
 674 0012 2370     		strb	r3, [r4]
 557:Generated_Source\PSoC4/Timer1.c **** 
 558:Generated_Source\PSoC4/Timer1.c ****     Timer1_CONTROL_REG &= (uint32)~Timer1_PRESCALER_MASK;
 675              		.loc 1 558 0
 676 0014 0C4B     		ldr	r3, .L36
 677 0016 0C4A     		ldr	r2, .L36
 678 0018 1268     		ldr	r2, [r2]
 679 001a 0C49     		ldr	r1, .L36+4
 680 001c 0A40     		ands	r2, r1
 681 001e 1A60     		str	r2, [r3]
 559:Generated_Source\PSoC4/Timer1.c ****     Timer1_CONTROL_REG |= ((uint32)((deadTime & Timer1_8BIT_MASK) <<
 682              		.loc 1 559 0
 683 0020 094B     		ldr	r3, .L36
 684 0022 094A     		ldr	r2, .L36
 685 0024 1168     		ldr	r1, [r2]
 686 0026 7A68     		ldr	r2, [r7, #4]
 687 0028 1202     		lsls	r2, r2, #8
 688 002a 1204     		lsls	r2, r2, #16
 689 002c 120C     		lsrs	r2, r2, #16
 690 002e 0A43     		orrs	r2, r1
 691 0030 1A60     		str	r2, [r3]
 560:Generated_Source\PSoC4/Timer1.c ****                                                           Timer1_PRESCALER_SHIFT));
 561:Generated_Source\PSoC4/Timer1.c **** 
 562:Generated_Source\PSoC4/Timer1.c ****     CyExitCriticalSection(enableInterrupts);
 692              		.loc 1 562 0
ARM GAS  C:\Users\essele\AppData\Local\Temp\ccwDBPw1.s 			page 23


 693 0032 0F23     		movs	r3, #15
 694 0034 FB18     		adds	r3, r7, r3
 695 0036 1B78     		ldrb	r3, [r3]
 696 0038 1800     		movs	r0, r3
 697 003a FFF7FEFF 		bl	CyExitCriticalSection
 563:Generated_Source\PSoC4/Timer1.c **** }
 698              		.loc 1 563 0
 699 003e C046     		nop
 700 0040 BD46     		mov	sp, r7
 701 0042 05B0     		add	sp, sp, #20
 702              		@ sp needed
 703 0044 90BD     		pop	{r4, r7, pc}
 704              	.L37:
 705 0046 C046     		.align	2
 706              	.L36:
 707 0048 00012040 		.word	1075839232
 708 004c FF00FFFF 		.word	-65281
 709              		.cfi_endproc
 710              	.LFE12:
 711              		.size	Timer1_SetPWMDeadTime, .-Timer1_SetPWMDeadTime
 712              		.section	.text.Timer1_SetPWMInvert,"ax",%progbits
 713              		.align	2
 714              		.global	Timer1_SetPWMInvert
 715              		.code	16
 716              		.thumb_func
 717              		.type	Timer1_SetPWMInvert, %function
 718              	Timer1_SetPWMInvert:
 719              	.LFB13:
 564:Generated_Source\PSoC4/Timer1.c **** 
 565:Generated_Source\PSoC4/Timer1.c **** 
 566:Generated_Source\PSoC4/Timer1.c **** /*******************************************************************************
 567:Generated_Source\PSoC4/Timer1.c **** * Function Name: Timer1_SetPWMInvert
 568:Generated_Source\PSoC4/Timer1.c **** ********************************************************************************
 569:Generated_Source\PSoC4/Timer1.c **** *
 570:Generated_Source\PSoC4/Timer1.c **** * Summary:
 571:Generated_Source\PSoC4/Timer1.c **** *  Writes the bits that control whether the line and line_n outputs are
 572:Generated_Source\PSoC4/Timer1.c **** *  inverted from their normal output values.  This functionality is only
 573:Generated_Source\PSoC4/Timer1.c **** *  applicable to the three PWM modes.
 574:Generated_Source\PSoC4/Timer1.c **** *
 575:Generated_Source\PSoC4/Timer1.c **** * Parameters:
 576:Generated_Source\PSoC4/Timer1.c **** *  mask: Mask of outputs to invert.
 577:Generated_Source\PSoC4/Timer1.c **** *   Values:
 578:Generated_Source\PSoC4/Timer1.c **** *         - Timer1_INVERT_LINE   - Inverts the line output
 579:Generated_Source\PSoC4/Timer1.c **** *         - Timer1_INVERT_LINE_N - Inverts the line_n output
 580:Generated_Source\PSoC4/Timer1.c **** *
 581:Generated_Source\PSoC4/Timer1.c **** * Return:
 582:Generated_Source\PSoC4/Timer1.c **** *  None
 583:Generated_Source\PSoC4/Timer1.c **** *
 584:Generated_Source\PSoC4/Timer1.c **** *******************************************************************************/
 585:Generated_Source\PSoC4/Timer1.c **** void Timer1_SetPWMInvert(uint32 mask)
 586:Generated_Source\PSoC4/Timer1.c **** {
 720              		.loc 1 586 0
 721              		.cfi_startproc
 722              		@ args = 0, pretend = 0, frame = 16
 723              		@ frame_needed = 1, uses_anonymous_args = 0
 724 0000 90B5     		push	{r4, r7, lr}
 725              		.cfi_def_cfa_offset 12
ARM GAS  C:\Users\essele\AppData\Local\Temp\ccwDBPw1.s 			page 24


 726              		.cfi_offset 4, -12
 727              		.cfi_offset 7, -8
 728              		.cfi_offset 14, -4
 729 0002 85B0     		sub	sp, sp, #20
 730              		.cfi_def_cfa_offset 32
 731 0004 00AF     		add	r7, sp, #0
 732              		.cfi_def_cfa_register 7
 733 0006 7860     		str	r0, [r7, #4]
 587:Generated_Source\PSoC4/Timer1.c ****     uint8 enableInterrupts;
 588:Generated_Source\PSoC4/Timer1.c **** 
 589:Generated_Source\PSoC4/Timer1.c ****     enableInterrupts = CyEnterCriticalSection();
 734              		.loc 1 589 0
 735 0008 0F23     		movs	r3, #15
 736 000a FC18     		adds	r4, r7, r3
 737 000c FFF7FEFF 		bl	CyEnterCriticalSection
 738 0010 0300     		movs	r3, r0
 739 0012 2370     		strb	r3, [r4]
 590:Generated_Source\PSoC4/Timer1.c **** 
 591:Generated_Source\PSoC4/Timer1.c ****     Timer1_CONTROL_REG &= (uint32)~Timer1_INV_OUT_MASK;
 740              		.loc 1 591 0
 741 0014 0A4B     		ldr	r3, .L39
 742 0016 0A4A     		ldr	r2, .L39
 743 0018 1268     		ldr	r2, [r2]
 744 001a 0A49     		ldr	r1, .L39+4
 745 001c 0A40     		ands	r2, r1
 746 001e 1A60     		str	r2, [r3]
 592:Generated_Source\PSoC4/Timer1.c ****     Timer1_CONTROL_REG |= mask;
 747              		.loc 1 592 0
 748 0020 074B     		ldr	r3, .L39
 749 0022 074A     		ldr	r2, .L39
 750 0024 1168     		ldr	r1, [r2]
 751 0026 7A68     		ldr	r2, [r7, #4]
 752 0028 0A43     		orrs	r2, r1
 753 002a 1A60     		str	r2, [r3]
 593:Generated_Source\PSoC4/Timer1.c **** 
 594:Generated_Source\PSoC4/Timer1.c ****     CyExitCriticalSection(enableInterrupts);
 754              		.loc 1 594 0
 755 002c 0F23     		movs	r3, #15
 756 002e FB18     		adds	r3, r7, r3
 757 0030 1B78     		ldrb	r3, [r3]
 758 0032 1800     		movs	r0, r3
 759 0034 FFF7FEFF 		bl	CyExitCriticalSection
 595:Generated_Source\PSoC4/Timer1.c **** }
 760              		.loc 1 595 0
 761 0038 C046     		nop
 762 003a BD46     		mov	sp, r7
 763 003c 05B0     		add	sp, sp, #20
 764              		@ sp needed
 765 003e 90BD     		pop	{r4, r7, pc}
 766              	.L40:
 767              		.align	2
 768              	.L39:
 769 0040 00012040 		.word	1075839232
 770 0044 FFFFCFFF 		.word	-3145729
 771              		.cfi_endproc
 772              	.LFE13:
 773              		.size	Timer1_SetPWMInvert, .-Timer1_SetPWMInvert
ARM GAS  C:\Users\essele\AppData\Local\Temp\ccwDBPw1.s 			page 25


 774              		.section	.text.Timer1_WriteCounter,"ax",%progbits
 775              		.align	2
 776              		.global	Timer1_WriteCounter
 777              		.code	16
 778              		.thumb_func
 779              		.type	Timer1_WriteCounter, %function
 780              	Timer1_WriteCounter:
 781              	.LFB14:
 596:Generated_Source\PSoC4/Timer1.c **** 
 597:Generated_Source\PSoC4/Timer1.c **** 
 598:Generated_Source\PSoC4/Timer1.c **** 
 599:Generated_Source\PSoC4/Timer1.c **** /*******************************************************************************
 600:Generated_Source\PSoC4/Timer1.c **** * Function Name: Timer1_WriteCounter
 601:Generated_Source\PSoC4/Timer1.c **** ********************************************************************************
 602:Generated_Source\PSoC4/Timer1.c **** *
 603:Generated_Source\PSoC4/Timer1.c **** * Summary:
 604:Generated_Source\PSoC4/Timer1.c **** *  Writes a new 16bit counter value directly into the counter register, thus
 605:Generated_Source\PSoC4/Timer1.c **** *  setting the counter (not the period) to the value written. It is not
 606:Generated_Source\PSoC4/Timer1.c **** *  advised to write to this field when the counter is running.
 607:Generated_Source\PSoC4/Timer1.c **** *
 608:Generated_Source\PSoC4/Timer1.c **** * Parameters:
 609:Generated_Source\PSoC4/Timer1.c **** *  count: value to write
 610:Generated_Source\PSoC4/Timer1.c **** *
 611:Generated_Source\PSoC4/Timer1.c **** * Return:
 612:Generated_Source\PSoC4/Timer1.c **** *  None
 613:Generated_Source\PSoC4/Timer1.c **** *
 614:Generated_Source\PSoC4/Timer1.c **** *******************************************************************************/
 615:Generated_Source\PSoC4/Timer1.c **** void Timer1_WriteCounter(uint32 count)
 616:Generated_Source\PSoC4/Timer1.c **** {
 782              		.loc 1 616 0
 783              		.cfi_startproc
 784              		@ args = 0, pretend = 0, frame = 8
 785              		@ frame_needed = 1, uses_anonymous_args = 0
 786 0000 80B5     		push	{r7, lr}
 787              		.cfi_def_cfa_offset 8
 788              		.cfi_offset 7, -8
 789              		.cfi_offset 14, -4
 790 0002 82B0     		sub	sp, sp, #8
 791              		.cfi_def_cfa_offset 16
 792 0004 00AF     		add	r7, sp, #0
 793              		.cfi_def_cfa_register 7
 794 0006 7860     		str	r0, [r7, #4]
 617:Generated_Source\PSoC4/Timer1.c ****     Timer1_COUNTER_REG = (count & Timer1_16BIT_MASK);
 795              		.loc 1 617 0
 796 0008 044B     		ldr	r3, .L42
 797 000a 7A68     		ldr	r2, [r7, #4]
 798 000c 1204     		lsls	r2, r2, #16
 799 000e 120C     		lsrs	r2, r2, #16
 800 0010 1A60     		str	r2, [r3]
 618:Generated_Source\PSoC4/Timer1.c **** }
 801              		.loc 1 618 0
 802 0012 C046     		nop
 803 0014 BD46     		mov	sp, r7
 804 0016 02B0     		add	sp, sp, #8
 805              		@ sp needed
 806 0018 80BD     		pop	{r7, pc}
 807              	.L43:
ARM GAS  C:\Users\essele\AppData\Local\Temp\ccwDBPw1.s 			page 26


 808 001a C046     		.align	2
 809              	.L42:
 810 001c 08012040 		.word	1075839240
 811              		.cfi_endproc
 812              	.LFE14:
 813              		.size	Timer1_WriteCounter, .-Timer1_WriteCounter
 814              		.section	.text.Timer1_ReadCounter,"ax",%progbits
 815              		.align	2
 816              		.global	Timer1_ReadCounter
 817              		.code	16
 818              		.thumb_func
 819              		.type	Timer1_ReadCounter, %function
 820              	Timer1_ReadCounter:
 821              	.LFB15:
 619:Generated_Source\PSoC4/Timer1.c **** 
 620:Generated_Source\PSoC4/Timer1.c **** 
 621:Generated_Source\PSoC4/Timer1.c **** /*******************************************************************************
 622:Generated_Source\PSoC4/Timer1.c **** * Function Name: Timer1_ReadCounter
 623:Generated_Source\PSoC4/Timer1.c **** ********************************************************************************
 624:Generated_Source\PSoC4/Timer1.c **** *
 625:Generated_Source\PSoC4/Timer1.c **** * Summary:
 626:Generated_Source\PSoC4/Timer1.c **** *  Reads the current counter value.
 627:Generated_Source\PSoC4/Timer1.c **** *
 628:Generated_Source\PSoC4/Timer1.c **** * Parameters:
 629:Generated_Source\PSoC4/Timer1.c **** *  None
 630:Generated_Source\PSoC4/Timer1.c **** *
 631:Generated_Source\PSoC4/Timer1.c **** * Return:
 632:Generated_Source\PSoC4/Timer1.c **** *  Current counter value
 633:Generated_Source\PSoC4/Timer1.c **** *
 634:Generated_Source\PSoC4/Timer1.c **** *******************************************************************************/
 635:Generated_Source\PSoC4/Timer1.c **** uint32 Timer1_ReadCounter(void)
 636:Generated_Source\PSoC4/Timer1.c **** {
 822              		.loc 1 636 0
 823              		.cfi_startproc
 824              		@ args = 0, pretend = 0, frame = 0
 825              		@ frame_needed = 1, uses_anonymous_args = 0
 826 0000 80B5     		push	{r7, lr}
 827              		.cfi_def_cfa_offset 8
 828              		.cfi_offset 7, -8
 829              		.cfi_offset 14, -4
 830 0002 00AF     		add	r7, sp, #0
 831              		.cfi_def_cfa_register 7
 637:Generated_Source\PSoC4/Timer1.c ****     return (Timer1_COUNTER_REG & Timer1_16BIT_MASK);
 832              		.loc 1 637 0
 833 0004 034B     		ldr	r3, .L46
 834 0006 1B68     		ldr	r3, [r3]
 835 0008 1B04     		lsls	r3, r3, #16
 836 000a 1B0C     		lsrs	r3, r3, #16
 638:Generated_Source\PSoC4/Timer1.c **** }
 837              		.loc 1 638 0
 838 000c 1800     		movs	r0, r3
 839 000e BD46     		mov	sp, r7
 840              		@ sp needed
 841 0010 80BD     		pop	{r7, pc}
 842              	.L47:
 843 0012 C046     		.align	2
 844              	.L46:
ARM GAS  C:\Users\essele\AppData\Local\Temp\ccwDBPw1.s 			page 27


 845 0014 08012040 		.word	1075839240
 846              		.cfi_endproc
 847              	.LFE15:
 848              		.size	Timer1_ReadCounter, .-Timer1_ReadCounter
 849              		.section	.text.Timer1_SetCounterMode,"ax",%progbits
 850              		.align	2
 851              		.global	Timer1_SetCounterMode
 852              		.code	16
 853              		.thumb_func
 854              		.type	Timer1_SetCounterMode, %function
 855              	Timer1_SetCounterMode:
 856              	.LFB16:
 639:Generated_Source\PSoC4/Timer1.c **** 
 640:Generated_Source\PSoC4/Timer1.c **** 
 641:Generated_Source\PSoC4/Timer1.c **** /*******************************************************************************
 642:Generated_Source\PSoC4/Timer1.c **** * Function Name: Timer1_SetCounterMode
 643:Generated_Source\PSoC4/Timer1.c **** ********************************************************************************
 644:Generated_Source\PSoC4/Timer1.c **** *
 645:Generated_Source\PSoC4/Timer1.c **** * Summary:
 646:Generated_Source\PSoC4/Timer1.c **** *  Sets the counter mode.  Applicable to all modes except Quadrature Decoder
 647:Generated_Source\PSoC4/Timer1.c **** *  and the PWM with a pseudo random output.
 648:Generated_Source\PSoC4/Timer1.c **** *
 649:Generated_Source\PSoC4/Timer1.c **** * Parameters:
 650:Generated_Source\PSoC4/Timer1.c **** *  counterMode: Enumerated counter type values
 651:Generated_Source\PSoC4/Timer1.c **** *   Values:
 652:Generated_Source\PSoC4/Timer1.c **** *     - Timer1_COUNT_UP       - Counts up
 653:Generated_Source\PSoC4/Timer1.c **** *     - Timer1_COUNT_DOWN     - Counts down
 654:Generated_Source\PSoC4/Timer1.c **** *     - Timer1_COUNT_UPDOWN0  - Counts up and down. Terminal count
 655:Generated_Source\PSoC4/Timer1.c **** *                                         generated when counter reaches 0
 656:Generated_Source\PSoC4/Timer1.c **** *     - Timer1_COUNT_UPDOWN1  - Counts up and down. Terminal count
 657:Generated_Source\PSoC4/Timer1.c **** *                                         generated both when counter reaches 0
 658:Generated_Source\PSoC4/Timer1.c **** *                                         and period
 659:Generated_Source\PSoC4/Timer1.c **** *
 660:Generated_Source\PSoC4/Timer1.c **** * Return:
 661:Generated_Source\PSoC4/Timer1.c **** *  None
 662:Generated_Source\PSoC4/Timer1.c **** *
 663:Generated_Source\PSoC4/Timer1.c **** *******************************************************************************/
 664:Generated_Source\PSoC4/Timer1.c **** void Timer1_SetCounterMode(uint32 counterMode)
 665:Generated_Source\PSoC4/Timer1.c **** {
 857              		.loc 1 665 0
 858              		.cfi_startproc
 859              		@ args = 0, pretend = 0, frame = 16
 860              		@ frame_needed = 1, uses_anonymous_args = 0
 861 0000 90B5     		push	{r4, r7, lr}
 862              		.cfi_def_cfa_offset 12
 863              		.cfi_offset 4, -12
 864              		.cfi_offset 7, -8
 865              		.cfi_offset 14, -4
 866 0002 85B0     		sub	sp, sp, #20
 867              		.cfi_def_cfa_offset 32
 868 0004 00AF     		add	r7, sp, #0
 869              		.cfi_def_cfa_register 7
 870 0006 7860     		str	r0, [r7, #4]
 666:Generated_Source\PSoC4/Timer1.c ****     uint8 enableInterrupts;
 667:Generated_Source\PSoC4/Timer1.c **** 
 668:Generated_Source\PSoC4/Timer1.c ****     enableInterrupts = CyEnterCriticalSection();
 871              		.loc 1 668 0
ARM GAS  C:\Users\essele\AppData\Local\Temp\ccwDBPw1.s 			page 28


 872 0008 0F23     		movs	r3, #15
 873 000a FC18     		adds	r4, r7, r3
 874 000c FFF7FEFF 		bl	CyEnterCriticalSection
 875 0010 0300     		movs	r3, r0
 876 0012 2370     		strb	r3, [r4]
 669:Generated_Source\PSoC4/Timer1.c **** 
 670:Generated_Source\PSoC4/Timer1.c ****     Timer1_CONTROL_REG &= (uint32)~Timer1_UPDOWN_MASK;
 877              		.loc 1 670 0
 878 0014 0A4B     		ldr	r3, .L49
 879 0016 0A4A     		ldr	r2, .L49
 880 0018 1268     		ldr	r2, [r2]
 881 001a 0A49     		ldr	r1, .L49+4
 882 001c 0A40     		ands	r2, r1
 883 001e 1A60     		str	r2, [r3]
 671:Generated_Source\PSoC4/Timer1.c ****     Timer1_CONTROL_REG |= counterMode;
 884              		.loc 1 671 0
 885 0020 074B     		ldr	r3, .L49
 886 0022 074A     		ldr	r2, .L49
 887 0024 1168     		ldr	r1, [r2]
 888 0026 7A68     		ldr	r2, [r7, #4]
 889 0028 0A43     		orrs	r2, r1
 890 002a 1A60     		str	r2, [r3]
 672:Generated_Source\PSoC4/Timer1.c **** 
 673:Generated_Source\PSoC4/Timer1.c ****     CyExitCriticalSection(enableInterrupts);
 891              		.loc 1 673 0
 892 002c 0F23     		movs	r3, #15
 893 002e FB18     		adds	r3, r7, r3
 894 0030 1B78     		ldrb	r3, [r3]
 895 0032 1800     		movs	r0, r3
 896 0034 FFF7FEFF 		bl	CyExitCriticalSection
 674:Generated_Source\PSoC4/Timer1.c **** }
 897              		.loc 1 674 0
 898 0038 C046     		nop
 899 003a BD46     		mov	sp, r7
 900 003c 05B0     		add	sp, sp, #20
 901              		@ sp needed
 902 003e 90BD     		pop	{r4, r7, pc}
 903              	.L50:
 904              		.align	2
 905              	.L49:
 906 0040 00012040 		.word	1075839232
 907 0044 FFFFFCFF 		.word	-196609
 908              		.cfi_endproc
 909              	.LFE16:
 910              		.size	Timer1_SetCounterMode, .-Timer1_SetCounterMode
 911              		.section	.text.Timer1_WritePeriod,"ax",%progbits
 912              		.align	2
 913              		.global	Timer1_WritePeriod
 914              		.code	16
 915              		.thumb_func
 916              		.type	Timer1_WritePeriod, %function
 917              	Timer1_WritePeriod:
 918              	.LFB17:
 675:Generated_Source\PSoC4/Timer1.c **** 
 676:Generated_Source\PSoC4/Timer1.c **** 
 677:Generated_Source\PSoC4/Timer1.c **** /*******************************************************************************
 678:Generated_Source\PSoC4/Timer1.c **** * Function Name: Timer1_WritePeriod
ARM GAS  C:\Users\essele\AppData\Local\Temp\ccwDBPw1.s 			page 29


 679:Generated_Source\PSoC4/Timer1.c **** ********************************************************************************
 680:Generated_Source\PSoC4/Timer1.c **** *
 681:Generated_Source\PSoC4/Timer1.c **** * Summary:
 682:Generated_Source\PSoC4/Timer1.c **** *  Writes the 16 bit period register with the new period value.
 683:Generated_Source\PSoC4/Timer1.c **** *  To cause the counter to count for N cycles this register should be written
 684:Generated_Source\PSoC4/Timer1.c **** *  with N-1 (counts from 0 to period inclusive).
 685:Generated_Source\PSoC4/Timer1.c **** *
 686:Generated_Source\PSoC4/Timer1.c **** * Parameters:
 687:Generated_Source\PSoC4/Timer1.c **** *  period: Period value
 688:Generated_Source\PSoC4/Timer1.c **** *
 689:Generated_Source\PSoC4/Timer1.c **** * Return:
 690:Generated_Source\PSoC4/Timer1.c **** *  None
 691:Generated_Source\PSoC4/Timer1.c **** *
 692:Generated_Source\PSoC4/Timer1.c **** *******************************************************************************/
 693:Generated_Source\PSoC4/Timer1.c **** void Timer1_WritePeriod(uint32 period)
 694:Generated_Source\PSoC4/Timer1.c **** {
 919              		.loc 1 694 0
 920              		.cfi_startproc
 921              		@ args = 0, pretend = 0, frame = 8
 922              		@ frame_needed = 1, uses_anonymous_args = 0
 923 0000 80B5     		push	{r7, lr}
 924              		.cfi_def_cfa_offset 8
 925              		.cfi_offset 7, -8
 926              		.cfi_offset 14, -4
 927 0002 82B0     		sub	sp, sp, #8
 928              		.cfi_def_cfa_offset 16
 929 0004 00AF     		add	r7, sp, #0
 930              		.cfi_def_cfa_register 7
 931 0006 7860     		str	r0, [r7, #4]
 695:Generated_Source\PSoC4/Timer1.c ****     Timer1_PERIOD_REG = (period & Timer1_16BIT_MASK);
 932              		.loc 1 695 0
 933 0008 044B     		ldr	r3, .L52
 934 000a 7A68     		ldr	r2, [r7, #4]
 935 000c 1204     		lsls	r2, r2, #16
 936 000e 120C     		lsrs	r2, r2, #16
 937 0010 1A60     		str	r2, [r3]
 696:Generated_Source\PSoC4/Timer1.c **** }
 938              		.loc 1 696 0
 939 0012 C046     		nop
 940 0014 BD46     		mov	sp, r7
 941 0016 02B0     		add	sp, sp, #8
 942              		@ sp needed
 943 0018 80BD     		pop	{r7, pc}
 944              	.L53:
 945 001a C046     		.align	2
 946              	.L52:
 947 001c 14012040 		.word	1075839252
 948              		.cfi_endproc
 949              	.LFE17:
 950              		.size	Timer1_WritePeriod, .-Timer1_WritePeriod
 951              		.section	.text.Timer1_ReadPeriod,"ax",%progbits
 952              		.align	2
 953              		.global	Timer1_ReadPeriod
 954              		.code	16
 955              		.thumb_func
 956              		.type	Timer1_ReadPeriod, %function
 957              	Timer1_ReadPeriod:
ARM GAS  C:\Users\essele\AppData\Local\Temp\ccwDBPw1.s 			page 30


 958              	.LFB18:
 697:Generated_Source\PSoC4/Timer1.c **** 
 698:Generated_Source\PSoC4/Timer1.c **** 
 699:Generated_Source\PSoC4/Timer1.c **** /*******************************************************************************
 700:Generated_Source\PSoC4/Timer1.c **** * Function Name: Timer1_ReadPeriod
 701:Generated_Source\PSoC4/Timer1.c **** ********************************************************************************
 702:Generated_Source\PSoC4/Timer1.c **** *
 703:Generated_Source\PSoC4/Timer1.c **** * Summary:
 704:Generated_Source\PSoC4/Timer1.c **** *  Reads the 16 bit period register.
 705:Generated_Source\PSoC4/Timer1.c **** *
 706:Generated_Source\PSoC4/Timer1.c **** * Parameters:
 707:Generated_Source\PSoC4/Timer1.c **** *  None
 708:Generated_Source\PSoC4/Timer1.c **** *
 709:Generated_Source\PSoC4/Timer1.c **** * Return:
 710:Generated_Source\PSoC4/Timer1.c **** *  Period value
 711:Generated_Source\PSoC4/Timer1.c **** *
 712:Generated_Source\PSoC4/Timer1.c **** *******************************************************************************/
 713:Generated_Source\PSoC4/Timer1.c **** uint32 Timer1_ReadPeriod(void)
 714:Generated_Source\PSoC4/Timer1.c **** {
 959              		.loc 1 714 0
 960              		.cfi_startproc
 961              		@ args = 0, pretend = 0, frame = 0
 962              		@ frame_needed = 1, uses_anonymous_args = 0
 963 0000 80B5     		push	{r7, lr}
 964              		.cfi_def_cfa_offset 8
 965              		.cfi_offset 7, -8
 966              		.cfi_offset 14, -4
 967 0002 00AF     		add	r7, sp, #0
 968              		.cfi_def_cfa_register 7
 715:Generated_Source\PSoC4/Timer1.c ****     return (Timer1_PERIOD_REG & Timer1_16BIT_MASK);
 969              		.loc 1 715 0
 970 0004 034B     		ldr	r3, .L56
 971 0006 1B68     		ldr	r3, [r3]
 972 0008 1B04     		lsls	r3, r3, #16
 973 000a 1B0C     		lsrs	r3, r3, #16
 716:Generated_Source\PSoC4/Timer1.c **** }
 974              		.loc 1 716 0
 975 000c 1800     		movs	r0, r3
 976 000e BD46     		mov	sp, r7
 977              		@ sp needed
 978 0010 80BD     		pop	{r7, pc}
 979              	.L57:
 980 0012 C046     		.align	2
 981              	.L56:
 982 0014 14012040 		.word	1075839252
 983              		.cfi_endproc
 984              	.LFE18:
 985              		.size	Timer1_ReadPeriod, .-Timer1_ReadPeriod
 986              		.section	.text.Timer1_SetCompareSwap,"ax",%progbits
 987              		.align	2
 988              		.global	Timer1_SetCompareSwap
 989              		.code	16
 990              		.thumb_func
 991              		.type	Timer1_SetCompareSwap, %function
 992              	Timer1_SetCompareSwap:
 993              	.LFB19:
 717:Generated_Source\PSoC4/Timer1.c **** 
ARM GAS  C:\Users\essele\AppData\Local\Temp\ccwDBPw1.s 			page 31


 718:Generated_Source\PSoC4/Timer1.c **** 
 719:Generated_Source\PSoC4/Timer1.c **** /*******************************************************************************
 720:Generated_Source\PSoC4/Timer1.c **** * Function Name: Timer1_SetCompareSwap
 721:Generated_Source\PSoC4/Timer1.c **** ********************************************************************************
 722:Generated_Source\PSoC4/Timer1.c **** *
 723:Generated_Source\PSoC4/Timer1.c **** * Summary:
 724:Generated_Source\PSoC4/Timer1.c **** *  Writes the register that controls whether the compare registers are
 725:Generated_Source\PSoC4/Timer1.c **** *  swapped. When enabled in the Timer/Counter mode(without capture) the swap
 726:Generated_Source\PSoC4/Timer1.c **** *  occurs at a TC event. In the PWM mode the swap occurs at the next TC event
 727:Generated_Source\PSoC4/Timer1.c **** *  following a hardware switch event.
 728:Generated_Source\PSoC4/Timer1.c **** *
 729:Generated_Source\PSoC4/Timer1.c **** * Parameters:
 730:Generated_Source\PSoC4/Timer1.c **** *  swapEnable
 731:Generated_Source\PSoC4/Timer1.c **** *   Values:
 732:Generated_Source\PSoC4/Timer1.c **** *     - 0 - Disable swap
 733:Generated_Source\PSoC4/Timer1.c **** *     - 1 - Enable swap
 734:Generated_Source\PSoC4/Timer1.c **** *
 735:Generated_Source\PSoC4/Timer1.c **** * Return:
 736:Generated_Source\PSoC4/Timer1.c **** *  None
 737:Generated_Source\PSoC4/Timer1.c **** *
 738:Generated_Source\PSoC4/Timer1.c **** *******************************************************************************/
 739:Generated_Source\PSoC4/Timer1.c **** void Timer1_SetCompareSwap(uint32 swapEnable)
 740:Generated_Source\PSoC4/Timer1.c **** {
 994              		.loc 1 740 0
 995              		.cfi_startproc
 996              		@ args = 0, pretend = 0, frame = 16
 997              		@ frame_needed = 1, uses_anonymous_args = 0
 998 0000 90B5     		push	{r4, r7, lr}
 999              		.cfi_def_cfa_offset 12
 1000              		.cfi_offset 4, -12
 1001              		.cfi_offset 7, -8
 1002              		.cfi_offset 14, -4
 1003 0002 85B0     		sub	sp, sp, #20
 1004              		.cfi_def_cfa_offset 32
 1005 0004 00AF     		add	r7, sp, #0
 1006              		.cfi_def_cfa_register 7
 1007 0006 7860     		str	r0, [r7, #4]
 741:Generated_Source\PSoC4/Timer1.c ****     uint8 enableInterrupts;
 742:Generated_Source\PSoC4/Timer1.c **** 
 743:Generated_Source\PSoC4/Timer1.c ****     enableInterrupts = CyEnterCriticalSection();
 1008              		.loc 1 743 0
 1009 0008 0F23     		movs	r3, #15
 1010 000a FC18     		adds	r4, r7, r3
 1011 000c FFF7FEFF 		bl	CyEnterCriticalSection
 1012 0010 0300     		movs	r3, r0
 1013 0012 2370     		strb	r3, [r4]
 744:Generated_Source\PSoC4/Timer1.c **** 
 745:Generated_Source\PSoC4/Timer1.c ****     Timer1_CONTROL_REG &= (uint32)~Timer1_RELOAD_CC_MASK;
 1014              		.loc 1 745 0
 1015 0014 0B4B     		ldr	r3, .L59
 1016 0016 0B4A     		ldr	r2, .L59
 1017 0018 1268     		ldr	r2, [r2]
 1018 001a 0121     		movs	r1, #1
 1019 001c 8A43     		bics	r2, r1
 1020 001e 1A60     		str	r2, [r3]
 746:Generated_Source\PSoC4/Timer1.c ****     Timer1_CONTROL_REG |= (swapEnable & Timer1_1BIT_MASK);
 1021              		.loc 1 746 0
ARM GAS  C:\Users\essele\AppData\Local\Temp\ccwDBPw1.s 			page 32


 1022 0020 084B     		ldr	r3, .L59
 1023 0022 084A     		ldr	r2, .L59
 1024 0024 1168     		ldr	r1, [r2]
 1025 0026 7A68     		ldr	r2, [r7, #4]
 1026 0028 0120     		movs	r0, #1
 1027 002a 0240     		ands	r2, r0
 1028 002c 0A43     		orrs	r2, r1
 1029 002e 1A60     		str	r2, [r3]
 747:Generated_Source\PSoC4/Timer1.c **** 
 748:Generated_Source\PSoC4/Timer1.c ****     CyExitCriticalSection(enableInterrupts);
 1030              		.loc 1 748 0
 1031 0030 0F23     		movs	r3, #15
 1032 0032 FB18     		adds	r3, r7, r3
 1033 0034 1B78     		ldrb	r3, [r3]
 1034 0036 1800     		movs	r0, r3
 1035 0038 FFF7FEFF 		bl	CyExitCriticalSection
 749:Generated_Source\PSoC4/Timer1.c **** }
 1036              		.loc 1 749 0
 1037 003c C046     		nop
 1038 003e BD46     		mov	sp, r7
 1039 0040 05B0     		add	sp, sp, #20
 1040              		@ sp needed
 1041 0042 90BD     		pop	{r4, r7, pc}
 1042              	.L60:
 1043              		.align	2
 1044              	.L59:
 1045 0044 00012040 		.word	1075839232
 1046              		.cfi_endproc
 1047              	.LFE19:
 1048              		.size	Timer1_SetCompareSwap, .-Timer1_SetCompareSwap
 1049              		.section	.text.Timer1_WritePeriodBuf,"ax",%progbits
 1050              		.align	2
 1051              		.global	Timer1_WritePeriodBuf
 1052              		.code	16
 1053              		.thumb_func
 1054              		.type	Timer1_WritePeriodBuf, %function
 1055              	Timer1_WritePeriodBuf:
 1056              	.LFB20:
 750:Generated_Source\PSoC4/Timer1.c **** 
 751:Generated_Source\PSoC4/Timer1.c **** 
 752:Generated_Source\PSoC4/Timer1.c **** /*******************************************************************************
 753:Generated_Source\PSoC4/Timer1.c **** * Function Name: Timer1_WritePeriodBuf
 754:Generated_Source\PSoC4/Timer1.c **** ********************************************************************************
 755:Generated_Source\PSoC4/Timer1.c **** *
 756:Generated_Source\PSoC4/Timer1.c **** * Summary:
 757:Generated_Source\PSoC4/Timer1.c **** *  Writes the 16 bit period buf register with the new period value.
 758:Generated_Source\PSoC4/Timer1.c **** *
 759:Generated_Source\PSoC4/Timer1.c **** * Parameters:
 760:Generated_Source\PSoC4/Timer1.c **** *  periodBuf: Period value
 761:Generated_Source\PSoC4/Timer1.c **** *
 762:Generated_Source\PSoC4/Timer1.c **** * Return:
 763:Generated_Source\PSoC4/Timer1.c **** *  None
 764:Generated_Source\PSoC4/Timer1.c **** *
 765:Generated_Source\PSoC4/Timer1.c **** *******************************************************************************/
 766:Generated_Source\PSoC4/Timer1.c **** void Timer1_WritePeriodBuf(uint32 periodBuf)
 767:Generated_Source\PSoC4/Timer1.c **** {
 1057              		.loc 1 767 0
ARM GAS  C:\Users\essele\AppData\Local\Temp\ccwDBPw1.s 			page 33


 1058              		.cfi_startproc
 1059              		@ args = 0, pretend = 0, frame = 8
 1060              		@ frame_needed = 1, uses_anonymous_args = 0
 1061 0000 80B5     		push	{r7, lr}
 1062              		.cfi_def_cfa_offset 8
 1063              		.cfi_offset 7, -8
 1064              		.cfi_offset 14, -4
 1065 0002 82B0     		sub	sp, sp, #8
 1066              		.cfi_def_cfa_offset 16
 1067 0004 00AF     		add	r7, sp, #0
 1068              		.cfi_def_cfa_register 7
 1069 0006 7860     		str	r0, [r7, #4]
 768:Generated_Source\PSoC4/Timer1.c ****     Timer1_PERIOD_BUF_REG = (periodBuf & Timer1_16BIT_MASK);
 1070              		.loc 1 768 0
 1071 0008 044B     		ldr	r3, .L62
 1072 000a 7A68     		ldr	r2, [r7, #4]
 1073 000c 1204     		lsls	r2, r2, #16
 1074 000e 120C     		lsrs	r2, r2, #16
 1075 0010 1A60     		str	r2, [r3]
 769:Generated_Source\PSoC4/Timer1.c **** }
 1076              		.loc 1 769 0
 1077 0012 C046     		nop
 1078 0014 BD46     		mov	sp, r7
 1079 0016 02B0     		add	sp, sp, #8
 1080              		@ sp needed
 1081 0018 80BD     		pop	{r7, pc}
 1082              	.L63:
 1083 001a C046     		.align	2
 1084              	.L62:
 1085 001c 18012040 		.word	1075839256
 1086              		.cfi_endproc
 1087              	.LFE20:
 1088              		.size	Timer1_WritePeriodBuf, .-Timer1_WritePeriodBuf
 1089              		.section	.text.Timer1_ReadPeriodBuf,"ax",%progbits
 1090              		.align	2
 1091              		.global	Timer1_ReadPeriodBuf
 1092              		.code	16
 1093              		.thumb_func
 1094              		.type	Timer1_ReadPeriodBuf, %function
 1095              	Timer1_ReadPeriodBuf:
 1096              	.LFB21:
 770:Generated_Source\PSoC4/Timer1.c **** 
 771:Generated_Source\PSoC4/Timer1.c **** 
 772:Generated_Source\PSoC4/Timer1.c **** /*******************************************************************************
 773:Generated_Source\PSoC4/Timer1.c **** * Function Name: Timer1_ReadPeriodBuf
 774:Generated_Source\PSoC4/Timer1.c **** ********************************************************************************
 775:Generated_Source\PSoC4/Timer1.c **** *
 776:Generated_Source\PSoC4/Timer1.c **** * Summary:
 777:Generated_Source\PSoC4/Timer1.c **** *  Reads the 16 bit period buf register.
 778:Generated_Source\PSoC4/Timer1.c **** *
 779:Generated_Source\PSoC4/Timer1.c **** * Parameters:
 780:Generated_Source\PSoC4/Timer1.c **** *  None
 781:Generated_Source\PSoC4/Timer1.c **** *
 782:Generated_Source\PSoC4/Timer1.c **** * Return:
 783:Generated_Source\PSoC4/Timer1.c **** *  Period value
 784:Generated_Source\PSoC4/Timer1.c **** *
 785:Generated_Source\PSoC4/Timer1.c **** *******************************************************************************/
ARM GAS  C:\Users\essele\AppData\Local\Temp\ccwDBPw1.s 			page 34


 786:Generated_Source\PSoC4/Timer1.c **** uint32 Timer1_ReadPeriodBuf(void)
 787:Generated_Source\PSoC4/Timer1.c **** {
 1097              		.loc 1 787 0
 1098              		.cfi_startproc
 1099              		@ args = 0, pretend = 0, frame = 0
 1100              		@ frame_needed = 1, uses_anonymous_args = 0
 1101 0000 80B5     		push	{r7, lr}
 1102              		.cfi_def_cfa_offset 8
 1103              		.cfi_offset 7, -8
 1104              		.cfi_offset 14, -4
 1105 0002 00AF     		add	r7, sp, #0
 1106              		.cfi_def_cfa_register 7
 788:Generated_Source\PSoC4/Timer1.c ****     return (Timer1_PERIOD_BUF_REG & Timer1_16BIT_MASK);
 1107              		.loc 1 788 0
 1108 0004 034B     		ldr	r3, .L66
 1109 0006 1B68     		ldr	r3, [r3]
 1110 0008 1B04     		lsls	r3, r3, #16
 1111 000a 1B0C     		lsrs	r3, r3, #16
 789:Generated_Source\PSoC4/Timer1.c **** }
 1112              		.loc 1 789 0
 1113 000c 1800     		movs	r0, r3
 1114 000e BD46     		mov	sp, r7
 1115              		@ sp needed
 1116 0010 80BD     		pop	{r7, pc}
 1117              	.L67:
 1118 0012 C046     		.align	2
 1119              	.L66:
 1120 0014 18012040 		.word	1075839256
 1121              		.cfi_endproc
 1122              	.LFE21:
 1123              		.size	Timer1_ReadPeriodBuf, .-Timer1_ReadPeriodBuf
 1124              		.section	.text.Timer1_SetPeriodSwap,"ax",%progbits
 1125              		.align	2
 1126              		.global	Timer1_SetPeriodSwap
 1127              		.code	16
 1128              		.thumb_func
 1129              		.type	Timer1_SetPeriodSwap, %function
 1130              	Timer1_SetPeriodSwap:
 1131              	.LFB22:
 790:Generated_Source\PSoC4/Timer1.c **** 
 791:Generated_Source\PSoC4/Timer1.c **** 
 792:Generated_Source\PSoC4/Timer1.c **** /*******************************************************************************
 793:Generated_Source\PSoC4/Timer1.c **** * Function Name: Timer1_SetPeriodSwap
 794:Generated_Source\PSoC4/Timer1.c **** ********************************************************************************
 795:Generated_Source\PSoC4/Timer1.c **** *
 796:Generated_Source\PSoC4/Timer1.c **** * Summary:
 797:Generated_Source\PSoC4/Timer1.c **** *  Writes the register that controls whether the period registers are
 798:Generated_Source\PSoC4/Timer1.c **** *  swapped. When enabled in Timer/Counter mode the swap occurs at a TC event.
 799:Generated_Source\PSoC4/Timer1.c **** *  In the PWM mode the swap occurs at the next TC event following a hardware
 800:Generated_Source\PSoC4/Timer1.c **** *  switch event.
 801:Generated_Source\PSoC4/Timer1.c **** *
 802:Generated_Source\PSoC4/Timer1.c **** * Parameters:
 803:Generated_Source\PSoC4/Timer1.c **** *  swapEnable
 804:Generated_Source\PSoC4/Timer1.c **** *   Values:
 805:Generated_Source\PSoC4/Timer1.c **** *     - 0 - Disable swap
 806:Generated_Source\PSoC4/Timer1.c **** *     - 1 - Enable swap
 807:Generated_Source\PSoC4/Timer1.c **** *
ARM GAS  C:\Users\essele\AppData\Local\Temp\ccwDBPw1.s 			page 35


 808:Generated_Source\PSoC4/Timer1.c **** * Return:
 809:Generated_Source\PSoC4/Timer1.c **** *  None
 810:Generated_Source\PSoC4/Timer1.c **** *
 811:Generated_Source\PSoC4/Timer1.c **** *******************************************************************************/
 812:Generated_Source\PSoC4/Timer1.c **** void Timer1_SetPeriodSwap(uint32 swapEnable)
 813:Generated_Source\PSoC4/Timer1.c **** {
 1132              		.loc 1 813 0
 1133              		.cfi_startproc
 1134              		@ args = 0, pretend = 0, frame = 16
 1135              		@ frame_needed = 1, uses_anonymous_args = 0
 1136 0000 90B5     		push	{r4, r7, lr}
 1137              		.cfi_def_cfa_offset 12
 1138              		.cfi_offset 4, -12
 1139              		.cfi_offset 7, -8
 1140              		.cfi_offset 14, -4
 1141 0002 85B0     		sub	sp, sp, #20
 1142              		.cfi_def_cfa_offset 32
 1143 0004 00AF     		add	r7, sp, #0
 1144              		.cfi_def_cfa_register 7
 1145 0006 7860     		str	r0, [r7, #4]
 814:Generated_Source\PSoC4/Timer1.c ****     uint8 enableInterrupts;
 815:Generated_Source\PSoC4/Timer1.c **** 
 816:Generated_Source\PSoC4/Timer1.c ****     enableInterrupts = CyEnterCriticalSection();
 1146              		.loc 1 816 0
 1147 0008 0F23     		movs	r3, #15
 1148 000a FC18     		adds	r4, r7, r3
 1149 000c FFF7FEFF 		bl	CyEnterCriticalSection
 1150 0010 0300     		movs	r3, r0
 1151 0012 2370     		strb	r3, [r4]
 817:Generated_Source\PSoC4/Timer1.c **** 
 818:Generated_Source\PSoC4/Timer1.c ****     Timer1_CONTROL_REG &= (uint32)~Timer1_RELOAD_PERIOD_MASK;
 1152              		.loc 1 818 0
 1153 0014 0C4B     		ldr	r3, .L69
 1154 0016 0C4A     		ldr	r2, .L69
 1155 0018 1268     		ldr	r2, [r2]
 1156 001a 0221     		movs	r1, #2
 1157 001c 8A43     		bics	r2, r1
 1158 001e 1A60     		str	r2, [r3]
 819:Generated_Source\PSoC4/Timer1.c ****     Timer1_CONTROL_REG |= ((uint32)((swapEnable & Timer1_1BIT_MASK) <<
 1159              		.loc 1 819 0
 1160 0020 094B     		ldr	r3, .L69
 1161 0022 094A     		ldr	r2, .L69
 1162 0024 1168     		ldr	r1, [r2]
 1163 0026 7A68     		ldr	r2, [r7, #4]
 1164 0028 5200     		lsls	r2, r2, #1
 1165 002a 0220     		movs	r0, #2
 1166 002c 0240     		ands	r2, r0
 1167 002e 0A43     		orrs	r2, r1
 1168 0030 1A60     		str	r2, [r3]
 820:Generated_Source\PSoC4/Timer1.c ****                                                             Timer1_RELOAD_PERIOD_SHIFT));
 821:Generated_Source\PSoC4/Timer1.c **** 
 822:Generated_Source\PSoC4/Timer1.c ****     CyExitCriticalSection(enableInterrupts);
 1169              		.loc 1 822 0
 1170 0032 0F23     		movs	r3, #15
 1171 0034 FB18     		adds	r3, r7, r3
 1172 0036 1B78     		ldrb	r3, [r3]
 1173 0038 1800     		movs	r0, r3
ARM GAS  C:\Users\essele\AppData\Local\Temp\ccwDBPw1.s 			page 36


 1174 003a FFF7FEFF 		bl	CyExitCriticalSection
 823:Generated_Source\PSoC4/Timer1.c **** }
 1175              		.loc 1 823 0
 1176 003e C046     		nop
 1177 0040 BD46     		mov	sp, r7
 1178 0042 05B0     		add	sp, sp, #20
 1179              		@ sp needed
 1180 0044 90BD     		pop	{r4, r7, pc}
 1181              	.L70:
 1182 0046 C046     		.align	2
 1183              	.L69:
 1184 0048 00012040 		.word	1075839232
 1185              		.cfi_endproc
 1186              	.LFE22:
 1187              		.size	Timer1_SetPeriodSwap, .-Timer1_SetPeriodSwap
 1188              		.section	.text.Timer1_WriteCompare,"ax",%progbits
 1189              		.align	2
 1190              		.global	Timer1_WriteCompare
 1191              		.code	16
 1192              		.thumb_func
 1193              		.type	Timer1_WriteCompare, %function
 1194              	Timer1_WriteCompare:
 1195              	.LFB23:
 824:Generated_Source\PSoC4/Timer1.c **** 
 825:Generated_Source\PSoC4/Timer1.c **** 
 826:Generated_Source\PSoC4/Timer1.c **** /*******************************************************************************
 827:Generated_Source\PSoC4/Timer1.c **** * Function Name: Timer1_WriteCompare
 828:Generated_Source\PSoC4/Timer1.c **** ********************************************************************************
 829:Generated_Source\PSoC4/Timer1.c **** *
 830:Generated_Source\PSoC4/Timer1.c **** * Summary:
 831:Generated_Source\PSoC4/Timer1.c **** *  Writes the 16 bit compare register with the new compare value. Not
 832:Generated_Source\PSoC4/Timer1.c **** *  applicable for Timer/Counter with Capture or in Quadrature Decoder modes.
 833:Generated_Source\PSoC4/Timer1.c **** *
 834:Generated_Source\PSoC4/Timer1.c **** * Parameters:
 835:Generated_Source\PSoC4/Timer1.c **** *  compare: Compare value
 836:Generated_Source\PSoC4/Timer1.c **** *
 837:Generated_Source\PSoC4/Timer1.c **** * Return:
 838:Generated_Source\PSoC4/Timer1.c **** *  None
 839:Generated_Source\PSoC4/Timer1.c **** *
 840:Generated_Source\PSoC4/Timer1.c **** * Note:
 841:Generated_Source\PSoC4/Timer1.c **** *  It is not recommended to use the value equal to "0" or equal to 
 842:Generated_Source\PSoC4/Timer1.c **** *  "period value" in Center or Asymmetric align PWM modes on the 
 843:Generated_Source\PSoC4/Timer1.c **** *  PSoC 4100/PSoC 4200 devices.
 844:Generated_Source\PSoC4/Timer1.c **** *  PSoC 4000 devices write the 16 bit compare register with the decremented 
 845:Generated_Source\PSoC4/Timer1.c **** *  compare value in the Up counting mode (except 0x0u), and the incremented 
 846:Generated_Source\PSoC4/Timer1.c **** *  compare value in the Down counting mode (except 0xFFFFu).
 847:Generated_Source\PSoC4/Timer1.c **** *
 848:Generated_Source\PSoC4/Timer1.c **** *******************************************************************************/
 849:Generated_Source\PSoC4/Timer1.c **** void Timer1_WriteCompare(uint32 compare)
 850:Generated_Source\PSoC4/Timer1.c **** {
 1196              		.loc 1 850 0
 1197              		.cfi_startproc
 1198              		@ args = 0, pretend = 0, frame = 8
 1199              		@ frame_needed = 1, uses_anonymous_args = 0
 1200 0000 80B5     		push	{r7, lr}
 1201              		.cfi_def_cfa_offset 8
 1202              		.cfi_offset 7, -8
ARM GAS  C:\Users\essele\AppData\Local\Temp\ccwDBPw1.s 			page 37


 1203              		.cfi_offset 14, -4
 1204 0002 82B0     		sub	sp, sp, #8
 1205              		.cfi_def_cfa_offset 16
 1206 0004 00AF     		add	r7, sp, #0
 1207              		.cfi_def_cfa_register 7
 1208 0006 7860     		str	r0, [r7, #4]
 851:Generated_Source\PSoC4/Timer1.c ****     #if (Timer1_CY_TCPWM_4000)
 852:Generated_Source\PSoC4/Timer1.c ****         uint32 currentMode;
 853:Generated_Source\PSoC4/Timer1.c ****     #endif /* (Timer1_CY_TCPWM_4000) */
 854:Generated_Source\PSoC4/Timer1.c **** 
 855:Generated_Source\PSoC4/Timer1.c ****     #if (Timer1_CY_TCPWM_4000)
 856:Generated_Source\PSoC4/Timer1.c ****         currentMode = ((Timer1_CONTROL_REG & Timer1_UPDOWN_MASK) >> Timer1_UPDOWN_SHIFT);
 857:Generated_Source\PSoC4/Timer1.c **** 
 858:Generated_Source\PSoC4/Timer1.c ****         if (((uint32)Timer1__COUNT_DOWN == currentMode) && (0xFFFFu != compare))
 859:Generated_Source\PSoC4/Timer1.c ****         {
 860:Generated_Source\PSoC4/Timer1.c ****             compare++;
 861:Generated_Source\PSoC4/Timer1.c ****         }
 862:Generated_Source\PSoC4/Timer1.c ****         else if (((uint32)Timer1__COUNT_UP == currentMode) && (0u != compare))
 863:Generated_Source\PSoC4/Timer1.c ****         {
 864:Generated_Source\PSoC4/Timer1.c ****             compare--;
 865:Generated_Source\PSoC4/Timer1.c ****         }
 866:Generated_Source\PSoC4/Timer1.c ****         else
 867:Generated_Source\PSoC4/Timer1.c ****         {
 868:Generated_Source\PSoC4/Timer1.c ****         }
 869:Generated_Source\PSoC4/Timer1.c ****         
 870:Generated_Source\PSoC4/Timer1.c ****     
 871:Generated_Source\PSoC4/Timer1.c ****     #endif /* (Timer1_CY_TCPWM_4000) */
 872:Generated_Source\PSoC4/Timer1.c ****     
 873:Generated_Source\PSoC4/Timer1.c ****     Timer1_COMP_CAP_REG = (compare & Timer1_16BIT_MASK);
 1209              		.loc 1 873 0
 1210 0008 044B     		ldr	r3, .L72
 1211 000a 7A68     		ldr	r2, [r7, #4]
 1212 000c 1204     		lsls	r2, r2, #16
 1213 000e 120C     		lsrs	r2, r2, #16
 1214 0010 1A60     		str	r2, [r3]
 874:Generated_Source\PSoC4/Timer1.c **** }
 1215              		.loc 1 874 0
 1216 0012 C046     		nop
 1217 0014 BD46     		mov	sp, r7
 1218 0016 02B0     		add	sp, sp, #8
 1219              		@ sp needed
 1220 0018 80BD     		pop	{r7, pc}
 1221              	.L73:
 1222 001a C046     		.align	2
 1223              	.L72:
 1224 001c 0C012040 		.word	1075839244
 1225              		.cfi_endproc
 1226              	.LFE23:
 1227              		.size	Timer1_WriteCompare, .-Timer1_WriteCompare
 1228              		.section	.text.Timer1_ReadCompare,"ax",%progbits
 1229              		.align	2
 1230              		.global	Timer1_ReadCompare
 1231              		.code	16
 1232              		.thumb_func
 1233              		.type	Timer1_ReadCompare, %function
 1234              	Timer1_ReadCompare:
 1235              	.LFB24:
ARM GAS  C:\Users\essele\AppData\Local\Temp\ccwDBPw1.s 			page 38


 875:Generated_Source\PSoC4/Timer1.c **** 
 876:Generated_Source\PSoC4/Timer1.c **** 
 877:Generated_Source\PSoC4/Timer1.c **** /*******************************************************************************
 878:Generated_Source\PSoC4/Timer1.c **** * Function Name: Timer1_ReadCompare
 879:Generated_Source\PSoC4/Timer1.c **** ********************************************************************************
 880:Generated_Source\PSoC4/Timer1.c **** *
 881:Generated_Source\PSoC4/Timer1.c **** * Summary:
 882:Generated_Source\PSoC4/Timer1.c **** *  Reads the compare register. Not applicable for Timer/Counter with Capture
 883:Generated_Source\PSoC4/Timer1.c **** *  or in Quadrature Decoder modes.
 884:Generated_Source\PSoC4/Timer1.c **** *  PSoC 4000 devices read the incremented compare register value in the 
 885:Generated_Source\PSoC4/Timer1.c **** *  Up counting mode (except 0xFFFFu), and the decremented value in the 
 886:Generated_Source\PSoC4/Timer1.c **** *  Down counting mode (except 0x0u).
 887:Generated_Source\PSoC4/Timer1.c **** *
 888:Generated_Source\PSoC4/Timer1.c **** * Parameters:
 889:Generated_Source\PSoC4/Timer1.c **** *  None
 890:Generated_Source\PSoC4/Timer1.c **** *
 891:Generated_Source\PSoC4/Timer1.c **** * Return:
 892:Generated_Source\PSoC4/Timer1.c **** *  Compare value
 893:Generated_Source\PSoC4/Timer1.c **** *
 894:Generated_Source\PSoC4/Timer1.c **** * Note:
 895:Generated_Source\PSoC4/Timer1.c **** *  PSoC 4000 devices read the incremented compare register value in the 
 896:Generated_Source\PSoC4/Timer1.c **** *  Up counting mode (except 0xFFFFu), and the decremented value in the 
 897:Generated_Source\PSoC4/Timer1.c **** *  Down counting mode (except 0x0u).
 898:Generated_Source\PSoC4/Timer1.c **** *
 899:Generated_Source\PSoC4/Timer1.c **** *******************************************************************************/
 900:Generated_Source\PSoC4/Timer1.c **** uint32 Timer1_ReadCompare(void)
 901:Generated_Source\PSoC4/Timer1.c **** {
 1236              		.loc 1 901 0
 1237              		.cfi_startproc
 1238              		@ args = 0, pretend = 0, frame = 0
 1239              		@ frame_needed = 1, uses_anonymous_args = 0
 1240 0000 80B5     		push	{r7, lr}
 1241              		.cfi_def_cfa_offset 8
 1242              		.cfi_offset 7, -8
 1243              		.cfi_offset 14, -4
 1244 0002 00AF     		add	r7, sp, #0
 1245              		.cfi_def_cfa_register 7
 902:Generated_Source\PSoC4/Timer1.c ****     #if (Timer1_CY_TCPWM_4000)
 903:Generated_Source\PSoC4/Timer1.c ****         uint32 currentMode;
 904:Generated_Source\PSoC4/Timer1.c ****         uint32 regVal;
 905:Generated_Source\PSoC4/Timer1.c ****     #endif /* (Timer1_CY_TCPWM_4000) */
 906:Generated_Source\PSoC4/Timer1.c **** 
 907:Generated_Source\PSoC4/Timer1.c ****     #if (Timer1_CY_TCPWM_4000)
 908:Generated_Source\PSoC4/Timer1.c ****         currentMode = ((Timer1_CONTROL_REG & Timer1_UPDOWN_MASK) >> Timer1_UPDOWN_SHIFT);
 909:Generated_Source\PSoC4/Timer1.c ****         
 910:Generated_Source\PSoC4/Timer1.c ****         regVal = Timer1_COMP_CAP_REG;
 911:Generated_Source\PSoC4/Timer1.c ****         
 912:Generated_Source\PSoC4/Timer1.c ****         if (((uint32)Timer1__COUNT_DOWN == currentMode) && (0u != regVal))
 913:Generated_Source\PSoC4/Timer1.c ****         {
 914:Generated_Source\PSoC4/Timer1.c ****             regVal--;
 915:Generated_Source\PSoC4/Timer1.c ****         }
 916:Generated_Source\PSoC4/Timer1.c ****         else if (((uint32)Timer1__COUNT_UP == currentMode) && (0xFFFFu != regVal))
 917:Generated_Source\PSoC4/Timer1.c ****         {
 918:Generated_Source\PSoC4/Timer1.c ****             regVal++;
 919:Generated_Source\PSoC4/Timer1.c ****         }
 920:Generated_Source\PSoC4/Timer1.c ****         else
 921:Generated_Source\PSoC4/Timer1.c ****         {
ARM GAS  C:\Users\essele\AppData\Local\Temp\ccwDBPw1.s 			page 39


 922:Generated_Source\PSoC4/Timer1.c ****         }
 923:Generated_Source\PSoC4/Timer1.c **** 
 924:Generated_Source\PSoC4/Timer1.c ****         return (regVal & Timer1_16BIT_MASK);
 925:Generated_Source\PSoC4/Timer1.c ****     #else
 926:Generated_Source\PSoC4/Timer1.c ****         return (Timer1_COMP_CAP_REG & Timer1_16BIT_MASK);
 1246              		.loc 1 926 0
 1247 0004 034B     		ldr	r3, .L76
 1248 0006 1B68     		ldr	r3, [r3]
 1249 0008 1B04     		lsls	r3, r3, #16
 1250 000a 1B0C     		lsrs	r3, r3, #16
 927:Generated_Source\PSoC4/Timer1.c ****     #endif /* (Timer1_CY_TCPWM_4000) */
 928:Generated_Source\PSoC4/Timer1.c **** }
 1251              		.loc 1 928 0
 1252 000c 1800     		movs	r0, r3
 1253 000e BD46     		mov	sp, r7
 1254              		@ sp needed
 1255 0010 80BD     		pop	{r7, pc}
 1256              	.L77:
 1257 0012 C046     		.align	2
 1258              	.L76:
 1259 0014 0C012040 		.word	1075839244
 1260              		.cfi_endproc
 1261              	.LFE24:
 1262              		.size	Timer1_ReadCompare, .-Timer1_ReadCompare
 1263              		.section	.text.Timer1_WriteCompareBuf,"ax",%progbits
 1264              		.align	2
 1265              		.global	Timer1_WriteCompareBuf
 1266              		.code	16
 1267              		.thumb_func
 1268              		.type	Timer1_WriteCompareBuf, %function
 1269              	Timer1_WriteCompareBuf:
 1270              	.LFB25:
 929:Generated_Source\PSoC4/Timer1.c **** 
 930:Generated_Source\PSoC4/Timer1.c **** 
 931:Generated_Source\PSoC4/Timer1.c **** /*******************************************************************************
 932:Generated_Source\PSoC4/Timer1.c **** * Function Name: Timer1_WriteCompareBuf
 933:Generated_Source\PSoC4/Timer1.c **** ********************************************************************************
 934:Generated_Source\PSoC4/Timer1.c **** *
 935:Generated_Source\PSoC4/Timer1.c **** * Summary:
 936:Generated_Source\PSoC4/Timer1.c **** *  Writes the 16 bit compare buffer register with the new compare value. Not
 937:Generated_Source\PSoC4/Timer1.c **** *  applicable for Timer/Counter with Capture or in Quadrature Decoder modes.
 938:Generated_Source\PSoC4/Timer1.c **** *
 939:Generated_Source\PSoC4/Timer1.c **** * Parameters:
 940:Generated_Source\PSoC4/Timer1.c **** *  compareBuf: Compare value
 941:Generated_Source\PSoC4/Timer1.c **** *
 942:Generated_Source\PSoC4/Timer1.c **** * Return:
 943:Generated_Source\PSoC4/Timer1.c **** *  None
 944:Generated_Source\PSoC4/Timer1.c **** *
 945:Generated_Source\PSoC4/Timer1.c **** * Note:
 946:Generated_Source\PSoC4/Timer1.c **** *  It is not recommended to use the value equal to "0" or equal to 
 947:Generated_Source\PSoC4/Timer1.c **** *  "period value" in Center or Asymmetric align PWM modes on the 
 948:Generated_Source\PSoC4/Timer1.c **** *  PSoC 4100/PSoC 4200 devices.
 949:Generated_Source\PSoC4/Timer1.c **** *  PSoC 4000 devices write the 16 bit compare register with the decremented 
 950:Generated_Source\PSoC4/Timer1.c **** *  compare value in the Up counting mode (except 0x0u), and the incremented 
 951:Generated_Source\PSoC4/Timer1.c **** *  compare value in the Down counting mode (except 0xFFFFu).
 952:Generated_Source\PSoC4/Timer1.c **** *
 953:Generated_Source\PSoC4/Timer1.c **** *******************************************************************************/
ARM GAS  C:\Users\essele\AppData\Local\Temp\ccwDBPw1.s 			page 40


 954:Generated_Source\PSoC4/Timer1.c **** void Timer1_WriteCompareBuf(uint32 compareBuf)
 955:Generated_Source\PSoC4/Timer1.c **** {
 1271              		.loc 1 955 0
 1272              		.cfi_startproc
 1273              		@ args = 0, pretend = 0, frame = 8
 1274              		@ frame_needed = 1, uses_anonymous_args = 0
 1275 0000 80B5     		push	{r7, lr}
 1276              		.cfi_def_cfa_offset 8
 1277              		.cfi_offset 7, -8
 1278              		.cfi_offset 14, -4
 1279 0002 82B0     		sub	sp, sp, #8
 1280              		.cfi_def_cfa_offset 16
 1281 0004 00AF     		add	r7, sp, #0
 1282              		.cfi_def_cfa_register 7
 1283 0006 7860     		str	r0, [r7, #4]
 956:Generated_Source\PSoC4/Timer1.c ****     #if (Timer1_CY_TCPWM_4000)
 957:Generated_Source\PSoC4/Timer1.c ****         uint32 currentMode;
 958:Generated_Source\PSoC4/Timer1.c ****     #endif /* (Timer1_CY_TCPWM_4000) */
 959:Generated_Source\PSoC4/Timer1.c **** 
 960:Generated_Source\PSoC4/Timer1.c ****     #if (Timer1_CY_TCPWM_4000)
 961:Generated_Source\PSoC4/Timer1.c ****         currentMode = ((Timer1_CONTROL_REG & Timer1_UPDOWN_MASK) >> Timer1_UPDOWN_SHIFT);
 962:Generated_Source\PSoC4/Timer1.c **** 
 963:Generated_Source\PSoC4/Timer1.c ****         if (((uint32)Timer1__COUNT_DOWN == currentMode) && (0xFFFFu != compareBuf))
 964:Generated_Source\PSoC4/Timer1.c ****         {
 965:Generated_Source\PSoC4/Timer1.c ****             compareBuf++;
 966:Generated_Source\PSoC4/Timer1.c ****         }
 967:Generated_Source\PSoC4/Timer1.c ****         else if (((uint32)Timer1__COUNT_UP == currentMode) && (0u != compareBuf))
 968:Generated_Source\PSoC4/Timer1.c ****         {
 969:Generated_Source\PSoC4/Timer1.c ****             compareBuf --;
 970:Generated_Source\PSoC4/Timer1.c ****         }
 971:Generated_Source\PSoC4/Timer1.c ****         else
 972:Generated_Source\PSoC4/Timer1.c ****         {
 973:Generated_Source\PSoC4/Timer1.c ****         }
 974:Generated_Source\PSoC4/Timer1.c ****     #endif /* (Timer1_CY_TCPWM_4000) */
 975:Generated_Source\PSoC4/Timer1.c ****     
 976:Generated_Source\PSoC4/Timer1.c ****     Timer1_COMP_CAP_BUF_REG = (compareBuf & Timer1_16BIT_MASK);
 1284              		.loc 1 976 0
 1285 0008 044B     		ldr	r3, .L79
 1286 000a 7A68     		ldr	r2, [r7, #4]
 1287 000c 1204     		lsls	r2, r2, #16
 1288 000e 120C     		lsrs	r2, r2, #16
 1289 0010 1A60     		str	r2, [r3]
 977:Generated_Source\PSoC4/Timer1.c **** }
 1290              		.loc 1 977 0
 1291 0012 C046     		nop
 1292 0014 BD46     		mov	sp, r7
 1293 0016 02B0     		add	sp, sp, #8
 1294              		@ sp needed
 1295 0018 80BD     		pop	{r7, pc}
 1296              	.L80:
 1297 001a C046     		.align	2
 1298              	.L79:
 1299 001c 10012040 		.word	1075839248
 1300              		.cfi_endproc
 1301              	.LFE25:
 1302              		.size	Timer1_WriteCompareBuf, .-Timer1_WriteCompareBuf
 1303              		.section	.text.Timer1_ReadCompareBuf,"ax",%progbits
ARM GAS  C:\Users\essele\AppData\Local\Temp\ccwDBPw1.s 			page 41


 1304              		.align	2
 1305              		.global	Timer1_ReadCompareBuf
 1306              		.code	16
 1307              		.thumb_func
 1308              		.type	Timer1_ReadCompareBuf, %function
 1309              	Timer1_ReadCompareBuf:
 1310              	.LFB26:
 978:Generated_Source\PSoC4/Timer1.c **** 
 979:Generated_Source\PSoC4/Timer1.c **** 
 980:Generated_Source\PSoC4/Timer1.c **** /*******************************************************************************
 981:Generated_Source\PSoC4/Timer1.c **** * Function Name: Timer1_ReadCompareBuf
 982:Generated_Source\PSoC4/Timer1.c **** ********************************************************************************
 983:Generated_Source\PSoC4/Timer1.c **** *
 984:Generated_Source\PSoC4/Timer1.c **** * Summary:
 985:Generated_Source\PSoC4/Timer1.c **** *  Reads the compare buffer register. Not applicable for Timer/Counter with
 986:Generated_Source\PSoC4/Timer1.c **** *  Capture or in Quadrature Decoder modes.
 987:Generated_Source\PSoC4/Timer1.c **** *
 988:Generated_Source\PSoC4/Timer1.c **** * Parameters:
 989:Generated_Source\PSoC4/Timer1.c **** *  None
 990:Generated_Source\PSoC4/Timer1.c **** *
 991:Generated_Source\PSoC4/Timer1.c **** * Return:
 992:Generated_Source\PSoC4/Timer1.c **** *  Compare buffer value
 993:Generated_Source\PSoC4/Timer1.c **** *
 994:Generated_Source\PSoC4/Timer1.c **** * Note:
 995:Generated_Source\PSoC4/Timer1.c **** *  PSoC 4000 devices read the incremented compare register value in the 
 996:Generated_Source\PSoC4/Timer1.c **** *  Up counting mode (except 0xFFFFu), and the decremented value in the 
 997:Generated_Source\PSoC4/Timer1.c **** *  Down counting mode (except 0x0u).
 998:Generated_Source\PSoC4/Timer1.c **** *
 999:Generated_Source\PSoC4/Timer1.c **** *******************************************************************************/
1000:Generated_Source\PSoC4/Timer1.c **** uint32 Timer1_ReadCompareBuf(void)
1001:Generated_Source\PSoC4/Timer1.c **** {
 1311              		.loc 1 1001 0
 1312              		.cfi_startproc
 1313              		@ args = 0, pretend = 0, frame = 0
 1314              		@ frame_needed = 1, uses_anonymous_args = 0
 1315 0000 80B5     		push	{r7, lr}
 1316              		.cfi_def_cfa_offset 8
 1317              		.cfi_offset 7, -8
 1318              		.cfi_offset 14, -4
 1319 0002 00AF     		add	r7, sp, #0
 1320              		.cfi_def_cfa_register 7
1002:Generated_Source\PSoC4/Timer1.c ****     #if (Timer1_CY_TCPWM_4000)
1003:Generated_Source\PSoC4/Timer1.c ****         uint32 currentMode;
1004:Generated_Source\PSoC4/Timer1.c ****         uint32 regVal;
1005:Generated_Source\PSoC4/Timer1.c ****     #endif /* (Timer1_CY_TCPWM_4000) */
1006:Generated_Source\PSoC4/Timer1.c **** 
1007:Generated_Source\PSoC4/Timer1.c ****     #if (Timer1_CY_TCPWM_4000)
1008:Generated_Source\PSoC4/Timer1.c ****         currentMode = ((Timer1_CONTROL_REG & Timer1_UPDOWN_MASK) >> Timer1_UPDOWN_SHIFT);
1009:Generated_Source\PSoC4/Timer1.c **** 
1010:Generated_Source\PSoC4/Timer1.c ****         regVal = Timer1_COMP_CAP_BUF_REG;
1011:Generated_Source\PSoC4/Timer1.c ****         
1012:Generated_Source\PSoC4/Timer1.c ****         if (((uint32)Timer1__COUNT_DOWN == currentMode) && (0u != regVal))
1013:Generated_Source\PSoC4/Timer1.c ****         {
1014:Generated_Source\PSoC4/Timer1.c ****             regVal--;
1015:Generated_Source\PSoC4/Timer1.c ****         }
1016:Generated_Source\PSoC4/Timer1.c ****         else if (((uint32)Timer1__COUNT_UP == currentMode) && (0xFFFFu != regVal))
1017:Generated_Source\PSoC4/Timer1.c ****         {
ARM GAS  C:\Users\essele\AppData\Local\Temp\ccwDBPw1.s 			page 42


1018:Generated_Source\PSoC4/Timer1.c ****             regVal++;
1019:Generated_Source\PSoC4/Timer1.c ****         }
1020:Generated_Source\PSoC4/Timer1.c ****         else
1021:Generated_Source\PSoC4/Timer1.c ****         {
1022:Generated_Source\PSoC4/Timer1.c ****         }
1023:Generated_Source\PSoC4/Timer1.c **** 
1024:Generated_Source\PSoC4/Timer1.c ****         return (regVal & Timer1_16BIT_MASK);
1025:Generated_Source\PSoC4/Timer1.c ****     #else
1026:Generated_Source\PSoC4/Timer1.c ****         return (Timer1_COMP_CAP_BUF_REG & Timer1_16BIT_MASK);
 1321              		.loc 1 1026 0
 1322 0004 034B     		ldr	r3, .L83
 1323 0006 1B68     		ldr	r3, [r3]
 1324 0008 1B04     		lsls	r3, r3, #16
 1325 000a 1B0C     		lsrs	r3, r3, #16
1027:Generated_Source\PSoC4/Timer1.c ****     #endif /* (Timer1_CY_TCPWM_4000) */
1028:Generated_Source\PSoC4/Timer1.c **** }
 1326              		.loc 1 1028 0
 1327 000c 1800     		movs	r0, r3
 1328 000e BD46     		mov	sp, r7
 1329              		@ sp needed
 1330 0010 80BD     		pop	{r7, pc}
 1331              	.L84:
 1332 0012 C046     		.align	2
 1333              	.L83:
 1334 0014 10012040 		.word	1075839248
 1335              		.cfi_endproc
 1336              	.LFE26:
 1337              		.size	Timer1_ReadCompareBuf, .-Timer1_ReadCompareBuf
 1338              		.section	.text.Timer1_ReadCapture,"ax",%progbits
 1339              		.align	2
 1340              		.global	Timer1_ReadCapture
 1341              		.code	16
 1342              		.thumb_func
 1343              		.type	Timer1_ReadCapture, %function
 1344              	Timer1_ReadCapture:
 1345              	.LFB27:
1029:Generated_Source\PSoC4/Timer1.c **** 
1030:Generated_Source\PSoC4/Timer1.c **** 
1031:Generated_Source\PSoC4/Timer1.c **** /*******************************************************************************
1032:Generated_Source\PSoC4/Timer1.c **** * Function Name: Timer1_ReadCapture
1033:Generated_Source\PSoC4/Timer1.c **** ********************************************************************************
1034:Generated_Source\PSoC4/Timer1.c **** *
1035:Generated_Source\PSoC4/Timer1.c **** * Summary:
1036:Generated_Source\PSoC4/Timer1.c **** *  Reads the captured counter value. This API is applicable only for
1037:Generated_Source\PSoC4/Timer1.c **** *  Timer/Counter with the capture mode and Quadrature Decoder modes.
1038:Generated_Source\PSoC4/Timer1.c **** *
1039:Generated_Source\PSoC4/Timer1.c **** * Parameters:
1040:Generated_Source\PSoC4/Timer1.c **** *  None
1041:Generated_Source\PSoC4/Timer1.c **** *
1042:Generated_Source\PSoC4/Timer1.c **** * Return:
1043:Generated_Source\PSoC4/Timer1.c **** *  Capture value
1044:Generated_Source\PSoC4/Timer1.c **** *
1045:Generated_Source\PSoC4/Timer1.c **** *******************************************************************************/
1046:Generated_Source\PSoC4/Timer1.c **** uint32 Timer1_ReadCapture(void)
1047:Generated_Source\PSoC4/Timer1.c **** {
 1346              		.loc 1 1047 0
 1347              		.cfi_startproc
ARM GAS  C:\Users\essele\AppData\Local\Temp\ccwDBPw1.s 			page 43


 1348              		@ args = 0, pretend = 0, frame = 0
 1349              		@ frame_needed = 1, uses_anonymous_args = 0
 1350 0000 80B5     		push	{r7, lr}
 1351              		.cfi_def_cfa_offset 8
 1352              		.cfi_offset 7, -8
 1353              		.cfi_offset 14, -4
 1354 0002 00AF     		add	r7, sp, #0
 1355              		.cfi_def_cfa_register 7
1048:Generated_Source\PSoC4/Timer1.c ****     return (Timer1_COMP_CAP_REG & Timer1_16BIT_MASK);
 1356              		.loc 1 1048 0
 1357 0004 034B     		ldr	r3, .L87
 1358 0006 1B68     		ldr	r3, [r3]
 1359 0008 1B04     		lsls	r3, r3, #16
 1360 000a 1B0C     		lsrs	r3, r3, #16
1049:Generated_Source\PSoC4/Timer1.c **** }
 1361              		.loc 1 1049 0
 1362 000c 1800     		movs	r0, r3
 1363 000e BD46     		mov	sp, r7
 1364              		@ sp needed
 1365 0010 80BD     		pop	{r7, pc}
 1366              	.L88:
 1367 0012 C046     		.align	2
 1368              	.L87:
 1369 0014 0C012040 		.word	1075839244
 1370              		.cfi_endproc
 1371              	.LFE27:
 1372              		.size	Timer1_ReadCapture, .-Timer1_ReadCapture
 1373              		.section	.text.Timer1_ReadCaptureBuf,"ax",%progbits
 1374              		.align	2
 1375              		.global	Timer1_ReadCaptureBuf
 1376              		.code	16
 1377              		.thumb_func
 1378              		.type	Timer1_ReadCaptureBuf, %function
 1379              	Timer1_ReadCaptureBuf:
 1380              	.LFB28:
1050:Generated_Source\PSoC4/Timer1.c **** 
1051:Generated_Source\PSoC4/Timer1.c **** 
1052:Generated_Source\PSoC4/Timer1.c **** /*******************************************************************************
1053:Generated_Source\PSoC4/Timer1.c **** * Function Name: Timer1_ReadCaptureBuf
1054:Generated_Source\PSoC4/Timer1.c **** ********************************************************************************
1055:Generated_Source\PSoC4/Timer1.c **** *
1056:Generated_Source\PSoC4/Timer1.c **** * Summary:
1057:Generated_Source\PSoC4/Timer1.c **** *  Reads the capture buffer register. This API is applicable only for
1058:Generated_Source\PSoC4/Timer1.c **** *  Timer/Counter with the capture mode and Quadrature Decoder modes.
1059:Generated_Source\PSoC4/Timer1.c **** *
1060:Generated_Source\PSoC4/Timer1.c **** * Parameters:
1061:Generated_Source\PSoC4/Timer1.c **** *  None
1062:Generated_Source\PSoC4/Timer1.c **** *
1063:Generated_Source\PSoC4/Timer1.c **** * Return:
1064:Generated_Source\PSoC4/Timer1.c **** *  Capture buffer value
1065:Generated_Source\PSoC4/Timer1.c **** *
1066:Generated_Source\PSoC4/Timer1.c **** *******************************************************************************/
1067:Generated_Source\PSoC4/Timer1.c **** uint32 Timer1_ReadCaptureBuf(void)
1068:Generated_Source\PSoC4/Timer1.c **** {
 1381              		.loc 1 1068 0
 1382              		.cfi_startproc
 1383              		@ args = 0, pretend = 0, frame = 0
ARM GAS  C:\Users\essele\AppData\Local\Temp\ccwDBPw1.s 			page 44


 1384              		@ frame_needed = 1, uses_anonymous_args = 0
 1385 0000 80B5     		push	{r7, lr}
 1386              		.cfi_def_cfa_offset 8
 1387              		.cfi_offset 7, -8
 1388              		.cfi_offset 14, -4
 1389 0002 00AF     		add	r7, sp, #0
 1390              		.cfi_def_cfa_register 7
1069:Generated_Source\PSoC4/Timer1.c ****     return (Timer1_COMP_CAP_BUF_REG & Timer1_16BIT_MASK);
 1391              		.loc 1 1069 0
 1392 0004 034B     		ldr	r3, .L91
 1393 0006 1B68     		ldr	r3, [r3]
 1394 0008 1B04     		lsls	r3, r3, #16
 1395 000a 1B0C     		lsrs	r3, r3, #16
1070:Generated_Source\PSoC4/Timer1.c **** }
 1396              		.loc 1 1070 0
 1397 000c 1800     		movs	r0, r3
 1398 000e BD46     		mov	sp, r7
 1399              		@ sp needed
 1400 0010 80BD     		pop	{r7, pc}
 1401              	.L92:
 1402 0012 C046     		.align	2
 1403              	.L91:
 1404 0014 10012040 		.word	1075839248
 1405              		.cfi_endproc
 1406              	.LFE28:
 1407              		.size	Timer1_ReadCaptureBuf, .-Timer1_ReadCaptureBuf
 1408              		.section	.text.Timer1_SetCaptureMode,"ax",%progbits
 1409              		.align	2
 1410              		.global	Timer1_SetCaptureMode
 1411              		.code	16
 1412              		.thumb_func
 1413              		.type	Timer1_SetCaptureMode, %function
 1414              	Timer1_SetCaptureMode:
 1415              	.LFB29:
1071:Generated_Source\PSoC4/Timer1.c **** 
1072:Generated_Source\PSoC4/Timer1.c **** 
1073:Generated_Source\PSoC4/Timer1.c **** /*******************************************************************************
1074:Generated_Source\PSoC4/Timer1.c **** * Function Name: Timer1_SetCaptureMode
1075:Generated_Source\PSoC4/Timer1.c **** ********************************************************************************
1076:Generated_Source\PSoC4/Timer1.c **** *
1077:Generated_Source\PSoC4/Timer1.c **** * Summary:
1078:Generated_Source\PSoC4/Timer1.c **** *  Sets the capture trigger mode. For PWM mode this is the switch input.
1079:Generated_Source\PSoC4/Timer1.c **** *  This input is not applicable to the Timer/Counter without Capture and
1080:Generated_Source\PSoC4/Timer1.c **** *  Quadrature Decoder modes.
1081:Generated_Source\PSoC4/Timer1.c **** *
1082:Generated_Source\PSoC4/Timer1.c **** * Parameters:
1083:Generated_Source\PSoC4/Timer1.c **** *  triggerMode: Enumerated trigger mode value
1084:Generated_Source\PSoC4/Timer1.c **** *   Values:
1085:Generated_Source\PSoC4/Timer1.c **** *     - Timer1_TRIG_LEVEL     - Level
1086:Generated_Source\PSoC4/Timer1.c **** *     - Timer1_TRIG_RISING    - Rising edge
1087:Generated_Source\PSoC4/Timer1.c **** *     - Timer1_TRIG_FALLING   - Falling edge
1088:Generated_Source\PSoC4/Timer1.c **** *     - Timer1_TRIG_BOTH      - Both rising and falling edge
1089:Generated_Source\PSoC4/Timer1.c **** *
1090:Generated_Source\PSoC4/Timer1.c **** * Return:
1091:Generated_Source\PSoC4/Timer1.c **** *  None
1092:Generated_Source\PSoC4/Timer1.c **** *
1093:Generated_Source\PSoC4/Timer1.c **** *******************************************************************************/
ARM GAS  C:\Users\essele\AppData\Local\Temp\ccwDBPw1.s 			page 45


1094:Generated_Source\PSoC4/Timer1.c **** void Timer1_SetCaptureMode(uint32 triggerMode)
1095:Generated_Source\PSoC4/Timer1.c **** {
 1416              		.loc 1 1095 0
 1417              		.cfi_startproc
 1418              		@ args = 0, pretend = 0, frame = 16
 1419              		@ frame_needed = 1, uses_anonymous_args = 0
 1420 0000 90B5     		push	{r4, r7, lr}
 1421              		.cfi_def_cfa_offset 12
 1422              		.cfi_offset 4, -12
 1423              		.cfi_offset 7, -8
 1424              		.cfi_offset 14, -4
 1425 0002 85B0     		sub	sp, sp, #20
 1426              		.cfi_def_cfa_offset 32
 1427 0004 00AF     		add	r7, sp, #0
 1428              		.cfi_def_cfa_register 7
 1429 0006 7860     		str	r0, [r7, #4]
1096:Generated_Source\PSoC4/Timer1.c ****     uint8 enableInterrupts;
1097:Generated_Source\PSoC4/Timer1.c **** 
1098:Generated_Source\PSoC4/Timer1.c ****     enableInterrupts = CyEnterCriticalSection();
 1430              		.loc 1 1098 0
 1431 0008 0F23     		movs	r3, #15
 1432 000a FC18     		adds	r4, r7, r3
 1433 000c FFF7FEFF 		bl	CyEnterCriticalSection
 1434 0010 0300     		movs	r3, r0
 1435 0012 2370     		strb	r3, [r4]
1099:Generated_Source\PSoC4/Timer1.c **** 
1100:Generated_Source\PSoC4/Timer1.c ****     Timer1_TRIG_CONTROL1_REG &= (uint32)~Timer1_CAPTURE_MASK;
 1436              		.loc 1 1100 0
 1437 0014 0A4B     		ldr	r3, .L94
 1438 0016 0A4A     		ldr	r2, .L94
 1439 0018 1268     		ldr	r2, [r2]
 1440 001a 0321     		movs	r1, #3
 1441 001c 8A43     		bics	r2, r1
 1442 001e 1A60     		str	r2, [r3]
1101:Generated_Source\PSoC4/Timer1.c ****     Timer1_TRIG_CONTROL1_REG |= triggerMode;
 1443              		.loc 1 1101 0
 1444 0020 074B     		ldr	r3, .L94
 1445 0022 074A     		ldr	r2, .L94
 1446 0024 1168     		ldr	r1, [r2]
 1447 0026 7A68     		ldr	r2, [r7, #4]
 1448 0028 0A43     		orrs	r2, r1
 1449 002a 1A60     		str	r2, [r3]
1102:Generated_Source\PSoC4/Timer1.c **** 
1103:Generated_Source\PSoC4/Timer1.c ****     CyExitCriticalSection(enableInterrupts);
 1450              		.loc 1 1103 0
 1451 002c 0F23     		movs	r3, #15
 1452 002e FB18     		adds	r3, r7, r3
 1453 0030 1B78     		ldrb	r3, [r3]
 1454 0032 1800     		movs	r0, r3
 1455 0034 FFF7FEFF 		bl	CyExitCriticalSection
1104:Generated_Source\PSoC4/Timer1.c **** }
 1456              		.loc 1 1104 0
 1457 0038 C046     		nop
 1458 003a BD46     		mov	sp, r7
 1459 003c 05B0     		add	sp, sp, #20
 1460              		@ sp needed
 1461 003e 90BD     		pop	{r4, r7, pc}
ARM GAS  C:\Users\essele\AppData\Local\Temp\ccwDBPw1.s 			page 46


 1462              	.L95:
 1463              		.align	2
 1464              	.L94:
 1465 0040 24012040 		.word	1075839268
 1466              		.cfi_endproc
 1467              	.LFE29:
 1468              		.size	Timer1_SetCaptureMode, .-Timer1_SetCaptureMode
 1469              		.section	.text.Timer1_SetReloadMode,"ax",%progbits
 1470              		.align	2
 1471              		.global	Timer1_SetReloadMode
 1472              		.code	16
 1473              		.thumb_func
 1474              		.type	Timer1_SetReloadMode, %function
 1475              	Timer1_SetReloadMode:
 1476              	.LFB30:
1105:Generated_Source\PSoC4/Timer1.c **** 
1106:Generated_Source\PSoC4/Timer1.c **** 
1107:Generated_Source\PSoC4/Timer1.c **** /*******************************************************************************
1108:Generated_Source\PSoC4/Timer1.c **** * Function Name: Timer1_SetReloadMode
1109:Generated_Source\PSoC4/Timer1.c **** ********************************************************************************
1110:Generated_Source\PSoC4/Timer1.c **** *
1111:Generated_Source\PSoC4/Timer1.c **** * Summary:
1112:Generated_Source\PSoC4/Timer1.c **** *  Sets the reload trigger mode. For Quadrature Decoder mode this is the index
1113:Generated_Source\PSoC4/Timer1.c **** *  input.
1114:Generated_Source\PSoC4/Timer1.c **** *
1115:Generated_Source\PSoC4/Timer1.c **** * Parameters:
1116:Generated_Source\PSoC4/Timer1.c **** *  triggerMode: Enumerated trigger mode value
1117:Generated_Source\PSoC4/Timer1.c **** *   Values:
1118:Generated_Source\PSoC4/Timer1.c **** *     - Timer1_TRIG_LEVEL     - Level
1119:Generated_Source\PSoC4/Timer1.c **** *     - Timer1_TRIG_RISING    - Rising edge
1120:Generated_Source\PSoC4/Timer1.c **** *     - Timer1_TRIG_FALLING   - Falling edge
1121:Generated_Source\PSoC4/Timer1.c **** *     - Timer1_TRIG_BOTH      - Both rising and falling edge
1122:Generated_Source\PSoC4/Timer1.c **** *
1123:Generated_Source\PSoC4/Timer1.c **** * Return:
1124:Generated_Source\PSoC4/Timer1.c **** *  None
1125:Generated_Source\PSoC4/Timer1.c **** *
1126:Generated_Source\PSoC4/Timer1.c **** *******************************************************************************/
1127:Generated_Source\PSoC4/Timer1.c **** void Timer1_SetReloadMode(uint32 triggerMode)
1128:Generated_Source\PSoC4/Timer1.c **** {
 1477              		.loc 1 1128 0
 1478              		.cfi_startproc
 1479              		@ args = 0, pretend = 0, frame = 16
 1480              		@ frame_needed = 1, uses_anonymous_args = 0
 1481 0000 90B5     		push	{r4, r7, lr}
 1482              		.cfi_def_cfa_offset 12
 1483              		.cfi_offset 4, -12
 1484              		.cfi_offset 7, -8
 1485              		.cfi_offset 14, -4
 1486 0002 85B0     		sub	sp, sp, #20
 1487              		.cfi_def_cfa_offset 32
 1488 0004 00AF     		add	r7, sp, #0
 1489              		.cfi_def_cfa_register 7
 1490 0006 7860     		str	r0, [r7, #4]
1129:Generated_Source\PSoC4/Timer1.c ****     uint8 enableInterrupts;
1130:Generated_Source\PSoC4/Timer1.c **** 
1131:Generated_Source\PSoC4/Timer1.c ****     enableInterrupts = CyEnterCriticalSection();
 1491              		.loc 1 1131 0
ARM GAS  C:\Users\essele\AppData\Local\Temp\ccwDBPw1.s 			page 47


 1492 0008 0F23     		movs	r3, #15
 1493 000a FC18     		adds	r4, r7, r3
 1494 000c FFF7FEFF 		bl	CyEnterCriticalSection
 1495 0010 0300     		movs	r3, r0
 1496 0012 2370     		strb	r3, [r4]
1132:Generated_Source\PSoC4/Timer1.c **** 
1133:Generated_Source\PSoC4/Timer1.c ****     Timer1_TRIG_CONTROL1_REG &= (uint32)~Timer1_RELOAD_MASK;
 1497              		.loc 1 1133 0
 1498 0014 0B4B     		ldr	r3, .L97
 1499 0016 0B4A     		ldr	r2, .L97
 1500 0018 1268     		ldr	r2, [r2]
 1501 001a 3021     		movs	r1, #48
 1502 001c 8A43     		bics	r2, r1
 1503 001e 1A60     		str	r2, [r3]
1134:Generated_Source\PSoC4/Timer1.c ****     Timer1_TRIG_CONTROL1_REG |= ((uint32)(triggerMode << Timer1_RELOAD_SHIFT));
 1504              		.loc 1 1134 0
 1505 0020 084B     		ldr	r3, .L97
 1506 0022 084A     		ldr	r2, .L97
 1507 0024 1168     		ldr	r1, [r2]
 1508 0026 7A68     		ldr	r2, [r7, #4]
 1509 0028 1201     		lsls	r2, r2, #4
 1510 002a 0A43     		orrs	r2, r1
 1511 002c 1A60     		str	r2, [r3]
1135:Generated_Source\PSoC4/Timer1.c **** 
1136:Generated_Source\PSoC4/Timer1.c ****     CyExitCriticalSection(enableInterrupts);
 1512              		.loc 1 1136 0
 1513 002e 0F23     		movs	r3, #15
 1514 0030 FB18     		adds	r3, r7, r3
 1515 0032 1B78     		ldrb	r3, [r3]
 1516 0034 1800     		movs	r0, r3
 1517 0036 FFF7FEFF 		bl	CyExitCriticalSection
1137:Generated_Source\PSoC4/Timer1.c **** }
 1518              		.loc 1 1137 0
 1519 003a C046     		nop
 1520 003c BD46     		mov	sp, r7
 1521 003e 05B0     		add	sp, sp, #20
 1522              		@ sp needed
 1523 0040 90BD     		pop	{r4, r7, pc}
 1524              	.L98:
 1525 0042 C046     		.align	2
 1526              	.L97:
 1527 0044 24012040 		.word	1075839268
 1528              		.cfi_endproc
 1529              	.LFE30:
 1530              		.size	Timer1_SetReloadMode, .-Timer1_SetReloadMode
 1531              		.section	.text.Timer1_SetStartMode,"ax",%progbits
 1532              		.align	2
 1533              		.global	Timer1_SetStartMode
 1534              		.code	16
 1535              		.thumb_func
 1536              		.type	Timer1_SetStartMode, %function
 1537              	Timer1_SetStartMode:
 1538              	.LFB31:
1138:Generated_Source\PSoC4/Timer1.c **** 
1139:Generated_Source\PSoC4/Timer1.c **** 
1140:Generated_Source\PSoC4/Timer1.c **** /*******************************************************************************
1141:Generated_Source\PSoC4/Timer1.c **** * Function Name: Timer1_SetStartMode
ARM GAS  C:\Users\essele\AppData\Local\Temp\ccwDBPw1.s 			page 48


1142:Generated_Source\PSoC4/Timer1.c **** ********************************************************************************
1143:Generated_Source\PSoC4/Timer1.c **** *
1144:Generated_Source\PSoC4/Timer1.c **** * Summary:
1145:Generated_Source\PSoC4/Timer1.c **** *  Sets the start trigger mode. For Quadrature Decoder mode this is the
1146:Generated_Source\PSoC4/Timer1.c **** *  phiB input.
1147:Generated_Source\PSoC4/Timer1.c **** *
1148:Generated_Source\PSoC4/Timer1.c **** * Parameters:
1149:Generated_Source\PSoC4/Timer1.c **** *  triggerMode: Enumerated trigger mode value
1150:Generated_Source\PSoC4/Timer1.c **** *   Values:
1151:Generated_Source\PSoC4/Timer1.c **** *     - Timer1_TRIG_LEVEL     - Level
1152:Generated_Source\PSoC4/Timer1.c **** *     - Timer1_TRIG_RISING    - Rising edge
1153:Generated_Source\PSoC4/Timer1.c **** *     - Timer1_TRIG_FALLING   - Falling edge
1154:Generated_Source\PSoC4/Timer1.c **** *     - Timer1_TRIG_BOTH      - Both rising and falling edge
1155:Generated_Source\PSoC4/Timer1.c **** *
1156:Generated_Source\PSoC4/Timer1.c **** * Return:
1157:Generated_Source\PSoC4/Timer1.c **** *  None
1158:Generated_Source\PSoC4/Timer1.c **** *
1159:Generated_Source\PSoC4/Timer1.c **** *******************************************************************************/
1160:Generated_Source\PSoC4/Timer1.c **** void Timer1_SetStartMode(uint32 triggerMode)
1161:Generated_Source\PSoC4/Timer1.c **** {
 1539              		.loc 1 1161 0
 1540              		.cfi_startproc
 1541              		@ args = 0, pretend = 0, frame = 16
 1542              		@ frame_needed = 1, uses_anonymous_args = 0
 1543 0000 90B5     		push	{r4, r7, lr}
 1544              		.cfi_def_cfa_offset 12
 1545              		.cfi_offset 4, -12
 1546              		.cfi_offset 7, -8
 1547              		.cfi_offset 14, -4
 1548 0002 85B0     		sub	sp, sp, #20
 1549              		.cfi_def_cfa_offset 32
 1550 0004 00AF     		add	r7, sp, #0
 1551              		.cfi_def_cfa_register 7
 1552 0006 7860     		str	r0, [r7, #4]
1162:Generated_Source\PSoC4/Timer1.c ****     uint8 enableInterrupts;
1163:Generated_Source\PSoC4/Timer1.c **** 
1164:Generated_Source\PSoC4/Timer1.c ****     enableInterrupts = CyEnterCriticalSection();
 1553              		.loc 1 1164 0
 1554 0008 0F23     		movs	r3, #15
 1555 000a FC18     		adds	r4, r7, r3
 1556 000c FFF7FEFF 		bl	CyEnterCriticalSection
 1557 0010 0300     		movs	r3, r0
 1558 0012 2370     		strb	r3, [r4]
1165:Generated_Source\PSoC4/Timer1.c **** 
1166:Generated_Source\PSoC4/Timer1.c ****     Timer1_TRIG_CONTROL1_REG &= (uint32)~Timer1_START_MASK;
 1559              		.loc 1 1166 0
 1560 0014 0B4B     		ldr	r3, .L100
 1561 0016 0B4A     		ldr	r2, .L100
 1562 0018 1268     		ldr	r2, [r2]
 1563 001a 0B49     		ldr	r1, .L100+4
 1564 001c 0A40     		ands	r2, r1
 1565 001e 1A60     		str	r2, [r3]
1167:Generated_Source\PSoC4/Timer1.c ****     Timer1_TRIG_CONTROL1_REG |= ((uint32)(triggerMode << Timer1_START_SHIFT));
 1566              		.loc 1 1167 0
 1567 0020 084B     		ldr	r3, .L100
 1568 0022 084A     		ldr	r2, .L100
 1569 0024 1168     		ldr	r1, [r2]
ARM GAS  C:\Users\essele\AppData\Local\Temp\ccwDBPw1.s 			page 49


 1570 0026 7A68     		ldr	r2, [r7, #4]
 1571 0028 1202     		lsls	r2, r2, #8
 1572 002a 0A43     		orrs	r2, r1
 1573 002c 1A60     		str	r2, [r3]
1168:Generated_Source\PSoC4/Timer1.c **** 
1169:Generated_Source\PSoC4/Timer1.c ****     CyExitCriticalSection(enableInterrupts);
 1574              		.loc 1 1169 0
 1575 002e 0F23     		movs	r3, #15
 1576 0030 FB18     		adds	r3, r7, r3
 1577 0032 1B78     		ldrb	r3, [r3]
 1578 0034 1800     		movs	r0, r3
 1579 0036 FFF7FEFF 		bl	CyExitCriticalSection
1170:Generated_Source\PSoC4/Timer1.c **** }
 1580              		.loc 1 1170 0
 1581 003a C046     		nop
 1582 003c BD46     		mov	sp, r7
 1583 003e 05B0     		add	sp, sp, #20
 1584              		@ sp needed
 1585 0040 90BD     		pop	{r4, r7, pc}
 1586              	.L101:
 1587 0042 C046     		.align	2
 1588              	.L100:
 1589 0044 24012040 		.word	1075839268
 1590 0048 FFFCFFFF 		.word	-769
 1591              		.cfi_endproc
 1592              	.LFE31:
 1593              		.size	Timer1_SetStartMode, .-Timer1_SetStartMode
 1594              		.section	.text.Timer1_SetStopMode,"ax",%progbits
 1595              		.align	2
 1596              		.global	Timer1_SetStopMode
 1597              		.code	16
 1598              		.thumb_func
 1599              		.type	Timer1_SetStopMode, %function
 1600              	Timer1_SetStopMode:
 1601              	.LFB32:
1171:Generated_Source\PSoC4/Timer1.c **** 
1172:Generated_Source\PSoC4/Timer1.c **** 
1173:Generated_Source\PSoC4/Timer1.c **** /*******************************************************************************
1174:Generated_Source\PSoC4/Timer1.c **** * Function Name: Timer1_SetStopMode
1175:Generated_Source\PSoC4/Timer1.c **** ********************************************************************************
1176:Generated_Source\PSoC4/Timer1.c **** *
1177:Generated_Source\PSoC4/Timer1.c **** * Summary:
1178:Generated_Source\PSoC4/Timer1.c **** *  Sets the stop trigger mode. For PWM mode this is the kill input.
1179:Generated_Source\PSoC4/Timer1.c **** *
1180:Generated_Source\PSoC4/Timer1.c **** * Parameters:
1181:Generated_Source\PSoC4/Timer1.c **** *  triggerMode: Enumerated trigger mode value
1182:Generated_Source\PSoC4/Timer1.c **** *   Values:
1183:Generated_Source\PSoC4/Timer1.c **** *     - Timer1_TRIG_LEVEL     - Level
1184:Generated_Source\PSoC4/Timer1.c **** *     - Timer1_TRIG_RISING    - Rising edge
1185:Generated_Source\PSoC4/Timer1.c **** *     - Timer1_TRIG_FALLING   - Falling edge
1186:Generated_Source\PSoC4/Timer1.c **** *     - Timer1_TRIG_BOTH      - Both rising and falling edge
1187:Generated_Source\PSoC4/Timer1.c **** *
1188:Generated_Source\PSoC4/Timer1.c **** * Return:
1189:Generated_Source\PSoC4/Timer1.c **** *  None
1190:Generated_Source\PSoC4/Timer1.c **** *
1191:Generated_Source\PSoC4/Timer1.c **** *******************************************************************************/
1192:Generated_Source\PSoC4/Timer1.c **** void Timer1_SetStopMode(uint32 triggerMode)
ARM GAS  C:\Users\essele\AppData\Local\Temp\ccwDBPw1.s 			page 50


1193:Generated_Source\PSoC4/Timer1.c **** {
 1602              		.loc 1 1193 0
 1603              		.cfi_startproc
 1604              		@ args = 0, pretend = 0, frame = 16
 1605              		@ frame_needed = 1, uses_anonymous_args = 0
 1606 0000 90B5     		push	{r4, r7, lr}
 1607              		.cfi_def_cfa_offset 12
 1608              		.cfi_offset 4, -12
 1609              		.cfi_offset 7, -8
 1610              		.cfi_offset 14, -4
 1611 0002 85B0     		sub	sp, sp, #20
 1612              		.cfi_def_cfa_offset 32
 1613 0004 00AF     		add	r7, sp, #0
 1614              		.cfi_def_cfa_register 7
 1615 0006 7860     		str	r0, [r7, #4]
1194:Generated_Source\PSoC4/Timer1.c ****     uint8 enableInterrupts;
1195:Generated_Source\PSoC4/Timer1.c **** 
1196:Generated_Source\PSoC4/Timer1.c ****     enableInterrupts = CyEnterCriticalSection();
 1616              		.loc 1 1196 0
 1617 0008 0F23     		movs	r3, #15
 1618 000a FC18     		adds	r4, r7, r3
 1619 000c FFF7FEFF 		bl	CyEnterCriticalSection
 1620 0010 0300     		movs	r3, r0
 1621 0012 2370     		strb	r3, [r4]
1197:Generated_Source\PSoC4/Timer1.c **** 
1198:Generated_Source\PSoC4/Timer1.c ****     Timer1_TRIG_CONTROL1_REG &= (uint32)~Timer1_STOP_MASK;
 1622              		.loc 1 1198 0
 1623 0014 0B4B     		ldr	r3, .L103
 1624 0016 0B4A     		ldr	r2, .L103
 1625 0018 1268     		ldr	r2, [r2]
 1626 001a C021     		movs	r1, #192
 1627 001c 8A43     		bics	r2, r1
 1628 001e 1A60     		str	r2, [r3]
1199:Generated_Source\PSoC4/Timer1.c ****     Timer1_TRIG_CONTROL1_REG |= ((uint32)(triggerMode << Timer1_STOP_SHIFT));
 1629              		.loc 1 1199 0
 1630 0020 084B     		ldr	r3, .L103
 1631 0022 084A     		ldr	r2, .L103
 1632 0024 1168     		ldr	r1, [r2]
 1633 0026 7A68     		ldr	r2, [r7, #4]
 1634 0028 9201     		lsls	r2, r2, #6
 1635 002a 0A43     		orrs	r2, r1
 1636 002c 1A60     		str	r2, [r3]
1200:Generated_Source\PSoC4/Timer1.c **** 
1201:Generated_Source\PSoC4/Timer1.c ****     CyExitCriticalSection(enableInterrupts);
 1637              		.loc 1 1201 0
 1638 002e 0F23     		movs	r3, #15
 1639 0030 FB18     		adds	r3, r7, r3
 1640 0032 1B78     		ldrb	r3, [r3]
 1641 0034 1800     		movs	r0, r3
 1642 0036 FFF7FEFF 		bl	CyExitCriticalSection
1202:Generated_Source\PSoC4/Timer1.c **** }
 1643              		.loc 1 1202 0
 1644 003a C046     		nop
 1645 003c BD46     		mov	sp, r7
 1646 003e 05B0     		add	sp, sp, #20
 1647              		@ sp needed
 1648 0040 90BD     		pop	{r4, r7, pc}
ARM GAS  C:\Users\essele\AppData\Local\Temp\ccwDBPw1.s 			page 51


 1649              	.L104:
 1650 0042 C046     		.align	2
 1651              	.L103:
 1652 0044 24012040 		.word	1075839268
 1653              		.cfi_endproc
 1654              	.LFE32:
 1655              		.size	Timer1_SetStopMode, .-Timer1_SetStopMode
 1656              		.section	.text.Timer1_SetCountMode,"ax",%progbits
 1657              		.align	2
 1658              		.global	Timer1_SetCountMode
 1659              		.code	16
 1660              		.thumb_func
 1661              		.type	Timer1_SetCountMode, %function
 1662              	Timer1_SetCountMode:
 1663              	.LFB33:
1203:Generated_Source\PSoC4/Timer1.c **** 
1204:Generated_Source\PSoC4/Timer1.c **** 
1205:Generated_Source\PSoC4/Timer1.c **** /*******************************************************************************
1206:Generated_Source\PSoC4/Timer1.c **** * Function Name: Timer1_SetCountMode
1207:Generated_Source\PSoC4/Timer1.c **** ********************************************************************************
1208:Generated_Source\PSoC4/Timer1.c **** *
1209:Generated_Source\PSoC4/Timer1.c **** * Summary:
1210:Generated_Source\PSoC4/Timer1.c **** *  Sets the count trigger mode. For Quadrature Decoder mode this is the phiA
1211:Generated_Source\PSoC4/Timer1.c **** *  input.
1212:Generated_Source\PSoC4/Timer1.c **** *
1213:Generated_Source\PSoC4/Timer1.c **** * Parameters:
1214:Generated_Source\PSoC4/Timer1.c **** *  triggerMode: Enumerated trigger mode value
1215:Generated_Source\PSoC4/Timer1.c **** *   Values:
1216:Generated_Source\PSoC4/Timer1.c **** *     - Timer1_TRIG_LEVEL     - Level
1217:Generated_Source\PSoC4/Timer1.c **** *     - Timer1_TRIG_RISING    - Rising edge
1218:Generated_Source\PSoC4/Timer1.c **** *     - Timer1_TRIG_FALLING   - Falling edge
1219:Generated_Source\PSoC4/Timer1.c **** *     - Timer1_TRIG_BOTH      - Both rising and falling edge
1220:Generated_Source\PSoC4/Timer1.c **** *
1221:Generated_Source\PSoC4/Timer1.c **** * Return:
1222:Generated_Source\PSoC4/Timer1.c **** *  None
1223:Generated_Source\PSoC4/Timer1.c **** *
1224:Generated_Source\PSoC4/Timer1.c **** *******************************************************************************/
1225:Generated_Source\PSoC4/Timer1.c **** void Timer1_SetCountMode(uint32 triggerMode)
1226:Generated_Source\PSoC4/Timer1.c **** {
 1664              		.loc 1 1226 0
 1665              		.cfi_startproc
 1666              		@ args = 0, pretend = 0, frame = 16
 1667              		@ frame_needed = 1, uses_anonymous_args = 0
 1668 0000 90B5     		push	{r4, r7, lr}
 1669              		.cfi_def_cfa_offset 12
 1670              		.cfi_offset 4, -12
 1671              		.cfi_offset 7, -8
 1672              		.cfi_offset 14, -4
 1673 0002 85B0     		sub	sp, sp, #20
 1674              		.cfi_def_cfa_offset 32
 1675 0004 00AF     		add	r7, sp, #0
 1676              		.cfi_def_cfa_register 7
 1677 0006 7860     		str	r0, [r7, #4]
1227:Generated_Source\PSoC4/Timer1.c ****     uint8 enableInterrupts;
1228:Generated_Source\PSoC4/Timer1.c **** 
1229:Generated_Source\PSoC4/Timer1.c ****     enableInterrupts = CyEnterCriticalSection();
 1678              		.loc 1 1229 0
ARM GAS  C:\Users\essele\AppData\Local\Temp\ccwDBPw1.s 			page 52


 1679 0008 0F23     		movs	r3, #15
 1680 000a FC18     		adds	r4, r7, r3
 1681 000c FFF7FEFF 		bl	CyEnterCriticalSection
 1682 0010 0300     		movs	r3, r0
 1683 0012 2370     		strb	r3, [r4]
1230:Generated_Source\PSoC4/Timer1.c **** 
1231:Generated_Source\PSoC4/Timer1.c ****     Timer1_TRIG_CONTROL1_REG &= (uint32)~Timer1_COUNT_MASK;
 1684              		.loc 1 1231 0
 1685 0014 0B4B     		ldr	r3, .L106
 1686 0016 0B4A     		ldr	r2, .L106
 1687 0018 1268     		ldr	r2, [r2]
 1688 001a 0C21     		movs	r1, #12
 1689 001c 8A43     		bics	r2, r1
 1690 001e 1A60     		str	r2, [r3]
1232:Generated_Source\PSoC4/Timer1.c ****     Timer1_TRIG_CONTROL1_REG |= ((uint32)(triggerMode << Timer1_COUNT_SHIFT));
 1691              		.loc 1 1232 0
 1692 0020 084B     		ldr	r3, .L106
 1693 0022 084A     		ldr	r2, .L106
 1694 0024 1168     		ldr	r1, [r2]
 1695 0026 7A68     		ldr	r2, [r7, #4]
 1696 0028 9200     		lsls	r2, r2, #2
 1697 002a 0A43     		orrs	r2, r1
 1698 002c 1A60     		str	r2, [r3]
1233:Generated_Source\PSoC4/Timer1.c **** 
1234:Generated_Source\PSoC4/Timer1.c ****     CyExitCriticalSection(enableInterrupts);
 1699              		.loc 1 1234 0
 1700 002e 0F23     		movs	r3, #15
 1701 0030 FB18     		adds	r3, r7, r3
 1702 0032 1B78     		ldrb	r3, [r3]
 1703 0034 1800     		movs	r0, r3
 1704 0036 FFF7FEFF 		bl	CyExitCriticalSection
1235:Generated_Source\PSoC4/Timer1.c **** }
 1705              		.loc 1 1235 0
 1706 003a C046     		nop
 1707 003c BD46     		mov	sp, r7
 1708 003e 05B0     		add	sp, sp, #20
 1709              		@ sp needed
 1710 0040 90BD     		pop	{r4, r7, pc}
 1711              	.L107:
 1712 0042 C046     		.align	2
 1713              	.L106:
 1714 0044 24012040 		.word	1075839268
 1715              		.cfi_endproc
 1716              	.LFE33:
 1717              		.size	Timer1_SetCountMode, .-Timer1_SetCountMode
 1718              		.section	.text.Timer1_TriggerCommand,"ax",%progbits
 1719              		.align	2
 1720              		.global	Timer1_TriggerCommand
 1721              		.code	16
 1722              		.thumb_func
 1723              		.type	Timer1_TriggerCommand, %function
 1724              	Timer1_TriggerCommand:
 1725              	.LFB34:
1236:Generated_Source\PSoC4/Timer1.c **** 
1237:Generated_Source\PSoC4/Timer1.c **** 
1238:Generated_Source\PSoC4/Timer1.c **** /*******************************************************************************
1239:Generated_Source\PSoC4/Timer1.c **** * Function Name: Timer1_TriggerCommand
ARM GAS  C:\Users\essele\AppData\Local\Temp\ccwDBPw1.s 			page 53


1240:Generated_Source\PSoC4/Timer1.c **** ********************************************************************************
1241:Generated_Source\PSoC4/Timer1.c **** *
1242:Generated_Source\PSoC4/Timer1.c **** * Summary:
1243:Generated_Source\PSoC4/Timer1.c **** *  Triggers the designated command to occur on the designated TCPWM instances.
1244:Generated_Source\PSoC4/Timer1.c **** *  The mask can be used to apply this command simultaneously to more than one
1245:Generated_Source\PSoC4/Timer1.c **** *  instance.  This allows multiple TCPWM instances to be synchronized.
1246:Generated_Source\PSoC4/Timer1.c **** *
1247:Generated_Source\PSoC4/Timer1.c **** * Parameters:
1248:Generated_Source\PSoC4/Timer1.c **** *  mask: A combination of mask bits for each instance of the TCPWM that the
1249:Generated_Source\PSoC4/Timer1.c **** *        command should apply to.  This function from one instance can be used
1250:Generated_Source\PSoC4/Timer1.c **** *        to apply the command to any of the instances in the design.
1251:Generated_Source\PSoC4/Timer1.c **** *        The mask value for a specific instance is available with the MASK
1252:Generated_Source\PSoC4/Timer1.c **** *        define.
1253:Generated_Source\PSoC4/Timer1.c **** *  command: Enumerated command values. Capture command only applicable for
1254:Generated_Source\PSoC4/Timer1.c **** *           Timer/Counter with Capture and PWM modes.
1255:Generated_Source\PSoC4/Timer1.c **** *   Values:
1256:Generated_Source\PSoC4/Timer1.c **** *     - Timer1_CMD_CAPTURE    - Trigger Capture/Switch command
1257:Generated_Source\PSoC4/Timer1.c **** *     - Timer1_CMD_RELOAD     - Trigger Reload/Index command
1258:Generated_Source\PSoC4/Timer1.c **** *     - Timer1_CMD_STOP       - Trigger Stop/Kill command
1259:Generated_Source\PSoC4/Timer1.c **** *     - Timer1_CMD_START      - Trigger Start/phiB command
1260:Generated_Source\PSoC4/Timer1.c **** *
1261:Generated_Source\PSoC4/Timer1.c **** * Return:
1262:Generated_Source\PSoC4/Timer1.c **** *  None
1263:Generated_Source\PSoC4/Timer1.c **** *
1264:Generated_Source\PSoC4/Timer1.c **** *******************************************************************************/
1265:Generated_Source\PSoC4/Timer1.c **** void Timer1_TriggerCommand(uint32 mask, uint32 command)
1266:Generated_Source\PSoC4/Timer1.c **** {
 1726              		.loc 1 1266 0
 1727              		.cfi_startproc
 1728              		@ args = 0, pretend = 0, frame = 16
 1729              		@ frame_needed = 1, uses_anonymous_args = 0
 1730 0000 90B5     		push	{r4, r7, lr}
 1731              		.cfi_def_cfa_offset 12
 1732              		.cfi_offset 4, -12
 1733              		.cfi_offset 7, -8
 1734              		.cfi_offset 14, -4
 1735 0002 85B0     		sub	sp, sp, #20
 1736              		.cfi_def_cfa_offset 32
 1737 0004 00AF     		add	r7, sp, #0
 1738              		.cfi_def_cfa_register 7
 1739 0006 7860     		str	r0, [r7, #4]
 1740 0008 3960     		str	r1, [r7]
1267:Generated_Source\PSoC4/Timer1.c ****     uint8 enableInterrupts;
1268:Generated_Source\PSoC4/Timer1.c **** 
1269:Generated_Source\PSoC4/Timer1.c ****     enableInterrupts = CyEnterCriticalSection();
 1741              		.loc 1 1269 0
 1742 000a 0F23     		movs	r3, #15
 1743 000c FC18     		adds	r4, r7, r3
 1744 000e FFF7FEFF 		bl	CyEnterCriticalSection
 1745 0012 0300     		movs	r3, r0
 1746 0014 2370     		strb	r3, [r4]
1270:Generated_Source\PSoC4/Timer1.c **** 
1271:Generated_Source\PSoC4/Timer1.c ****     Timer1_COMMAND_REG = ((uint32)(mask << command));
 1747              		.loc 1 1271 0
 1748 0016 084B     		ldr	r3, .L109
 1749 0018 7968     		ldr	r1, [r7, #4]
 1750 001a 3A68     		ldr	r2, [r7]
ARM GAS  C:\Users\essele\AppData\Local\Temp\ccwDBPw1.s 			page 54


 1751 001c 9140     		lsls	r1, r1, r2
 1752 001e 0A00     		movs	r2, r1
 1753 0020 1A60     		str	r2, [r3]
1272:Generated_Source\PSoC4/Timer1.c **** 
1273:Generated_Source\PSoC4/Timer1.c ****     CyExitCriticalSection(enableInterrupts);
 1754              		.loc 1 1273 0
 1755 0022 0F23     		movs	r3, #15
 1756 0024 FB18     		adds	r3, r7, r3
 1757 0026 1B78     		ldrb	r3, [r3]
 1758 0028 1800     		movs	r0, r3
 1759 002a FFF7FEFF 		bl	CyExitCriticalSection
1274:Generated_Source\PSoC4/Timer1.c **** }
 1760              		.loc 1 1274 0
 1761 002e C046     		nop
 1762 0030 BD46     		mov	sp, r7
 1763 0032 05B0     		add	sp, sp, #20
 1764              		@ sp needed
 1765 0034 90BD     		pop	{r4, r7, pc}
 1766              	.L110:
 1767 0036 C046     		.align	2
 1768              	.L109:
 1769 0038 08002040 		.word	1075838984
 1770              		.cfi_endproc
 1771              	.LFE34:
 1772              		.size	Timer1_TriggerCommand, .-Timer1_TriggerCommand
 1773              		.section	.text.Timer1_ReadStatus,"ax",%progbits
 1774              		.align	2
 1775              		.global	Timer1_ReadStatus
 1776              		.code	16
 1777              		.thumb_func
 1778              		.type	Timer1_ReadStatus, %function
 1779              	Timer1_ReadStatus:
 1780              	.LFB35:
1275:Generated_Source\PSoC4/Timer1.c **** 
1276:Generated_Source\PSoC4/Timer1.c **** 
1277:Generated_Source\PSoC4/Timer1.c **** /*******************************************************************************
1278:Generated_Source\PSoC4/Timer1.c **** * Function Name: Timer1_ReadStatus
1279:Generated_Source\PSoC4/Timer1.c **** ********************************************************************************
1280:Generated_Source\PSoC4/Timer1.c **** *
1281:Generated_Source\PSoC4/Timer1.c **** * Summary:
1282:Generated_Source\PSoC4/Timer1.c **** *  Reads the status of the Timer1.
1283:Generated_Source\PSoC4/Timer1.c **** *
1284:Generated_Source\PSoC4/Timer1.c **** * Parameters:
1285:Generated_Source\PSoC4/Timer1.c **** *  None
1286:Generated_Source\PSoC4/Timer1.c **** *
1287:Generated_Source\PSoC4/Timer1.c **** * Return:
1288:Generated_Source\PSoC4/Timer1.c **** *  Status
1289:Generated_Source\PSoC4/Timer1.c **** *   Values:
1290:Generated_Source\PSoC4/Timer1.c **** *     - Timer1_STATUS_DOWN    - Set if counting down
1291:Generated_Source\PSoC4/Timer1.c **** *     - Timer1_STATUS_RUNNING - Set if counter is running
1292:Generated_Source\PSoC4/Timer1.c **** *
1293:Generated_Source\PSoC4/Timer1.c **** *******************************************************************************/
1294:Generated_Source\PSoC4/Timer1.c **** uint32 Timer1_ReadStatus(void)
1295:Generated_Source\PSoC4/Timer1.c **** {
 1781              		.loc 1 1295 0
 1782              		.cfi_startproc
 1783              		@ args = 0, pretend = 0, frame = 0
ARM GAS  C:\Users\essele\AppData\Local\Temp\ccwDBPw1.s 			page 55


 1784              		@ frame_needed = 1, uses_anonymous_args = 0
 1785 0000 80B5     		push	{r7, lr}
 1786              		.cfi_def_cfa_offset 8
 1787              		.cfi_offset 7, -8
 1788              		.cfi_offset 14, -4
 1789 0002 00AF     		add	r7, sp, #0
 1790              		.cfi_def_cfa_register 7
1296:Generated_Source\PSoC4/Timer1.c ****     return ((Timer1_STATUS_REG >> Timer1_RUNNING_STATUS_SHIFT) |
 1791              		.loc 1 1296 0
 1792 0004 054B     		ldr	r3, .L113
 1793 0006 1B68     		ldr	r3, [r3]
 1794 0008 9A0F     		lsrs	r2, r3, #30
1297:Generated_Source\PSoC4/Timer1.c ****             (Timer1_STATUS_REG & Timer1_STATUS_DOWN));
 1795              		.loc 1 1297 0
 1796 000a 044B     		ldr	r3, .L113
 1797 000c 1B68     		ldr	r3, [r3]
 1798 000e 0121     		movs	r1, #1
 1799 0010 0B40     		ands	r3, r1
1296:Generated_Source\PSoC4/Timer1.c ****     return ((Timer1_STATUS_REG >> Timer1_RUNNING_STATUS_SHIFT) |
 1800              		.loc 1 1296 0
 1801 0012 1343     		orrs	r3, r2
1298:Generated_Source\PSoC4/Timer1.c **** }
 1802              		.loc 1 1298 0
 1803 0014 1800     		movs	r0, r3
 1804 0016 BD46     		mov	sp, r7
 1805              		@ sp needed
 1806 0018 80BD     		pop	{r7, pc}
 1807              	.L114:
 1808 001a C046     		.align	2
 1809              	.L113:
 1810 001c 04012040 		.word	1075839236
 1811              		.cfi_endproc
 1812              	.LFE35:
 1813              		.size	Timer1_ReadStatus, .-Timer1_ReadStatus
 1814              		.section	.text.Timer1_SetInterruptMode,"ax",%progbits
 1815              		.align	2
 1816              		.global	Timer1_SetInterruptMode
 1817              		.code	16
 1818              		.thumb_func
 1819              		.type	Timer1_SetInterruptMode, %function
 1820              	Timer1_SetInterruptMode:
 1821              	.LFB36:
1299:Generated_Source\PSoC4/Timer1.c **** 
1300:Generated_Source\PSoC4/Timer1.c **** 
1301:Generated_Source\PSoC4/Timer1.c **** /*******************************************************************************
1302:Generated_Source\PSoC4/Timer1.c **** * Function Name: Timer1_SetInterruptMode
1303:Generated_Source\PSoC4/Timer1.c **** ********************************************************************************
1304:Generated_Source\PSoC4/Timer1.c **** *
1305:Generated_Source\PSoC4/Timer1.c **** * Summary:
1306:Generated_Source\PSoC4/Timer1.c **** *  Sets the interrupt mask to control which interrupt
1307:Generated_Source\PSoC4/Timer1.c **** *  requests generate the interrupt signal.
1308:Generated_Source\PSoC4/Timer1.c **** *
1309:Generated_Source\PSoC4/Timer1.c **** * Parameters:
1310:Generated_Source\PSoC4/Timer1.c **** *   interruptMask: Mask of bits to be enabled
1311:Generated_Source\PSoC4/Timer1.c **** *   Values:
1312:Generated_Source\PSoC4/Timer1.c **** *     - Timer1_INTR_MASK_TC       - Terminal count mask
1313:Generated_Source\PSoC4/Timer1.c **** *     - Timer1_INTR_MASK_CC_MATCH - Compare count / capture mask
ARM GAS  C:\Users\essele\AppData\Local\Temp\ccwDBPw1.s 			page 56


1314:Generated_Source\PSoC4/Timer1.c **** *
1315:Generated_Source\PSoC4/Timer1.c **** * Return:
1316:Generated_Source\PSoC4/Timer1.c **** *  None
1317:Generated_Source\PSoC4/Timer1.c **** *
1318:Generated_Source\PSoC4/Timer1.c **** *******************************************************************************/
1319:Generated_Source\PSoC4/Timer1.c **** void Timer1_SetInterruptMode(uint32 interruptMask)
1320:Generated_Source\PSoC4/Timer1.c **** {
 1822              		.loc 1 1320 0
 1823              		.cfi_startproc
 1824              		@ args = 0, pretend = 0, frame = 8
 1825              		@ frame_needed = 1, uses_anonymous_args = 0
 1826 0000 80B5     		push	{r7, lr}
 1827              		.cfi_def_cfa_offset 8
 1828              		.cfi_offset 7, -8
 1829              		.cfi_offset 14, -4
 1830 0002 82B0     		sub	sp, sp, #8
 1831              		.cfi_def_cfa_offset 16
 1832 0004 00AF     		add	r7, sp, #0
 1833              		.cfi_def_cfa_register 7
 1834 0006 7860     		str	r0, [r7, #4]
1321:Generated_Source\PSoC4/Timer1.c ****     Timer1_INTERRUPT_MASK_REG =  interruptMask;
 1835              		.loc 1 1321 0
 1836 0008 034B     		ldr	r3, .L116
 1837 000a 7A68     		ldr	r2, [r7, #4]
 1838 000c 1A60     		str	r2, [r3]
1322:Generated_Source\PSoC4/Timer1.c **** }
 1839              		.loc 1 1322 0
 1840 000e C046     		nop
 1841 0010 BD46     		mov	sp, r7
 1842 0012 02B0     		add	sp, sp, #8
 1843              		@ sp needed
 1844 0014 80BD     		pop	{r7, pc}
 1845              	.L117:
 1846 0016 C046     		.align	2
 1847              	.L116:
 1848 0018 38012040 		.word	1075839288
 1849              		.cfi_endproc
 1850              	.LFE36:
 1851              		.size	Timer1_SetInterruptMode, .-Timer1_SetInterruptMode
 1852              		.section	.text.Timer1_GetInterruptSourceMasked,"ax",%progbits
 1853              		.align	2
 1854              		.global	Timer1_GetInterruptSourceMasked
 1855              		.code	16
 1856              		.thumb_func
 1857              		.type	Timer1_GetInterruptSourceMasked, %function
 1858              	Timer1_GetInterruptSourceMasked:
 1859              	.LFB37:
1323:Generated_Source\PSoC4/Timer1.c **** 
1324:Generated_Source\PSoC4/Timer1.c **** 
1325:Generated_Source\PSoC4/Timer1.c **** /*******************************************************************************
1326:Generated_Source\PSoC4/Timer1.c **** * Function Name: Timer1_GetInterruptSourceMasked
1327:Generated_Source\PSoC4/Timer1.c **** ********************************************************************************
1328:Generated_Source\PSoC4/Timer1.c **** *
1329:Generated_Source\PSoC4/Timer1.c **** * Summary:
1330:Generated_Source\PSoC4/Timer1.c **** *  Gets the interrupt requests masked by the interrupt mask.
1331:Generated_Source\PSoC4/Timer1.c **** *
1332:Generated_Source\PSoC4/Timer1.c **** * Parameters:
ARM GAS  C:\Users\essele\AppData\Local\Temp\ccwDBPw1.s 			page 57


1333:Generated_Source\PSoC4/Timer1.c **** *   None
1334:Generated_Source\PSoC4/Timer1.c **** *
1335:Generated_Source\PSoC4/Timer1.c **** * Return:
1336:Generated_Source\PSoC4/Timer1.c **** *  Masked interrupt source
1337:Generated_Source\PSoC4/Timer1.c **** *   Values:
1338:Generated_Source\PSoC4/Timer1.c **** *     - Timer1_INTR_MASK_TC       - Terminal count mask
1339:Generated_Source\PSoC4/Timer1.c **** *     - Timer1_INTR_MASK_CC_MATCH - Compare count / capture mask
1340:Generated_Source\PSoC4/Timer1.c **** *
1341:Generated_Source\PSoC4/Timer1.c **** *******************************************************************************/
1342:Generated_Source\PSoC4/Timer1.c **** uint32 Timer1_GetInterruptSourceMasked(void)
1343:Generated_Source\PSoC4/Timer1.c **** {
 1860              		.loc 1 1343 0
 1861              		.cfi_startproc
 1862              		@ args = 0, pretend = 0, frame = 0
 1863              		@ frame_needed = 1, uses_anonymous_args = 0
 1864 0000 80B5     		push	{r7, lr}
 1865              		.cfi_def_cfa_offset 8
 1866              		.cfi_offset 7, -8
 1867              		.cfi_offset 14, -4
 1868 0002 00AF     		add	r7, sp, #0
 1869              		.cfi_def_cfa_register 7
1344:Generated_Source\PSoC4/Timer1.c ****     return (Timer1_INTERRUPT_MASKED_REG);
 1870              		.loc 1 1344 0
 1871 0004 024B     		ldr	r3, .L120
 1872 0006 1B68     		ldr	r3, [r3]
1345:Generated_Source\PSoC4/Timer1.c **** }
 1873              		.loc 1 1345 0
 1874 0008 1800     		movs	r0, r3
 1875 000a BD46     		mov	sp, r7
 1876              		@ sp needed
 1877 000c 80BD     		pop	{r7, pc}
 1878              	.L121:
 1879 000e C046     		.align	2
 1880              	.L120:
 1881 0010 3C012040 		.word	1075839292
 1882              		.cfi_endproc
 1883              	.LFE37:
 1884              		.size	Timer1_GetInterruptSourceMasked, .-Timer1_GetInterruptSourceMasked
 1885              		.section	.text.Timer1_GetInterruptSource,"ax",%progbits
 1886              		.align	2
 1887              		.global	Timer1_GetInterruptSource
 1888              		.code	16
 1889              		.thumb_func
 1890              		.type	Timer1_GetInterruptSource, %function
 1891              	Timer1_GetInterruptSource:
 1892              	.LFB38:
1346:Generated_Source\PSoC4/Timer1.c **** 
1347:Generated_Source\PSoC4/Timer1.c **** 
1348:Generated_Source\PSoC4/Timer1.c **** /*******************************************************************************
1349:Generated_Source\PSoC4/Timer1.c **** * Function Name: Timer1_GetInterruptSource
1350:Generated_Source\PSoC4/Timer1.c **** ********************************************************************************
1351:Generated_Source\PSoC4/Timer1.c **** *
1352:Generated_Source\PSoC4/Timer1.c **** * Summary:
1353:Generated_Source\PSoC4/Timer1.c **** *  Gets the interrupt requests (without masking).
1354:Generated_Source\PSoC4/Timer1.c **** *
1355:Generated_Source\PSoC4/Timer1.c **** * Parameters:
1356:Generated_Source\PSoC4/Timer1.c **** *  None
ARM GAS  C:\Users\essele\AppData\Local\Temp\ccwDBPw1.s 			page 58


1357:Generated_Source\PSoC4/Timer1.c **** *
1358:Generated_Source\PSoC4/Timer1.c **** * Return:
1359:Generated_Source\PSoC4/Timer1.c **** *  Interrupt request value
1360:Generated_Source\PSoC4/Timer1.c **** *   Values:
1361:Generated_Source\PSoC4/Timer1.c **** *     - Timer1_INTR_MASK_TC       - Terminal count mask
1362:Generated_Source\PSoC4/Timer1.c **** *     - Timer1_INTR_MASK_CC_MATCH - Compare count / capture mask
1363:Generated_Source\PSoC4/Timer1.c **** *
1364:Generated_Source\PSoC4/Timer1.c **** *******************************************************************************/
1365:Generated_Source\PSoC4/Timer1.c **** uint32 Timer1_GetInterruptSource(void)
1366:Generated_Source\PSoC4/Timer1.c **** {
 1893              		.loc 1 1366 0
 1894              		.cfi_startproc
 1895              		@ args = 0, pretend = 0, frame = 0
 1896              		@ frame_needed = 1, uses_anonymous_args = 0
 1897 0000 80B5     		push	{r7, lr}
 1898              		.cfi_def_cfa_offset 8
 1899              		.cfi_offset 7, -8
 1900              		.cfi_offset 14, -4
 1901 0002 00AF     		add	r7, sp, #0
 1902              		.cfi_def_cfa_register 7
1367:Generated_Source\PSoC4/Timer1.c ****     return (Timer1_INTERRUPT_REQ_REG);
 1903              		.loc 1 1367 0
 1904 0004 024B     		ldr	r3, .L124
 1905 0006 1B68     		ldr	r3, [r3]
1368:Generated_Source\PSoC4/Timer1.c **** }
 1906              		.loc 1 1368 0
 1907 0008 1800     		movs	r0, r3
 1908 000a BD46     		mov	sp, r7
 1909              		@ sp needed
 1910 000c 80BD     		pop	{r7, pc}
 1911              	.L125:
 1912 000e C046     		.align	2
 1913              	.L124:
 1914 0010 30012040 		.word	1075839280
 1915              		.cfi_endproc
 1916              	.LFE38:
 1917              		.size	Timer1_GetInterruptSource, .-Timer1_GetInterruptSource
 1918              		.section	.text.Timer1_ClearInterrupt,"ax",%progbits
 1919              		.align	2
 1920              		.global	Timer1_ClearInterrupt
 1921              		.code	16
 1922              		.thumb_func
 1923              		.type	Timer1_ClearInterrupt, %function
 1924              	Timer1_ClearInterrupt:
 1925              	.LFB39:
1369:Generated_Source\PSoC4/Timer1.c **** 
1370:Generated_Source\PSoC4/Timer1.c **** 
1371:Generated_Source\PSoC4/Timer1.c **** /*******************************************************************************
1372:Generated_Source\PSoC4/Timer1.c **** * Function Name: Timer1_ClearInterrupt
1373:Generated_Source\PSoC4/Timer1.c **** ********************************************************************************
1374:Generated_Source\PSoC4/Timer1.c **** *
1375:Generated_Source\PSoC4/Timer1.c **** * Summary:
1376:Generated_Source\PSoC4/Timer1.c **** *  Clears the interrupt request.
1377:Generated_Source\PSoC4/Timer1.c **** *
1378:Generated_Source\PSoC4/Timer1.c **** * Parameters:
1379:Generated_Source\PSoC4/Timer1.c **** *   interruptMask: Mask of interrupts to clear
1380:Generated_Source\PSoC4/Timer1.c **** *   Values:
ARM GAS  C:\Users\essele\AppData\Local\Temp\ccwDBPw1.s 			page 59


1381:Generated_Source\PSoC4/Timer1.c **** *     - Timer1_INTR_MASK_TC       - Terminal count mask
1382:Generated_Source\PSoC4/Timer1.c **** *     - Timer1_INTR_MASK_CC_MATCH - Compare count / capture mask
1383:Generated_Source\PSoC4/Timer1.c **** *
1384:Generated_Source\PSoC4/Timer1.c **** * Return:
1385:Generated_Source\PSoC4/Timer1.c **** *  None
1386:Generated_Source\PSoC4/Timer1.c **** *
1387:Generated_Source\PSoC4/Timer1.c **** *******************************************************************************/
1388:Generated_Source\PSoC4/Timer1.c **** void Timer1_ClearInterrupt(uint32 interruptMask)
1389:Generated_Source\PSoC4/Timer1.c **** {
 1926              		.loc 1 1389 0
 1927              		.cfi_startproc
 1928              		@ args = 0, pretend = 0, frame = 8
 1929              		@ frame_needed = 1, uses_anonymous_args = 0
 1930 0000 80B5     		push	{r7, lr}
 1931              		.cfi_def_cfa_offset 8
 1932              		.cfi_offset 7, -8
 1933              		.cfi_offset 14, -4
 1934 0002 82B0     		sub	sp, sp, #8
 1935              		.cfi_def_cfa_offset 16
 1936 0004 00AF     		add	r7, sp, #0
 1937              		.cfi_def_cfa_register 7
 1938 0006 7860     		str	r0, [r7, #4]
1390:Generated_Source\PSoC4/Timer1.c ****     Timer1_INTERRUPT_REQ_REG = interruptMask;
 1939              		.loc 1 1390 0
 1940 0008 034B     		ldr	r3, .L127
 1941 000a 7A68     		ldr	r2, [r7, #4]
 1942 000c 1A60     		str	r2, [r3]
1391:Generated_Source\PSoC4/Timer1.c **** }
 1943              		.loc 1 1391 0
 1944 000e C046     		nop
 1945 0010 BD46     		mov	sp, r7
 1946 0012 02B0     		add	sp, sp, #8
 1947              		@ sp needed
 1948 0014 80BD     		pop	{r7, pc}
 1949              	.L128:
 1950 0016 C046     		.align	2
 1951              	.L127:
 1952 0018 30012040 		.word	1075839280
 1953              		.cfi_endproc
 1954              	.LFE39:
 1955              		.size	Timer1_ClearInterrupt, .-Timer1_ClearInterrupt
 1956              		.section	.text.Timer1_SetInterrupt,"ax",%progbits
 1957              		.align	2
 1958              		.global	Timer1_SetInterrupt
 1959              		.code	16
 1960              		.thumb_func
 1961              		.type	Timer1_SetInterrupt, %function
 1962              	Timer1_SetInterrupt:
 1963              	.LFB40:
1392:Generated_Source\PSoC4/Timer1.c **** 
1393:Generated_Source\PSoC4/Timer1.c **** 
1394:Generated_Source\PSoC4/Timer1.c **** /*******************************************************************************
1395:Generated_Source\PSoC4/Timer1.c **** * Function Name: Timer1_SetInterrupt
1396:Generated_Source\PSoC4/Timer1.c **** ********************************************************************************
1397:Generated_Source\PSoC4/Timer1.c **** *
1398:Generated_Source\PSoC4/Timer1.c **** * Summary:
1399:Generated_Source\PSoC4/Timer1.c **** *  Sets a software interrupt request.
ARM GAS  C:\Users\essele\AppData\Local\Temp\ccwDBPw1.s 			page 60


1400:Generated_Source\PSoC4/Timer1.c **** *
1401:Generated_Source\PSoC4/Timer1.c **** * Parameters:
1402:Generated_Source\PSoC4/Timer1.c **** *   interruptMask: Mask of interrupts to set
1403:Generated_Source\PSoC4/Timer1.c **** *   Values:
1404:Generated_Source\PSoC4/Timer1.c **** *     - Timer1_INTR_MASK_TC       - Terminal count mask
1405:Generated_Source\PSoC4/Timer1.c **** *     - Timer1_INTR_MASK_CC_MATCH - Compare count / capture mask
1406:Generated_Source\PSoC4/Timer1.c **** *
1407:Generated_Source\PSoC4/Timer1.c **** * Return:
1408:Generated_Source\PSoC4/Timer1.c **** *  None
1409:Generated_Source\PSoC4/Timer1.c **** *
1410:Generated_Source\PSoC4/Timer1.c **** *******************************************************************************/
1411:Generated_Source\PSoC4/Timer1.c **** void Timer1_SetInterrupt(uint32 interruptMask)
1412:Generated_Source\PSoC4/Timer1.c **** {
 1964              		.loc 1 1412 0
 1965              		.cfi_startproc
 1966              		@ args = 0, pretend = 0, frame = 8
 1967              		@ frame_needed = 1, uses_anonymous_args = 0
 1968 0000 80B5     		push	{r7, lr}
 1969              		.cfi_def_cfa_offset 8
 1970              		.cfi_offset 7, -8
 1971              		.cfi_offset 14, -4
 1972 0002 82B0     		sub	sp, sp, #8
 1973              		.cfi_def_cfa_offset 16
 1974 0004 00AF     		add	r7, sp, #0
 1975              		.cfi_def_cfa_register 7
 1976 0006 7860     		str	r0, [r7, #4]
1413:Generated_Source\PSoC4/Timer1.c ****     Timer1_INTERRUPT_SET_REG = interruptMask;
 1977              		.loc 1 1413 0
 1978 0008 034B     		ldr	r3, .L130
 1979 000a 7A68     		ldr	r2, [r7, #4]
 1980 000c 1A60     		str	r2, [r3]
1414:Generated_Source\PSoC4/Timer1.c **** }
 1981              		.loc 1 1414 0
 1982 000e C046     		nop
 1983 0010 BD46     		mov	sp, r7
 1984 0012 02B0     		add	sp, sp, #8
 1985              		@ sp needed
 1986 0014 80BD     		pop	{r7, pc}
 1987              	.L131:
 1988 0016 C046     		.align	2
 1989              	.L130:
 1990 0018 34012040 		.word	1075839284
 1991              		.cfi_endproc
 1992              	.LFE40:
 1993              		.size	Timer1_SetInterrupt, .-Timer1_SetInterrupt
 1994              		.text
 1995              	.Letext0:
 1996              		.file 2 "Generated_Source\\PSoC4\\cytypes.h"
 1997              		.section	.debug_info,"",%progbits
 1998              	.Ldebug_info0:
 1999 0000 F7060000 		.4byte	0x6f7
 2000 0004 0400     		.2byte	0x4
 2001 0006 00000000 		.4byte	.Ldebug_abbrev0
 2002 000a 04       		.byte	0x4
 2003 000b 01       		.uleb128 0x1
 2004 000c 8D020000 		.4byte	.LASF77
 2005 0010 0C       		.byte	0xc
ARM GAS  C:\Users\essele\AppData\Local\Temp\ccwDBPw1.s 			page 61


 2006 0011 8B000000 		.4byte	.LASF78
 2007 0015 92040000 		.4byte	.LASF79
 2008 0019 00000000 		.4byte	.Ldebug_ranges0+0
 2009 001d 00000000 		.4byte	0
 2010 0021 00000000 		.4byte	.Ldebug_line0
 2011 0025 02       		.uleb128 0x2
 2012 0026 01       		.byte	0x1
 2013 0027 06       		.byte	0x6
 2014 0028 D2000000 		.4byte	.LASF0
 2015 002c 02       		.uleb128 0x2
 2016 002d 01       		.byte	0x1
 2017 002e 08       		.byte	0x8
 2018 002f D2030000 		.4byte	.LASF1
 2019 0033 02       		.uleb128 0x2
 2020 0034 02       		.byte	0x2
 2021 0035 05       		.byte	0x5
 2022 0036 F1030000 		.4byte	.LASF2
 2023 003a 02       		.uleb128 0x2
 2024 003b 02       		.byte	0x2
 2025 003c 07       		.byte	0x7
 2026 003d 43020000 		.4byte	.LASF3
 2027 0041 02       		.uleb128 0x2
 2028 0042 04       		.byte	0x4
 2029 0043 05       		.byte	0x5
 2030 0044 18010000 		.4byte	.LASF4
 2031 0048 02       		.uleb128 0x2
 2032 0049 04       		.byte	0x4
 2033 004a 07       		.byte	0x7
 2034 004b 15020000 		.4byte	.LASF5
 2035 004f 02       		.uleb128 0x2
 2036 0050 08       		.byte	0x8
 2037 0051 05       		.byte	0x5
 2038 0052 C4000000 		.4byte	.LASF6
 2039 0056 02       		.uleb128 0x2
 2040 0057 08       		.byte	0x8
 2041 0058 07       		.byte	0x7
 2042 0059 3E000000 		.4byte	.LASF7
 2043 005d 03       		.uleb128 0x3
 2044 005e 04       		.byte	0x4
 2045 005f 05       		.byte	0x5
 2046 0060 696E7400 		.ascii	"int\000"
 2047 0064 02       		.uleb128 0x2
 2048 0065 04       		.byte	0x4
 2049 0066 07       		.byte	0x7
 2050 0067 E6010000 		.4byte	.LASF8
 2051 006b 04       		.uleb128 0x4
 2052 006c 4C010000 		.4byte	.LASF9
 2053 0070 02       		.byte	0x2
 2054 0071 E401     		.2byte	0x1e4
 2055 0073 2C000000 		.4byte	0x2c
 2056 0077 04       		.uleb128 0x4
 2057 0078 74010000 		.4byte	.LASF10
 2058 007c 02       		.byte	0x2
 2059 007d E601     		.2byte	0x1e6
 2060 007f 48000000 		.4byte	0x48
 2061 0083 02       		.uleb128 0x2
 2062 0084 04       		.byte	0x4
ARM GAS  C:\Users\essele\AppData\Local\Temp\ccwDBPw1.s 			page 62


 2063 0085 04       		.byte	0x4
 2064 0086 AB030000 		.4byte	.LASF11
 2065 008a 02       		.uleb128 0x2
 2066 008b 08       		.byte	0x8
 2067 008c 04       		.byte	0x4
 2068 008d 5E010000 		.4byte	.LASF12
 2069 0091 02       		.uleb128 0x2
 2070 0092 01       		.byte	0x1
 2071 0093 08       		.byte	0x8
 2072 0094 3D040000 		.4byte	.LASF13
 2073 0098 04       		.uleb128 0x4
 2074 0099 32030000 		.4byte	.LASF14
 2075 009d 02       		.byte	0x2
 2076 009e 9002     		.2byte	0x290
 2077 00a0 A4000000 		.4byte	0xa4
 2078 00a4 05       		.uleb128 0x5
 2079 00a5 77000000 		.4byte	0x77
 2080 00a9 02       		.uleb128 0x2
 2081 00aa 08       		.byte	0x8
 2082 00ab 04       		.byte	0x4
 2083 00ac 6D030000 		.4byte	.LASF15
 2084 00b0 02       		.uleb128 0x2
 2085 00b1 04       		.byte	0x4
 2086 00b2 07       		.byte	0x7
 2087 00b3 64030000 		.4byte	.LASF16
 2088 00b7 06       		.uleb128 0x6
 2089 00b8 52010000 		.4byte	.LASF17
 2090 00bc 01       		.byte	0x1
 2091 00bd 26       		.byte	0x26
 2092 00be 00000000 		.4byte	.LFB1
 2093 00c2 38000000 		.4byte	.LFE1-.LFB1
 2094 00c6 01       		.uleb128 0x1
 2095 00c7 9C       		.byte	0x9c
 2096 00c8 07       		.uleb128 0x7
 2097 00c9 F4000000 		.4byte	.LASF19
 2098 00cd 01       		.byte	0x1
 2099 00ce B1       		.byte	0xb1
 2100 00cf 00000000 		.4byte	.LFB2
 2101 00d3 3C000000 		.4byte	.LFE2-.LFB2
 2102 00d7 01       		.uleb128 0x1
 2103 00d8 9C       		.byte	0x9c
 2104 00d9 EC000000 		.4byte	0xec
 2105 00dd 08       		.uleb128 0x8
 2106 00de D3040000 		.4byte	.LASF21
 2107 00e2 01       		.byte	0x1
 2108 00e3 B3       		.byte	0xb3
 2109 00e4 6B000000 		.4byte	0x6b
 2110 00e8 02       		.uleb128 0x2
 2111 00e9 91       		.byte	0x91
 2112 00ea 6F       		.sleb128 -17
 2113 00eb 00       		.byte	0
 2114 00ec 06       		.uleb128 0x6
 2115 00ed B1030000 		.4byte	.LASF18
 2116 00f1 01       		.byte	0x1
 2117 00f2 E6       		.byte	0xe6
 2118 00f3 00000000 		.4byte	.LFB3
 2119 00f7 24000000 		.4byte	.LFE3-.LFB3
ARM GAS  C:\Users\essele\AppData\Local\Temp\ccwDBPw1.s 			page 63


 2120 00fb 01       		.uleb128 0x1
 2121 00fc 9C       		.byte	0x9c
 2122 00fd 09       		.uleb128 0x9
 2123 00fe 70040000 		.4byte	.LASF20
 2124 0102 01       		.byte	0x1
 2125 0103 0001     		.2byte	0x100
 2126 0105 00000000 		.4byte	.LFB4
 2127 0109 34000000 		.4byte	.LFE4-.LFB4
 2128 010d 01       		.uleb128 0x1
 2129 010e 9C       		.byte	0x9c
 2130 010f 23010000 		.4byte	0x123
 2131 0113 0A       		.uleb128 0xa
 2132 0114 D3040000 		.4byte	.LASF21
 2133 0118 01       		.byte	0x1
 2134 0119 0201     		.2byte	0x102
 2135 011b 6B000000 		.4byte	0x6b
 2136 011f 02       		.uleb128 0x2
 2137 0120 91       		.byte	0x91
 2138 0121 6F       		.sleb128 -17
 2139 0122 00       		.byte	0
 2140 0123 09       		.uleb128 0x9
 2141 0124 FB030000 		.4byte	.LASF22
 2142 0128 01       		.byte	0x1
 2143 0129 2501     		.2byte	0x125
 2144 012b 00000000 		.4byte	.LFB5
 2145 012f 48000000 		.4byte	.LFE5-.LFB5
 2146 0133 01       		.uleb128 0x1
 2147 0134 9C       		.byte	0x9c
 2148 0135 58010000 		.4byte	0x158
 2149 0139 0B       		.uleb128 0xb
 2150 013a 54040000 		.4byte	.LASF24
 2151 013e 01       		.byte	0x1
 2152 013f 2501     		.2byte	0x125
 2153 0141 77000000 		.4byte	0x77
 2154 0145 02       		.uleb128 0x2
 2155 0146 91       		.byte	0x91
 2156 0147 64       		.sleb128 -28
 2157 0148 0A       		.uleb128 0xa
 2158 0149 D3040000 		.4byte	.LASF21
 2159 014d 01       		.byte	0x1
 2160 014e 2701     		.2byte	0x127
 2161 0150 6B000000 		.4byte	0x6b
 2162 0154 02       		.uleb128 0x2
 2163 0155 91       		.byte	0x91
 2164 0156 6F       		.sleb128 -17
 2165 0157 00       		.byte	0
 2166 0158 09       		.uleb128 0x9
 2167 0159 8C010000 		.4byte	.LASF23
 2168 015d 01       		.byte	0x1
 2169 015e 4601     		.2byte	0x146
 2170 0160 00000000 		.4byte	.LFB6
 2171 0164 48000000 		.4byte	.LFE6-.LFB6
 2172 0168 01       		.uleb128 0x1
 2173 0169 9C       		.byte	0x9c
 2174 016a 8D010000 		.4byte	0x18d
 2175 016e 0B       		.uleb128 0xb
 2176 016f AB000000 		.4byte	.LASF25
ARM GAS  C:\Users\essele\AppData\Local\Temp\ccwDBPw1.s 			page 64


 2177 0173 01       		.byte	0x1
 2178 0174 4601     		.2byte	0x146
 2179 0176 77000000 		.4byte	0x77
 2180 017a 02       		.uleb128 0x2
 2181 017b 91       		.byte	0x91
 2182 017c 64       		.sleb128 -28
 2183 017d 0A       		.uleb128 0xa
 2184 017e D3040000 		.4byte	.LASF21
 2185 0182 01       		.byte	0x1
 2186 0183 4801     		.2byte	0x148
 2187 0185 6B000000 		.4byte	0x6b
 2188 0189 02       		.uleb128 0x2
 2189 018a 91       		.byte	0x91
 2190 018b 6F       		.sleb128 -17
 2191 018c 00       		.byte	0
 2192 018d 09       		.uleb128 0x9
 2193 018e 79020000 		.4byte	.LASF26
 2194 0192 01       		.byte	0x1
 2195 0193 6B01     		.2byte	0x16b
 2196 0195 00000000 		.4byte	.LFB7
 2197 0199 48000000 		.4byte	.LFE7-.LFB7
 2198 019d 01       		.uleb128 0x1
 2199 019e 9C       		.byte	0x9c
 2200 019f C2010000 		.4byte	0x1c2
 2201 01a3 0B       		.uleb128 0xb
 2202 01a4 1A000000 		.4byte	.LASF27
 2203 01a8 01       		.byte	0x1
 2204 01a9 6B01     		.2byte	0x16b
 2205 01ab 77000000 		.4byte	0x77
 2206 01af 02       		.uleb128 0x2
 2207 01b0 91       		.byte	0x91
 2208 01b1 64       		.sleb128 -28
 2209 01b2 0A       		.uleb128 0xa
 2210 01b3 D3040000 		.4byte	.LASF21
 2211 01b7 01       		.byte	0x1
 2212 01b8 6D01     		.2byte	0x16d
 2213 01ba 6B000000 		.4byte	0x6b
 2214 01be 02       		.uleb128 0x2
 2215 01bf 91       		.byte	0x91
 2216 01c0 6F       		.sleb128 -17
 2217 01c1 00       		.byte	0
 2218 01c2 09       		.uleb128 0x9
 2219 01c3 18040000 		.4byte	.LASF28
 2220 01c7 01       		.byte	0x1
 2221 01c8 8B01     		.2byte	0x18b
 2222 01ca 00000000 		.4byte	.LFB8
 2223 01ce 50000000 		.4byte	.LFE8-.LFB8
 2224 01d2 01       		.uleb128 0x1
 2225 01d3 9C       		.byte	0x9c
 2226 01d4 F7010000 		.4byte	0x1f7
 2227 01d8 0B       		.uleb128 0xb
 2228 01d9 6B020000 		.4byte	.LASF29
 2229 01dd 01       		.byte	0x1
 2230 01de 8B01     		.2byte	0x18b
 2231 01e0 77000000 		.4byte	0x77
 2232 01e4 02       		.uleb128 0x2
 2233 01e5 91       		.byte	0x91
ARM GAS  C:\Users\essele\AppData\Local\Temp\ccwDBPw1.s 			page 65


 2234 01e6 64       		.sleb128 -28
 2235 01e7 0A       		.uleb128 0xa
 2236 01e8 D3040000 		.4byte	.LASF21
 2237 01ec 01       		.byte	0x1
 2238 01ed 8D01     		.2byte	0x18d
 2239 01ef 6B000000 		.4byte	0x6b
 2240 01f3 02       		.uleb128 0x2
 2241 01f4 91       		.byte	0x91
 2242 01f5 6F       		.sleb128 -17
 2243 01f6 00       		.byte	0
 2244 01f7 0C       		.uleb128 0xc
 2245 01f8 B2000000 		.4byte	.LASF30
 2246 01fc 01       		.byte	0x1
 2247 01fd C101     		.2byte	0x1c1
 2248 01ff 00000000 		.4byte	.LFB9
 2249 0203 20000000 		.4byte	.LFE9-.LFB9
 2250 0207 01       		.uleb128 0x1
 2251 0208 9C       		.byte	0x9c
 2252 0209 1D020000 		.4byte	0x21d
 2253 020d 0B       		.uleb128 0xb
 2254 020e 27020000 		.4byte	.LASF31
 2255 0212 01       		.byte	0x1
 2256 0213 C101     		.2byte	0x1c1
 2257 0215 77000000 		.4byte	0x77
 2258 0219 02       		.uleb128 0x2
 2259 021a 91       		.byte	0x91
 2260 021b 74       		.sleb128 -12
 2261 021c 00       		.byte	0
 2262 021d 09       		.uleb128 0x9
 2263 021e 02010000 		.4byte	.LASF32
 2264 0222 01       		.byte	0x1
 2265 0223 E501     		.2byte	0x1e5
 2266 0225 00000000 		.4byte	.LFB10
 2267 0229 4C000000 		.4byte	.LFE10-.LFB10
 2268 022d 01       		.uleb128 0x1
 2269 022e 9C       		.byte	0x9c
 2270 022f 52020000 		.4byte	0x252
 2271 0233 0B       		.uleb128 0xb
 2272 0234 0B050000 		.4byte	.LASF33
 2273 0238 01       		.byte	0x1
 2274 0239 E501     		.2byte	0x1e5
 2275 023b 77000000 		.4byte	0x77
 2276 023f 02       		.uleb128 0x2
 2277 0240 91       		.byte	0x91
 2278 0241 64       		.sleb128 -28
 2279 0242 0A       		.uleb128 0xa
 2280 0243 D3040000 		.4byte	.LASF21
 2281 0247 01       		.byte	0x1
 2282 0248 E701     		.2byte	0x1e7
 2283 024a 6B000000 		.4byte	0x6b
 2284 024e 02       		.uleb128 0x2
 2285 024f 91       		.byte	0x91
 2286 0250 6F       		.sleb128 -17
 2287 0251 00       		.byte	0
 2288 0252 09       		.uleb128 0x9
 2289 0253 77050000 		.4byte	.LASF34
 2290 0257 01       		.byte	0x1
ARM GAS  C:\Users\essele\AppData\Local\Temp\ccwDBPw1.s 			page 66


 2291 0258 0702     		.2byte	0x207
 2292 025a 00000000 		.4byte	.LFB11
 2293 025e 4C000000 		.4byte	.LFE11-.LFB11
 2294 0262 01       		.uleb128 0x1
 2295 0263 9C       		.byte	0x9c
 2296 0264 87020000 		.4byte	0x287
 2297 0268 0B       		.uleb128 0xb
 2298 0269 E0030000 		.4byte	.LASF35
 2299 026d 01       		.byte	0x1
 2300 026e 0702     		.2byte	0x207
 2301 0270 77000000 		.4byte	0x77
 2302 0274 02       		.uleb128 0x2
 2303 0275 91       		.byte	0x91
 2304 0276 64       		.sleb128 -28
 2305 0277 0A       		.uleb128 0xa
 2306 0278 D3040000 		.4byte	.LASF21
 2307 027c 01       		.byte	0x1
 2308 027d 0902     		.2byte	0x209
 2309 027f 6B000000 		.4byte	0x6b
 2310 0283 02       		.uleb128 0x2
 2311 0284 91       		.byte	0x91
 2312 0285 6F       		.sleb128 -17
 2313 0286 00       		.byte	0
 2314 0287 09       		.uleb128 0x9
 2315 0288 4E030000 		.4byte	.LASF36
 2316 028c 01       		.byte	0x1
 2317 028d 2802     		.2byte	0x228
 2318 028f 00000000 		.4byte	.LFB12
 2319 0293 50000000 		.4byte	.LFE12-.LFB12
 2320 0297 01       		.uleb128 0x1
 2321 0298 9C       		.byte	0x9c
 2322 0299 BC020000 		.4byte	0x2bc
 2323 029d 0B       		.uleb128 0xb
 2324 029e C7010000 		.4byte	.LASF37
 2325 02a2 01       		.byte	0x1
 2326 02a3 2802     		.2byte	0x228
 2327 02a5 77000000 		.4byte	0x77
 2328 02a9 02       		.uleb128 0x2
 2329 02aa 91       		.byte	0x91
 2330 02ab 64       		.sleb128 -28
 2331 02ac 0A       		.uleb128 0xa
 2332 02ad D3040000 		.4byte	.LASF21
 2333 02b1 01       		.byte	0x1
 2334 02b2 2A02     		.2byte	0x22a
 2335 02b4 6B000000 		.4byte	0x6b
 2336 02b8 02       		.uleb128 0x2
 2337 02b9 91       		.byte	0x91
 2338 02ba 6F       		.sleb128 -17
 2339 02bb 00       		.byte	0
 2340 02bc 09       		.uleb128 0x9
 2341 02bd 9D010000 		.4byte	.LASF38
 2342 02c1 01       		.byte	0x1
 2343 02c2 4902     		.2byte	0x249
 2344 02c4 00000000 		.4byte	.LFB13
 2345 02c8 48000000 		.4byte	.LFE13-.LFB13
 2346 02cc 01       		.uleb128 0x1
 2347 02cd 9C       		.byte	0x9c
ARM GAS  C:\Users\essele\AppData\Local\Temp\ccwDBPw1.s 			page 67


 2348 02ce F1020000 		.4byte	0x2f1
 2349 02d2 0B       		.uleb128 0xb
 2350 02d3 87010000 		.4byte	.LASF39
 2351 02d7 01       		.byte	0x1
 2352 02d8 4902     		.2byte	0x249
 2353 02da 77000000 		.4byte	0x77
 2354 02de 02       		.uleb128 0x2
 2355 02df 91       		.byte	0x91
 2356 02e0 64       		.sleb128 -28
 2357 02e1 0A       		.uleb128 0xa
 2358 02e2 D3040000 		.4byte	.LASF21
 2359 02e6 01       		.byte	0x1
 2360 02e7 4B02     		.2byte	0x24b
 2361 02e9 6B000000 		.4byte	0x6b
 2362 02ed 02       		.uleb128 0x2
 2363 02ee 91       		.byte	0x91
 2364 02ef 6F       		.sleb128 -17
 2365 02f0 00       		.byte	0
 2366 02f1 0C       		.uleb128 0xc
 2367 02f2 F7040000 		.4byte	.LASF40
 2368 02f6 01       		.byte	0x1
 2369 02f7 6702     		.2byte	0x267
 2370 02f9 00000000 		.4byte	.LFB14
 2371 02fd 20000000 		.4byte	.LFE14-.LFB14
 2372 0301 01       		.uleb128 0x1
 2373 0302 9C       		.byte	0x9c
 2374 0303 17030000 		.4byte	0x317
 2375 0307 0B       		.uleb128 0xb
 2376 0308 00000000 		.4byte	.LASF41
 2377 030c 01       		.byte	0x1
 2378 030d 6702     		.2byte	0x267
 2379 030f 77000000 		.4byte	0x77
 2380 0313 02       		.uleb128 0x2
 2381 0314 91       		.byte	0x91
 2382 0315 74       		.sleb128 -12
 2383 0316 00       		.byte	0
 2384 0317 0D       		.uleb128 0xd
 2385 0318 E4040000 		.4byte	.LASF46
 2386 031c 01       		.byte	0x1
 2387 031d 7B02     		.2byte	0x27b
 2388 031f 77000000 		.4byte	0x77
 2389 0323 00000000 		.4byte	.LFB15
 2390 0327 18000000 		.4byte	.LFE15-.LFB15
 2391 032b 01       		.uleb128 0x1
 2392 032c 9C       		.byte	0x9c
 2393 032d 09       		.uleb128 0x9
 2394 032e 7C040000 		.4byte	.LASF42
 2395 0332 01       		.byte	0x1
 2396 0333 9802     		.2byte	0x298
 2397 0335 00000000 		.4byte	.LFB16
 2398 0339 48000000 		.4byte	.LFE16-.LFB16
 2399 033d 01       		.uleb128 0x1
 2400 033e 9C       		.byte	0x9c
 2401 033f 62030000 		.4byte	0x362
 2402 0343 0B       		.uleb128 0xb
 2403 0344 59040000 		.4byte	.LASF43
 2404 0348 01       		.byte	0x1
ARM GAS  C:\Users\essele\AppData\Local\Temp\ccwDBPw1.s 			page 68


 2405 0349 9802     		.2byte	0x298
 2406 034b 77000000 		.4byte	0x77
 2407 034f 02       		.uleb128 0x2
 2408 0350 91       		.byte	0x91
 2409 0351 64       		.sleb128 -28
 2410 0352 0A       		.uleb128 0xa
 2411 0353 D3040000 		.4byte	.LASF21
 2412 0357 01       		.byte	0x1
 2413 0358 9A02     		.2byte	0x29a
 2414 035a 6B000000 		.4byte	0x6b
 2415 035e 02       		.uleb128 0x2
 2416 035f 91       		.byte	0x91
 2417 0360 6F       		.sleb128 -17
 2418 0361 00       		.byte	0
 2419 0362 0C       		.uleb128 0xc
 2420 0363 21010000 		.4byte	.LASF44
 2421 0367 01       		.byte	0x1
 2422 0368 B502     		.2byte	0x2b5
 2423 036a 00000000 		.4byte	.LFB17
 2424 036e 20000000 		.4byte	.LFE17-.LFB17
 2425 0372 01       		.uleb128 0x1
 2426 0373 9C       		.byte	0x9c
 2427 0374 88030000 		.4byte	0x388
 2428 0378 0B       		.uleb128 0xb
 2429 0379 37000000 		.4byte	.LASF45
 2430 037d 01       		.byte	0x1
 2431 037e B502     		.2byte	0x2b5
 2432 0380 77000000 		.4byte	0x77
 2433 0384 02       		.uleb128 0x2
 2434 0385 91       		.byte	0x91
 2435 0386 74       		.sleb128 -12
 2436 0387 00       		.byte	0
 2437 0388 0D       		.uleb128 0xd
 2438 0389 4F050000 		.4byte	.LASF47
 2439 038d 01       		.byte	0x1
 2440 038e C902     		.2byte	0x2c9
 2441 0390 77000000 		.4byte	0x77
 2442 0394 00000000 		.4byte	.LFB18
 2443 0398 18000000 		.4byte	.LFE18-.LFB18
 2444 039c 01       		.uleb128 0x1
 2445 039d 9C       		.byte	0x9c
 2446 039e 09       		.uleb128 0x9
 2447 039f 55000000 		.4byte	.LASF48
 2448 03a3 01       		.byte	0x1
 2449 03a4 E302     		.2byte	0x2e3
 2450 03a6 00000000 		.4byte	.LFB19
 2451 03aa 48000000 		.4byte	.LFE19-.LFB19
 2452 03ae 01       		.uleb128 0x1
 2453 03af 9C       		.byte	0x9c
 2454 03b0 D3030000 		.4byte	0x3d3
 2455 03b4 0B       		.uleb128 0xb
 2456 03b5 2E050000 		.4byte	.LASF49
 2457 03b9 01       		.byte	0x1
 2458 03ba E302     		.2byte	0x2e3
 2459 03bc 77000000 		.4byte	0x77
 2460 03c0 02       		.uleb128 0x2
 2461 03c1 91       		.byte	0x91
ARM GAS  C:\Users\essele\AppData\Local\Temp\ccwDBPw1.s 			page 69


 2462 03c2 64       		.sleb128 -28
 2463 03c3 0A       		.uleb128 0xa
 2464 03c4 D3040000 		.4byte	.LASF21
 2465 03c8 01       		.byte	0x1
 2466 03c9 E502     		.2byte	0x2e5
 2467 03cb 6B000000 		.4byte	0x6b
 2468 03cf 02       		.uleb128 0x2
 2469 03d0 91       		.byte	0x91
 2470 03d1 6F       		.sleb128 -17
 2471 03d2 00       		.byte	0
 2472 03d3 0C       		.uleb128 0xc
 2473 03d4 DE000000 		.4byte	.LASF50
 2474 03d8 01       		.byte	0x1
 2475 03d9 FE02     		.2byte	0x2fe
 2476 03db 00000000 		.4byte	.LFB20
 2477 03df 20000000 		.4byte	.LFE20-.LFB20
 2478 03e3 01       		.uleb128 0x1
 2479 03e4 9C       		.byte	0x9c
 2480 03e5 F9030000 		.4byte	0x3f9
 2481 03e9 0B       		.uleb128 0xb
 2482 03ea 8F050000 		.4byte	.LASF51
 2483 03ee 01       		.byte	0x1
 2484 03ef FE02     		.2byte	0x2fe
 2485 03f1 77000000 		.4byte	0x77
 2486 03f5 02       		.uleb128 0x2
 2487 03f6 91       		.byte	0x91
 2488 03f7 74       		.sleb128 -12
 2489 03f8 00       		.byte	0
 2490 03f9 0D       		.uleb128 0xd
 2491 03fa 96030000 		.4byte	.LASF52
 2492 03fe 01       		.byte	0x1
 2493 03ff 1203     		.2byte	0x312
 2494 0401 77000000 		.4byte	0x77
 2495 0405 00000000 		.4byte	.LFB21
 2496 0409 18000000 		.4byte	.LFE21-.LFB21
 2497 040d 01       		.uleb128 0x1
 2498 040e 9C       		.byte	0x9c
 2499 040f 09       		.uleb128 0x9
 2500 0410 56020000 		.4byte	.LASF53
 2501 0414 01       		.byte	0x1
 2502 0415 2C03     		.2byte	0x32c
 2503 0417 00000000 		.4byte	.LFB22
 2504 041b 4C000000 		.4byte	.LFE22-.LFB22
 2505 041f 01       		.uleb128 0x1
 2506 0420 9C       		.byte	0x9c
 2507 0421 44040000 		.4byte	0x444
 2508 0425 0B       		.uleb128 0xb
 2509 0426 2E050000 		.4byte	.LASF49
 2510 042a 01       		.byte	0x1
 2511 042b 2C03     		.2byte	0x32c
 2512 042d 77000000 		.4byte	0x77
 2513 0431 02       		.uleb128 0x2
 2514 0432 91       		.byte	0x91
 2515 0433 64       		.sleb128 -28
 2516 0434 0A       		.uleb128 0xa
 2517 0435 D3040000 		.4byte	.LASF21
 2518 0439 01       		.byte	0x1
ARM GAS  C:\Users\essele\AppData\Local\Temp\ccwDBPw1.s 			page 70


 2519 043a 2E03     		.2byte	0x32e
 2520 043c 6B000000 		.4byte	0x6b
 2521 0440 02       		.uleb128 0x2
 2522 0441 91       		.byte	0x91
 2523 0442 6F       		.sleb128 -17
 2524 0443 00       		.byte	0
 2525 0444 0C       		.uleb128 0xc
 2526 0445 06000000 		.4byte	.LASF54
 2527 0449 01       		.byte	0x1
 2528 044a 5103     		.2byte	0x351
 2529 044c 00000000 		.4byte	.LFB23
 2530 0450 20000000 		.4byte	.LFE23-.LFB23
 2531 0454 01       		.uleb128 0x1
 2532 0455 9C       		.byte	0x9c
 2533 0456 6A040000 		.4byte	0x46a
 2534 045a 0B       		.uleb128 0xb
 2535 045b 79030000 		.4byte	.LASF55
 2536 045f 01       		.byte	0x1
 2537 0460 5103     		.2byte	0x351
 2538 0462 77000000 		.4byte	0x77
 2539 0466 02       		.uleb128 0x2
 2540 0467 91       		.byte	0x91
 2541 0468 74       		.sleb128 -12
 2542 0469 00       		.byte	0
 2543 046a 0D       		.uleb128 0xd
 2544 046b 2A040000 		.4byte	.LASF56
 2545 046f 01       		.byte	0x1
 2546 0470 8403     		.2byte	0x384
 2547 0472 77000000 		.4byte	0x77
 2548 0476 00000000 		.4byte	.LFB24
 2549 047a 18000000 		.4byte	.LFE24-.LFB24
 2550 047e 01       		.uleb128 0x1
 2551 047f 9C       		.byte	0x9c
 2552 0480 0C       		.uleb128 0xc
 2553 0481 1B030000 		.4byte	.LASF57
 2554 0485 01       		.byte	0x1
 2555 0486 BA03     		.2byte	0x3ba
 2556 0488 00000000 		.4byte	.LFB25
 2557 048c 20000000 		.4byte	.LFE25-.LFB25
 2558 0490 01       		.uleb128 0x1
 2559 0491 9C       		.byte	0x9c
 2560 0492 A6040000 		.4byte	0x4a6
 2561 0496 0B       		.uleb128 0xb
 2562 0497 65040000 		.4byte	.LASF58
 2563 049b 01       		.byte	0x1
 2564 049c BA03     		.2byte	0x3ba
 2565 049e 77000000 		.4byte	0x77
 2566 04a2 02       		.uleb128 0x2
 2567 04a3 91       		.byte	0x91
 2568 04a4 74       		.sleb128 -12
 2569 04a5 00       		.byte	0
 2570 04a6 0D       		.uleb128 0xd
 2571 04a7 61050000 		.4byte	.LASF59
 2572 04ab 01       		.byte	0x1
 2573 04ac E803     		.2byte	0x3e8
 2574 04ae 77000000 		.4byte	0x77
 2575 04b2 00000000 		.4byte	.LFB26
ARM GAS  C:\Users\essele\AppData\Local\Temp\ccwDBPw1.s 			page 71


 2576 04b6 18000000 		.4byte	.LFE26-.LFB26
 2577 04ba 01       		.uleb128 0x1
 2578 04bb 9C       		.byte	0x9c
 2579 04bc 0D       		.uleb128 0xd
 2580 04bd 30020000 		.4byte	.LASF60
 2581 04c1 01       		.byte	0x1
 2582 04c2 1604     		.2byte	0x416
 2583 04c4 77000000 		.4byte	0x77
 2584 04c8 00000000 		.4byte	.LFB27
 2585 04cc 18000000 		.4byte	.LFE27-.LFB27
 2586 04d0 01       		.uleb128 0x1
 2587 04d1 9C       		.byte	0x9c
 2588 04d2 0D       		.uleb128 0xd
 2589 04d3 38030000 		.4byte	.LASF61
 2590 04d7 01       		.byte	0x1
 2591 04d8 2B04     		.2byte	0x42b
 2592 04da 77000000 		.4byte	0x77
 2593 04de 00000000 		.4byte	.LFB28
 2594 04e2 18000000 		.4byte	.LFE28-.LFB28
 2595 04e6 01       		.uleb128 0x1
 2596 04e7 9C       		.byte	0x9c
 2597 04e8 09       		.uleb128 0x9
 2598 04e9 39050000 		.4byte	.LASF62
 2599 04ed 01       		.byte	0x1
 2600 04ee 4604     		.2byte	0x446
 2601 04f0 00000000 		.4byte	.LFB29
 2602 04f4 44000000 		.4byte	.LFE29-.LFB29
 2603 04f8 01       		.uleb128 0x1
 2604 04f9 9C       		.byte	0x9c
 2605 04fa 1D050000 		.4byte	0x51d
 2606 04fe 0B       		.uleb128 0xb
 2607 04ff 7B010000 		.4byte	.LASF63
 2608 0503 01       		.byte	0x1
 2609 0504 4604     		.2byte	0x446
 2610 0506 77000000 		.4byte	0x77
 2611 050a 02       		.uleb128 0x2
 2612 050b 91       		.byte	0x91
 2613 050c 64       		.sleb128 -28
 2614 050d 0A       		.uleb128 0xa
 2615 050e D3040000 		.4byte	.LASF21
 2616 0512 01       		.byte	0x1
 2617 0513 4804     		.2byte	0x448
 2618 0515 6B000000 		.4byte	0x6b
 2619 0519 02       		.uleb128 0x2
 2620 051a 91       		.byte	0x91
 2621 051b 6F       		.sleb128 -17
 2622 051c 00       		.byte	0
 2623 051d 09       		.uleb128 0x9
 2624 051e 81030000 		.4byte	.LASF64
 2625 0522 01       		.byte	0x1
 2626 0523 6704     		.2byte	0x467
 2627 0525 00000000 		.4byte	.LFB30
 2628 0529 48000000 		.4byte	.LFE30-.LFB30
 2629 052d 01       		.uleb128 0x1
 2630 052e 9C       		.byte	0x9c
 2631 052f 52050000 		.4byte	0x552
 2632 0533 0B       		.uleb128 0xb
ARM GAS  C:\Users\essele\AppData\Local\Temp\ccwDBPw1.s 			page 72


 2633 0534 7B010000 		.4byte	.LASF63
 2634 0538 01       		.byte	0x1
 2635 0539 6704     		.2byte	0x467
 2636 053b 77000000 		.4byte	0x77
 2637 053f 02       		.uleb128 0x2
 2638 0540 91       		.byte	0x91
 2639 0541 64       		.sleb128 -28
 2640 0542 0A       		.uleb128 0xa
 2641 0543 D3040000 		.4byte	.LASF21
 2642 0547 01       		.byte	0x1
 2643 0548 6904     		.2byte	0x469
 2644 054a 6B000000 		.4byte	0x6b
 2645 054e 02       		.uleb128 0x2
 2646 054f 91       		.byte	0x91
 2647 0550 6F       		.sleb128 -17
 2648 0551 00       		.byte	0
 2649 0552 09       		.uleb128 0x9
 2650 0553 99050000 		.4byte	.LASF65
 2651 0557 01       		.byte	0x1
 2652 0558 8804     		.2byte	0x488
 2653 055a 00000000 		.4byte	.LFB31
 2654 055e 4C000000 		.4byte	.LFE31-.LFB31
 2655 0562 01       		.uleb128 0x1
 2656 0563 9C       		.byte	0x9c
 2657 0564 87050000 		.4byte	0x587
 2658 0568 0B       		.uleb128 0xb
 2659 0569 7B010000 		.4byte	.LASF63
 2660 056d 01       		.byte	0x1
 2661 056e 8804     		.2byte	0x488
 2662 0570 77000000 		.4byte	0x77
 2663 0574 02       		.uleb128 0x2
 2664 0575 91       		.byte	0x91
 2665 0576 64       		.sleb128 -28
 2666 0577 0A       		.uleb128 0xa
 2667 0578 D3040000 		.4byte	.LASF21
 2668 057c 01       		.byte	0x1
 2669 057d 8A04     		.2byte	0x48a
 2670 057f 6B000000 		.4byte	0x6b
 2671 0583 02       		.uleb128 0x2
 2672 0584 91       		.byte	0x91
 2673 0585 6F       		.sleb128 -17
 2674 0586 00       		.byte	0
 2675 0587 09       		.uleb128 0x9
 2676 0588 24000000 		.4byte	.LASF66
 2677 058c 01       		.byte	0x1
 2678 058d A804     		.2byte	0x4a8
 2679 058f 00000000 		.4byte	.LFB32
 2680 0593 48000000 		.4byte	.LFE32-.LFB32
 2681 0597 01       		.uleb128 0x1
 2682 0598 9C       		.byte	0x9c
 2683 0599 BC050000 		.4byte	0x5bc
 2684 059d 0B       		.uleb128 0xb
 2685 059e 7B010000 		.4byte	.LASF63
 2686 05a2 01       		.byte	0x1
 2687 05a3 A804     		.2byte	0x4a8
 2688 05a5 77000000 		.4byte	0x77
 2689 05a9 02       		.uleb128 0x2
ARM GAS  C:\Users\essele\AppData\Local\Temp\ccwDBPw1.s 			page 73


 2690 05aa 91       		.byte	0x91
 2691 05ab 64       		.sleb128 -28
 2692 05ac 0A       		.uleb128 0xa
 2693 05ad D3040000 		.4byte	.LASF21
 2694 05b1 01       		.byte	0x1
 2695 05b2 AA04     		.2byte	0x4aa
 2696 05b4 6B000000 		.4byte	0x6b
 2697 05b8 02       		.uleb128 0x2
 2698 05b9 91       		.byte	0x91
 2699 05ba 6F       		.sleb128 -17
 2700 05bb 00       		.byte	0
 2701 05bc 09       		.uleb128 0x9
 2702 05bd 1A050000 		.4byte	.LASF67
 2703 05c1 01       		.byte	0x1
 2704 05c2 C904     		.2byte	0x4c9
 2705 05c4 00000000 		.4byte	.LFB33
 2706 05c8 48000000 		.4byte	.LFE33-.LFB33
 2707 05cc 01       		.uleb128 0x1
 2708 05cd 9C       		.byte	0x9c
 2709 05ce F1050000 		.4byte	0x5f1
 2710 05d2 0B       		.uleb128 0xb
 2711 05d3 7B010000 		.4byte	.LASF63
 2712 05d7 01       		.byte	0x1
 2713 05d8 C904     		.2byte	0x4c9
 2714 05da 77000000 		.4byte	0x77
 2715 05de 02       		.uleb128 0x2
 2716 05df 91       		.byte	0x91
 2717 05e0 64       		.sleb128 -28
 2718 05e1 0A       		.uleb128 0xa
 2719 05e2 D3040000 		.4byte	.LASF21
 2720 05e6 01       		.byte	0x1
 2721 05e7 CB04     		.2byte	0x4cb
 2722 05e9 6B000000 		.4byte	0x6b
 2723 05ed 02       		.uleb128 0x2
 2724 05ee 91       		.byte	0x91
 2725 05ef 6F       		.sleb128 -17
 2726 05f0 00       		.byte	0
 2727 05f1 09       		.uleb128 0x9
 2728 05f2 B1010000 		.4byte	.LASF68
 2729 05f6 01       		.byte	0x1
 2730 05f7 F104     		.2byte	0x4f1
 2731 05f9 00000000 		.4byte	.LFB34
 2732 05fd 3C000000 		.4byte	.LFE34-.LFB34
 2733 0601 01       		.uleb128 0x1
 2734 0602 9C       		.byte	0x9c
 2735 0603 35060000 		.4byte	0x635
 2736 0607 0B       		.uleb128 0xb
 2737 0608 87010000 		.4byte	.LASF39
 2738 060c 01       		.byte	0x1
 2739 060d F104     		.2byte	0x4f1
 2740 060f 77000000 		.4byte	0x77
 2741 0613 02       		.uleb128 0x2
 2742 0614 91       		.byte	0x91
 2743 0615 64       		.sleb128 -28
 2744 0616 0B       		.uleb128 0xb
 2745 0617 F3010000 		.4byte	.LASF69
 2746 061b 01       		.byte	0x1
ARM GAS  C:\Users\essele\AppData\Local\Temp\ccwDBPw1.s 			page 74


 2747 061c F104     		.2byte	0x4f1
 2748 061e 77000000 		.4byte	0x77
 2749 0622 02       		.uleb128 0x2
 2750 0623 91       		.byte	0x91
 2751 0624 60       		.sleb128 -32
 2752 0625 0A       		.uleb128 0xa
 2753 0626 D3040000 		.4byte	.LASF21
 2754 062a 01       		.byte	0x1
 2755 062b F304     		.2byte	0x4f3
 2756 062d 6B000000 		.4byte	0x6b
 2757 0631 02       		.uleb128 0x2
 2758 0632 91       		.byte	0x91
 2759 0633 6F       		.sleb128 -17
 2760 0634 00       		.byte	0
 2761 0635 0D       		.uleb128 0xd
 2762 0636 42040000 		.4byte	.LASF70
 2763 063a 01       		.byte	0x1
 2764 063b 0E05     		.2byte	0x50e
 2765 063d 77000000 		.4byte	0x77
 2766 0641 00000000 		.4byte	.LFB35
 2767 0645 20000000 		.4byte	.LFE35-.LFB35
 2768 0649 01       		.uleb128 0x1
 2769 064a 9C       		.byte	0x9c
 2770 064b 0C       		.uleb128 0xc
 2771 064c 34010000 		.4byte	.LASF71
 2772 0650 01       		.byte	0x1
 2773 0651 2705     		.2byte	0x527
 2774 0653 00000000 		.4byte	.LFB36
 2775 0657 1C000000 		.4byte	.LFE36-.LFB36
 2776 065b 01       		.uleb128 0x1
 2777 065c 9C       		.byte	0x9c
 2778 065d 71060000 		.4byte	0x671
 2779 0661 0B       		.uleb128 0xb
 2780 0662 0A040000 		.4byte	.LASF72
 2781 0666 01       		.byte	0x1
 2782 0667 2705     		.2byte	0x527
 2783 0669 77000000 		.4byte	0x77
 2784 066d 02       		.uleb128 0x2
 2785 066e 91       		.byte	0x91
 2786 066f 74       		.sleb128 -12
 2787 0670 00       		.byte	0
 2788 0671 0D       		.uleb128 0xd
 2789 0672 6B000000 		.4byte	.LASF73
 2790 0676 01       		.byte	0x1
 2791 0677 3E05     		.2byte	0x53e
 2792 0679 77000000 		.4byte	0x77
 2793 067d 00000000 		.4byte	.LFB37
 2794 0681 14000000 		.4byte	.LFE37-.LFB37
 2795 0685 01       		.uleb128 0x1
 2796 0686 9C       		.byte	0x9c
 2797 0687 0D       		.uleb128 0xd
 2798 0688 FB010000 		.4byte	.LASF74
 2799 068c 01       		.byte	0x1
 2800 068d 5505     		.2byte	0x555
 2801 068f 77000000 		.4byte	0x77
 2802 0693 00000000 		.4byte	.LFB38
 2803 0697 14000000 		.4byte	.LFE38-.LFB38
ARM GAS  C:\Users\essele\AppData\Local\Temp\ccwDBPw1.s 			page 75


 2804 069b 01       		.uleb128 0x1
 2805 069c 9C       		.byte	0x9c
 2806 069d 0C       		.uleb128 0xc
 2807 069e D0010000 		.4byte	.LASF75
 2808 06a2 01       		.byte	0x1
 2809 06a3 6C05     		.2byte	0x56c
 2810 06a5 00000000 		.4byte	.LFB39
 2811 06a9 1C000000 		.4byte	.LFE39-.LFB39
 2812 06ad 01       		.uleb128 0x1
 2813 06ae 9C       		.byte	0x9c
 2814 06af C3060000 		.4byte	0x6c3
 2815 06b3 0B       		.uleb128 0xb
 2816 06b4 0A040000 		.4byte	.LASF72
 2817 06b8 01       		.byte	0x1
 2818 06b9 6C05     		.2byte	0x56c
 2819 06bb 77000000 		.4byte	0x77
 2820 06bf 02       		.uleb128 0x2
 2821 06c0 91       		.byte	0x91
 2822 06c1 74       		.sleb128 -12
 2823 06c2 00       		.byte	0
 2824 06c3 0C       		.uleb128 0xc
 2825 06c4 BE030000 		.4byte	.LASF76
 2826 06c8 01       		.byte	0x1
 2827 06c9 8305     		.2byte	0x583
 2828 06cb 00000000 		.4byte	.LFB40
 2829 06cf 1C000000 		.4byte	.LFE40-.LFB40
 2830 06d3 01       		.uleb128 0x1
 2831 06d4 9C       		.byte	0x9c
 2832 06d5 E9060000 		.4byte	0x6e9
 2833 06d9 0B       		.uleb128 0xb
 2834 06da 0A040000 		.4byte	.LASF72
 2835 06de 01       		.byte	0x1
 2836 06df 8305     		.2byte	0x583
 2837 06e1 77000000 		.4byte	0x77
 2838 06e5 02       		.uleb128 0x2
 2839 06e6 91       		.byte	0x91
 2840 06e7 74       		.sleb128 -12
 2841 06e8 00       		.byte	0
 2842 06e9 0E       		.uleb128 0xe
 2843 06ea 65010000 		.4byte	.LASF80
 2844 06ee 01       		.byte	0x1
 2845 06ef 15       		.byte	0x15
 2846 06f0 6B000000 		.4byte	0x6b
 2847 06f4 05       		.uleb128 0x5
 2848 06f5 03       		.byte	0x3
 2849 06f6 00000000 		.4byte	Timer1_initVar
 2850 06fa 00       		.byte	0
 2851              		.section	.debug_abbrev,"",%progbits
 2852              	.Ldebug_abbrev0:
 2853 0000 01       		.uleb128 0x1
 2854 0001 11       		.uleb128 0x11
 2855 0002 01       		.byte	0x1
 2856 0003 25       		.uleb128 0x25
 2857 0004 0E       		.uleb128 0xe
 2858 0005 13       		.uleb128 0x13
 2859 0006 0B       		.uleb128 0xb
 2860 0007 03       		.uleb128 0x3
ARM GAS  C:\Users\essele\AppData\Local\Temp\ccwDBPw1.s 			page 76


 2861 0008 0E       		.uleb128 0xe
 2862 0009 1B       		.uleb128 0x1b
 2863 000a 0E       		.uleb128 0xe
 2864 000b 55       		.uleb128 0x55
 2865 000c 17       		.uleb128 0x17
 2866 000d 11       		.uleb128 0x11
 2867 000e 01       		.uleb128 0x1
 2868 000f 10       		.uleb128 0x10
 2869 0010 17       		.uleb128 0x17
 2870 0011 00       		.byte	0
 2871 0012 00       		.byte	0
 2872 0013 02       		.uleb128 0x2
 2873 0014 24       		.uleb128 0x24
 2874 0015 00       		.byte	0
 2875 0016 0B       		.uleb128 0xb
 2876 0017 0B       		.uleb128 0xb
 2877 0018 3E       		.uleb128 0x3e
 2878 0019 0B       		.uleb128 0xb
 2879 001a 03       		.uleb128 0x3
 2880 001b 0E       		.uleb128 0xe
 2881 001c 00       		.byte	0
 2882 001d 00       		.byte	0
 2883 001e 03       		.uleb128 0x3
 2884 001f 24       		.uleb128 0x24
 2885 0020 00       		.byte	0
 2886 0021 0B       		.uleb128 0xb
 2887 0022 0B       		.uleb128 0xb
 2888 0023 3E       		.uleb128 0x3e
 2889 0024 0B       		.uleb128 0xb
 2890 0025 03       		.uleb128 0x3
 2891 0026 08       		.uleb128 0x8
 2892 0027 00       		.byte	0
 2893 0028 00       		.byte	0
 2894 0029 04       		.uleb128 0x4
 2895 002a 16       		.uleb128 0x16
 2896 002b 00       		.byte	0
 2897 002c 03       		.uleb128 0x3
 2898 002d 0E       		.uleb128 0xe
 2899 002e 3A       		.uleb128 0x3a
 2900 002f 0B       		.uleb128 0xb
 2901 0030 3B       		.uleb128 0x3b
 2902 0031 05       		.uleb128 0x5
 2903 0032 49       		.uleb128 0x49
 2904 0033 13       		.uleb128 0x13
 2905 0034 00       		.byte	0
 2906 0035 00       		.byte	0
 2907 0036 05       		.uleb128 0x5
 2908 0037 35       		.uleb128 0x35
 2909 0038 00       		.byte	0
 2910 0039 49       		.uleb128 0x49
 2911 003a 13       		.uleb128 0x13
 2912 003b 00       		.byte	0
 2913 003c 00       		.byte	0
 2914 003d 06       		.uleb128 0x6
 2915 003e 2E       		.uleb128 0x2e
 2916 003f 00       		.byte	0
 2917 0040 3F       		.uleb128 0x3f
ARM GAS  C:\Users\essele\AppData\Local\Temp\ccwDBPw1.s 			page 77


 2918 0041 19       		.uleb128 0x19
 2919 0042 03       		.uleb128 0x3
 2920 0043 0E       		.uleb128 0xe
 2921 0044 3A       		.uleb128 0x3a
 2922 0045 0B       		.uleb128 0xb
 2923 0046 3B       		.uleb128 0x3b
 2924 0047 0B       		.uleb128 0xb
 2925 0048 27       		.uleb128 0x27
 2926 0049 19       		.uleb128 0x19
 2927 004a 11       		.uleb128 0x11
 2928 004b 01       		.uleb128 0x1
 2929 004c 12       		.uleb128 0x12
 2930 004d 06       		.uleb128 0x6
 2931 004e 40       		.uleb128 0x40
 2932 004f 18       		.uleb128 0x18
 2933 0050 9642     		.uleb128 0x2116
 2934 0052 19       		.uleb128 0x19
 2935 0053 00       		.byte	0
 2936 0054 00       		.byte	0
 2937 0055 07       		.uleb128 0x7
 2938 0056 2E       		.uleb128 0x2e
 2939 0057 01       		.byte	0x1
 2940 0058 3F       		.uleb128 0x3f
 2941 0059 19       		.uleb128 0x19
 2942 005a 03       		.uleb128 0x3
 2943 005b 0E       		.uleb128 0xe
 2944 005c 3A       		.uleb128 0x3a
 2945 005d 0B       		.uleb128 0xb
 2946 005e 3B       		.uleb128 0x3b
 2947 005f 0B       		.uleb128 0xb
 2948 0060 27       		.uleb128 0x27
 2949 0061 19       		.uleb128 0x19
 2950 0062 11       		.uleb128 0x11
 2951 0063 01       		.uleb128 0x1
 2952 0064 12       		.uleb128 0x12
 2953 0065 06       		.uleb128 0x6
 2954 0066 40       		.uleb128 0x40
 2955 0067 18       		.uleb128 0x18
 2956 0068 9642     		.uleb128 0x2116
 2957 006a 19       		.uleb128 0x19
 2958 006b 01       		.uleb128 0x1
 2959 006c 13       		.uleb128 0x13
 2960 006d 00       		.byte	0
 2961 006e 00       		.byte	0
 2962 006f 08       		.uleb128 0x8
 2963 0070 34       		.uleb128 0x34
 2964 0071 00       		.byte	0
 2965 0072 03       		.uleb128 0x3
 2966 0073 0E       		.uleb128 0xe
 2967 0074 3A       		.uleb128 0x3a
 2968 0075 0B       		.uleb128 0xb
 2969 0076 3B       		.uleb128 0x3b
 2970 0077 0B       		.uleb128 0xb
 2971 0078 49       		.uleb128 0x49
 2972 0079 13       		.uleb128 0x13
 2973 007a 02       		.uleb128 0x2
 2974 007b 18       		.uleb128 0x18
ARM GAS  C:\Users\essele\AppData\Local\Temp\ccwDBPw1.s 			page 78


 2975 007c 00       		.byte	0
 2976 007d 00       		.byte	0
 2977 007e 09       		.uleb128 0x9
 2978 007f 2E       		.uleb128 0x2e
 2979 0080 01       		.byte	0x1
 2980 0081 3F       		.uleb128 0x3f
 2981 0082 19       		.uleb128 0x19
 2982 0083 03       		.uleb128 0x3
 2983 0084 0E       		.uleb128 0xe
 2984 0085 3A       		.uleb128 0x3a
 2985 0086 0B       		.uleb128 0xb
 2986 0087 3B       		.uleb128 0x3b
 2987 0088 05       		.uleb128 0x5
 2988 0089 27       		.uleb128 0x27
 2989 008a 19       		.uleb128 0x19
 2990 008b 11       		.uleb128 0x11
 2991 008c 01       		.uleb128 0x1
 2992 008d 12       		.uleb128 0x12
 2993 008e 06       		.uleb128 0x6
 2994 008f 40       		.uleb128 0x40
 2995 0090 18       		.uleb128 0x18
 2996 0091 9642     		.uleb128 0x2116
 2997 0093 19       		.uleb128 0x19
 2998 0094 01       		.uleb128 0x1
 2999 0095 13       		.uleb128 0x13
 3000 0096 00       		.byte	0
 3001 0097 00       		.byte	0
 3002 0098 0A       		.uleb128 0xa
 3003 0099 34       		.uleb128 0x34
 3004 009a 00       		.byte	0
 3005 009b 03       		.uleb128 0x3
 3006 009c 0E       		.uleb128 0xe
 3007 009d 3A       		.uleb128 0x3a
 3008 009e 0B       		.uleb128 0xb
 3009 009f 3B       		.uleb128 0x3b
 3010 00a0 05       		.uleb128 0x5
 3011 00a1 49       		.uleb128 0x49
 3012 00a2 13       		.uleb128 0x13
 3013 00a3 02       		.uleb128 0x2
 3014 00a4 18       		.uleb128 0x18
 3015 00a5 00       		.byte	0
 3016 00a6 00       		.byte	0
 3017 00a7 0B       		.uleb128 0xb
 3018 00a8 05       		.uleb128 0x5
 3019 00a9 00       		.byte	0
 3020 00aa 03       		.uleb128 0x3
 3021 00ab 0E       		.uleb128 0xe
 3022 00ac 3A       		.uleb128 0x3a
 3023 00ad 0B       		.uleb128 0xb
 3024 00ae 3B       		.uleb128 0x3b
 3025 00af 05       		.uleb128 0x5
 3026 00b0 49       		.uleb128 0x49
 3027 00b1 13       		.uleb128 0x13
 3028 00b2 02       		.uleb128 0x2
 3029 00b3 18       		.uleb128 0x18
 3030 00b4 00       		.byte	0
 3031 00b5 00       		.byte	0
ARM GAS  C:\Users\essele\AppData\Local\Temp\ccwDBPw1.s 			page 79


 3032 00b6 0C       		.uleb128 0xc
 3033 00b7 2E       		.uleb128 0x2e
 3034 00b8 01       		.byte	0x1
 3035 00b9 3F       		.uleb128 0x3f
 3036 00ba 19       		.uleb128 0x19
 3037 00bb 03       		.uleb128 0x3
 3038 00bc 0E       		.uleb128 0xe
 3039 00bd 3A       		.uleb128 0x3a
 3040 00be 0B       		.uleb128 0xb
 3041 00bf 3B       		.uleb128 0x3b
 3042 00c0 05       		.uleb128 0x5
 3043 00c1 27       		.uleb128 0x27
 3044 00c2 19       		.uleb128 0x19
 3045 00c3 11       		.uleb128 0x11
 3046 00c4 01       		.uleb128 0x1
 3047 00c5 12       		.uleb128 0x12
 3048 00c6 06       		.uleb128 0x6
 3049 00c7 40       		.uleb128 0x40
 3050 00c8 18       		.uleb128 0x18
 3051 00c9 9742     		.uleb128 0x2117
 3052 00cb 19       		.uleb128 0x19
 3053 00cc 01       		.uleb128 0x1
 3054 00cd 13       		.uleb128 0x13
 3055 00ce 00       		.byte	0
 3056 00cf 00       		.byte	0
 3057 00d0 0D       		.uleb128 0xd
 3058 00d1 2E       		.uleb128 0x2e
 3059 00d2 00       		.byte	0
 3060 00d3 3F       		.uleb128 0x3f
 3061 00d4 19       		.uleb128 0x19
 3062 00d5 03       		.uleb128 0x3
 3063 00d6 0E       		.uleb128 0xe
 3064 00d7 3A       		.uleb128 0x3a
 3065 00d8 0B       		.uleb128 0xb
 3066 00d9 3B       		.uleb128 0x3b
 3067 00da 05       		.uleb128 0x5
 3068 00db 27       		.uleb128 0x27
 3069 00dc 19       		.uleb128 0x19
 3070 00dd 49       		.uleb128 0x49
 3071 00de 13       		.uleb128 0x13
 3072 00df 11       		.uleb128 0x11
 3073 00e0 01       		.uleb128 0x1
 3074 00e1 12       		.uleb128 0x12
 3075 00e2 06       		.uleb128 0x6
 3076 00e3 40       		.uleb128 0x40
 3077 00e4 18       		.uleb128 0x18
 3078 00e5 9742     		.uleb128 0x2117
 3079 00e7 19       		.uleb128 0x19
 3080 00e8 00       		.byte	0
 3081 00e9 00       		.byte	0
 3082 00ea 0E       		.uleb128 0xe
 3083 00eb 34       		.uleb128 0x34
 3084 00ec 00       		.byte	0
 3085 00ed 03       		.uleb128 0x3
 3086 00ee 0E       		.uleb128 0xe
 3087 00ef 3A       		.uleb128 0x3a
 3088 00f0 0B       		.uleb128 0xb
ARM GAS  C:\Users\essele\AppData\Local\Temp\ccwDBPw1.s 			page 80


 3089 00f1 3B       		.uleb128 0x3b
 3090 00f2 0B       		.uleb128 0xb
 3091 00f3 49       		.uleb128 0x49
 3092 00f4 13       		.uleb128 0x13
 3093 00f5 3F       		.uleb128 0x3f
 3094 00f6 19       		.uleb128 0x19
 3095 00f7 02       		.uleb128 0x2
 3096 00f8 18       		.uleb128 0x18
 3097 00f9 00       		.byte	0
 3098 00fa 00       		.byte	0
 3099 00fb 00       		.byte	0
 3100              		.section	.debug_aranges,"",%progbits
 3101 0000 54010000 		.4byte	0x154
 3102 0004 0200     		.2byte	0x2
 3103 0006 00000000 		.4byte	.Ldebug_info0
 3104 000a 04       		.byte	0x4
 3105 000b 00       		.byte	0
 3106 000c 0000     		.2byte	0
 3107 000e 0000     		.2byte	0
 3108 0010 00000000 		.4byte	.LFB1
 3109 0014 38000000 		.4byte	.LFE1-.LFB1
 3110 0018 00000000 		.4byte	.LFB2
 3111 001c 3C000000 		.4byte	.LFE2-.LFB2
 3112 0020 00000000 		.4byte	.LFB3
 3113 0024 24000000 		.4byte	.LFE3-.LFB3
 3114 0028 00000000 		.4byte	.LFB4
 3115 002c 34000000 		.4byte	.LFE4-.LFB4
 3116 0030 00000000 		.4byte	.LFB5
 3117 0034 48000000 		.4byte	.LFE5-.LFB5
 3118 0038 00000000 		.4byte	.LFB6
 3119 003c 48000000 		.4byte	.LFE6-.LFB6
 3120 0040 00000000 		.4byte	.LFB7
 3121 0044 48000000 		.4byte	.LFE7-.LFB7
 3122 0048 00000000 		.4byte	.LFB8
 3123 004c 50000000 		.4byte	.LFE8-.LFB8
 3124 0050 00000000 		.4byte	.LFB9
 3125 0054 20000000 		.4byte	.LFE9-.LFB9
 3126 0058 00000000 		.4byte	.LFB10
 3127 005c 4C000000 		.4byte	.LFE10-.LFB10
 3128 0060 00000000 		.4byte	.LFB11
 3129 0064 4C000000 		.4byte	.LFE11-.LFB11
 3130 0068 00000000 		.4byte	.LFB12
 3131 006c 50000000 		.4byte	.LFE12-.LFB12
 3132 0070 00000000 		.4byte	.LFB13
 3133 0074 48000000 		.4byte	.LFE13-.LFB13
 3134 0078 00000000 		.4byte	.LFB14
 3135 007c 20000000 		.4byte	.LFE14-.LFB14
 3136 0080 00000000 		.4byte	.LFB15
 3137 0084 18000000 		.4byte	.LFE15-.LFB15
 3138 0088 00000000 		.4byte	.LFB16
 3139 008c 48000000 		.4byte	.LFE16-.LFB16
 3140 0090 00000000 		.4byte	.LFB17
 3141 0094 20000000 		.4byte	.LFE17-.LFB17
 3142 0098 00000000 		.4byte	.LFB18
 3143 009c 18000000 		.4byte	.LFE18-.LFB18
 3144 00a0 00000000 		.4byte	.LFB19
 3145 00a4 48000000 		.4byte	.LFE19-.LFB19
ARM GAS  C:\Users\essele\AppData\Local\Temp\ccwDBPw1.s 			page 81


 3146 00a8 00000000 		.4byte	.LFB20
 3147 00ac 20000000 		.4byte	.LFE20-.LFB20
 3148 00b0 00000000 		.4byte	.LFB21
 3149 00b4 18000000 		.4byte	.LFE21-.LFB21
 3150 00b8 00000000 		.4byte	.LFB22
 3151 00bc 4C000000 		.4byte	.LFE22-.LFB22
 3152 00c0 00000000 		.4byte	.LFB23
 3153 00c4 20000000 		.4byte	.LFE23-.LFB23
 3154 00c8 00000000 		.4byte	.LFB24
 3155 00cc 18000000 		.4byte	.LFE24-.LFB24
 3156 00d0 00000000 		.4byte	.LFB25
 3157 00d4 20000000 		.4byte	.LFE25-.LFB25
 3158 00d8 00000000 		.4byte	.LFB26
 3159 00dc 18000000 		.4byte	.LFE26-.LFB26
 3160 00e0 00000000 		.4byte	.LFB27
 3161 00e4 18000000 		.4byte	.LFE27-.LFB27
 3162 00e8 00000000 		.4byte	.LFB28
 3163 00ec 18000000 		.4byte	.LFE28-.LFB28
 3164 00f0 00000000 		.4byte	.LFB29
 3165 00f4 44000000 		.4byte	.LFE29-.LFB29
 3166 00f8 00000000 		.4byte	.LFB30
 3167 00fc 48000000 		.4byte	.LFE30-.LFB30
 3168 0100 00000000 		.4byte	.LFB31
 3169 0104 4C000000 		.4byte	.LFE31-.LFB31
 3170 0108 00000000 		.4byte	.LFB32
 3171 010c 48000000 		.4byte	.LFE32-.LFB32
 3172 0110 00000000 		.4byte	.LFB33
 3173 0114 48000000 		.4byte	.LFE33-.LFB33
 3174 0118 00000000 		.4byte	.LFB34
 3175 011c 3C000000 		.4byte	.LFE34-.LFB34
 3176 0120 00000000 		.4byte	.LFB35
 3177 0124 20000000 		.4byte	.LFE35-.LFB35
 3178 0128 00000000 		.4byte	.LFB36
 3179 012c 1C000000 		.4byte	.LFE36-.LFB36
 3180 0130 00000000 		.4byte	.LFB37
 3181 0134 14000000 		.4byte	.LFE37-.LFB37
 3182 0138 00000000 		.4byte	.LFB38
 3183 013c 14000000 		.4byte	.LFE38-.LFB38
 3184 0140 00000000 		.4byte	.LFB39
 3185 0144 1C000000 		.4byte	.LFE39-.LFB39
 3186 0148 00000000 		.4byte	.LFB40
 3187 014c 1C000000 		.4byte	.LFE40-.LFB40
 3188 0150 00000000 		.4byte	0
 3189 0154 00000000 		.4byte	0
 3190              		.section	.debug_ranges,"",%progbits
 3191              	.Ldebug_ranges0:
 3192 0000 00000000 		.4byte	.LFB1
 3193 0004 38000000 		.4byte	.LFE1
 3194 0008 00000000 		.4byte	.LFB2
 3195 000c 3C000000 		.4byte	.LFE2
 3196 0010 00000000 		.4byte	.LFB3
 3197 0014 24000000 		.4byte	.LFE3
 3198 0018 00000000 		.4byte	.LFB4
 3199 001c 34000000 		.4byte	.LFE4
 3200 0020 00000000 		.4byte	.LFB5
 3201 0024 48000000 		.4byte	.LFE5
 3202 0028 00000000 		.4byte	.LFB6
ARM GAS  C:\Users\essele\AppData\Local\Temp\ccwDBPw1.s 			page 82


 3203 002c 48000000 		.4byte	.LFE6
 3204 0030 00000000 		.4byte	.LFB7
 3205 0034 48000000 		.4byte	.LFE7
 3206 0038 00000000 		.4byte	.LFB8
 3207 003c 50000000 		.4byte	.LFE8
 3208 0040 00000000 		.4byte	.LFB9
 3209 0044 20000000 		.4byte	.LFE9
 3210 0048 00000000 		.4byte	.LFB10
 3211 004c 4C000000 		.4byte	.LFE10
 3212 0050 00000000 		.4byte	.LFB11
 3213 0054 4C000000 		.4byte	.LFE11
 3214 0058 00000000 		.4byte	.LFB12
 3215 005c 50000000 		.4byte	.LFE12
 3216 0060 00000000 		.4byte	.LFB13
 3217 0064 48000000 		.4byte	.LFE13
 3218 0068 00000000 		.4byte	.LFB14
 3219 006c 20000000 		.4byte	.LFE14
 3220 0070 00000000 		.4byte	.LFB15
 3221 0074 18000000 		.4byte	.LFE15
 3222 0078 00000000 		.4byte	.LFB16
 3223 007c 48000000 		.4byte	.LFE16
 3224 0080 00000000 		.4byte	.LFB17
 3225 0084 20000000 		.4byte	.LFE17
 3226 0088 00000000 		.4byte	.LFB18
 3227 008c 18000000 		.4byte	.LFE18
 3228 0090 00000000 		.4byte	.LFB19
 3229 0094 48000000 		.4byte	.LFE19
 3230 0098 00000000 		.4byte	.LFB20
 3231 009c 20000000 		.4byte	.LFE20
 3232 00a0 00000000 		.4byte	.LFB21
 3233 00a4 18000000 		.4byte	.LFE21
 3234 00a8 00000000 		.4byte	.LFB22
 3235 00ac 4C000000 		.4byte	.LFE22
 3236 00b0 00000000 		.4byte	.LFB23
 3237 00b4 20000000 		.4byte	.LFE23
 3238 00b8 00000000 		.4byte	.LFB24
 3239 00bc 18000000 		.4byte	.LFE24
 3240 00c0 00000000 		.4byte	.LFB25
 3241 00c4 20000000 		.4byte	.LFE25
 3242 00c8 00000000 		.4byte	.LFB26
 3243 00cc 18000000 		.4byte	.LFE26
 3244 00d0 00000000 		.4byte	.LFB27
 3245 00d4 18000000 		.4byte	.LFE27
 3246 00d8 00000000 		.4byte	.LFB28
 3247 00dc 18000000 		.4byte	.LFE28
 3248 00e0 00000000 		.4byte	.LFB29
 3249 00e4 44000000 		.4byte	.LFE29
 3250 00e8 00000000 		.4byte	.LFB30
 3251 00ec 48000000 		.4byte	.LFE30
 3252 00f0 00000000 		.4byte	.LFB31
 3253 00f4 4C000000 		.4byte	.LFE31
 3254 00f8 00000000 		.4byte	.LFB32
 3255 00fc 48000000 		.4byte	.LFE32
 3256 0100 00000000 		.4byte	.LFB33
 3257 0104 48000000 		.4byte	.LFE33
 3258 0108 00000000 		.4byte	.LFB34
 3259 010c 3C000000 		.4byte	.LFE34
ARM GAS  C:\Users\essele\AppData\Local\Temp\ccwDBPw1.s 			page 83


 3260 0110 00000000 		.4byte	.LFB35
 3261 0114 20000000 		.4byte	.LFE35
 3262 0118 00000000 		.4byte	.LFB36
 3263 011c 1C000000 		.4byte	.LFE36
 3264 0120 00000000 		.4byte	.LFB37
 3265 0124 14000000 		.4byte	.LFE37
 3266 0128 00000000 		.4byte	.LFB38
 3267 012c 14000000 		.4byte	.LFE38
 3268 0130 00000000 		.4byte	.LFB39
 3269 0134 1C000000 		.4byte	.LFE39
 3270 0138 00000000 		.4byte	.LFB40
 3271 013c 1C000000 		.4byte	.LFE40
 3272 0140 00000000 		.4byte	0
 3273 0144 00000000 		.4byte	0
 3274              		.section	.debug_line,"",%progbits
 3275              	.Ldebug_line0:
 3276 0000 6B030000 		.section	.debug_str,"MS",%progbits,1
 3276      02004300 
 3276      00000201 
 3276      FB0E0D00 
 3276      01010101 
 3277              	.LASF41:
 3278 0000 636F756E 		.ascii	"count\000"
 3278      7400
 3279              	.LASF54:
 3280 0006 54696D65 		.ascii	"Timer1_WriteCompare\000"
 3280      72315F57 
 3280      72697465 
 3280      436F6D70 
 3280      61726500 
 3281              	.LASF27:
 3282 001a 70726573 		.ascii	"prescaler\000"
 3282      63616C65 
 3282      7200
 3283              	.LASF66:
 3284 0024 54696D65 		.ascii	"Timer1_SetStopMode\000"
 3284      72315F53 
 3284      65745374 
 3284      6F704D6F 
 3284      646500
 3285              	.LASF45:
 3286 0037 70657269 		.ascii	"period\000"
 3286      6F6400
 3287              	.LASF7:
 3288 003e 6C6F6E67 		.ascii	"long long unsigned int\000"
 3288      206C6F6E 
 3288      6720756E 
 3288      7369676E 
 3288      65642069 
 3289              	.LASF48:
 3290 0055 54696D65 		.ascii	"Timer1_SetCompareSwap\000"
 3290      72315F53 
 3290      6574436F 
 3290      6D706172 
 3290      65537761 
 3291              	.LASF73:
 3292 006b 54696D65 		.ascii	"Timer1_GetInterruptSourceMasked\000"
ARM GAS  C:\Users\essele\AppData\Local\Temp\ccwDBPw1.s 			page 84


 3292      72315F47 
 3292      6574496E 
 3292      74657272 
 3292      75707453 
 3293              	.LASF78:
 3294 008b 47656E65 		.ascii	"Generated_Source\\PSoC4\\Timer1.c\000"
 3294      72617465 
 3294      645F536F 
 3294      75726365 
 3294      5C50536F 
 3295              	.LASF25:
 3296 00ab 71644D6F 		.ascii	"qdMode\000"
 3296      646500
 3297              	.LASF30:
 3298 00b2 54696D65 		.ascii	"Timer1_SetPWMMode\000"
 3298      72315F53 
 3298      65745057 
 3298      4D4D6F64 
 3298      6500
 3299              	.LASF6:
 3300 00c4 6C6F6E67 		.ascii	"long long int\000"
 3300      206C6F6E 
 3300      6720696E 
 3300      7400
 3301              	.LASF0:
 3302 00d2 7369676E 		.ascii	"signed char\000"
 3302      65642063 
 3302      68617200 
 3303              	.LASF50:
 3304 00de 54696D65 		.ascii	"Timer1_WritePeriodBuf\000"
 3304      72315F57 
 3304      72697465 
 3304      50657269 
 3304      6F644275 
 3305              	.LASF19:
 3306 00f4 54696D65 		.ascii	"Timer1_Enable\000"
 3306      72315F45 
 3306      6E61626C 
 3306      6500
 3307              	.LASF32:
 3308 0102 54696D65 		.ascii	"Timer1_SetPWMSyncKill\000"
 3308      72315F53 
 3308      65745057 
 3308      4D53796E 
 3308      634B696C 
 3309              	.LASF4:
 3310 0118 6C6F6E67 		.ascii	"long int\000"
 3310      20696E74 
 3310      00
 3311              	.LASF44:
 3312 0121 54696D65 		.ascii	"Timer1_WritePeriod\000"
 3312      72315F57 
 3312      72697465 
 3312      50657269 
 3312      6F6400
 3313              	.LASF71:
 3314 0134 54696D65 		.ascii	"Timer1_SetInterruptMode\000"
ARM GAS  C:\Users\essele\AppData\Local\Temp\ccwDBPw1.s 			page 85


 3314      72315F53 
 3314      6574496E 
 3314      74657272 
 3314      7570744D 
 3315              	.LASF9:
 3316 014c 75696E74 		.ascii	"uint8\000"
 3316      3800
 3317              	.LASF17:
 3318 0152 54696D65 		.ascii	"Timer1_Init\000"
 3318      72315F49 
 3318      6E697400 
 3319              	.LASF12:
 3320 015e 646F7562 		.ascii	"double\000"
 3320      6C6500
 3321              	.LASF80:
 3322 0165 54696D65 		.ascii	"Timer1_initVar\000"
 3322      72315F69 
 3322      6E697456 
 3322      617200
 3323              	.LASF10:
 3324 0174 75696E74 		.ascii	"uint32\000"
 3324      333200
 3325              	.LASF63:
 3326 017b 74726967 		.ascii	"triggerMode\000"
 3326      6765724D 
 3326      6F646500 
 3327              	.LASF39:
 3328 0187 6D61736B 		.ascii	"mask\000"
 3328      00
 3329              	.LASF23:
 3330 018c 54696D65 		.ascii	"Timer1_SetQDMode\000"
 3330      72315F53 
 3330      65745144 
 3330      4D6F6465 
 3330      00
 3331              	.LASF38:
 3332 019d 54696D65 		.ascii	"Timer1_SetPWMInvert\000"
 3332      72315F53 
 3332      65745057 
 3332      4D496E76 
 3332      65727400 
 3333              	.LASF68:
 3334 01b1 54696D65 		.ascii	"Timer1_TriggerCommand\000"
 3334      72315F54 
 3334      72696767 
 3334      6572436F 
 3334      6D6D616E 
 3335              	.LASF37:
 3336 01c7 64656164 		.ascii	"deadTime\000"
 3336      54696D65 
 3336      00
 3337              	.LASF75:
 3338 01d0 54696D65 		.ascii	"Timer1_ClearInterrupt\000"
 3338      72315F43 
 3338      6C656172 
 3338      496E7465 
 3338      72727570 
ARM GAS  C:\Users\essele\AppData\Local\Temp\ccwDBPw1.s 			page 86


 3339              	.LASF8:
 3340 01e6 756E7369 		.ascii	"unsigned int\000"
 3340      676E6564 
 3340      20696E74 
 3340      00
 3341              	.LASF69:
 3342 01f3 636F6D6D 		.ascii	"command\000"
 3342      616E6400 
 3343              	.LASF74:
 3344 01fb 54696D65 		.ascii	"Timer1_GetInterruptSource\000"
 3344      72315F47 
 3344      6574496E 
 3344      74657272 
 3344      75707453 
 3345              	.LASF5:
 3346 0215 6C6F6E67 		.ascii	"long unsigned int\000"
 3346      20756E73 
 3346      69676E65 
 3346      6420696E 
 3346      7400
 3347              	.LASF31:
 3348 0227 6D6F6465 		.ascii	"modeMask\000"
 3348      4D61736B 
 3348      00
 3349              	.LASF60:
 3350 0230 54696D65 		.ascii	"Timer1_ReadCapture\000"
 3350      72315F52 
 3350      65616443 
 3350      61707475 
 3350      726500
 3351              	.LASF3:
 3352 0243 73686F72 		.ascii	"short unsigned int\000"
 3352      7420756E 
 3352      7369676E 
 3352      65642069 
 3352      6E7400
 3353              	.LASF53:
 3354 0256 54696D65 		.ascii	"Timer1_SetPeriodSwap\000"
 3354      72315F53 
 3354      65745065 
 3354      72696F64 
 3354      53776170 
 3355              	.LASF29:
 3356 026b 6F6E6553 		.ascii	"oneShotEnable\000"
 3356      686F7445 
 3356      6E61626C 
 3356      6500
 3357              	.LASF26:
 3358 0279 54696D65 		.ascii	"Timer1_SetPrescaler\000"
 3358      72315F53 
 3358      65745072 
 3358      65736361 
 3358      6C657200 
 3359              	.LASF77:
 3360 028d 474E5520 		.ascii	"GNU C11 5.4.1 20160609 (release) [ARM/embedded-5-br"
 3360      43313120 
 3360      352E342E 
ARM GAS  C:\Users\essele\AppData\Local\Temp\ccwDBPw1.s 			page 87


 3360      31203230 
 3360      31363036 
 3361 02c0 616E6368 		.ascii	"anch revision 237715] -mcpu=cortex-m0 -mthumb -g -O"
 3361      20726576 
 3361      6973696F 
 3361      6E203233 
 3361      37373135 
 3362 02f3 30202D66 		.ascii	"0 -ffunction-sections -ffat-lto-objects\000"
 3362      66756E63 
 3362      74696F6E 
 3362      2D736563 
 3362      74696F6E 
 3363              	.LASF57:
 3364 031b 54696D65 		.ascii	"Timer1_WriteCompareBuf\000"
 3364      72315F57 
 3364      72697465 
 3364      436F6D70 
 3364      61726542 
 3365              	.LASF14:
 3366 0332 72656733 		.ascii	"reg32\000"
 3366      3200
 3367              	.LASF61:
 3368 0338 54696D65 		.ascii	"Timer1_ReadCaptureBuf\000"
 3368      72315F52 
 3368      65616443 
 3368      61707475 
 3368      72654275 
 3369              	.LASF36:
 3370 034e 54696D65 		.ascii	"Timer1_SetPWMDeadTime\000"
 3370      72315F53 
 3370      65745057 
 3370      4D446561 
 3370      6454696D 
 3371              	.LASF16:
 3372 0364 73697A65 		.ascii	"sizetype\000"
 3372      74797065 
 3372      00
 3373              	.LASF15:
 3374 036d 6C6F6E67 		.ascii	"long double\000"
 3374      20646F75 
 3374      626C6500 
 3375              	.LASF55:
 3376 0379 636F6D70 		.ascii	"compare\000"
 3376      61726500 
 3377              	.LASF64:
 3378 0381 54696D65 		.ascii	"Timer1_SetReloadMode\000"
 3378      72315F53 
 3378      65745265 
 3378      6C6F6164 
 3378      4D6F6465 
 3379              	.LASF52:
 3380 0396 54696D65 		.ascii	"Timer1_ReadPeriodBuf\000"
 3380      72315F52 
 3380      65616450 
 3380      6572696F 
 3380      64427566 
 3381              	.LASF11:
ARM GAS  C:\Users\essele\AppData\Local\Temp\ccwDBPw1.s 			page 88


 3382 03ab 666C6F61 		.ascii	"float\000"
 3382      7400
 3383              	.LASF18:
 3384 03b1 54696D65 		.ascii	"Timer1_Start\000"
 3384      72315F53 
 3384      74617274 
 3384      00
 3385              	.LASF76:
 3386 03be 54696D65 		.ascii	"Timer1_SetInterrupt\000"
 3386      72315F53 
 3386      6574496E 
 3386      74657272 
 3386      75707400 
 3387              	.LASF1:
 3388 03d2 756E7369 		.ascii	"unsigned char\000"
 3388      676E6564 
 3388      20636861 
 3388      7200
 3389              	.LASF35:
 3390 03e0 73746F70 		.ascii	"stopOnKillEnable\000"
 3390      4F6E4B69 
 3390      6C6C456E 
 3390      61626C65 
 3390      00
 3391              	.LASF2:
 3392 03f1 73686F72 		.ascii	"short int\000"
 3392      7420696E 
 3392      7400
 3393              	.LASF22:
 3394 03fb 54696D65 		.ascii	"Timer1_SetMode\000"
 3394      72315F53 
 3394      65744D6F 
 3394      646500
 3395              	.LASF72:
 3396 040a 696E7465 		.ascii	"interruptMask\000"
 3396      72727570 
 3396      744D6173 
 3396      6B00
 3397              	.LASF28:
 3398 0418 54696D65 		.ascii	"Timer1_SetOneShot\000"
 3398      72315F53 
 3398      65744F6E 
 3398      6553686F 
 3398      7400
 3399              	.LASF56:
 3400 042a 54696D65 		.ascii	"Timer1_ReadCompare\000"
 3400      72315F52 
 3400      65616443 
 3400      6F6D7061 
 3400      726500
 3401              	.LASF13:
 3402 043d 63686172 		.ascii	"char\000"
 3402      00
 3403              	.LASF70:
 3404 0442 54696D65 		.ascii	"Timer1_ReadStatus\000"
 3404      72315F52 
 3404      65616453 
ARM GAS  C:\Users\essele\AppData\Local\Temp\ccwDBPw1.s 			page 89


 3404      74617475 
 3404      7300
 3405              	.LASF24:
 3406 0454 6D6F6465 		.ascii	"mode\000"
 3406      00
 3407              	.LASF43:
 3408 0459 636F756E 		.ascii	"counterMode\000"
 3408      7465724D 
 3408      6F646500 
 3409              	.LASF58:
 3410 0465 636F6D70 		.ascii	"compareBuf\000"
 3410      61726542 
 3410      756600
 3411              	.LASF20:
 3412 0470 54696D65 		.ascii	"Timer1_Stop\000"
 3412      72315F53 
 3412      746F7000 
 3413              	.LASF42:
 3414 047c 54696D65 		.ascii	"Timer1_SetCounterMode\000"
 3414      72315F53 
 3414      6574436F 
 3414      756E7465 
 3414      724D6F64 
 3415              	.LASF79:
 3416 0492 5C5C4D61 		.ascii	"\\\\Mac\\Home\\Documents\\dev\\yaugi\\GPIB USB Adap"
 3416      635C486F 
 3416      6D655C44 
 3416      6F63756D 
 3416      656E7473 
 3417 04be 7465725C 		.ascii	"ter\\GPIB USB 1.cydsn\000"
 3417      47504942 
 3417      20555342 
 3417      20312E63 
 3417      7964736E 
 3418              	.LASF21:
 3419 04d3 656E6162 		.ascii	"enableInterrupts\000"
 3419      6C65496E 
 3419      74657272 
 3419      75707473 
 3419      00
 3420              	.LASF46:
 3421 04e4 54696D65 		.ascii	"Timer1_ReadCounter\000"
 3421      72315F52 
 3421      65616443 
 3421      6F756E74 
 3421      657200
 3422              	.LASF40:
 3423 04f7 54696D65 		.ascii	"Timer1_WriteCounter\000"
 3423      72315F57 
 3423      72697465 
 3423      436F756E 
 3423      74657200 
 3424              	.LASF33:
 3425 050b 73796E63 		.ascii	"syncKillEnable\000"
 3425      4B696C6C 
 3425      456E6162 
 3425      6C6500
ARM GAS  C:\Users\essele\AppData\Local\Temp\ccwDBPw1.s 			page 90


 3426              	.LASF67:
 3427 051a 54696D65 		.ascii	"Timer1_SetCountMode\000"
 3427      72315F53 
 3427      6574436F 
 3427      756E744D 
 3427      6F646500 
 3428              	.LASF49:
 3429 052e 73776170 		.ascii	"swapEnable\000"
 3429      456E6162 
 3429      6C6500
 3430              	.LASF62:
 3431 0539 54696D65 		.ascii	"Timer1_SetCaptureMode\000"
 3431      72315F53 
 3431      65744361 
 3431      70747572 
 3431      654D6F64 
 3432              	.LASF47:
 3433 054f 54696D65 		.ascii	"Timer1_ReadPeriod\000"
 3433      72315F52 
 3433      65616450 
 3433      6572696F 
 3433      6400
 3434              	.LASF59:
 3435 0561 54696D65 		.ascii	"Timer1_ReadCompareBuf\000"
 3435      72315F52 
 3435      65616443 
 3435      6F6D7061 
 3435      72654275 
 3436              	.LASF34:
 3437 0577 54696D65 		.ascii	"Timer1_SetPWMStopOnKill\000"
 3437      72315F53 
 3437      65745057 
 3437      4D53746F 
 3437      704F6E4B 
 3438              	.LASF51:
 3439 058f 70657269 		.ascii	"periodBuf\000"
 3439      6F644275 
 3439      6600
 3440              	.LASF65:
 3441 0599 54696D65 		.ascii	"Timer1_SetStartMode\000"
 3441      72315F53 
 3441      65745374 
 3441      6172744D 
 3441      6F646500 
 3442              		.ident	"GCC: (GNU Tools for ARM Embedded Processors) 5.4.1 20160609 (release) [ARM/embedded-5-bran
