ARM GAS  C:\Users\essele\AppData\Local\Temp\ccFLOaGJ.s 			page 1


   1              		.syntax unified
   2              		.cpu cortex-m0
   3              		.fpu softvfp
   4              		.eabi_attribute 20, 1
   5              		.eabi_attribute 21, 1
   6              		.eabi_attribute 23, 3
   7              		.eabi_attribute 24, 1
   8              		.eabi_attribute 25, 1
   9              		.eabi_attribute 26, 1
  10              		.eabi_attribute 30, 6
  11              		.eabi_attribute 34, 0
  12              		.eabi_attribute 18, 4
  13              		.thumb
  14              		.syntax unified
  15              		.file	"USBTMC_std.c"
  16              		.text
  17              	.Ltext0:
  18              		.cfi_sections	.debug_frame
  19              		.section	.text.USBTMC_HandleStandardRqst,"ax",%progbits
  20              		.align	2
  21              		.global	USBTMC_HandleStandardRqst
  22              		.code	16
  23              		.thumb_func
  24              		.type	USBTMC_HandleStandardRqst, %function
  25              	USBTMC_HandleStandardRqst:
  26              	.LFB1:
  27              		.file 1 "Generated_Source\\PSoC4\\USBTMC_std.c"
   1:Generated_Source\PSoC4/USBTMC_std.c **** /***************************************************************************//**
   2:Generated_Source\PSoC4/USBTMC_std.c **** * \file USBTMC_std.c
   3:Generated_Source\PSoC4/USBTMC_std.c **** * \version 3.20
   4:Generated_Source\PSoC4/USBTMC_std.c **** *
   5:Generated_Source\PSoC4/USBTMC_std.c **** * \brief
   6:Generated_Source\PSoC4/USBTMC_std.c **** *  This file contains the USB Standard request handler.
   7:Generated_Source\PSoC4/USBTMC_std.c **** *
   8:Generated_Source\PSoC4/USBTMC_std.c **** ********************************************************************************
   9:Generated_Source\PSoC4/USBTMC_std.c **** * \copyright
  10:Generated_Source\PSoC4/USBTMC_std.c **** * Copyright 2008-2016, Cypress Semiconductor Corporation.  All rights reserved.
  11:Generated_Source\PSoC4/USBTMC_std.c **** * You may use this file only in accordance with the license, terms, conditions,
  12:Generated_Source\PSoC4/USBTMC_std.c **** * disclaimers, and limitations in the end user license agreement accompanying
  13:Generated_Source\PSoC4/USBTMC_std.c **** * the software package with which this file was provided.
  14:Generated_Source\PSoC4/USBTMC_std.c **** *******************************************************************************/
  15:Generated_Source\PSoC4/USBTMC_std.c **** 
  16:Generated_Source\PSoC4/USBTMC_std.c **** #include "USBTMC_pvt.h"
  17:Generated_Source\PSoC4/USBTMC_std.c **** 
  18:Generated_Source\PSoC4/USBTMC_std.c **** /***************************************
  19:Generated_Source\PSoC4/USBTMC_std.c **** *   Static data allocation
  20:Generated_Source\PSoC4/USBTMC_std.c **** ***************************************/
  21:Generated_Source\PSoC4/USBTMC_std.c **** 
  22:Generated_Source\PSoC4/USBTMC_std.c **** #if defined(USBTMC_ENABLE_FWSN_STRING)
  23:Generated_Source\PSoC4/USBTMC_std.c ****     static volatile uint8* USBTMC_fwSerialNumberStringDescriptor;
  24:Generated_Source\PSoC4/USBTMC_std.c ****     static volatile uint8  USBTMC_snStringConfirm = USBTMC_FALSE;
  25:Generated_Source\PSoC4/USBTMC_std.c **** #endif  /* (USBTMC_ENABLE_FWSN_STRING) */
  26:Generated_Source\PSoC4/USBTMC_std.c **** 
  27:Generated_Source\PSoC4/USBTMC_std.c **** #if defined(USBTMC_ENABLE_FWSN_STRING)
  28:Generated_Source\PSoC4/USBTMC_std.c ****     /***************************************************************************
  29:Generated_Source\PSoC4/USBTMC_std.c ****     * Function Name: USBTMC_SerialNumString
  30:Generated_Source\PSoC4/USBTMC_std.c ****     ************************************************************************//**
ARM GAS  C:\Users\essele\AppData\Local\Temp\ccFLOaGJ.s 			page 2


  31:Generated_Source\PSoC4/USBTMC_std.c ****     *
  32:Generated_Source\PSoC4/USBTMC_std.c ****     *  This function is available only when the User Call Back option in the 
  33:Generated_Source\PSoC4/USBTMC_std.c ****     *  Serial Number String descriptor properties is selected. Application 
  34:Generated_Source\PSoC4/USBTMC_std.c ****     *  firmware can provide the source of the USB device serial number string 
  35:Generated_Source\PSoC4/USBTMC_std.c ****     *  descriptor during run time. The default string is used if the application 
  36:Generated_Source\PSoC4/USBTMC_std.c ****     *  firmware does not use this function or sets the wrong string descriptor.
  37:Generated_Source\PSoC4/USBTMC_std.c ****     *
  38:Generated_Source\PSoC4/USBTMC_std.c ****     *  \param snString:  Pointer to the user-defined string descriptor. The 
  39:Generated_Source\PSoC4/USBTMC_std.c ****     *  string descriptor should meet the Universal Serial Bus Specification 
  40:Generated_Source\PSoC4/USBTMC_std.c ****     *  revision 2.0 chapter 9.6.7
  41:Generated_Source\PSoC4/USBTMC_std.c ****     *  Offset|Size|Value|Description
  42:Generated_Source\PSoC4/USBTMC_std.c ****     *  ------|----|------|---------------------------------
  43:Generated_Source\PSoC4/USBTMC_std.c ****     *  0     |1   |N     |Size of this descriptor in bytes
  44:Generated_Source\PSoC4/USBTMC_std.c ****     *  1     |1   |0x03  |STRING Descriptor Type
  45:Generated_Source\PSoC4/USBTMC_std.c ****     *  2     |N-2 |Number|UNICODE encoded string
  46:Generated_Source\PSoC4/USBTMC_std.c ****     *  
  47:Generated_Source\PSoC4/USBTMC_std.c ****     * *For example:* uint8 snString[16]={0x0E,0x03,'F',0,'W',0,'S',0,'N',0,'0',0,'1',0};
  48:Generated_Source\PSoC4/USBTMC_std.c ****     *
  49:Generated_Source\PSoC4/USBTMC_std.c ****     * \reentrant
  50:Generated_Source\PSoC4/USBTMC_std.c ****     *  No.
  51:Generated_Source\PSoC4/USBTMC_std.c ****     *
  52:Generated_Source\PSoC4/USBTMC_std.c ****     ***************************************************************************/
  53:Generated_Source\PSoC4/USBTMC_std.c ****     void  USBTMC_SerialNumString(uint8 snString[]) 
  54:Generated_Source\PSoC4/USBTMC_std.c ****     {
  55:Generated_Source\PSoC4/USBTMC_std.c ****         USBTMC_snStringConfirm = USBTMC_FALSE;
  56:Generated_Source\PSoC4/USBTMC_std.c ****         
  57:Generated_Source\PSoC4/USBTMC_std.c ****         if (snString != NULL)
  58:Generated_Source\PSoC4/USBTMC_std.c ****         {
  59:Generated_Source\PSoC4/USBTMC_std.c ****             /* Check descriptor validation */
  60:Generated_Source\PSoC4/USBTMC_std.c ****             if ((snString[0u] > 1u) && (snString[1u] == USBTMC_DESCR_STRING))
  61:Generated_Source\PSoC4/USBTMC_std.c ****             {
  62:Generated_Source\PSoC4/USBTMC_std.c ****                 USBTMC_fwSerialNumberStringDescriptor = snString;
  63:Generated_Source\PSoC4/USBTMC_std.c ****                 USBTMC_snStringConfirm = USBTMC_TRUE;
  64:Generated_Source\PSoC4/USBTMC_std.c ****             }
  65:Generated_Source\PSoC4/USBTMC_std.c ****         }
  66:Generated_Source\PSoC4/USBTMC_std.c ****     }
  67:Generated_Source\PSoC4/USBTMC_std.c **** #endif  /* USBTMC_ENABLE_FWSN_STRING */
  68:Generated_Source\PSoC4/USBTMC_std.c **** 
  69:Generated_Source\PSoC4/USBTMC_std.c **** 
  70:Generated_Source\PSoC4/USBTMC_std.c **** /*******************************************************************************
  71:Generated_Source\PSoC4/USBTMC_std.c **** * Function Name: USBTMC_HandleStandardRqst
  72:Generated_Source\PSoC4/USBTMC_std.c **** ****************************************************************************//**
  73:Generated_Source\PSoC4/USBTMC_std.c **** *
  74:Generated_Source\PSoC4/USBTMC_std.c **** *  This Routine dispatches standard requests
  75:Generated_Source\PSoC4/USBTMC_std.c **** *
  76:Generated_Source\PSoC4/USBTMC_std.c **** *
  77:Generated_Source\PSoC4/USBTMC_std.c **** * \return
  78:Generated_Source\PSoC4/USBTMC_std.c **** *  TRUE if request handled.
  79:Generated_Source\PSoC4/USBTMC_std.c **** *
  80:Generated_Source\PSoC4/USBTMC_std.c **** * \reentrant
  81:Generated_Source\PSoC4/USBTMC_std.c **** *  No.
  82:Generated_Source\PSoC4/USBTMC_std.c **** *
  83:Generated_Source\PSoC4/USBTMC_std.c **** *******************************************************************************/
  84:Generated_Source\PSoC4/USBTMC_std.c **** uint8 USBTMC_HandleStandardRqst(void) 
  85:Generated_Source\PSoC4/USBTMC_std.c **** {
  28              		.loc 1 85 0
  29              		.cfi_startproc
ARM GAS  C:\Users\essele\AppData\Local\Temp\ccFLOaGJ.s 			page 3


  30              		@ args = 0, pretend = 0, frame = 32
  31              		@ frame_needed = 1, uses_anonymous_args = 0
  32 0000 90B5     		push	{r4, r7, lr}
  33              		.cfi_def_cfa_offset 12
  34              		.cfi_offset 4, -12
  35              		.cfi_offset 7, -8
  36              		.cfi_offset 14, -4
  37 0002 89B0     		sub	sp, sp, #36
  38              		.cfi_def_cfa_offset 48
  39 0004 00AF     		add	r7, sp, #0
  40              		.cfi_def_cfa_register 7
  86:Generated_Source\PSoC4/USBTMC_std.c ****     uint8 requestHandled = USBTMC_FALSE;
  41              		.loc 1 86 0
  42 0006 1F23     		movs	r3, #31
  43 0008 FB18     		adds	r3, r7, r3
  44 000a 0022     		movs	r2, #0
  45 000c 1A70     		strb	r2, [r3]
  87:Generated_Source\PSoC4/USBTMC_std.c ****     uint32 interfaceNumber;
  88:Generated_Source\PSoC4/USBTMC_std.c ****     uint32 configurationN;
  89:Generated_Source\PSoC4/USBTMC_std.c ****     uint32 bmRequestType = USBTMC_bmRequestTypeReg;
  46              		.loc 1 89 0
  47 000e CF4B     		ldr	r3, .L66
  48 0010 1B68     		ldr	r3, [r3]
  49 0012 FB60     		str	r3, [r7, #12]
  90:Generated_Source\PSoC4/USBTMC_std.c **** 
  91:Generated_Source\PSoC4/USBTMC_std.c **** #if defined(USBTMC_ENABLE_STRINGS)
  92:Generated_Source\PSoC4/USBTMC_std.c ****     volatile uint8 *pStr = 0u;
  50              		.loc 1 92 0
  51 0014 0023     		movs	r3, #0
  52 0016 BB61     		str	r3, [r7, #24]
  93:Generated_Source\PSoC4/USBTMC_std.c ****     #if defined(USBTMC_ENABLE_DESCRIPTOR_STRINGS)
  94:Generated_Source\PSoC4/USBTMC_std.c ****         uint8 nStr;
  95:Generated_Source\PSoC4/USBTMC_std.c ****         uint8 descrLength;
  96:Generated_Source\PSoC4/USBTMC_std.c ****     #endif /* (USBTMC_ENABLE_DESCRIPTOR_STRINGS) */
  97:Generated_Source\PSoC4/USBTMC_std.c **** #endif /* (USBTMC_ENABLE_STRINGS) */
  98:Generated_Source\PSoC4/USBTMC_std.c ****     
  99:Generated_Source\PSoC4/USBTMC_std.c ****     static volatile uint8 USBTMC_tBuffer[USBTMC_STATUS_LENGTH_MAX];
 100:Generated_Source\PSoC4/USBTMC_std.c ****     const T_USBTMC_LUT CYCODE *pTmp;
 101:Generated_Source\PSoC4/USBTMC_std.c **** 
 102:Generated_Source\PSoC4/USBTMC_std.c ****     USBTMC_currentTD.count = 0u;
  53              		.loc 1 102 0
  54 0018 CD4B     		ldr	r3, .L66+4
  55 001a 0022     		movs	r2, #0
  56 001c 1A80     		strh	r2, [r3]
 103:Generated_Source\PSoC4/USBTMC_std.c **** 
 104:Generated_Source\PSoC4/USBTMC_std.c ****     if (USBTMC_RQST_DIR_D2H == (bmRequestType & USBTMC_RQST_DIR_MASK))
  57              		.loc 1 104 0
  58 001e FB68     		ldr	r3, [r7, #12]
  59 0020 8022     		movs	r2, #128
  60 0022 1340     		ands	r3, r2
  61 0024 00D1     		bne	.LCB29
  62 0026 FDE0     		b	.L2	@long jump
  63              	.LCB29:
 105:Generated_Source\PSoC4/USBTMC_std.c ****     {
 106:Generated_Source\PSoC4/USBTMC_std.c ****         /* Control Read */
 107:Generated_Source\PSoC4/USBTMC_std.c ****         switch (USBTMC_bRequestReg)
  64              		.loc 1 107 0
ARM GAS  C:\Users\essele\AppData\Local\Temp\ccFLOaGJ.s 			page 4


  65 0028 C84B     		ldr	r3, .L66
  66 002a 5B68     		ldr	r3, [r3, #4]
  67 002c 062B     		cmp	r3, #6
  68 002e 0BD0     		beq	.L4
  69 0030 03D8     		bhi	.L5
  70 0032 002B     		cmp	r3, #0
  71 0034 00D1     		bne	.LCB37
  72 0036 9CE0     		b	.L6	@long jump
  73              	.LCB37:
 108:Generated_Source\PSoC4/USBTMC_std.c ****         {
 109:Generated_Source\PSoC4/USBTMC_std.c ****             case USBTMC_GET_DESCRIPTOR:
 110:Generated_Source\PSoC4/USBTMC_std.c ****                 if (USBTMC_DESCR_DEVICE ==USBTMC_wValueHiReg)
 111:Generated_Source\PSoC4/USBTMC_std.c ****                 {
 112:Generated_Source\PSoC4/USBTMC_std.c ****                     pTmp = USBTMC_GetDeviceTablePtr();
 113:Generated_Source\PSoC4/USBTMC_std.c ****                     USBTMC_currentTD.pData = (volatile uint8 *)pTmp->p_list;
 114:Generated_Source\PSoC4/USBTMC_std.c ****                     USBTMC_currentTD.count = USBTMC_DEVICE_DESCR_LENGTH;
 115:Generated_Source\PSoC4/USBTMC_std.c ****                     
 116:Generated_Source\PSoC4/USBTMC_std.c ****                     requestHandled  = USBTMC_InitControlRead();
 117:Generated_Source\PSoC4/USBTMC_std.c ****                 }
 118:Generated_Source\PSoC4/USBTMC_std.c ****                 else if (USBTMC_DESCR_CONFIG == USBTMC_wValueHiReg)
 119:Generated_Source\PSoC4/USBTMC_std.c ****                 {
 120:Generated_Source\PSoC4/USBTMC_std.c ****                     pTmp = USBTMC_GetConfigTablePtr((uint8) USBTMC_wValueLoReg);
 121:Generated_Source\PSoC4/USBTMC_std.c ****                     
 122:Generated_Source\PSoC4/USBTMC_std.c ****                     /* Verify that requested descriptor exists */
 123:Generated_Source\PSoC4/USBTMC_std.c ****                     if (pTmp != NULL)
 124:Generated_Source\PSoC4/USBTMC_std.c ****                     {
 125:Generated_Source\PSoC4/USBTMC_std.c ****                         USBTMC_currentTD.pData = (volatile uint8 *)pTmp->p_list;
 126:Generated_Source\PSoC4/USBTMC_std.c ****                         USBTMC_currentTD.count = (uint16)((uint16)(USBTMC_currentTD.pData)[USBTMC_C
 127:Generated_Source\PSoC4/USBTMC_std.c ****                                                                             (USBTMC_currentTD.pData
 128:Generated_Source\PSoC4/USBTMC_std.c ****                         requestHandled  = USBTMC_InitControlRead();
 129:Generated_Source\PSoC4/USBTMC_std.c ****                     }
 130:Generated_Source\PSoC4/USBTMC_std.c ****                 }
 131:Generated_Source\PSoC4/USBTMC_std.c ****                 
 132:Generated_Source\PSoC4/USBTMC_std.c ****             #if(USBTMC_BOS_ENABLE)
 133:Generated_Source\PSoC4/USBTMC_std.c ****                 else if (USBTMC_DESCR_BOS == USBTMC_wValueHiReg)
 134:Generated_Source\PSoC4/USBTMC_std.c ****                 {
 135:Generated_Source\PSoC4/USBTMC_std.c ****                     pTmp = USBTMC_GetBOSPtr();
 136:Generated_Source\PSoC4/USBTMC_std.c ****                     
 137:Generated_Source\PSoC4/USBTMC_std.c ****                     /* Verify that requested descriptor exists */
 138:Generated_Source\PSoC4/USBTMC_std.c ****                     if (pTmp != NULL)
 139:Generated_Source\PSoC4/USBTMC_std.c ****                     {
 140:Generated_Source\PSoC4/USBTMC_std.c ****                         USBTMC_currentTD.pData = (volatile uint8 *)pTmp;
 141:Generated_Source\PSoC4/USBTMC_std.c ****                         USBTMC_currentTD.count = ((uint16)((uint16)(USBTMC_currentTD.pData)[USBTMC_
 142:Generated_Source\PSoC4/USBTMC_std.c ****                                                                              (USBTMC_currentTD.pDat
 143:Generated_Source\PSoC4/USBTMC_std.c ****                         requestHandled  = USBTMC_InitControlRead();
 144:Generated_Source\PSoC4/USBTMC_std.c ****                     }
 145:Generated_Source\PSoC4/USBTMC_std.c ****                 }
 146:Generated_Source\PSoC4/USBTMC_std.c ****             #endif /*(USBTMC_BOS_ENABLE)*/
 147:Generated_Source\PSoC4/USBTMC_std.c ****             
 148:Generated_Source\PSoC4/USBTMC_std.c ****             #if defined(USBTMC_ENABLE_STRINGS)
 149:Generated_Source\PSoC4/USBTMC_std.c ****                 else if (USBTMC_DESCR_STRING == USBTMC_wValueHiReg)
 150:Generated_Source\PSoC4/USBTMC_std.c ****                 {
 151:Generated_Source\PSoC4/USBTMC_std.c ****                 /* Descriptor Strings */
 152:Generated_Source\PSoC4/USBTMC_std.c ****                 #if defined(USBTMC_ENABLE_DESCRIPTOR_STRINGS)
 153:Generated_Source\PSoC4/USBTMC_std.c ****                     nStr = 0u;
 154:Generated_Source\PSoC4/USBTMC_std.c ****                     pStr = (volatile uint8 *) &USBTMC_STRING_DESCRIPTORS[0u];
 155:Generated_Source\PSoC4/USBTMC_std.c ****                     
ARM GAS  C:\Users\essele\AppData\Local\Temp\ccFLOaGJ.s 			page 5


 156:Generated_Source\PSoC4/USBTMC_std.c ****                     while ((USBTMC_wValueLoReg > nStr) && (*pStr != 0u))
 157:Generated_Source\PSoC4/USBTMC_std.c ****                     {
 158:Generated_Source\PSoC4/USBTMC_std.c ****                         /* Read descriptor length from 1st byte */
 159:Generated_Source\PSoC4/USBTMC_std.c ****                         descrLength = *pStr;
 160:Generated_Source\PSoC4/USBTMC_std.c ****                         /* Move to next string descriptor */
 161:Generated_Source\PSoC4/USBTMC_std.c ****                         pStr = &pStr[descrLength];
 162:Generated_Source\PSoC4/USBTMC_std.c ****                         nStr++;
 163:Generated_Source\PSoC4/USBTMC_std.c ****                     }
 164:Generated_Source\PSoC4/USBTMC_std.c ****                 #endif /* (USBTMC_ENABLE_DESCRIPTOR_STRINGS) */
 165:Generated_Source\PSoC4/USBTMC_std.c ****                 
 166:Generated_Source\PSoC4/USBTMC_std.c ****                 /* Microsoft OS String */
 167:Generated_Source\PSoC4/USBTMC_std.c ****                 #if defined(USBTMC_ENABLE_MSOS_STRING)
 168:Generated_Source\PSoC4/USBTMC_std.c ****                     if (USBTMC_STRING_MSOS == USBTMC_wValueLoReg)
 169:Generated_Source\PSoC4/USBTMC_std.c ****                     {
 170:Generated_Source\PSoC4/USBTMC_std.c ****                         pStr = (volatile uint8 *)& USBTMC_MSOS_DESCRIPTOR[0u];
 171:Generated_Source\PSoC4/USBTMC_std.c ****                     }
 172:Generated_Source\PSoC4/USBTMC_std.c ****                 #endif /* (USBTMC_ENABLE_MSOS_STRING) */
 173:Generated_Source\PSoC4/USBTMC_std.c ****                 
 174:Generated_Source\PSoC4/USBTMC_std.c ****                 /* SN string */
 175:Generated_Source\PSoC4/USBTMC_std.c ****                 #if defined(USBTMC_ENABLE_SN_STRING)
 176:Generated_Source\PSoC4/USBTMC_std.c ****                     if ((USBTMC_wValueLoReg != 0u) && 
 177:Generated_Source\PSoC4/USBTMC_std.c ****                         (USBTMC_wValueLoReg == USBTMC_DEVICE0_DESCR[USBTMC_DEVICE_DESCR_SN_SHIFT]))
 178:Generated_Source\PSoC4/USBTMC_std.c ****                     {
 179:Generated_Source\PSoC4/USBTMC_std.c ****                     #if defined(USBTMC_ENABLE_IDSN_STRING)
 180:Generated_Source\PSoC4/USBTMC_std.c ****                         /* Read DIE ID and generate string descriptor in RAM */
 181:Generated_Source\PSoC4/USBTMC_std.c ****                         USBTMC_ReadDieID(USBTMC_idSerialNumberStringDescriptor);
 182:Generated_Source\PSoC4/USBTMC_std.c ****                         pStr = USBTMC_idSerialNumberStringDescriptor;
 183:Generated_Source\PSoC4/USBTMC_std.c ****                     #elif defined(USBTMC_ENABLE_FWSN_STRING)
 184:Generated_Source\PSoC4/USBTMC_std.c ****                         
 185:Generated_Source\PSoC4/USBTMC_std.c ****                         if(USBTMC_snStringConfirm != USBTMC_FALSE)
 186:Generated_Source\PSoC4/USBTMC_std.c ****                         {
 187:Generated_Source\PSoC4/USBTMC_std.c ****                             pStr = USBTMC_fwSerialNumberStringDescriptor;
 188:Generated_Source\PSoC4/USBTMC_std.c ****                         }
 189:Generated_Source\PSoC4/USBTMC_std.c ****                         else
 190:Generated_Source\PSoC4/USBTMC_std.c ****                         {
 191:Generated_Source\PSoC4/USBTMC_std.c ****                             pStr = (volatile uint8 *)&USBTMC_SN_STRING_DESCRIPTOR[0u];
 192:Generated_Source\PSoC4/USBTMC_std.c ****                         }
 193:Generated_Source\PSoC4/USBTMC_std.c ****                     #else
 194:Generated_Source\PSoC4/USBTMC_std.c ****                         pStr = (volatile uint8 *)&USBTMC_SN_STRING_DESCRIPTOR[0u];
 195:Generated_Source\PSoC4/USBTMC_std.c ****                     #endif  /* (USBTMC_ENABLE_IDSN_STRING) */
 196:Generated_Source\PSoC4/USBTMC_std.c ****                     }
 197:Generated_Source\PSoC4/USBTMC_std.c ****                 #endif /* (USBTMC_ENABLE_SN_STRING) */
 198:Generated_Source\PSoC4/USBTMC_std.c ****                 
 199:Generated_Source\PSoC4/USBTMC_std.c ****                     if (*pStr != 0u)
 200:Generated_Source\PSoC4/USBTMC_std.c ****                     {
 201:Generated_Source\PSoC4/USBTMC_std.c ****                         USBTMC_currentTD.count = *pStr;
 202:Generated_Source\PSoC4/USBTMC_std.c ****                         USBTMC_currentTD.pData = pStr;
 203:Generated_Source\PSoC4/USBTMC_std.c ****                         requestHandled  = USBTMC_InitControlRead();
 204:Generated_Source\PSoC4/USBTMC_std.c ****                     }
 205:Generated_Source\PSoC4/USBTMC_std.c ****                 }
 206:Generated_Source\PSoC4/USBTMC_std.c ****             #endif /*  USBTMC_ENABLE_STRINGS */
 207:Generated_Source\PSoC4/USBTMC_std.c ****                 else
 208:Generated_Source\PSoC4/USBTMC_std.c ****                 {
 209:Generated_Source\PSoC4/USBTMC_std.c ****                     requestHandled = USBTMC_DispatchClassRqst();
 210:Generated_Source\PSoC4/USBTMC_std.c ****                 }
 211:Generated_Source\PSoC4/USBTMC_std.c ****                 break;
 212:Generated_Source\PSoC4/USBTMC_std.c ****                 
ARM GAS  C:\Users\essele\AppData\Local\Temp\ccFLOaGJ.s 			page 6


 213:Generated_Source\PSoC4/USBTMC_std.c ****             case USBTMC_GET_STATUS:
 214:Generated_Source\PSoC4/USBTMC_std.c ****                 switch (bmRequestType & USBTMC_RQST_RCPT_MASK)
 215:Generated_Source\PSoC4/USBTMC_std.c ****                 {
 216:Generated_Source\PSoC4/USBTMC_std.c ****                     case USBTMC_RQST_RCPT_EP:
 217:Generated_Source\PSoC4/USBTMC_std.c ****                         USBTMC_currentTD.count = USBTMC_EP_STATUS_LENGTH;
 218:Generated_Source\PSoC4/USBTMC_std.c ****                         USBTMC_tBuffer[0u]     = USBTMC_EP[USBTMC_wIndexLoReg & USBTMC_DIR_UNUSED].
 219:Generated_Source\PSoC4/USBTMC_std.c ****                         USBTMC_tBuffer[1u]     = 0u;
 220:Generated_Source\PSoC4/USBTMC_std.c ****                         USBTMC_currentTD.pData = &USBTMC_tBuffer[0u];
 221:Generated_Source\PSoC4/USBTMC_std.c ****                         
 222:Generated_Source\PSoC4/USBTMC_std.c ****                         requestHandled  = USBTMC_InitControlRead();
 223:Generated_Source\PSoC4/USBTMC_std.c ****                         break;
 224:Generated_Source\PSoC4/USBTMC_std.c ****                     case USBTMC_RQST_RCPT_DEV:
 225:Generated_Source\PSoC4/USBTMC_std.c ****                         USBTMC_currentTD.count = USBTMC_DEVICE_STATUS_LENGTH;
 226:Generated_Source\PSoC4/USBTMC_std.c ****                         USBTMC_tBuffer[0u]     = USBTMC_deviceStatus;
 227:Generated_Source\PSoC4/USBTMC_std.c ****                         USBTMC_tBuffer[1u]     = 0u;
 228:Generated_Source\PSoC4/USBTMC_std.c ****                         USBTMC_currentTD.pData = &USBTMC_tBuffer[0u];
 229:Generated_Source\PSoC4/USBTMC_std.c ****                         
 230:Generated_Source\PSoC4/USBTMC_std.c ****                         requestHandled  = USBTMC_InitControlRead();
 231:Generated_Source\PSoC4/USBTMC_std.c ****                         break;
 232:Generated_Source\PSoC4/USBTMC_std.c ****                     default:    /* requestHandled is initialized as FALSE by default */
 233:Generated_Source\PSoC4/USBTMC_std.c ****                         break;
 234:Generated_Source\PSoC4/USBTMC_std.c ****                 }
 235:Generated_Source\PSoC4/USBTMC_std.c ****                 break;
 236:Generated_Source\PSoC4/USBTMC_std.c ****                 
 237:Generated_Source\PSoC4/USBTMC_std.c ****             case USBTMC_GET_CONFIGURATION:
 238:Generated_Source\PSoC4/USBTMC_std.c ****                 USBTMC_currentTD.count = 1u;
 239:Generated_Source\PSoC4/USBTMC_std.c ****                 USBTMC_currentTD.pData = (volatile uint8 *) &USBTMC_configuration;
 240:Generated_Source\PSoC4/USBTMC_std.c ****                 requestHandled  = USBTMC_InitControlRead();
 241:Generated_Source\PSoC4/USBTMC_std.c ****                 break;
 242:Generated_Source\PSoC4/USBTMC_std.c ****                 
 243:Generated_Source\PSoC4/USBTMC_std.c ****             case USBTMC_GET_INTERFACE:
 244:Generated_Source\PSoC4/USBTMC_std.c ****                 USBTMC_currentTD.count = 1u;
 245:Generated_Source\PSoC4/USBTMC_std.c ****                 USBTMC_currentTD.pData = (volatile uint8 *) &USBTMC_interfaceSetting[USBTMC_wIndexL
 246:Generated_Source\PSoC4/USBTMC_std.c ****                 requestHandled  = USBTMC_InitControlRead();
 247:Generated_Source\PSoC4/USBTMC_std.c ****                 break;
 248:Generated_Source\PSoC4/USBTMC_std.c ****                 
 249:Generated_Source\PSoC4/USBTMC_std.c ****             default: /* requestHandled is initialized as FALSE by default */
 250:Generated_Source\PSoC4/USBTMC_std.c ****                 break;
  74              		.loc 1 250 0
  75 0038 12E2     		b	.L24
  76              	.L5:
 107:Generated_Source\PSoC4/USBTMC_std.c ****         {
  77              		.loc 1 107 0
  78 003a 082B     		cmp	r3, #8
  79 003c 00D1     		bne	.LCB43
  80 003e D4E0     		b	.L7	@long jump
  81              	.LCB43:
  82 0040 0A2B     		cmp	r3, #10
  83 0042 00D1     		bne	.LCB45
  84 0044 DEE0     		b	.L8	@long jump
  85              	.LCB45:
  86              		.loc 1 250 0
  87 0046 0BE2     		b	.L24
  88              	.L4:
 110:Generated_Source\PSoC4/USBTMC_std.c ****                 {
  89              		.loc 1 110 0
  90 0048 C04B     		ldr	r3, .L66
ARM GAS  C:\Users\essele\AppData\Local\Temp\ccFLOaGJ.s 			page 7


  91 004a DB68     		ldr	r3, [r3, #12]
  92 004c 012B     		cmp	r3, #1
  93 004e 11D1     		bne	.L9
 112:Generated_Source\PSoC4/USBTMC_std.c ****                     USBTMC_currentTD.pData = (volatile uint8 *)pTmp->p_list;
  94              		.loc 1 112 0
  95 0050 FFF7FEFF 		bl	USBTMC_GetDeviceTablePtr
  96 0054 0300     		movs	r3, r0
  97 0056 3B61     		str	r3, [r7, #16]
 113:Generated_Source\PSoC4/USBTMC_std.c ****                     USBTMC_currentTD.count = USBTMC_DEVICE_DESCR_LENGTH;
  98              		.loc 1 113 0
  99 0058 3B69     		ldr	r3, [r7, #16]
 100 005a 5A68     		ldr	r2, [r3, #4]
 101 005c BC4B     		ldr	r3, .L66+4
 102 005e 5A60     		str	r2, [r3, #4]
 114:Generated_Source\PSoC4/USBTMC_std.c ****                     
 103              		.loc 1 114 0
 104 0060 BB4B     		ldr	r3, .L66+4
 105 0062 1222     		movs	r2, #18
 106 0064 1A80     		strh	r2, [r3]
 116:Generated_Source\PSoC4/USBTMC_std.c ****                 }
 107              		.loc 1 116 0
 108 0066 1F23     		movs	r3, #31
 109 0068 FC18     		adds	r4, r7, r3
 110 006a FFF7FEFF 		bl	USBTMC_InitControlRead
 111 006e 0300     		movs	r3, r0
 112 0070 2370     		strb	r3, [r4]
 211:Generated_Source\PSoC4/USBTMC_std.c ****                 
 113              		.loc 1 211 0
 114 0072 EEE1     		b	.L56
 115              	.L9:
 118:Generated_Source\PSoC4/USBTMC_std.c ****                 {
 116              		.loc 1 118 0
 117 0074 B54B     		ldr	r3, .L66
 118 0076 DB68     		ldr	r3, [r3, #12]
 119 0078 022B     		cmp	r3, #2
 120 007a 28D1     		bne	.L11
 120:Generated_Source\PSoC4/USBTMC_std.c ****                     
 121              		.loc 1 120 0
 122 007c B34B     		ldr	r3, .L66
 123 007e 9B68     		ldr	r3, [r3, #8]
 124 0080 DBB2     		uxtb	r3, r3
 125 0082 1800     		movs	r0, r3
 126 0084 FFF7FEFF 		bl	USBTMC_GetConfigTablePtr
 127 0088 0300     		movs	r3, r0
 128 008a 3B61     		str	r3, [r7, #16]
 123:Generated_Source\PSoC4/USBTMC_std.c ****                     {
 129              		.loc 1 123 0
 130 008c 3B69     		ldr	r3, [r7, #16]
 131 008e 002B     		cmp	r3, #0
 132 0090 00D1     		bne	.LCB86
 133 0092 DEE1     		b	.L56	@long jump
 134              	.LCB86:
 125:Generated_Source\PSoC4/USBTMC_std.c ****                         USBTMC_currentTD.count = (uint16)((uint16)(USBTMC_currentTD.pData)[USBTMC_C
 135              		.loc 1 125 0
 136 0094 3B69     		ldr	r3, [r7, #16]
 137 0096 5A68     		ldr	r2, [r3, #4]
 138 0098 AD4B     		ldr	r3, .L66+4
ARM GAS  C:\Users\essele\AppData\Local\Temp\ccFLOaGJ.s 			page 8


 139 009a 5A60     		str	r2, [r3, #4]
 126:Generated_Source\PSoC4/USBTMC_std.c ****                                                                             (USBTMC_currentTD.pData
 140              		.loc 1 126 0
 141 009c AC4B     		ldr	r3, .L66+4
 142 009e 5B68     		ldr	r3, [r3, #4]
 143 00a0 0333     		adds	r3, r3, #3
 144 00a2 1B78     		ldrb	r3, [r3]
 145 00a4 DBB2     		uxtb	r3, r3
 146 00a6 9BB2     		uxth	r3, r3
 147 00a8 1B02     		lsls	r3, r3, #8
 148 00aa 9AB2     		uxth	r2, r3
 127:Generated_Source\PSoC4/USBTMC_std.c ****                         requestHandled  = USBTMC_InitControlRead();
 149              		.loc 1 127 0
 150 00ac A84B     		ldr	r3, .L66+4
 151 00ae 5B68     		ldr	r3, [r3, #4]
 152 00b0 0233     		adds	r3, r3, #2
 153 00b2 1B78     		ldrb	r3, [r3]
 154 00b4 DBB2     		uxtb	r3, r3
 126:Generated_Source\PSoC4/USBTMC_std.c ****                                                                             (USBTMC_currentTD.pData
 155              		.loc 1 126 0
 156 00b6 9BB2     		uxth	r3, r3
 157 00b8 1343     		orrs	r3, r2
 158 00ba 9AB2     		uxth	r2, r3
 159 00bc A44B     		ldr	r3, .L66+4
 160 00be 1A80     		strh	r2, [r3]
 128:Generated_Source\PSoC4/USBTMC_std.c ****                     }
 161              		.loc 1 128 0
 162 00c0 1F23     		movs	r3, #31
 163 00c2 FC18     		adds	r4, r7, r3
 164 00c4 FFF7FEFF 		bl	USBTMC_InitControlRead
 165 00c8 0300     		movs	r3, r0
 166 00ca 2370     		strb	r3, [r4]
 211:Generated_Source\PSoC4/USBTMC_std.c ****                 
 167              		.loc 1 211 0
 168 00cc C1E1     		b	.L56
 169              	.L11:
 149:Generated_Source\PSoC4/USBTMC_std.c ****                 {
 170              		.loc 1 149 0
 171 00ce 9F4B     		ldr	r3, .L66
 172 00d0 DB68     		ldr	r3, [r3, #12]
 173 00d2 032B     		cmp	r3, #3
 174 00d4 46D1     		bne	.L13
 153:Generated_Source\PSoC4/USBTMC_std.c ****                     pStr = (volatile uint8 *) &USBTMC_STRING_DESCRIPTORS[0u];
 175              		.loc 1 153 0
 176 00d6 1723     		movs	r3, #23
 177 00d8 FB18     		adds	r3, r7, r3
 178 00da 0022     		movs	r2, #0
 179 00dc 1A70     		strb	r2, [r3]
 154:Generated_Source\PSoC4/USBTMC_std.c ****                     
 180              		.loc 1 154 0
 181 00de 9D4B     		ldr	r3, .L66+8
 182 00e0 BB61     		str	r3, [r7, #24]
 156:Generated_Source\PSoC4/USBTMC_std.c ****                     {
 183              		.loc 1 156 0
 184 00e2 11E0     		b	.L14
 185              	.L16:
 159:Generated_Source\PSoC4/USBTMC_std.c ****                         /* Move to next string descriptor */
ARM GAS  C:\Users\essele\AppData\Local\Temp\ccFLOaGJ.s 			page 9


 186              		.loc 1 159 0
 187 00e4 0B23     		movs	r3, #11
 188 00e6 FB18     		adds	r3, r7, r3
 189 00e8 BA69     		ldr	r2, [r7, #24]
 190 00ea 1278     		ldrb	r2, [r2]
 191 00ec 1A70     		strb	r2, [r3]
 161:Generated_Source\PSoC4/USBTMC_std.c ****                         nStr++;
 192              		.loc 1 161 0
 193 00ee 0B23     		movs	r3, #11
 194 00f0 FB18     		adds	r3, r7, r3
 195 00f2 1B78     		ldrb	r3, [r3]
 196 00f4 BA69     		ldr	r2, [r7, #24]
 197 00f6 D318     		adds	r3, r2, r3
 198 00f8 BB61     		str	r3, [r7, #24]
 162:Generated_Source\PSoC4/USBTMC_std.c ****                     }
 199              		.loc 1 162 0
 200 00fa 1723     		movs	r3, #23
 201 00fc FB18     		adds	r3, r7, r3
 202 00fe 1A78     		ldrb	r2, [r3]
 203 0100 1723     		movs	r3, #23
 204 0102 FB18     		adds	r3, r7, r3
 205 0104 0132     		adds	r2, r2, #1
 206 0106 1A70     		strb	r2, [r3]
 207              	.L14:
 156:Generated_Source\PSoC4/USBTMC_std.c ****                     {
 208              		.loc 1 156 0
 209 0108 904B     		ldr	r3, .L66
 210 010a 9A68     		ldr	r2, [r3, #8]
 211 010c 1723     		movs	r3, #23
 212 010e FB18     		adds	r3, r7, r3
 213 0110 1B78     		ldrb	r3, [r3]
 214 0112 9A42     		cmp	r2, r3
 215 0114 04D9     		bls	.L15
 156:Generated_Source\PSoC4/USBTMC_std.c ****                     {
 216              		.loc 1 156 0 is_stmt 0 discriminator 1
 217 0116 BB69     		ldr	r3, [r7, #24]
 218 0118 1B78     		ldrb	r3, [r3]
 219 011a DBB2     		uxtb	r3, r3
 220 011c 002B     		cmp	r3, #0
 221 011e E1D1     		bne	.L16
 222              	.L15:
 176:Generated_Source\PSoC4/USBTMC_std.c ****                         (USBTMC_wValueLoReg == USBTMC_DEVICE0_DESCR[USBTMC_DEVICE_DESCR_SN_SHIFT]))
 223              		.loc 1 176 0 is_stmt 1
 224 0120 8A4B     		ldr	r3, .L66
 225 0122 9B68     		ldr	r3, [r3, #8]
 226 0124 002B     		cmp	r3, #0
 227 0126 07D0     		beq	.L17
 177:Generated_Source\PSoC4/USBTMC_std.c ****                     {
 228              		.loc 1 177 0 discriminator 1
 229 0128 884B     		ldr	r3, .L66
 230 012a 9B68     		ldr	r3, [r3, #8]
 231 012c 8A4A     		ldr	r2, .L66+12
 232 012e 127C     		ldrb	r2, [r2, #16]
 176:Generated_Source\PSoC4/USBTMC_std.c ****                         (USBTMC_wValueLoReg == USBTMC_DEVICE0_DESCR[USBTMC_DEVICE_DESCR_SN_SHIFT]))
 233              		.loc 1 176 0 discriminator 1
 234 0130 9342     		cmp	r3, r2
 235 0132 01D1     		bne	.L17
ARM GAS  C:\Users\essele\AppData\Local\Temp\ccFLOaGJ.s 			page 10


 194:Generated_Source\PSoC4/USBTMC_std.c ****                     #endif  /* (USBTMC_ENABLE_IDSN_STRING) */
 236              		.loc 1 194 0
 237 0134 894B     		ldr	r3, .L66+16
 238 0136 BB61     		str	r3, [r7, #24]
 239              	.L17:
 199:Generated_Source\PSoC4/USBTMC_std.c ****                     {
 240              		.loc 1 199 0
 241 0138 BB69     		ldr	r3, [r7, #24]
 242 013a 1B78     		ldrb	r3, [r3]
 243 013c DBB2     		uxtb	r3, r3
 244 013e 002B     		cmp	r3, #0
 245 0140 00D1     		bne	.LCB183
 246 0142 86E1     		b	.L56	@long jump
 247              	.LCB183:
 201:Generated_Source\PSoC4/USBTMC_std.c ****                         USBTMC_currentTD.pData = pStr;
 248              		.loc 1 201 0
 249 0144 BB69     		ldr	r3, [r7, #24]
 250 0146 1B78     		ldrb	r3, [r3]
 251 0148 DBB2     		uxtb	r3, r3
 252 014a 9AB2     		uxth	r2, r3
 253 014c 804B     		ldr	r3, .L66+4
 254 014e 1A80     		strh	r2, [r3]
 202:Generated_Source\PSoC4/USBTMC_std.c ****                         requestHandled  = USBTMC_InitControlRead();
 255              		.loc 1 202 0
 256 0150 7F4B     		ldr	r3, .L66+4
 257 0152 BA69     		ldr	r2, [r7, #24]
 258 0154 5A60     		str	r2, [r3, #4]
 203:Generated_Source\PSoC4/USBTMC_std.c ****                     }
 259              		.loc 1 203 0
 260 0156 1F23     		movs	r3, #31
 261 0158 FC18     		adds	r4, r7, r3
 262 015a FFF7FEFF 		bl	USBTMC_InitControlRead
 263 015e 0300     		movs	r3, r0
 264 0160 2370     		strb	r3, [r4]
 211:Generated_Source\PSoC4/USBTMC_std.c ****                 
 265              		.loc 1 211 0
 266 0162 76E1     		b	.L56
 267              	.L13:
 209:Generated_Source\PSoC4/USBTMC_std.c ****                 }
 268              		.loc 1 209 0
 269 0164 1F23     		movs	r3, #31
 270 0166 FC18     		adds	r4, r7, r3
 271 0168 FFF7FEFF 		bl	USBTMC_DispatchClassRqst
 272 016c 0300     		movs	r3, r0
 273 016e 2370     		strb	r3, [r4]
 211:Generated_Source\PSoC4/USBTMC_std.c ****                 
 274              		.loc 1 211 0
 275 0170 6FE1     		b	.L56
 276              	.L6:
 214:Generated_Source\PSoC4/USBTMC_std.c ****                 {
 277              		.loc 1 214 0
 278 0172 FB68     		ldr	r3, [r7, #12]
 279 0174 0322     		movs	r2, #3
 280 0176 1340     		ands	r3, r2
 281 0178 21D0     		beq	.L21
 282 017a 022B     		cmp	r3, #2
 283 017c 00D0     		beq	.L22
ARM GAS  C:\Users\essele\AppData\Local\Temp\ccFLOaGJ.s 			page 11


 233:Generated_Source\PSoC4/USBTMC_std.c ****                 }
 284              		.loc 1 233 0
 285 017e 33E0     		b	.L23
 286              	.L22:
 217:Generated_Source\PSoC4/USBTMC_std.c ****                         USBTMC_tBuffer[0u]     = USBTMC_EP[USBTMC_wIndexLoReg & USBTMC_DIR_UNUSED].
 287              		.loc 1 217 0
 288 0180 734B     		ldr	r3, .L66+4
 289 0182 0222     		movs	r2, #2
 290 0184 1A80     		strh	r2, [r3]
 218:Generated_Source\PSoC4/USBTMC_std.c ****                         USBTMC_tBuffer[1u]     = 0u;
 291              		.loc 1 218 0
 292 0186 714B     		ldr	r3, .L66
 293 0188 1B69     		ldr	r3, [r3, #16]
 294 018a 7F22     		movs	r2, #127
 295 018c 1A40     		ands	r2, r3
 296 018e 7449     		ldr	r1, .L66+20
 297 0190 1300     		movs	r3, r2
 298 0192 5B00     		lsls	r3, r3, #1
 299 0194 9B18     		adds	r3, r3, r2
 300 0196 9B00     		lsls	r3, r3, #2
 301 0198 CB18     		adds	r3, r1, r3
 302 019a 0233     		adds	r3, r3, #2
 303 019c 1B78     		ldrb	r3, [r3]
 304 019e DAB2     		uxtb	r2, r3
 305 01a0 704B     		ldr	r3, .L66+24
 306 01a2 1A70     		strb	r2, [r3]
 219:Generated_Source\PSoC4/USBTMC_std.c ****                         USBTMC_currentTD.pData = &USBTMC_tBuffer[0u];
 307              		.loc 1 219 0
 308 01a4 6F4B     		ldr	r3, .L66+24
 309 01a6 0022     		movs	r2, #0
 310 01a8 5A70     		strb	r2, [r3, #1]
 220:Generated_Source\PSoC4/USBTMC_std.c ****                         
 311              		.loc 1 220 0
 312 01aa 694B     		ldr	r3, .L66+4
 313 01ac 6D4A     		ldr	r2, .L66+24
 314 01ae 5A60     		str	r2, [r3, #4]
 222:Generated_Source\PSoC4/USBTMC_std.c ****                         break;
 315              		.loc 1 222 0
 316 01b0 1F23     		movs	r3, #31
 317 01b2 FC18     		adds	r4, r7, r3
 318 01b4 FFF7FEFF 		bl	USBTMC_InitControlRead
 319 01b8 0300     		movs	r3, r0
 320 01ba 2370     		strb	r3, [r4]
 223:Generated_Source\PSoC4/USBTMC_std.c ****                     case USBTMC_RQST_RCPT_DEV:
 321              		.loc 1 223 0
 322 01bc 14E0     		b	.L23
 323              	.L21:
 225:Generated_Source\PSoC4/USBTMC_std.c ****                         USBTMC_tBuffer[0u]     = USBTMC_deviceStatus;
 324              		.loc 1 225 0
 325 01be 644B     		ldr	r3, .L66+4
 326 01c0 0222     		movs	r2, #2
 327 01c2 1A80     		strh	r2, [r3]
 226:Generated_Source\PSoC4/USBTMC_std.c ****                         USBTMC_tBuffer[1u]     = 0u;
 328              		.loc 1 226 0
 329 01c4 684B     		ldr	r3, .L66+28
 330 01c6 1B78     		ldrb	r3, [r3]
 331 01c8 DAB2     		uxtb	r2, r3
ARM GAS  C:\Users\essele\AppData\Local\Temp\ccFLOaGJ.s 			page 12


 332 01ca 664B     		ldr	r3, .L66+24
 333 01cc 1A70     		strb	r2, [r3]
 227:Generated_Source\PSoC4/USBTMC_std.c ****                         USBTMC_currentTD.pData = &USBTMC_tBuffer[0u];
 334              		.loc 1 227 0
 335 01ce 654B     		ldr	r3, .L66+24
 336 01d0 0022     		movs	r2, #0
 337 01d2 5A70     		strb	r2, [r3, #1]
 228:Generated_Source\PSoC4/USBTMC_std.c ****                         
 338              		.loc 1 228 0
 339 01d4 5E4B     		ldr	r3, .L66+4
 340 01d6 634A     		ldr	r2, .L66+24
 341 01d8 5A60     		str	r2, [r3, #4]
 230:Generated_Source\PSoC4/USBTMC_std.c ****                         break;
 342              		.loc 1 230 0
 343 01da 1F23     		movs	r3, #31
 344 01dc FC18     		adds	r4, r7, r3
 345 01de FFF7FEFF 		bl	USBTMC_InitControlRead
 346 01e2 0300     		movs	r3, r0
 347 01e4 2370     		strb	r3, [r4]
 231:Generated_Source\PSoC4/USBTMC_std.c ****                     default:    /* requestHandled is initialized as FALSE by default */
 348              		.loc 1 231 0
 349 01e6 C046     		nop
 350              	.L23:
 235:Generated_Source\PSoC4/USBTMC_std.c ****                 
 351              		.loc 1 235 0 discriminator 4
 352 01e8 3AE1     		b	.L24
 353              	.L7:
 238:Generated_Source\PSoC4/USBTMC_std.c ****                 USBTMC_currentTD.pData = (volatile uint8 *) &USBTMC_configuration;
 354              		.loc 1 238 0
 355 01ea 594B     		ldr	r3, .L66+4
 356 01ec 0122     		movs	r2, #1
 357 01ee 1A80     		strh	r2, [r3]
 239:Generated_Source\PSoC4/USBTMC_std.c ****                 requestHandled  = USBTMC_InitControlRead();
 358              		.loc 1 239 0
 359 01f0 574B     		ldr	r3, .L66+4
 360 01f2 5E4A     		ldr	r2, .L66+32
 361 01f4 5A60     		str	r2, [r3, #4]
 240:Generated_Source\PSoC4/USBTMC_std.c ****                 break;
 362              		.loc 1 240 0
 363 01f6 1F23     		movs	r3, #31
 364 01f8 FC18     		adds	r4, r7, r3
 365 01fa FFF7FEFF 		bl	USBTMC_InitControlRead
 366 01fe 0300     		movs	r3, r0
 367 0200 2370     		strb	r3, [r4]
 241:Generated_Source\PSoC4/USBTMC_std.c ****                 
 368              		.loc 1 241 0
 369 0202 2DE1     		b	.L24
 370              	.L8:
 244:Generated_Source\PSoC4/USBTMC_std.c ****                 USBTMC_currentTD.pData = (volatile uint8 *) &USBTMC_interfaceSetting[USBTMC_wIndexL
 371              		.loc 1 244 0
 372 0204 524B     		ldr	r3, .L66+4
 373 0206 0122     		movs	r2, #1
 374 0208 1A80     		strh	r2, [r3]
 245:Generated_Source\PSoC4/USBTMC_std.c ****                 requestHandled  = USBTMC_InitControlRead();
 375              		.loc 1 245 0
 376 020a 504B     		ldr	r3, .L66
 377 020c 1A69     		ldr	r2, [r3, #16]
ARM GAS  C:\Users\essele\AppData\Local\Temp\ccFLOaGJ.s 			page 13


 378 020e 584B     		ldr	r3, .L66+36
 379 0210 D218     		adds	r2, r2, r3
 380 0212 4F4B     		ldr	r3, .L66+4
 381 0214 5A60     		str	r2, [r3, #4]
 246:Generated_Source\PSoC4/USBTMC_std.c ****                 break;
 382              		.loc 1 246 0
 383 0216 1F23     		movs	r3, #31
 384 0218 FC18     		adds	r4, r7, r3
 385 021a FFF7FEFF 		bl	USBTMC_InitControlRead
 386 021e 0300     		movs	r3, r0
 387 0220 2370     		strb	r3, [r4]
 247:Generated_Source\PSoC4/USBTMC_std.c ****                 
 388              		.loc 1 247 0
 389 0222 1DE1     		b	.L24
 390              	.L2:
 251:Generated_Source\PSoC4/USBTMC_std.c ****         }
 252:Generated_Source\PSoC4/USBTMC_std.c ****     }
 253:Generated_Source\PSoC4/USBTMC_std.c ****     else
 254:Generated_Source\PSoC4/USBTMC_std.c ****     {
 255:Generated_Source\PSoC4/USBTMC_std.c ****         /* Control Write */
 256:Generated_Source\PSoC4/USBTMC_std.c ****         switch (USBTMC_bRequestReg)
 391              		.loc 1 256 0
 392 0224 494B     		ldr	r3, .L66
 393 0226 5B68     		ldr	r3, [r3, #4]
 394 0228 0B2B     		cmp	r3, #11
 395 022a 00D9     		bls	.LCB317
 396 022c 13E1     		b	.L57	@long jump
 397              	.LCB317:
 398 022e 9A00     		lsls	r2, r3, #2
 399 0230 504B     		ldr	r3, .L66+40
 400 0232 D318     		adds	r3, r2, r3
 401 0234 1B68     		ldr	r3, [r3]
 402 0236 9F46     		mov	pc, r3
 403              		.section	.rodata
 404              		.align	2
 405              	.L27:
 406 0000 56040000 		.word	.L57
 407 0004 FC020000 		.word	.L26
 408 0008 56040000 		.word	.L57
 409 000c C6030000 		.word	.L28
 410 0010 56040000 		.word	.L57
 411 0014 38020000 		.word	.L29
 412 0018 56040000 		.word	.L57
 413 001c 56040000 		.word	.L57
 414 0020 56040000 		.word	.L57
 415 0024 50020000 		.word	.L30
 416 0028 56040000 		.word	.L57
 417 002c B2020000 		.word	.L31
 418              		.section	.text.USBTMC_HandleStandardRqst
 419              	.L29:
 257:Generated_Source\PSoC4/USBTMC_std.c ****         {
 258:Generated_Source\PSoC4/USBTMC_std.c ****             case USBTMC_SET_ADDRESS:
 259:Generated_Source\PSoC4/USBTMC_std.c ****                 /* Store address to be set in USBTMC_NoDataControlStatusStage(). */
 260:Generated_Source\PSoC4/USBTMC_std.c ****                 USBTMC_deviceAddress = (uint8) USBTMC_wValueLoReg;
 420              		.loc 1 260 0
 421 0238 444B     		ldr	r3, .L66
 422 023a 9B68     		ldr	r3, [r3, #8]
ARM GAS  C:\Users\essele\AppData\Local\Temp\ccFLOaGJ.s 			page 14


 423 023c DAB2     		uxtb	r2, r3
 424 023e 4E4B     		ldr	r3, .L66+44
 425 0240 1A70     		strb	r2, [r3]
 261:Generated_Source\PSoC4/USBTMC_std.c ****                 requestHandled = USBTMC_InitNoDataControlTransfer();
 426              		.loc 1 261 0
 427 0242 1F23     		movs	r3, #31
 428 0244 FC18     		adds	r4, r7, r3
 429 0246 FFF7FEFF 		bl	USBTMC_InitNoDataControlTransfer
 430 024a 0300     		movs	r3, r0
 431 024c 2370     		strb	r3, [r4]
 262:Generated_Source\PSoC4/USBTMC_std.c ****                 break;
 432              		.loc 1 262 0
 433 024e 07E1     		b	.L24
 434              	.L30:
 263:Generated_Source\PSoC4/USBTMC_std.c ****                 
 264:Generated_Source\PSoC4/USBTMC_std.c ****             case USBTMC_SET_CONFIGURATION:
 265:Generated_Source\PSoC4/USBTMC_std.c ****                 configurationN = USBTMC_wValueLoReg;
 435              		.loc 1 265 0
 436 0250 3E4B     		ldr	r3, .L66
 437 0252 9B68     		ldr	r3, [r3, #8]
 438 0254 7B60     		str	r3, [r7, #4]
 266:Generated_Source\PSoC4/USBTMC_std.c ****                 
 267:Generated_Source\PSoC4/USBTMC_std.c ****                 /* Verify that configuration descriptor exists */
 268:Generated_Source\PSoC4/USBTMC_std.c ****                 if(configurationN > 0u)
 439              		.loc 1 268 0
 440 0256 7B68     		ldr	r3, [r7, #4]
 441 0258 002B     		cmp	r3, #0
 442 025a 08D0     		beq	.L32
 269:Generated_Source\PSoC4/USBTMC_std.c ****                 {
 270:Generated_Source\PSoC4/USBTMC_std.c ****                     pTmp = USBTMC_GetConfigTablePtr((uint8) configurationN - 1u);
 443              		.loc 1 270 0
 444 025c 7B68     		ldr	r3, [r7, #4]
 445 025e DBB2     		uxtb	r3, r3
 446 0260 013B     		subs	r3, r3, #1
 447 0262 DBB2     		uxtb	r3, r3
 448 0264 1800     		movs	r0, r3
 449 0266 FFF7FEFF 		bl	USBTMC_GetConfigTablePtr
 450 026a 0300     		movs	r3, r0
 451 026c 3B61     		str	r3, [r7, #16]
 452              	.L32:
 271:Generated_Source\PSoC4/USBTMC_std.c ****                 }
 272:Generated_Source\PSoC4/USBTMC_std.c ****                 
 273:Generated_Source\PSoC4/USBTMC_std.c ****                 /* Responds with a Request Error when configuration number is invalid */
 274:Generated_Source\PSoC4/USBTMC_std.c ****                 if (((configurationN > 0u) && (pTmp != NULL)) || (configurationN == 0u))
 453              		.loc 1 274 0
 454 026e 7B68     		ldr	r3, [r7, #4]
 455 0270 002B     		cmp	r3, #0
 456 0272 02D0     		beq	.L33
 457              		.loc 1 274 0 is_stmt 0 discriminator 1
 458 0274 3B69     		ldr	r3, [r7, #16]
 459 0276 002B     		cmp	r3, #0
 460 0278 03D1     		bne	.L34
 461              	.L33:
 462              		.loc 1 274 0 discriminator 3
 463 027a 7B68     		ldr	r3, [r7, #4]
 464 027c 002B     		cmp	r3, #0
 465 027e 00D0     		beq	.LCB368
ARM GAS  C:\Users\essele\AppData\Local\Temp\ccFLOaGJ.s 			page 15


 466 0280 EBE0     		b	.L58	@long jump
 467              	.LCB368:
 468              	.L34:
 275:Generated_Source\PSoC4/USBTMC_std.c ****                 {
 276:Generated_Source\PSoC4/USBTMC_std.c ****                     /* Set new configuration if it has been changed */
 277:Generated_Source\PSoC4/USBTMC_std.c ****                     if(configurationN != USBTMC_configuration)
 469              		.loc 1 277 0 is_stmt 1
 470 0282 3A4B     		ldr	r3, .L66+32
 471 0284 1B78     		ldrb	r3, [r3]
 472 0286 DBB2     		uxtb	r3, r3
 473 0288 1A00     		movs	r2, r3
 474 028a 7B68     		ldr	r3, [r7, #4]
 475 028c 9A42     		cmp	r2, r3
 476 028e 09D0     		beq	.L36
 278:Generated_Source\PSoC4/USBTMC_std.c ****                     {
 279:Generated_Source\PSoC4/USBTMC_std.c ****                         USBTMC_configuration = (uint8) configurationN;
 477              		.loc 1 279 0
 478 0290 7B68     		ldr	r3, [r7, #4]
 479 0292 DAB2     		uxtb	r2, r3
 480 0294 354B     		ldr	r3, .L66+32
 481 0296 1A70     		strb	r2, [r3]
 280:Generated_Source\PSoC4/USBTMC_std.c ****                         USBTMC_configurationChanged = USBTMC_TRUE;
 482              		.loc 1 280 0
 483 0298 384B     		ldr	r3, .L66+48
 484 029a 0122     		movs	r2, #1
 485 029c 1A70     		strb	r2, [r3]
 281:Generated_Source\PSoC4/USBTMC_std.c ****                         USBTMC_Config(USBTMC_TRUE);
 486              		.loc 1 281 0
 487 029e 0120     		movs	r0, #1
 488 02a0 FFF7FEFF 		bl	USBTMC_Config
 489              	.L36:
 282:Generated_Source\PSoC4/USBTMC_std.c ****                     }
 283:Generated_Source\PSoC4/USBTMC_std.c ****                     requestHandled = USBTMC_InitNoDataControlTransfer();
 490              		.loc 1 283 0
 491 02a4 1F23     		movs	r3, #31
 492 02a6 FC18     		adds	r4, r7, r3
 493 02a8 FFF7FEFF 		bl	USBTMC_InitNoDataControlTransfer
 494 02ac 0300     		movs	r3, r0
 495 02ae 2370     		strb	r3, [r4]
 284:Generated_Source\PSoC4/USBTMC_std.c ****                 }
 285:Generated_Source\PSoC4/USBTMC_std.c ****                 break;
 496              		.loc 1 285 0
 497 02b0 D3E0     		b	.L58
 498              	.L31:
 286:Generated_Source\PSoC4/USBTMC_std.c ****                 
 287:Generated_Source\PSoC4/USBTMC_std.c ****             case USBTMC_SET_INTERFACE:
 288:Generated_Source\PSoC4/USBTMC_std.c ****                 if (0u != USBTMC_ValidateAlternateSetting())
 499              		.loc 1 288 0
 500 02b2 FFF7FEFF 		bl	USBTMC_ValidateAlternateSetting
 501 02b6 031E     		subs	r3, r0, #0
 502 02b8 00D1     		bne	.LCB400
 503 02ba D0E0     		b	.L59	@long jump
 504              	.LCB400:
 289:Generated_Source\PSoC4/USBTMC_std.c ****                 {
 290:Generated_Source\PSoC4/USBTMC_std.c ****                     /* Get interface number from the request. */
 291:Generated_Source\PSoC4/USBTMC_std.c ****                     interfaceNumber = USBTMC_wIndexLoReg;
 505              		.loc 1 291 0
ARM GAS  C:\Users\essele\AppData\Local\Temp\ccFLOaGJ.s 			page 16


 506 02bc 234B     		ldr	r3, .L66
 507 02be 1B69     		ldr	r3, [r3, #16]
 508 02c0 3B60     		str	r3, [r7]
 292:Generated_Source\PSoC4/USBTMC_std.c ****                     USBTMC_interfaceNumber = (uint8) USBTMC_wIndexLoReg;
 509              		.loc 1 292 0
 510 02c2 224B     		ldr	r3, .L66
 511 02c4 1B69     		ldr	r3, [r3, #16]
 512 02c6 DAB2     		uxtb	r2, r3
 513 02c8 2D4B     		ldr	r3, .L66+52
 514 02ca 1A70     		strb	r2, [r3]
 293:Generated_Source\PSoC4/USBTMC_std.c ****                      
 294:Generated_Source\PSoC4/USBTMC_std.c ****                     /* Check if alternate settings is changed for interface. */
 295:Generated_Source\PSoC4/USBTMC_std.c ****                     if (USBTMC_interfaceSettingLast[interfaceNumber] != USBTMC_interfaceSetting[int
 515              		.loc 1 295 0
 516 02cc 2D4A     		ldr	r2, .L66+56
 517 02ce 3B68     		ldr	r3, [r7]
 518 02d0 D318     		adds	r3, r2, r3
 519 02d2 1B78     		ldrb	r3, [r3]
 520 02d4 DAB2     		uxtb	r2, r3
 521 02d6 2649     		ldr	r1, .L66+36
 522 02d8 3B68     		ldr	r3, [r7]
 523 02da CB18     		adds	r3, r1, r3
 524 02dc 1B78     		ldrb	r3, [r3]
 525 02de DBB2     		uxtb	r3, r3
 526 02e0 9A42     		cmp	r2, r3
 527 02e2 04D0     		beq	.L38
 296:Generated_Source\PSoC4/USBTMC_std.c ****                     {
 297:Generated_Source\PSoC4/USBTMC_std.c ****                         USBTMC_configurationChanged = USBTMC_TRUE;
 528              		.loc 1 297 0
 529 02e4 254B     		ldr	r3, .L66+48
 530 02e6 0122     		movs	r2, #1
 531 02e8 1A70     		strb	r2, [r3]
 298:Generated_Source\PSoC4/USBTMC_std.c ****                     
 299:Generated_Source\PSoC4/USBTMC_std.c ****                         /* Change alternate setting for the endpoints. */
 300:Generated_Source\PSoC4/USBTMC_std.c ****                     #if (USBTMC_EP_MANAGEMENT_MANUAL && USBTMC_EP_ALLOC_DYNAMIC)
 301:Generated_Source\PSoC4/USBTMC_std.c ****                         USBTMC_Config(USBTMC_FALSE);
 302:Generated_Source\PSoC4/USBTMC_std.c ****                     #else
 303:Generated_Source\PSoC4/USBTMC_std.c ****                         USBTMC_ConfigAltChanged();
 532              		.loc 1 303 0
 533 02ea FFF7FEFF 		bl	USBTMC_ConfigAltChanged
 534              	.L38:
 304:Generated_Source\PSoC4/USBTMC_std.c ****                     #endif /* (USBTMC_EP_MANAGEMENT_MANUAL && USBTMC_EP_ALLOC_DYNAMIC) */
 305:Generated_Source\PSoC4/USBTMC_std.c ****                     }
 306:Generated_Source\PSoC4/USBTMC_std.c ****                     
 307:Generated_Source\PSoC4/USBTMC_std.c ****                     requestHandled = USBTMC_InitNoDataControlTransfer();
 535              		.loc 1 307 0
 536 02ee 1F23     		movs	r3, #31
 537 02f0 FC18     		adds	r4, r7, r3
 538 02f2 FFF7FEFF 		bl	USBTMC_InitNoDataControlTransfer
 539 02f6 0300     		movs	r3, r0
 540 02f8 2370     		strb	r3, [r4]
 308:Generated_Source\PSoC4/USBTMC_std.c ****                 }
 309:Generated_Source\PSoC4/USBTMC_std.c ****                 break;
 541              		.loc 1 309 0
 542 02fa B0E0     		b	.L59
 543              	.L26:
 310:Generated_Source\PSoC4/USBTMC_std.c ****                 
ARM GAS  C:\Users\essele\AppData\Local\Temp\ccFLOaGJ.s 			page 17


 311:Generated_Source\PSoC4/USBTMC_std.c ****             case USBTMC_CLEAR_FEATURE:
 312:Generated_Source\PSoC4/USBTMC_std.c ****                 switch (bmRequestType & USBTMC_RQST_RCPT_MASK)
 544              		.loc 1 312 0
 545 02fc FB68     		ldr	r3, [r7, #12]
 546 02fe 0322     		movs	r2, #3
 547 0300 1340     		ands	r3, r2
 548 0302 012B     		cmp	r3, #1
 549 0304 40D0     		beq	.L40
 550 0306 0DD3     		bcc	.L41
 551 0308 022B     		cmp	r3, #2
 552 030a 00D0     		beq	.L42
 313:Generated_Source\PSoC4/USBTMC_std.c ****                 {
 314:Generated_Source\PSoC4/USBTMC_std.c ****                     case USBTMC_RQST_RCPT_EP:
 315:Generated_Source\PSoC4/USBTMC_std.c ****                         if (USBTMC_wValueLoReg == USBTMC_ENDPOINT_HALT)
 316:Generated_Source\PSoC4/USBTMC_std.c ****                         {
 317:Generated_Source\PSoC4/USBTMC_std.c ****                             requestHandled = USBTMC_ClearEndpointHalt();
 318:Generated_Source\PSoC4/USBTMC_std.c ****                         }
 319:Generated_Source\PSoC4/USBTMC_std.c ****                         break;
 320:Generated_Source\PSoC4/USBTMC_std.c ****                     case USBTMC_RQST_RCPT_DEV:
 321:Generated_Source\PSoC4/USBTMC_std.c ****                         /* Clear device REMOTE_WAKEUP */
 322:Generated_Source\PSoC4/USBTMC_std.c ****                         if (USBTMC_wValueLoReg == USBTMC_DEVICE_REMOTE_WAKEUP)
 323:Generated_Source\PSoC4/USBTMC_std.c ****                         {
 324:Generated_Source\PSoC4/USBTMC_std.c ****                             USBTMC_deviceStatus &= (uint8)~USBTMC_DEVICE_STATUS_REMOTE_WAKEUP;
 325:Generated_Source\PSoC4/USBTMC_std.c ****                             requestHandled = USBTMC_InitNoDataControlTransfer();
 326:Generated_Source\PSoC4/USBTMC_std.c ****                         }
 327:Generated_Source\PSoC4/USBTMC_std.c ****                         break;
 328:Generated_Source\PSoC4/USBTMC_std.c ****                     case USBTMC_RQST_RCPT_IFC:
 329:Generated_Source\PSoC4/USBTMC_std.c ****                         /* Validate interfaceNumber */
 330:Generated_Source\PSoC4/USBTMC_std.c ****                         if (USBTMC_wIndexLoReg < USBTMC_MAX_INTERFACES_NUMBER)
 331:Generated_Source\PSoC4/USBTMC_std.c ****                         {
 332:Generated_Source\PSoC4/USBTMC_std.c ****                             USBTMC_interfaceStatus[USBTMC_wIndexLoReg] &= (uint8) ~USBTMC_wValueLoR
 333:Generated_Source\PSoC4/USBTMC_std.c ****                             requestHandled = USBTMC_InitNoDataControlTransfer();
 334:Generated_Source\PSoC4/USBTMC_std.c ****                         }
 335:Generated_Source\PSoC4/USBTMC_std.c ****                         break;
 336:Generated_Source\PSoC4/USBTMC_std.c ****                     default:    /* requestHandled is initialized as FALSE by default */
 337:Generated_Source\PSoC4/USBTMC_std.c ****                         break;
 553              		.loc 1 337 0
 554 030c 5AE0     		b	.L44
 555              	.L42:
 315:Generated_Source\PSoC4/USBTMC_std.c ****                         {
 556              		.loc 1 315 0
 557 030e 0F4B     		ldr	r3, .L66
 558 0310 9B68     		ldr	r3, [r3, #8]
 559 0312 002B     		cmp	r3, #0
 560 0314 51D1     		bne	.L60
 317:Generated_Source\PSoC4/USBTMC_std.c ****                         }
 561              		.loc 1 317 0
 562 0316 1F23     		movs	r3, #31
 563 0318 FC18     		adds	r4, r7, r3
 564 031a FFF7FEFF 		bl	USBTMC_ClearEndpointHalt
 565 031e 0300     		movs	r3, r0
 566 0320 2370     		strb	r3, [r4]
 319:Generated_Source\PSoC4/USBTMC_std.c ****                     case USBTMC_RQST_RCPT_DEV:
 567              		.loc 1 319 0
 568 0322 4AE0     		b	.L60
 569              	.L41:
 322:Generated_Source\PSoC4/USBTMC_std.c ****                         {
ARM GAS  C:\Users\essele\AppData\Local\Temp\ccFLOaGJ.s 			page 18


 570              		.loc 1 322 0
 571 0324 094B     		ldr	r3, .L66
 572 0326 9B68     		ldr	r3, [r3, #8]
 573 0328 012B     		cmp	r3, #1
 574 032a 48D1     		bne	.L61
 324:Generated_Source\PSoC4/USBTMC_std.c ****                             requestHandled = USBTMC_InitNoDataControlTransfer();
 575              		.loc 1 324 0
 576 032c 0E4B     		ldr	r3, .L66+28
 577 032e 1B78     		ldrb	r3, [r3]
 578 0330 DBB2     		uxtb	r3, r3
 579 0332 0222     		movs	r2, #2
 580 0334 9343     		bics	r3, r2
 581 0336 DAB2     		uxtb	r2, r3
 582 0338 0B4B     		ldr	r3, .L66+28
 583 033a 1A70     		strb	r2, [r3]
 325:Generated_Source\PSoC4/USBTMC_std.c ****                         }
 584              		.loc 1 325 0
 585 033c 1F23     		movs	r3, #31
 586 033e FC18     		adds	r4, r7, r3
 587 0340 FFF7FEFF 		bl	USBTMC_InitNoDataControlTransfer
 588 0344 0300     		movs	r3, r0
 589 0346 2370     		strb	r3, [r4]
 327:Generated_Source\PSoC4/USBTMC_std.c ****                     case USBTMC_RQST_RCPT_IFC:
 590              		.loc 1 327 0
 591 0348 39E0     		b	.L61
 592              	.L67:
 593 034a C046     		.align	2
 594              	.L66:
 595 034c 00002C40 		.word	1076625408
 596 0350 00000000 		.word	USBTMC_currentTD
 597 0354 00000000 		.word	USBTMC_STRING_DESCRIPTORS
 598 0358 00000000 		.word	USBTMC_DEVICE0_DESCR
 599 035c 00000000 		.word	USBTMC_SN_STRING_DESCRIPTOR
 600 0360 00000000 		.word	USBTMC_EP
 601 0364 00000000 		.word	USBTMC_tBuffer.5161
 602 0368 00000000 		.word	USBTMC_deviceStatus
 603 036c 00000000 		.word	USBTMC_configuration
 604 0370 00000000 		.word	USBTMC_interfaceSetting
 605 0374 00000000 		.word	.L27
 606 0378 00000000 		.word	USBTMC_deviceAddress
 607 037c 00000000 		.word	USBTMC_configurationChanged
 608 0380 00000000 		.word	USBTMC_interfaceNumber
 609 0384 00000000 		.word	USBTMC_interfaceSettingLast
 610              	.L40:
 330:Generated_Source\PSoC4/USBTMC_std.c ****                         {
 611              		.loc 1 330 0
 612 0388 394B     		ldr	r3, .L68
 613 038a 1B69     		ldr	r3, [r3, #16]
 614 038c 002B     		cmp	r3, #0
 615 038e 18D1     		bne	.L62
 332:Generated_Source\PSoC4/USBTMC_std.c ****                             requestHandled = USBTMC_InitNoDataControlTransfer();
 616              		.loc 1 332 0
 617 0390 374B     		ldr	r3, .L68
 618 0392 9B68     		ldr	r3, [r3, #8]
 619 0394 DBB2     		uxtb	r3, r3
 620 0396 DB43     		mvns	r3, r3
 621 0398 D9B2     		uxtb	r1, r3
ARM GAS  C:\Users\essele\AppData\Local\Temp\ccFLOaGJ.s 			page 19


 622 039a 354B     		ldr	r3, .L68
 623 039c 1B69     		ldr	r3, [r3, #16]
 624 039e 354A     		ldr	r2, .L68+4
 625 03a0 D25C     		ldrb	r2, [r2, r3]
 626 03a2 D2B2     		uxtb	r2, r2
 627 03a4 0A40     		ands	r2, r1
 628 03a6 D1B2     		uxtb	r1, r2
 629 03a8 324A     		ldr	r2, .L68+4
 630 03aa D154     		strb	r1, [r2, r3]
 333:Generated_Source\PSoC4/USBTMC_std.c ****                         }
 631              		.loc 1 333 0
 632 03ac 1F23     		movs	r3, #31
 633 03ae FC18     		adds	r4, r7, r3
 634 03b0 FFF7FEFF 		bl	USBTMC_InitNoDataControlTransfer
 635 03b4 0300     		movs	r3, r0
 636 03b6 2370     		strb	r3, [r4]
 335:Generated_Source\PSoC4/USBTMC_std.c ****                     default:    /* requestHandled is initialized as FALSE by default */
 637              		.loc 1 335 0
 638 03b8 03E0     		b	.L62
 639              	.L60:
 319:Generated_Source\PSoC4/USBTMC_std.c ****                     case USBTMC_RQST_RCPT_DEV:
 640              		.loc 1 319 0
 641 03ba C046     		nop
 642 03bc 50E0     		b	.L24
 643              	.L61:
 327:Generated_Source\PSoC4/USBTMC_std.c ****                     case USBTMC_RQST_RCPT_IFC:
 644              		.loc 1 327 0
 645 03be C046     		nop
 646 03c0 4EE0     		b	.L24
 647              	.L62:
 335:Generated_Source\PSoC4/USBTMC_std.c ****                     default:    /* requestHandled is initialized as FALSE by default */
 648              		.loc 1 335 0
 649 03c2 C046     		nop
 650              	.L44:
 338:Generated_Source\PSoC4/USBTMC_std.c ****                 }
 339:Generated_Source\PSoC4/USBTMC_std.c ****                 break;
 651              		.loc 1 339 0 discriminator 7
 652 03c4 4CE0     		b	.L24
 653              	.L28:
 340:Generated_Source\PSoC4/USBTMC_std.c ****                 
 341:Generated_Source\PSoC4/USBTMC_std.c ****             case USBTMC_SET_FEATURE:
 342:Generated_Source\PSoC4/USBTMC_std.c ****                 switch (bmRequestType & USBTMC_RQST_RCPT_MASK)
 654              		.loc 1 342 0
 655 03c6 FB68     		ldr	r3, [r7, #12]
 656 03c8 0322     		movs	r2, #3
 657 03ca 1340     		ands	r3, r2
 658 03cc 012B     		cmp	r3, #1
 659 03ce 21D0     		beq	.L48
 660 03d0 0DD3     		bcc	.L49
 661 03d2 022B     		cmp	r3, #2
 662 03d4 00D0     		beq	.L50
 343:Generated_Source\PSoC4/USBTMC_std.c ****                 {
 344:Generated_Source\PSoC4/USBTMC_std.c ****                     case USBTMC_RQST_RCPT_EP:
 345:Generated_Source\PSoC4/USBTMC_std.c ****                         if (USBTMC_wValueLoReg == USBTMC_ENDPOINT_HALT)
 346:Generated_Source\PSoC4/USBTMC_std.c ****                         {
 347:Generated_Source\PSoC4/USBTMC_std.c ****                             requestHandled = USBTMC_SetEndpointHalt();
 348:Generated_Source\PSoC4/USBTMC_std.c ****                         }
ARM GAS  C:\Users\essele\AppData\Local\Temp\ccFLOaGJ.s 			page 20


 349:Generated_Source\PSoC4/USBTMC_std.c ****                         break;
 350:Generated_Source\PSoC4/USBTMC_std.c ****                         
 351:Generated_Source\PSoC4/USBTMC_std.c ****                     case USBTMC_RQST_RCPT_DEV:
 352:Generated_Source\PSoC4/USBTMC_std.c ****                         /* Set device REMOTE_WAKEUP */
 353:Generated_Source\PSoC4/USBTMC_std.c ****                         if (USBTMC_wValueLoReg == USBTMC_DEVICE_REMOTE_WAKEUP)
 354:Generated_Source\PSoC4/USBTMC_std.c ****                         {
 355:Generated_Source\PSoC4/USBTMC_std.c ****                             USBTMC_deviceStatus |= USBTMC_DEVICE_STATUS_REMOTE_WAKEUP;
 356:Generated_Source\PSoC4/USBTMC_std.c ****                             requestHandled = USBTMC_InitNoDataControlTransfer();
 357:Generated_Source\PSoC4/USBTMC_std.c ****                         }
 358:Generated_Source\PSoC4/USBTMC_std.c ****                         break;
 359:Generated_Source\PSoC4/USBTMC_std.c ****                         
 360:Generated_Source\PSoC4/USBTMC_std.c ****                     case USBTMC_RQST_RCPT_IFC:
 361:Generated_Source\PSoC4/USBTMC_std.c ****                         /* Validate interfaceNumber */
 362:Generated_Source\PSoC4/USBTMC_std.c ****                         if (USBTMC_wIndexLoReg < USBTMC_MAX_INTERFACES_NUMBER)
 363:Generated_Source\PSoC4/USBTMC_std.c ****                         {
 364:Generated_Source\PSoC4/USBTMC_std.c ****                             USBTMC_interfaceStatus[USBTMC_wIndexLoReg] &= (uint8) ~USBTMC_wValueLoR
 365:Generated_Source\PSoC4/USBTMC_std.c ****                             requestHandled = USBTMC_InitNoDataControlTransfer();
 366:Generated_Source\PSoC4/USBTMC_std.c ****                         }
 367:Generated_Source\PSoC4/USBTMC_std.c ****                         break;
 368:Generated_Source\PSoC4/USBTMC_std.c ****                     
 369:Generated_Source\PSoC4/USBTMC_std.c ****                     default:    /* requestHandled is initialized as FALSE by default */
 370:Generated_Source\PSoC4/USBTMC_std.c ****                         break;
 663              		.loc 1 370 0
 664 03d6 3BE0     		b	.L52
 665              	.L50:
 345:Generated_Source\PSoC4/USBTMC_std.c ****                         {
 666              		.loc 1 345 0
 667 03d8 254B     		ldr	r3, .L68
 668 03da 9B68     		ldr	r3, [r3, #8]
 669 03dc 002B     		cmp	r3, #0
 670 03de 32D1     		bne	.L63
 347:Generated_Source\PSoC4/USBTMC_std.c ****                         }
 671              		.loc 1 347 0
 672 03e0 1F23     		movs	r3, #31
 673 03e2 FC18     		adds	r4, r7, r3
 674 03e4 FFF7FEFF 		bl	USBTMC_SetEndpointHalt
 675 03e8 0300     		movs	r3, r0
 676 03ea 2370     		strb	r3, [r4]
 349:Generated_Source\PSoC4/USBTMC_std.c ****                         
 677              		.loc 1 349 0
 678 03ec 2BE0     		b	.L63
 679              	.L49:
 353:Generated_Source\PSoC4/USBTMC_std.c ****                         {
 680              		.loc 1 353 0
 681 03ee 204B     		ldr	r3, .L68
 682 03f0 9B68     		ldr	r3, [r3, #8]
 683 03f2 012B     		cmp	r3, #1
 684 03f4 29D1     		bne	.L64
 355:Generated_Source\PSoC4/USBTMC_std.c ****                             requestHandled = USBTMC_InitNoDataControlTransfer();
 685              		.loc 1 355 0
 686 03f6 204B     		ldr	r3, .L68+8
 687 03f8 1B78     		ldrb	r3, [r3]
 688 03fa DBB2     		uxtb	r3, r3
 689 03fc 0222     		movs	r2, #2
 690 03fe 1343     		orrs	r3, r2
 691 0400 DAB2     		uxtb	r2, r3
 692 0402 1D4B     		ldr	r3, .L68+8
ARM GAS  C:\Users\essele\AppData\Local\Temp\ccFLOaGJ.s 			page 21


 693 0404 1A70     		strb	r2, [r3]
 356:Generated_Source\PSoC4/USBTMC_std.c ****                         }
 694              		.loc 1 356 0
 695 0406 1F23     		movs	r3, #31
 696 0408 FC18     		adds	r4, r7, r3
 697 040a FFF7FEFF 		bl	USBTMC_InitNoDataControlTransfer
 698 040e 0300     		movs	r3, r0
 699 0410 2370     		strb	r3, [r4]
 358:Generated_Source\PSoC4/USBTMC_std.c ****                         
 700              		.loc 1 358 0
 701 0412 1AE0     		b	.L64
 702              	.L48:
 362:Generated_Source\PSoC4/USBTMC_std.c ****                         {
 703              		.loc 1 362 0
 704 0414 164B     		ldr	r3, .L68
 705 0416 1B69     		ldr	r3, [r3, #16]
 706 0418 002B     		cmp	r3, #0
 707 041a 18D1     		bne	.L65
 364:Generated_Source\PSoC4/USBTMC_std.c ****                             requestHandled = USBTMC_InitNoDataControlTransfer();
 708              		.loc 1 364 0
 709 041c 144B     		ldr	r3, .L68
 710 041e 9B68     		ldr	r3, [r3, #8]
 711 0420 DBB2     		uxtb	r3, r3
 712 0422 DB43     		mvns	r3, r3
 713 0424 D9B2     		uxtb	r1, r3
 714 0426 124B     		ldr	r3, .L68
 715 0428 1B69     		ldr	r3, [r3, #16]
 716 042a 124A     		ldr	r2, .L68+4
 717 042c D25C     		ldrb	r2, [r2, r3]
 718 042e D2B2     		uxtb	r2, r2
 719 0430 0A40     		ands	r2, r1
 720 0432 D1B2     		uxtb	r1, r2
 721 0434 0F4A     		ldr	r2, .L68+4
 722 0436 D154     		strb	r1, [r2, r3]
 365:Generated_Source\PSoC4/USBTMC_std.c ****                         }
 723              		.loc 1 365 0
 724 0438 1F23     		movs	r3, #31
 725 043a FC18     		adds	r4, r7, r3
 726 043c FFF7FEFF 		bl	USBTMC_InitNoDataControlTransfer
 727 0440 0300     		movs	r3, r0
 728 0442 2370     		strb	r3, [r4]
 367:Generated_Source\PSoC4/USBTMC_std.c ****                     
 729              		.loc 1 367 0
 730 0444 03E0     		b	.L65
 731              	.L63:
 349:Generated_Source\PSoC4/USBTMC_std.c ****                         
 732              		.loc 1 349 0
 733 0446 C046     		nop
 734 0448 0AE0     		b	.L24
 735              	.L64:
 358:Generated_Source\PSoC4/USBTMC_std.c ****                         
 736              		.loc 1 358 0
 737 044a C046     		nop
 738 044c 08E0     		b	.L24
 739              	.L65:
 367:Generated_Source\PSoC4/USBTMC_std.c ****                     
 740              		.loc 1 367 0
ARM GAS  C:\Users\essele\AppData\Local\Temp\ccFLOaGJ.s 			page 22


 741 044e C046     		nop
 742              	.L52:
 371:Generated_Source\PSoC4/USBTMC_std.c ****                 }
 372:Generated_Source\PSoC4/USBTMC_std.c ****                 break;
 743              		.loc 1 372 0 discriminator 11
 744 0450 06E0     		b	.L24
 745              	.L56:
 211:Generated_Source\PSoC4/USBTMC_std.c ****                 
 746              		.loc 1 211 0
 747 0452 C046     		nop
 748 0454 04E0     		b	.L24
 749              	.L57:
 373:Generated_Source\PSoC4/USBTMC_std.c ****                 
 374:Generated_Source\PSoC4/USBTMC_std.c ****             default:    /* requestHandled is initialized as FALSE by default */
 375:Generated_Source\PSoC4/USBTMC_std.c ****                 break;
 750              		.loc 1 375 0
 751 0456 C046     		nop
 752 0458 02E0     		b	.L24
 753              	.L58:
 285:Generated_Source\PSoC4/USBTMC_std.c ****                 
 754              		.loc 1 285 0
 755 045a C046     		nop
 756 045c 00E0     		b	.L24
 757              	.L59:
 309:Generated_Source\PSoC4/USBTMC_std.c ****                 
 758              		.loc 1 309 0
 759 045e C046     		nop
 760              	.L24:
 376:Generated_Source\PSoC4/USBTMC_std.c ****         }
 377:Generated_Source\PSoC4/USBTMC_std.c ****     }
 378:Generated_Source\PSoC4/USBTMC_std.c ****     
 379:Generated_Source\PSoC4/USBTMC_std.c ****     return (requestHandled);
 761              		.loc 1 379 0
 762 0460 1F23     		movs	r3, #31
 763 0462 FB18     		adds	r3, r7, r3
 764 0464 1B78     		ldrb	r3, [r3]
 380:Generated_Source\PSoC4/USBTMC_std.c **** }
 765              		.loc 1 380 0
 766 0466 1800     		movs	r0, r3
 767 0468 BD46     		mov	sp, r7
 768 046a 09B0     		add	sp, sp, #36
 769              		@ sp needed
 770 046c 90BD     		pop	{r4, r7, pc}
 771              	.L69:
 772 046e C046     		.align	2
 773              	.L68:
 774 0470 00002C40 		.word	1076625408
 775 0474 00000000 		.word	USBTMC_interfaceStatus
 776 0478 00000000 		.word	USBTMC_deviceStatus
 777              		.cfi_endproc
 778              	.LFE1:
 779              		.size	USBTMC_HandleStandardRqst, .-USBTMC_HandleStandardRqst
 780              		.section	.text.USBTMC_ConfigReg,"ax",%progbits
 781              		.align	2
 782              		.global	USBTMC_ConfigReg
 783              		.code	16
 784              		.thumb_func
ARM GAS  C:\Users\essele\AppData\Local\Temp\ccFLOaGJ.s 			page 23


 785              		.type	USBTMC_ConfigReg, %function
 786              	USBTMC_ConfigReg:
 787              	.LFB2:
 381:Generated_Source\PSoC4/USBTMC_std.c **** 
 382:Generated_Source\PSoC4/USBTMC_std.c **** 
 383:Generated_Source\PSoC4/USBTMC_std.c **** #if defined(USBTMC_ENABLE_IDSN_STRING)
 384:Generated_Source\PSoC4/USBTMC_std.c ****     /***************************************************************************
 385:Generated_Source\PSoC4/USBTMC_std.c ****     * Function Name: USBTMC_ReadDieID
 386:Generated_Source\PSoC4/USBTMC_std.c ****     ************************************************************************//**
 387:Generated_Source\PSoC4/USBTMC_std.c ****     *
 388:Generated_Source\PSoC4/USBTMC_std.c ****     *  This routine read Die ID and generate Serial Number string descriptor.
 389:Generated_Source\PSoC4/USBTMC_std.c ****     *
 390:Generated_Source\PSoC4/USBTMC_std.c ****     *  \param descr:  pointer on string descriptor. This string size has to be equal or
 391:Generated_Source\PSoC4/USBTMC_std.c ****     *          greater than USBTMC_IDSN_DESCR_LENGTH.
 392:Generated_Source\PSoC4/USBTMC_std.c ****     *
 393:Generated_Source\PSoC4/USBTMC_std.c ****     *
 394:Generated_Source\PSoC4/USBTMC_std.c ****     * \reentrant
 395:Generated_Source\PSoC4/USBTMC_std.c ****     *  No.
 396:Generated_Source\PSoC4/USBTMC_std.c ****     *
 397:Generated_Source\PSoC4/USBTMC_std.c ****     ***************************************************************************/
 398:Generated_Source\PSoC4/USBTMC_std.c ****     void USBTMC_ReadDieID(uint8 descr[]) 
 399:Generated_Source\PSoC4/USBTMC_std.c ****     {
 400:Generated_Source\PSoC4/USBTMC_std.c ****         const char8 CYCODE hex[] = "0123456789ABCDEF";
 401:Generated_Source\PSoC4/USBTMC_std.c ****         uint32 i;
 402:Generated_Source\PSoC4/USBTMC_std.c ****         uint32 j = 0u;
 403:Generated_Source\PSoC4/USBTMC_std.c ****         uint8 uniqueId[8u];
 404:Generated_Source\PSoC4/USBTMC_std.c **** 
 405:Generated_Source\PSoC4/USBTMC_std.c ****         if (NULL != descr)
 406:Generated_Source\PSoC4/USBTMC_std.c ****         {
 407:Generated_Source\PSoC4/USBTMC_std.c ****             /* Initialize descriptor header. */
 408:Generated_Source\PSoC4/USBTMC_std.c ****             descr[0u] = USBTMC_IDSN_DESCR_LENGTH;
 409:Generated_Source\PSoC4/USBTMC_std.c ****             descr[1u] = USBTMC_DESCR_STRING;
 410:Generated_Source\PSoC4/USBTMC_std.c ****             
 411:Generated_Source\PSoC4/USBTMC_std.c ****             /* Unique ID size is 8 bytes. */
 412:Generated_Source\PSoC4/USBTMC_std.c ****             CyGetUniqueId((uint32 *) uniqueId);
 413:Generated_Source\PSoC4/USBTMC_std.c **** 
 414:Generated_Source\PSoC4/USBTMC_std.c ****             /* Fill descriptor with unique device ID. */
 415:Generated_Source\PSoC4/USBTMC_std.c ****             for (i = 2u; i < USBTMC_IDSN_DESCR_LENGTH; i += 4u)
 416:Generated_Source\PSoC4/USBTMC_std.c ****             {
 417:Generated_Source\PSoC4/USBTMC_std.c ****                 descr[i]      = (uint8) hex[(uniqueId[j] >> 4u)];
 418:Generated_Source\PSoC4/USBTMC_std.c ****                 descr[i + 1u] = 0u;
 419:Generated_Source\PSoC4/USBTMC_std.c ****                 descr[i + 2u] = (uint8) hex[(uniqueId[j] & 0x0Fu)];
 420:Generated_Source\PSoC4/USBTMC_std.c ****                 descr[i + 3u] = 0u;
 421:Generated_Source\PSoC4/USBTMC_std.c ****                 ++j;
 422:Generated_Source\PSoC4/USBTMC_std.c ****             }
 423:Generated_Source\PSoC4/USBTMC_std.c ****         }
 424:Generated_Source\PSoC4/USBTMC_std.c ****     }
 425:Generated_Source\PSoC4/USBTMC_std.c **** #endif /* (USBTMC_ENABLE_IDSN_STRING) */
 426:Generated_Source\PSoC4/USBTMC_std.c **** 
 427:Generated_Source\PSoC4/USBTMC_std.c **** 
 428:Generated_Source\PSoC4/USBTMC_std.c **** /*******************************************************************************
 429:Generated_Source\PSoC4/USBTMC_std.c **** * Function Name: USBTMC_ConfigReg
 430:Generated_Source\PSoC4/USBTMC_std.c **** ****************************************************************************//**
 431:Generated_Source\PSoC4/USBTMC_std.c **** *
 432:Generated_Source\PSoC4/USBTMC_std.c **** *  This routine configures hardware registers from the variables.
 433:Generated_Source\PSoC4/USBTMC_std.c **** *  It is called from USBTMC_Config() function and from RestoreConfig
 434:Generated_Source\PSoC4/USBTMC_std.c **** *  after Wakeup.
ARM GAS  C:\Users\essele\AppData\Local\Temp\ccFLOaGJ.s 			page 24


 435:Generated_Source\PSoC4/USBTMC_std.c **** *
 436:Generated_Source\PSoC4/USBTMC_std.c **** *******************************************************************************/
 437:Generated_Source\PSoC4/USBTMC_std.c **** void USBTMC_ConfigReg(void) 
 438:Generated_Source\PSoC4/USBTMC_std.c **** {
 788              		.loc 1 438 0
 789              		.cfi_startproc
 790              		@ args = 0, pretend = 0, frame = 8
 791              		@ frame_needed = 1, uses_anonymous_args = 0
 792 0000 80B5     		push	{r7, lr}
 793              		.cfi_def_cfa_offset 8
 794              		.cfi_offset 7, -8
 795              		.cfi_offset 14, -4
 796 0002 82B0     		sub	sp, sp, #8
 797              		.cfi_def_cfa_offset 16
 798 0004 00AF     		add	r7, sp, #0
 799              		.cfi_def_cfa_register 7
 439:Generated_Source\PSoC4/USBTMC_std.c ****     uint32 ep;
 440:Generated_Source\PSoC4/USBTMC_std.c **** 
 441:Generated_Source\PSoC4/USBTMC_std.c **** #if (USBTMC_EP_MANAGEMENT_DMA_AUTO)
 442:Generated_Source\PSoC4/USBTMC_std.c ****     uint8 epType = 0u;
 443:Generated_Source\PSoC4/USBTMC_std.c **** #endif /* (USBTMC_EP_MANAGEMENT_DMA_AUTO) */
 444:Generated_Source\PSoC4/USBTMC_std.c **** 
 445:Generated_Source\PSoC4/USBTMC_std.c ****     /* Go thought all endpoints and set hardware configuration */
 446:Generated_Source\PSoC4/USBTMC_std.c ****     for (ep = USBTMC_EP1; ep < USBTMC_MAX_EP; ++ep)
 800              		.loc 1 446 0
 801 0006 0123     		movs	r3, #1
 802 0008 7B60     		str	r3, [r7, #4]
 803 000a 57E0     		b	.L71
 804              	.L76:
 447:Generated_Source\PSoC4/USBTMC_std.c ****     {
 448:Generated_Source\PSoC4/USBTMC_std.c ****         USBTMC_ARB_EP_BASE.arbEp[ep].epCfg = USBTMC_ARB_EPX_CFG_DEFAULT;
 805              		.loc 1 448 0
 806 000c 304A     		ldr	r2, .L77
 807 000e 7B68     		ldr	r3, [r7, #4]
 808 0010 9B01     		lsls	r3, r3, #6
 809 0012 0C21     		movs	r1, #12
 810 0014 9950     		str	r1, [r3, r2]
 449:Generated_Source\PSoC4/USBTMC_std.c ****         
 450:Generated_Source\PSoC4/USBTMC_std.c ****     #if (USBTMC_EP_MANAGEMENT_DMA)
 451:Generated_Source\PSoC4/USBTMC_std.c ****         /* Enable arbiter endpoint interrupt sources */
 452:Generated_Source\PSoC4/USBTMC_std.c ****         USBTMC_ARB_EP_BASE.arbEp[ep].epIntEn = USBTMC_ARB_EPX_INT_MASK;
 453:Generated_Source\PSoC4/USBTMC_std.c ****     #endif /* (USBTMC_EP_MANAGEMENT_DMA) */
 454:Generated_Source\PSoC4/USBTMC_std.c ****     
 455:Generated_Source\PSoC4/USBTMC_std.c ****         if (USBTMC_EP[ep].epMode != USBTMC_MODE_DISABLE)
 811              		.loc 1 455 0
 812 0016 2F49     		ldr	r1, .L77+4
 813 0018 7A68     		ldr	r2, [r7, #4]
 814 001a 1300     		movs	r3, r2
 815 001c 5B00     		lsls	r3, r3, #1
 816 001e 9B18     		adds	r3, r3, r2
 817 0020 9B00     		lsls	r3, r3, #2
 818 0022 CB18     		adds	r3, r1, r3
 819 0024 0533     		adds	r3, r3, #5
 820 0026 1B78     		ldrb	r3, [r3]
 821 0028 DBB2     		uxtb	r3, r3
 822 002a 002B     		cmp	r3, #0
 823 002c 1CD0     		beq	.L72
ARM GAS  C:\Users\essele\AppData\Local\Temp\ccFLOaGJ.s 			page 25


 456:Generated_Source\PSoC4/USBTMC_std.c ****         {
 457:Generated_Source\PSoC4/USBTMC_std.c ****             if (0u != (USBTMC_EP[ep].addr & USBTMC_DIR_IN))
 824              		.loc 1 457 0
 825 002e 2949     		ldr	r1, .L77+4
 826 0030 7A68     		ldr	r2, [r7, #4]
 827 0032 1300     		movs	r3, r2
 828 0034 5B00     		lsls	r3, r3, #1
 829 0036 9B18     		adds	r3, r3, r2
 830 0038 9B00     		lsls	r3, r3, #2
 831 003a CB18     		adds	r3, r1, r3
 832 003c 0433     		adds	r3, r3, #4
 833 003e 1B78     		ldrb	r3, [r3]
 834 0040 DBB2     		uxtb	r3, r3
 835 0042 5BB2     		sxtb	r3, r3
 836 0044 002B     		cmp	r3, #0
 837 0046 07DA     		bge	.L73
 458:Generated_Source\PSoC4/USBTMC_std.c ****             {
 459:Generated_Source\PSoC4/USBTMC_std.c ****                 USBTMC_SIE_EP_BASE.sieEp[ep].epCr0 = USBTMC_MODE_NAK_IN;
 838              		.loc 1 459 0
 839 0048 234A     		ldr	r2, .L77+8
 840 004a 7B68     		ldr	r3, [r7, #4]
 841 004c 9B01     		lsls	r3, r3, #6
 842 004e D318     		adds	r3, r2, r3
 843 0050 0833     		adds	r3, r3, #8
 844 0052 0C22     		movs	r2, #12
 845 0054 1A60     		str	r2, [r3]
 846 0056 0EE0     		b	.L75
 847              	.L73:
 460:Generated_Source\PSoC4/USBTMC_std.c ****                 
 461:Generated_Source\PSoC4/USBTMC_std.c ****             #if (USBTMC_EP_MANAGEMENT_DMA_AUTO && CY_PSOC4)
 462:Generated_Source\PSoC4/USBTMC_std.c ****                 /* Clear DMA_TERMIN for IN endpoint. */
 463:Generated_Source\PSoC4/USBTMC_std.c ****                 USBTMC_ARB_EP_BASE.arbEp[ep].epIntEn &= (uint32) ~USBTMC_ARB_EPX_INT_DMA_TERMIN;
 464:Generated_Source\PSoC4/USBTMC_std.c ****             #endif /* (USBTMC_EP_MANAGEMENT_DMA_AUTO && CY_PSOC4) */
 465:Generated_Source\PSoC4/USBTMC_std.c ****             }
 466:Generated_Source\PSoC4/USBTMC_std.c ****             else
 467:Generated_Source\PSoC4/USBTMC_std.c ****             {
 468:Generated_Source\PSoC4/USBTMC_std.c ****                 USBTMC_SIE_EP_BASE.sieEp[ep].epCr0 = USBTMC_MODE_NAK_OUT;
 848              		.loc 1 468 0
 849 0058 1F4A     		ldr	r2, .L77+8
 850 005a 7B68     		ldr	r3, [r7, #4]
 851 005c 9B01     		lsls	r3, r3, #6
 852 005e D318     		adds	r3, r2, r3
 853 0060 0833     		adds	r3, r3, #8
 854 0062 0822     		movs	r2, #8
 855 0064 1A60     		str	r2, [r3]
 856 0066 06E0     		b	.L75
 857              	.L72:
 469:Generated_Source\PSoC4/USBTMC_std.c **** 
 470:Generated_Source\PSoC4/USBTMC_std.c ****             #if (USBTMC_EP_MANAGEMENT_DMA_AUTO)
 471:Generated_Source\PSoC4/USBTMC_std.c ****                 /* (CY_PSOC4): DMA_TERMIN for OUT endpoint is set above. */
 472:Generated_Source\PSoC4/USBTMC_std.c ****                 
 473:Generated_Source\PSoC4/USBTMC_std.c ****                 /* Prepare endpoint type mask. */
 474:Generated_Source\PSoC4/USBTMC_std.c ****                 epType |= (uint8) (0x01u << (ep - USBTMC_EP1));
 475:Generated_Source\PSoC4/USBTMC_std.c ****             #endif /* (USBTMC_EP_MANAGEMENT_DMA_AUTO) */
 476:Generated_Source\PSoC4/USBTMC_std.c ****             }
 477:Generated_Source\PSoC4/USBTMC_std.c ****         }
 478:Generated_Source\PSoC4/USBTMC_std.c ****         else
ARM GAS  C:\Users\essele\AppData\Local\Temp\ccFLOaGJ.s 			page 26


 479:Generated_Source\PSoC4/USBTMC_std.c ****         {
 480:Generated_Source\PSoC4/USBTMC_std.c ****             USBTMC_SIE_EP_BASE.sieEp[ep].epCr0 = USBTMC_MODE_STALL_DATA_EP;
 858              		.loc 1 480 0
 859 0068 1B4A     		ldr	r2, .L77+8
 860 006a 7B68     		ldr	r3, [r7, #4]
 861 006c 9B01     		lsls	r3, r3, #6
 862 006e D318     		adds	r3, r2, r3
 863 0070 0833     		adds	r3, r3, #8
 864 0072 8022     		movs	r2, #128
 865 0074 1A60     		str	r2, [r3]
 866              	.L75:
 481:Generated_Source\PSoC4/USBTMC_std.c ****         }
 482:Generated_Source\PSoC4/USBTMC_std.c ****         
 483:Generated_Source\PSoC4/USBTMC_std.c ****     #if (!USBTMC_EP_MANAGEMENT_DMA_AUTO)
 484:Generated_Source\PSoC4/USBTMC_std.c ****         #if (CY_PSOC4)
 485:Generated_Source\PSoC4/USBTMC_std.c ****             USBTMC_ARB_EP16_BASE.arbEp[ep].rwRa16  = (uint32) USBTMC_EP[ep].buffOffset;
 867              		.loc 1 485 0 discriminator 2
 868 0076 1948     		ldr	r0, .L77+12
 869 0078 1649     		ldr	r1, .L77+4
 870 007a 7A68     		ldr	r2, [r7, #4]
 871 007c 1300     		movs	r3, r2
 872 007e 5B00     		lsls	r3, r3, #1
 873 0080 9B18     		adds	r3, r3, r2
 874 0082 9B00     		lsls	r3, r3, #2
 875 0084 CB18     		adds	r3, r1, r3
 876 0086 0633     		adds	r3, r3, #6
 877 0088 1B88     		ldrh	r3, [r3]
 878 008a 9BB2     		uxth	r3, r3
 879 008c 1A00     		movs	r2, r3
 880 008e 7B68     		ldr	r3, [r7, #4]
 881 0090 9B01     		lsls	r3, r3, #6
 882 0092 C318     		adds	r3, r0, r3
 883 0094 0833     		adds	r3, r3, #8
 884 0096 1A60     		str	r2, [r3]
 486:Generated_Source\PSoC4/USBTMC_std.c ****             USBTMC_ARB_EP16_BASE.arbEp[ep].rwWa16  = (uint32) USBTMC_EP[ep].buffOffset;
 885              		.loc 1 486 0 discriminator 2
 886 0098 1048     		ldr	r0, .L77+12
 887 009a 0E49     		ldr	r1, .L77+4
 888 009c 7A68     		ldr	r2, [r7, #4]
 889 009e 1300     		movs	r3, r2
 890 00a0 5B00     		lsls	r3, r3, #1
 891 00a2 9B18     		adds	r3, r3, r2
 892 00a4 9B00     		lsls	r3, r3, #2
 893 00a6 CB18     		adds	r3, r1, r3
 894 00a8 0633     		adds	r3, r3, #6
 895 00aa 1B88     		ldrh	r3, [r3]
 896 00ac 9BB2     		uxth	r3, r3
 897 00ae 1A00     		movs	r2, r3
 898 00b0 7B68     		ldr	r3, [r7, #4]
 899 00b2 9B01     		lsls	r3, r3, #6
 900 00b4 1A50     		str	r2, [r3, r0]
 446:Generated_Source\PSoC4/USBTMC_std.c ****     {
 901              		.loc 1 446 0 discriminator 2
 902 00b6 7B68     		ldr	r3, [r7, #4]
 903 00b8 0133     		adds	r3, r3, #1
 904 00ba 7B60     		str	r3, [r7, #4]
 905              	.L71:
ARM GAS  C:\Users\essele\AppData\Local\Temp\ccFLOaGJ.s 			page 27


 446:Generated_Source\PSoC4/USBTMC_std.c ****     {
 906              		.loc 1 446 0 is_stmt 0 discriminator 1
 907 00bc 7B68     		ldr	r3, [r7, #4]
 908 00be 082B     		cmp	r3, #8
 909 00c0 A4D9     		bls	.L76
 487:Generated_Source\PSoC4/USBTMC_std.c ****         #else
 488:Generated_Source\PSoC4/USBTMC_std.c ****             USBTMC_ARB_EP_BASE.arbEp[ep].rwRa    = LO8(USBTMC_EP[ep].buffOffset);
 489:Generated_Source\PSoC4/USBTMC_std.c ****             USBTMC_ARB_EP_BASE.arbEp[ep].rwRaMsb = HI8(USBTMC_EP[ep].buffOffset);
 490:Generated_Source\PSoC4/USBTMC_std.c ****             USBTMC_ARB_EP_BASE.arbEp[ep].rwWa    = LO8(USBTMC_EP[ep].buffOffset);
 491:Generated_Source\PSoC4/USBTMC_std.c ****             USBTMC_ARB_EP_BASE.arbEp[ep].rwWaMsb = HI8(USBTMC_EP[ep].buffOffset);
 492:Generated_Source\PSoC4/USBTMC_std.c ****         #endif /* (CY_PSOC4) */
 493:Generated_Source\PSoC4/USBTMC_std.c ****     #endif /* (!USBTMC_EP_MANAGEMENT_DMA_AUTO) */
 494:Generated_Source\PSoC4/USBTMC_std.c ****     }
 495:Generated_Source\PSoC4/USBTMC_std.c **** 
 496:Generated_Source\PSoC4/USBTMC_std.c **** #if (USBTMC_EP_MANAGEMENT_DMA_AUTO)
 497:Generated_Source\PSoC4/USBTMC_std.c ****      /* BUF_SIZE depend on DMA_THRESS value:0x55-32 bytes  0x44-16 bytes 0x33-8 bytes 0x22-4 bytes 
 498:Generated_Source\PSoC4/USBTMC_std.c ****     USBTMC_BUF_SIZE_REG = USBTMC_DMA_BUF_SIZE;
 499:Generated_Source\PSoC4/USBTMC_std.c **** 
 500:Generated_Source\PSoC4/USBTMC_std.c ****     /* Configure DMA burst threshold */
 501:Generated_Source\PSoC4/USBTMC_std.c **** #if (CY_PSOC4)
 502:Generated_Source\PSoC4/USBTMC_std.c ****     USBTMC_DMA_THRES16_REG   = USBTMC_DMA_BYTES_PER_BURST;
 503:Generated_Source\PSoC4/USBTMC_std.c **** #else
 504:Generated_Source\PSoC4/USBTMC_std.c ****     USBTMC_DMA_THRES_REG     = USBTMC_DMA_BYTES_PER_BURST;
 505:Generated_Source\PSoC4/USBTMC_std.c ****     USBTMC_DMA_THRES_MSB_REG = 0u;
 506:Generated_Source\PSoC4/USBTMC_std.c **** #endif /* (CY_PSOC4) */
 507:Generated_Source\PSoC4/USBTMC_std.c ****     USBTMC_EP_ACTIVE_REG = USBTMC_DEFAULT_ARB_INT_EN;
 508:Generated_Source\PSoC4/USBTMC_std.c ****     USBTMC_EP_TYPE_REG   = epType;
 509:Generated_Source\PSoC4/USBTMC_std.c ****     
 510:Generated_Source\PSoC4/USBTMC_std.c ****     /* Cfg_cmp bit set to 1 once configuration is complete. */
 511:Generated_Source\PSoC4/USBTMC_std.c ****     /* Lock arbiter configtuation */
 512:Generated_Source\PSoC4/USBTMC_std.c ****     USBTMC_ARB_CFG_REG |= (uint32)  USBTMC_ARB_CFG_CFG_CMP;
 513:Generated_Source\PSoC4/USBTMC_std.c ****     /* Cfg_cmp bit set to 0 during configuration of PFSUSB Registers. */
 514:Generated_Source\PSoC4/USBTMC_std.c ****     USBTMC_ARB_CFG_REG &= (uint32) ~USBTMC_ARB_CFG_CFG_CMP;
 515:Generated_Source\PSoC4/USBTMC_std.c **** 
 516:Generated_Source\PSoC4/USBTMC_std.c **** #endif /* (USBTMC_EP_MANAGEMENT_DMA_AUTO) */
 517:Generated_Source\PSoC4/USBTMC_std.c **** 
 518:Generated_Source\PSoC4/USBTMC_std.c ****     /* Enable interrupt SIE interurpt source from EP0-EP1 */
 519:Generated_Source\PSoC4/USBTMC_std.c ****     USBTMC_SIE_EP_INT_EN_REG = (uint32) USBTMC_DEFAULT_SIE_EP_INT_EN;
 910              		.loc 1 519 0 is_stmt 1
 911 00c2 074B     		ldr	r3, .L77+16
 912 00c4 FF22     		movs	r2, #255
 913 00c6 1A60     		str	r2, [r3]
 520:Generated_Source\PSoC4/USBTMC_std.c **** }
 914              		.loc 1 520 0
 915 00c8 C046     		nop
 916 00ca BD46     		mov	sp, r7
 917 00cc 02B0     		add	sp, sp, #8
 918              		@ sp needed
 919 00ce 80BD     		pop	{r7, pc}
 920              	.L78:
 921              		.align	2
 922              	.L77:
 923 00d0 C0012C40 		.word	1076625856
 924 00d4 00000000 		.word	USBTMC_EP
 925 00d8 F0FF2B40 		.word	1076625392
 926 00dc D0112C40 		.word	1076629968
 927 00e0 28002C40 		.word	1076625448
ARM GAS  C:\Users\essele\AppData\Local\Temp\ccFLOaGJ.s 			page 28


 928              		.cfi_endproc
 929              	.LFE2:
 930              		.size	USBTMC_ConfigReg, .-USBTMC_ConfigReg
 931              		.section	.text.USBTMC_EpStateInit,"ax",%progbits
 932              		.align	2
 933              		.global	USBTMC_EpStateInit
 934              		.code	16
 935              		.thumb_func
 936              		.type	USBTMC_EpStateInit, %function
 937              	USBTMC_EpStateInit:
 938              	.LFB3:
 521:Generated_Source\PSoC4/USBTMC_std.c **** 
 522:Generated_Source\PSoC4/USBTMC_std.c **** 
 523:Generated_Source\PSoC4/USBTMC_std.c **** /*******************************************************************************
 524:Generated_Source\PSoC4/USBTMC_std.c **** * Function Name: USBTMC_EpStateInit
 525:Generated_Source\PSoC4/USBTMC_std.c **** ****************************************************************************//**
 526:Generated_Source\PSoC4/USBTMC_std.c **** *
 527:Generated_Source\PSoC4/USBTMC_std.c **** *  This routine initialize state of Data end points based of its type: 
 528:Generated_Source\PSoC4/USBTMC_std.c **** *   IN  - USBTMC_IN_BUFFER_EMPTY (USBTMC_EVENT_PENDING)
 529:Generated_Source\PSoC4/USBTMC_std.c **** *   OUT - USBTMC_OUT_BUFFER_EMPTY (USBTMC_NO_EVENT_PENDING)
 530:Generated_Source\PSoC4/USBTMC_std.c **** *
 531:Generated_Source\PSoC4/USBTMC_std.c **** *******************************************************************************/
 532:Generated_Source\PSoC4/USBTMC_std.c **** void USBTMC_EpStateInit(void) 
 533:Generated_Source\PSoC4/USBTMC_std.c **** {
 939              		.loc 1 533 0
 940              		.cfi_startproc
 941              		@ args = 0, pretend = 0, frame = 8
 942              		@ frame_needed = 1, uses_anonymous_args = 0
 943 0000 80B5     		push	{r7, lr}
 944              		.cfi_def_cfa_offset 8
 945              		.cfi_offset 7, -8
 946              		.cfi_offset 14, -4
 947 0002 82B0     		sub	sp, sp, #8
 948              		.cfi_def_cfa_offset 16
 949 0004 00AF     		add	r7, sp, #0
 950              		.cfi_def_cfa_register 7
 534:Generated_Source\PSoC4/USBTMC_std.c ****     uint8 i;
 535:Generated_Source\PSoC4/USBTMC_std.c **** 
 536:Generated_Source\PSoC4/USBTMC_std.c ****     for (i = USBTMC_EP1; i < USBTMC_MAX_EP; i++)
 951              		.loc 1 536 0
 952 0006 FB1D     		adds	r3, r7, #7
 953 0008 0122     		movs	r2, #1
 954 000a 1A70     		strb	r2, [r3]
 955 000c 29E0     		b	.L80
 956              	.L83:
 537:Generated_Source\PSoC4/USBTMC_std.c ****     { 
 538:Generated_Source\PSoC4/USBTMC_std.c ****         if (0u != (USBTMC_EP[i].addr & USBTMC_DIR_IN))
 957              		.loc 1 538 0
 958 000e FB1D     		adds	r3, r7, #7
 959 0010 1A78     		ldrb	r2, [r3]
 960 0012 1849     		ldr	r1, .L84
 961 0014 1300     		movs	r3, r2
 962 0016 5B00     		lsls	r3, r3, #1
 963 0018 9B18     		adds	r3, r3, r2
 964 001a 9B00     		lsls	r3, r3, #2
 965 001c CB18     		adds	r3, r1, r3
 966 001e 0433     		adds	r3, r3, #4
ARM GAS  C:\Users\essele\AppData\Local\Temp\ccFLOaGJ.s 			page 29


 967 0020 1B78     		ldrb	r3, [r3]
 968 0022 DBB2     		uxtb	r3, r3
 969 0024 5BB2     		sxtb	r3, r3
 970 0026 002B     		cmp	r3, #0
 971 0028 0BDA     		bge	.L81
 539:Generated_Source\PSoC4/USBTMC_std.c ****         {
 540:Generated_Source\PSoC4/USBTMC_std.c ****             /* IN Endpoint */
 541:Generated_Source\PSoC4/USBTMC_std.c ****             USBTMC_EP[i].apiEpState = USBTMC_EVENT_PENDING;
 972              		.loc 1 541 0
 973 002a FB1D     		adds	r3, r7, #7
 974 002c 1A78     		ldrb	r2, [r3]
 975 002e 1149     		ldr	r1, .L84
 976 0030 1300     		movs	r3, r2
 977 0032 5B00     		lsls	r3, r3, #1
 978 0034 9B18     		adds	r3, r3, r2
 979 0036 9B00     		lsls	r3, r3, #2
 980 0038 CB18     		adds	r3, r1, r3
 981 003a 0133     		adds	r3, r3, #1
 982 003c 0122     		movs	r2, #1
 983 003e 1A70     		strb	r2, [r3]
 984 0040 0AE0     		b	.L82
 985              	.L81:
 542:Generated_Source\PSoC4/USBTMC_std.c ****         }
 543:Generated_Source\PSoC4/USBTMC_std.c ****         else
 544:Generated_Source\PSoC4/USBTMC_std.c ****         {
 545:Generated_Source\PSoC4/USBTMC_std.c ****             /* OUT Endpoint */
 546:Generated_Source\PSoC4/USBTMC_std.c ****             USBTMC_EP[i].apiEpState = USBTMC_NO_EVENT_PENDING;
 986              		.loc 1 546 0
 987 0042 FB1D     		adds	r3, r7, #7
 988 0044 1A78     		ldrb	r2, [r3]
 989 0046 0B49     		ldr	r1, .L84
 990 0048 1300     		movs	r3, r2
 991 004a 5B00     		lsls	r3, r3, #1
 992 004c 9B18     		adds	r3, r3, r2
 993 004e 9B00     		lsls	r3, r3, #2
 994 0050 CB18     		adds	r3, r1, r3
 995 0052 0133     		adds	r3, r3, #1
 996 0054 0022     		movs	r2, #0
 997 0056 1A70     		strb	r2, [r3]
 998              	.L82:
 536:Generated_Source\PSoC4/USBTMC_std.c ****     { 
 999              		.loc 1 536 0 discriminator 2
 1000 0058 FB1D     		adds	r3, r7, #7
 1001 005a 1A78     		ldrb	r2, [r3]
 1002 005c FB1D     		adds	r3, r7, #7
 1003 005e 0132     		adds	r2, r2, #1
 1004 0060 1A70     		strb	r2, [r3]
 1005              	.L80:
 536:Generated_Source\PSoC4/USBTMC_std.c ****     { 
 1006              		.loc 1 536 0 is_stmt 0 discriminator 1
 1007 0062 FB1D     		adds	r3, r7, #7
 1008 0064 1B78     		ldrb	r3, [r3]
 1009 0066 082B     		cmp	r3, #8
 1010 0068 D1D9     		bls	.L83
 547:Generated_Source\PSoC4/USBTMC_std.c ****         }
 548:Generated_Source\PSoC4/USBTMC_std.c ****     }
 549:Generated_Source\PSoC4/USBTMC_std.c ****                     
ARM GAS  C:\Users\essele\AppData\Local\Temp\ccFLOaGJ.s 			page 30


 550:Generated_Source\PSoC4/USBTMC_std.c **** }
 1011              		.loc 1 550 0 is_stmt 1
 1012 006a C046     		nop
 1013 006c BD46     		mov	sp, r7
 1014 006e 02B0     		add	sp, sp, #8
 1015              		@ sp needed
 1016 0070 80BD     		pop	{r7, pc}
 1017              	.L85:
 1018 0072 C046     		.align	2
 1019              	.L84:
 1020 0074 00000000 		.word	USBTMC_EP
 1021              		.cfi_endproc
 1022              	.LFE3:
 1023              		.size	USBTMC_EpStateInit, .-USBTMC_EpStateInit
 1024              		.section	.text.USBTMC_Config,"ax",%progbits
 1025              		.align	2
 1026              		.global	USBTMC_Config
 1027              		.code	16
 1028              		.thumb_func
 1029              		.type	USBTMC_Config, %function
 1030              	USBTMC_Config:
 1031              	.LFB4:
 551:Generated_Source\PSoC4/USBTMC_std.c **** 
 552:Generated_Source\PSoC4/USBTMC_std.c **** 
 553:Generated_Source\PSoC4/USBTMC_std.c **** /*******************************************************************************
 554:Generated_Source\PSoC4/USBTMC_std.c **** * Function Name: USBTMC_Config
 555:Generated_Source\PSoC4/USBTMC_std.c **** ****************************************************************************//**
 556:Generated_Source\PSoC4/USBTMC_std.c **** *
 557:Generated_Source\PSoC4/USBTMC_std.c **** *  This routine configures endpoints for the entire configuration by scanning
 558:Generated_Source\PSoC4/USBTMC_std.c **** *  the configuration descriptor.
 559:Generated_Source\PSoC4/USBTMC_std.c **** *
 560:Generated_Source\PSoC4/USBTMC_std.c **** *  \param clearAltSetting: It configures the bAlternateSetting 0 for each interface.
 561:Generated_Source\PSoC4/USBTMC_std.c **** *
 562:Generated_Source\PSoC4/USBTMC_std.c **** * USBTMC_interfaceClass - Initialized class array for each interface.
 563:Generated_Source\PSoC4/USBTMC_std.c **** *   It is used for handling Class specific requests depend on interface class.
 564:Generated_Source\PSoC4/USBTMC_std.c **** *   Different classes in multiple Alternate settings does not supported.
 565:Generated_Source\PSoC4/USBTMC_std.c **** *
 566:Generated_Source\PSoC4/USBTMC_std.c **** * \reentrant
 567:Generated_Source\PSoC4/USBTMC_std.c **** *  No.
 568:Generated_Source\PSoC4/USBTMC_std.c **** *
 569:Generated_Source\PSoC4/USBTMC_std.c **** *******************************************************************************/
 570:Generated_Source\PSoC4/USBTMC_std.c **** void USBTMC_Config(uint8 clearAltSetting) 
 571:Generated_Source\PSoC4/USBTMC_std.c **** {
 1032              		.loc 1 571 0
 1033              		.cfi_startproc
 1034              		@ args = 0, pretend = 0, frame = 32
 1035              		@ frame_needed = 1, uses_anonymous_args = 0
 1036 0000 80B5     		push	{r7, lr}
 1037              		.cfi_def_cfa_offset 8
 1038              		.cfi_offset 7, -8
 1039              		.cfi_offset 14, -4
 1040 0002 88B0     		sub	sp, sp, #32
 1041              		.cfi_def_cfa_offset 40
 1042 0004 00AF     		add	r7, sp, #0
 1043              		.cfi_def_cfa_register 7
 1044 0006 0200     		movs	r2, r0
 1045 0008 FB1D     		adds	r3, r7, #7
ARM GAS  C:\Users\essele\AppData\Local\Temp\ccFLOaGJ.s 			page 31


 1046 000a 1A70     		strb	r2, [r3]
 572:Generated_Source\PSoC4/USBTMC_std.c ****     uint8 ep;
 573:Generated_Source\PSoC4/USBTMC_std.c ****     uint8 curEp;
 574:Generated_Source\PSoC4/USBTMC_std.c ****     uint8 i;
 575:Generated_Source\PSoC4/USBTMC_std.c ****     uint8 epType;
 576:Generated_Source\PSoC4/USBTMC_std.c ****     const uint8 *pDescr;
 577:Generated_Source\PSoC4/USBTMC_std.c ****     
 578:Generated_Source\PSoC4/USBTMC_std.c ****     #if (!USBTMC_EP_MANAGEMENT_DMA_AUTO)
 579:Generated_Source\PSoC4/USBTMC_std.c ****         uint16 buffCount = 0u;
 1047              		.loc 1 579 0
 1048 000c 1A23     		movs	r3, #26
 1049 000e FB18     		adds	r3, r7, r3
 1050 0010 0022     		movs	r2, #0
 1051 0012 1A80     		strh	r2, [r3]
 580:Generated_Source\PSoC4/USBTMC_std.c ****     #endif /* (!USBTMC_EP_MANAGEMENT_DMA_AUTO) */
 581:Generated_Source\PSoC4/USBTMC_std.c **** 
 582:Generated_Source\PSoC4/USBTMC_std.c ****     const T_USBTMC_LUT CYCODE *pTmp;
 583:Generated_Source\PSoC4/USBTMC_std.c ****     const T_USBTMC_EP_SETTINGS_BLOCK CYCODE *pEP;
 584:Generated_Source\PSoC4/USBTMC_std.c **** 
 585:Generated_Source\PSoC4/USBTMC_std.c ****     /* Clear endpoints settings */
 586:Generated_Source\PSoC4/USBTMC_std.c ****     for (ep = 0u; ep < USBTMC_MAX_EP; ++ep)
 1052              		.loc 1 586 0
 1053 0014 1F23     		movs	r3, #31
 1054 0016 FB18     		adds	r3, r7, r3
 1055 0018 0022     		movs	r2, #0
 1056 001a 1A70     		strb	r2, [r3]
 1057 001c 58E0     		b	.L87
 1058              	.L88:
 587:Generated_Source\PSoC4/USBTMC_std.c ****     {
 588:Generated_Source\PSoC4/USBTMC_std.c ****         USBTMC_EP[ep].attrib     = 0u;
 1059              		.loc 1 588 0 discriminator 3
 1060 001e 1F23     		movs	r3, #31
 1061 0020 FB18     		adds	r3, r7, r3
 1062 0022 1A78     		ldrb	r2, [r3]
 1063 0024 D649     		ldr	r1, .L111
 1064 0026 1300     		movs	r3, r2
 1065 0028 5B00     		lsls	r3, r3, #1
 1066 002a 9B18     		adds	r3, r3, r2
 1067 002c 9B00     		lsls	r3, r3, #2
 1068 002e 0022     		movs	r2, #0
 1069 0030 5A54     		strb	r2, [r3, r1]
 589:Generated_Source\PSoC4/USBTMC_std.c ****         USBTMC_EP[ep].hwEpState  = 0u;
 1070              		.loc 1 589 0 discriminator 3
 1071 0032 1F23     		movs	r3, #31
 1072 0034 FB18     		adds	r3, r7, r3
 1073 0036 1A78     		ldrb	r2, [r3]
 1074 0038 D149     		ldr	r1, .L111
 1075 003a 1300     		movs	r3, r2
 1076 003c 5B00     		lsls	r3, r3, #1
 1077 003e 9B18     		adds	r3, r3, r2
 1078 0040 9B00     		lsls	r3, r3, #2
 1079 0042 CB18     		adds	r3, r1, r3
 1080 0044 0233     		adds	r3, r3, #2
 1081 0046 0022     		movs	r2, #0
 1082 0048 1A70     		strb	r2, [r3]
 590:Generated_Source\PSoC4/USBTMC_std.c ****         USBTMC_EP[ep].epToggle   = 0u;
 1083              		.loc 1 590 0 discriminator 3
ARM GAS  C:\Users\essele\AppData\Local\Temp\ccFLOaGJ.s 			page 32


 1084 004a 1F23     		movs	r3, #31
 1085 004c FB18     		adds	r3, r7, r3
 1086 004e 1A78     		ldrb	r2, [r3]
 1087 0050 CB49     		ldr	r1, .L111
 1088 0052 1300     		movs	r3, r2
 1089 0054 5B00     		lsls	r3, r3, #1
 1090 0056 9B18     		adds	r3, r3, r2
 1091 0058 9B00     		lsls	r3, r3, #2
 1092 005a CB18     		adds	r3, r1, r3
 1093 005c 0333     		adds	r3, r3, #3
 1094 005e 0022     		movs	r2, #0
 1095 0060 1A70     		strb	r2, [r3]
 591:Generated_Source\PSoC4/USBTMC_std.c ****         USBTMC_EP[ep].bufferSize = 0u;
 1096              		.loc 1 591 0 discriminator 3
 1097 0062 1F23     		movs	r3, #31
 1098 0064 FB18     		adds	r3, r7, r3
 1099 0066 1A78     		ldrb	r2, [r3]
 1100 0068 C549     		ldr	r1, .L111
 1101 006a 1300     		movs	r3, r2
 1102 006c 5B00     		lsls	r3, r3, #1
 1103 006e 9B18     		adds	r3, r3, r2
 1104 0070 9B00     		lsls	r3, r3, #2
 1105 0072 CB18     		adds	r3, r1, r3
 1106 0074 0833     		adds	r3, r3, #8
 1107 0076 0022     		movs	r2, #0
 1108 0078 1A80     		strh	r2, [r3]
 592:Generated_Source\PSoC4/USBTMC_std.c ****         USBTMC_EP[ep].interface  = 0u;
 1109              		.loc 1 592 0 discriminator 3
 1110 007a 1F23     		movs	r3, #31
 1111 007c FB18     		adds	r3, r7, r3
 1112 007e 1A78     		ldrb	r2, [r3]
 1113 0080 BF49     		ldr	r1, .L111
 1114 0082 1300     		movs	r3, r2
 1115 0084 5B00     		lsls	r3, r3, #1
 1116 0086 9B18     		adds	r3, r3, r2
 1117 0088 9B00     		lsls	r3, r3, #2
 1118 008a CB18     		adds	r3, r1, r3
 1119 008c 0A33     		adds	r3, r3, #10
 1120 008e 0022     		movs	r2, #0
 1121 0090 1A70     		strb	r2, [r3]
 593:Generated_Source\PSoC4/USBTMC_std.c ****         USBTMC_EP[ep].apiEpState = USBTMC_NO_EVENT_PENDING;
 1122              		.loc 1 593 0 discriminator 3
 1123 0092 1F23     		movs	r3, #31
 1124 0094 FB18     		adds	r3, r7, r3
 1125 0096 1A78     		ldrb	r2, [r3]
 1126 0098 B949     		ldr	r1, .L111
 1127 009a 1300     		movs	r3, r2
 1128 009c 5B00     		lsls	r3, r3, #1
 1129 009e 9B18     		adds	r3, r3, r2
 1130 00a0 9B00     		lsls	r3, r3, #2
 1131 00a2 CB18     		adds	r3, r1, r3
 1132 00a4 0133     		adds	r3, r3, #1
 1133 00a6 0022     		movs	r2, #0
 1134 00a8 1A70     		strb	r2, [r3]
 594:Generated_Source\PSoC4/USBTMC_std.c ****         USBTMC_EP[ep].epMode     = USBTMC_MODE_DISABLE;   
 1135              		.loc 1 594 0 discriminator 3
 1136 00aa 1F23     		movs	r3, #31
ARM GAS  C:\Users\essele\AppData\Local\Temp\ccFLOaGJ.s 			page 33


 1137 00ac FB18     		adds	r3, r7, r3
 1138 00ae 1A78     		ldrb	r2, [r3]
 1139 00b0 B349     		ldr	r1, .L111
 1140 00b2 1300     		movs	r3, r2
 1141 00b4 5B00     		lsls	r3, r3, #1
 1142 00b6 9B18     		adds	r3, r3, r2
 1143 00b8 9B00     		lsls	r3, r3, #2
 1144 00ba CB18     		adds	r3, r1, r3
 1145 00bc 0533     		adds	r3, r3, #5
 1146 00be 0022     		movs	r2, #0
 1147 00c0 1A70     		strb	r2, [r3]
 586:Generated_Source\PSoC4/USBTMC_std.c ****     {
 1148              		.loc 1 586 0 discriminator 3
 1149 00c2 1F23     		movs	r3, #31
 1150 00c4 FB18     		adds	r3, r7, r3
 1151 00c6 1F22     		movs	r2, #31
 1152 00c8 BA18     		adds	r2, r7, r2
 1153 00ca 1278     		ldrb	r2, [r2]
 1154 00cc 0132     		adds	r2, r2, #1
 1155 00ce 1A70     		strb	r2, [r3]
 1156              	.L87:
 586:Generated_Source\PSoC4/USBTMC_std.c ****     {
 1157              		.loc 1 586 0 is_stmt 0 discriminator 1
 1158 00d0 1F23     		movs	r3, #31
 1159 00d2 FB18     		adds	r3, r7, r3
 1160 00d4 1B78     		ldrb	r3, [r3]
 1161 00d6 082B     		cmp	r3, #8
 1162 00d8 A1D9     		bls	.L88
 595:Generated_Source\PSoC4/USBTMC_std.c ****     }
 596:Generated_Source\PSoC4/USBTMC_std.c **** 
 597:Generated_Source\PSoC4/USBTMC_std.c ****     /* Clear Alternate settings for all interfaces. */
 598:Generated_Source\PSoC4/USBTMC_std.c ****     if (0u != clearAltSetting)
 1163              		.loc 1 598 0 is_stmt 1
 1164 00da FB1D     		adds	r3, r7, #7
 1165 00dc 1B78     		ldrb	r3, [r3]
 1166 00de 002B     		cmp	r3, #0
 1167 00e0 1CD0     		beq	.L89
 599:Generated_Source\PSoC4/USBTMC_std.c ****     {
 600:Generated_Source\PSoC4/USBTMC_std.c ****         for (i = 0u; i < USBTMC_MAX_INTERFACES_NUMBER; ++i)
 1168              		.loc 1 600 0
 1169 00e2 1D23     		movs	r3, #29
 1170 00e4 FB18     		adds	r3, r7, r3
 1171 00e6 0022     		movs	r2, #0
 1172 00e8 1A70     		strb	r2, [r3]
 1173 00ea 12E0     		b	.L90
 1174              	.L91:
 601:Generated_Source\PSoC4/USBTMC_std.c ****         {
 602:Generated_Source\PSoC4/USBTMC_std.c ****             USBTMC_interfaceSetting[i]     = 0u;
 1175              		.loc 1 602 0 discriminator 3
 1176 00ec 1D23     		movs	r3, #29
 1177 00ee FB18     		adds	r3, r7, r3
 1178 00f0 1B78     		ldrb	r3, [r3]
 1179 00f2 A44A     		ldr	r2, .L111+4
 1180 00f4 0021     		movs	r1, #0
 1181 00f6 D154     		strb	r1, [r2, r3]
 603:Generated_Source\PSoC4/USBTMC_std.c ****             USBTMC_interfaceSettingLast[i] = 0u;
 1182              		.loc 1 603 0 discriminator 3
ARM GAS  C:\Users\essele\AppData\Local\Temp\ccFLOaGJ.s 			page 34


 1183 00f8 1D23     		movs	r3, #29
 1184 00fa FB18     		adds	r3, r7, r3
 1185 00fc 1B78     		ldrb	r3, [r3]
 1186 00fe A24A     		ldr	r2, .L111+8
 1187 0100 0021     		movs	r1, #0
 1188 0102 D154     		strb	r1, [r2, r3]
 600:Generated_Source\PSoC4/USBTMC_std.c ****         {
 1189              		.loc 1 600 0 discriminator 3
 1190 0104 1D23     		movs	r3, #29
 1191 0106 FB18     		adds	r3, r7, r3
 1192 0108 1D22     		movs	r2, #29
 1193 010a BA18     		adds	r2, r7, r2
 1194 010c 1278     		ldrb	r2, [r2]
 1195 010e 0132     		adds	r2, r2, #1
 1196 0110 1A70     		strb	r2, [r3]
 1197              	.L90:
 600:Generated_Source\PSoC4/USBTMC_std.c ****         {
 1198              		.loc 1 600 0 is_stmt 0 discriminator 1
 1199 0112 1D23     		movs	r3, #29
 1200 0114 FB18     		adds	r3, r7, r3
 1201 0116 1B78     		ldrb	r3, [r3]
 1202 0118 002B     		cmp	r3, #0
 1203 011a E7D0     		beq	.L91
 1204              	.L89:
 604:Generated_Source\PSoC4/USBTMC_std.c ****         }
 605:Generated_Source\PSoC4/USBTMC_std.c ****     }
 606:Generated_Source\PSoC4/USBTMC_std.c **** 
 607:Generated_Source\PSoC4/USBTMC_std.c ****     /* Init Endpoints and Device Status if configured */
 608:Generated_Source\PSoC4/USBTMC_std.c ****     if (USBTMC_configuration > 0u)
 1205              		.loc 1 608 0 is_stmt 1
 1206 011c 9B4B     		ldr	r3, .L111+12
 1207 011e 1B78     		ldrb	r3, [r3]
 1208 0120 DBB2     		uxtb	r3, r3
 1209 0122 002B     		cmp	r3, #0
 1210 0124 00D1     		bne	.LCB1077
 1211 0126 66E1     		b	.L110	@long jump
 1212              	.LCB1077:
 609:Generated_Source\PSoC4/USBTMC_std.c ****     {
 610:Generated_Source\PSoC4/USBTMC_std.c ****         #if defined(USBTMC_ENABLE_CDC_CLASS)
 611:Generated_Source\PSoC4/USBTMC_std.c ****             uint8 cdcComNums = 0u;
 612:Generated_Source\PSoC4/USBTMC_std.c ****         #endif  /* (USBTMC_ENABLE_CDC_CLASS) */  
 613:Generated_Source\PSoC4/USBTMC_std.c **** 
 614:Generated_Source\PSoC4/USBTMC_std.c ****         pTmp = USBTMC_GetConfigTablePtr(USBTMC_configuration - 1u);
 1213              		.loc 1 614 0
 1214 0128 984B     		ldr	r3, .L111+12
 1215 012a 1B78     		ldrb	r3, [r3]
 1216 012c DBB2     		uxtb	r3, r3
 1217 012e 013B     		subs	r3, r3, #1
 1218 0130 DBB2     		uxtb	r3, r3
 1219 0132 1800     		movs	r0, r3
 1220 0134 FFF7FEFF 		bl	USBTMC_GetConfigTablePtr
 1221 0138 0300     		movs	r3, r0
 1222 013a 3B61     		str	r3, [r7, #16]
 615:Generated_Source\PSoC4/USBTMC_std.c ****         
 616:Generated_Source\PSoC4/USBTMC_std.c ****         /* Set Power status for current configuration */
 617:Generated_Source\PSoC4/USBTMC_std.c ****         pDescr = (const uint8 *)pTmp->p_list;
 1223              		.loc 1 617 0
ARM GAS  C:\Users\essele\AppData\Local\Temp\ccFLOaGJ.s 			page 35


 1224 013c 3B69     		ldr	r3, [r7, #16]
 1225 013e 5B68     		ldr	r3, [r3, #4]
 1226 0140 FB60     		str	r3, [r7, #12]
 618:Generated_Source\PSoC4/USBTMC_std.c ****         if ((pDescr[USBTMC_CONFIG_DESCR_ATTRIB] & USBTMC_CONFIG_DESCR_ATTRIB_SELF_POWERED) != 0u)
 1227              		.loc 1 618 0
 1228 0142 FB68     		ldr	r3, [r7, #12]
 1229 0144 0733     		adds	r3, r3, #7
 1230 0146 1B78     		ldrb	r3, [r3]
 1231 0148 1A00     		movs	r2, r3
 1232 014a 4023     		movs	r3, #64
 1233 014c 1340     		ands	r3, r2
 1234 014e 08D0     		beq	.L93
 619:Generated_Source\PSoC4/USBTMC_std.c ****         {
 620:Generated_Source\PSoC4/USBTMC_std.c ****             USBTMC_deviceStatus |= (uint8)  USBTMC_DEVICE_STATUS_SELF_POWERED;
 1235              		.loc 1 620 0
 1236 0150 8F4B     		ldr	r3, .L111+16
 1237 0152 1B78     		ldrb	r3, [r3]
 1238 0154 DBB2     		uxtb	r3, r3
 1239 0156 0122     		movs	r2, #1
 1240 0158 1343     		orrs	r3, r2
 1241 015a DAB2     		uxtb	r2, r3
 1242 015c 8C4B     		ldr	r3, .L111+16
 1243 015e 1A70     		strb	r2, [r3]
 1244 0160 07E0     		b	.L94
 1245              	.L93:
 621:Generated_Source\PSoC4/USBTMC_std.c ****         }
 622:Generated_Source\PSoC4/USBTMC_std.c ****         else
 623:Generated_Source\PSoC4/USBTMC_std.c ****         {
 624:Generated_Source\PSoC4/USBTMC_std.c ****             USBTMC_deviceStatus &= (uint8) ~USBTMC_DEVICE_STATUS_SELF_POWERED;
 1246              		.loc 1 624 0
 1247 0162 8B4B     		ldr	r3, .L111+16
 1248 0164 1B78     		ldrb	r3, [r3]
 1249 0166 DBB2     		uxtb	r3, r3
 1250 0168 0122     		movs	r2, #1
 1251 016a 9343     		bics	r3, r2
 1252 016c DAB2     		uxtb	r2, r3
 1253 016e 884B     		ldr	r3, .L111+16
 1254 0170 1A70     		strb	r2, [r3]
 1255              	.L94:
 625:Generated_Source\PSoC4/USBTMC_std.c ****         }
 626:Generated_Source\PSoC4/USBTMC_std.c ****         
 627:Generated_Source\PSoC4/USBTMC_std.c ****         /* Move to next element */
 628:Generated_Source\PSoC4/USBTMC_std.c ****         pTmp = &pTmp[1u];
 1256              		.loc 1 628 0
 1257 0172 3B69     		ldr	r3, [r7, #16]
 1258 0174 0833     		adds	r3, r3, #8
 1259 0176 3B61     		str	r3, [r7, #16]
 629:Generated_Source\PSoC4/USBTMC_std.c ****         ep = pTmp->c;  /* For this table, c is the number of endpoints configurations  */
 1260              		.loc 1 629 0
 1261 0178 1F23     		movs	r3, #31
 1262 017a FB18     		adds	r3, r7, r3
 1263 017c 3A69     		ldr	r2, [r7, #16]
 1264 017e 1278     		ldrb	r2, [r2]
 1265 0180 1A70     		strb	r2, [r3]
 630:Generated_Source\PSoC4/USBTMC_std.c **** 
 631:Generated_Source\PSoC4/USBTMC_std.c ****         #if (USBTMC_EP_MANAGEMENT_MANUAL && USBTMC_EP_ALLOC_DYNAMIC)
 632:Generated_Source\PSoC4/USBTMC_std.c ****             /* Configure for dynamic EP memory allocation */
ARM GAS  C:\Users\essele\AppData\Local\Temp\ccFLOaGJ.s 			page 36


 633:Generated_Source\PSoC4/USBTMC_std.c ****             /* p_list points the endpoint setting table. */
 634:Generated_Source\PSoC4/USBTMC_std.c ****             pEP = (T_USBTMC_EP_SETTINGS_BLOCK *) pTmp->p_list;
 635:Generated_Source\PSoC4/USBTMC_std.c ****             
 636:Generated_Source\PSoC4/USBTMC_std.c ****             for (i = 0u; i < ep; i++)
 637:Generated_Source\PSoC4/USBTMC_std.c ****             {     
 638:Generated_Source\PSoC4/USBTMC_std.c ****                 /* Compare current Alternate setting with EP Alt */
 639:Generated_Source\PSoC4/USBTMC_std.c ****                 if (USBTMC_interfaceSetting[pEP->interface] == pEP->altSetting)
 640:Generated_Source\PSoC4/USBTMC_std.c ****                 {                                                          
 641:Generated_Source\PSoC4/USBTMC_std.c ****                     curEp  = pEP->addr & USBTMC_DIR_UNUSED;
 642:Generated_Source\PSoC4/USBTMC_std.c ****                     epType = pEP->attributes & USBTMC_EP_TYPE_MASK;
 643:Generated_Source\PSoC4/USBTMC_std.c ****                     
 644:Generated_Source\PSoC4/USBTMC_std.c ****                     USBTMC_EP[curEp].addr       = pEP->addr;
 645:Generated_Source\PSoC4/USBTMC_std.c ****                     USBTMC_EP[curEp].attrib     = pEP->attributes;
 646:Generated_Source\PSoC4/USBTMC_std.c ****                     USBTMC_EP[curEp].bufferSize = pEP->bufferSize;
 647:Generated_Source\PSoC4/USBTMC_std.c **** 
 648:Generated_Source\PSoC4/USBTMC_std.c ****                     if (0u != (pEP->addr & USBTMC_DIR_IN))
 649:Generated_Source\PSoC4/USBTMC_std.c ****                     {
 650:Generated_Source\PSoC4/USBTMC_std.c ****                         /* IN Endpoint */
 651:Generated_Source\PSoC4/USBTMC_std.c ****                         USBTMC_EP[curEp].epMode     = USBTMC_GET_ACTIVE_IN_EP_CR0_MODE(epType);
 652:Generated_Source\PSoC4/USBTMC_std.c ****                         USBTMC_EP[curEp].apiEpState = USBTMC_EVENT_PENDING;
 653:Generated_Source\PSoC4/USBTMC_std.c ****                     
 654:Generated_Source\PSoC4/USBTMC_std.c ****                     #if (defined(USBTMC_ENABLE_MIDI_STREAMING) && (USBTMC_MIDI_IN_BUFF_SIZE > 0))
 655:Generated_Source\PSoC4/USBTMC_std.c ****                         if ((pEP->bMisc == USBTMC_CLASS_AUDIO) && (epType == USBTMC_EP_TYPE_BULK))
 656:Generated_Source\PSoC4/USBTMC_std.c ****                         {
 657:Generated_Source\PSoC4/USBTMC_std.c ****                             USBTMC_midi_in_ep = curEp;
 658:Generated_Source\PSoC4/USBTMC_std.c ****                         }
 659:Generated_Source\PSoC4/USBTMC_std.c ****                     #endif  /* (USBTMC_ENABLE_MIDI_STREAMING) */
 660:Generated_Source\PSoC4/USBTMC_std.c ****                     }
 661:Generated_Source\PSoC4/USBTMC_std.c ****                     else
 662:Generated_Source\PSoC4/USBTMC_std.c ****                     {
 663:Generated_Source\PSoC4/USBTMC_std.c ****                         /* OUT Endpoint */
 664:Generated_Source\PSoC4/USBTMC_std.c ****                         USBTMC_EP[curEp].epMode     = USBTMC_GET_ACTIVE_OUT_EP_CR0_MODE(epType);
 665:Generated_Source\PSoC4/USBTMC_std.c ****                         USBTMC_EP[curEp].apiEpState = USBTMC_NO_EVENT_PENDING;
 666:Generated_Source\PSoC4/USBTMC_std.c ****                         
 667:Generated_Source\PSoC4/USBTMC_std.c ****                     #if (defined(USBTMC_ENABLE_MIDI_STREAMING) && (USBTMC_MIDI_OUT_BUFF_SIZE > 0))
 668:Generated_Source\PSoC4/USBTMC_std.c ****                         if ((pEP->bMisc == USBTMC_CLASS_AUDIO) && (epType == USBTMC_EP_TYPE_BULK))
 669:Generated_Source\PSoC4/USBTMC_std.c ****                         {
 670:Generated_Source\PSoC4/USBTMC_std.c ****                             USBTMC_midi_out_ep = curEp;
 671:Generated_Source\PSoC4/USBTMC_std.c ****                         }
 672:Generated_Source\PSoC4/USBTMC_std.c ****                     #endif  /* (USBTMC_ENABLE_MIDI_STREAMING) */
 673:Generated_Source\PSoC4/USBTMC_std.c ****                     }
 674:Generated_Source\PSoC4/USBTMC_std.c **** 
 675:Generated_Source\PSoC4/USBTMC_std.c ****                 #if(defined (USBTMC_ENABLE_CDC_CLASS))
 676:Generated_Source\PSoC4/USBTMC_std.c ****                     if((pEP->bMisc == USBTMC_CLASS_CDC_DATA) ||(pEP->bMisc == USBTMC_CLASS_CDC))
 677:Generated_Source\PSoC4/USBTMC_std.c ****                     {
 678:Generated_Source\PSoC4/USBTMC_std.c ****                         cdcComNums = USBTMC_Cdc_EpInit(pEP, curEp, cdcComNums);
 679:Generated_Source\PSoC4/USBTMC_std.c ****                     }
 680:Generated_Source\PSoC4/USBTMC_std.c ****                 #endif  /* (USBTMC_ENABLE_CDC_CLASS) */
 681:Generated_Source\PSoC4/USBTMC_std.c ****                 }
 682:Generated_Source\PSoC4/USBTMC_std.c ****                 
 683:Generated_Source\PSoC4/USBTMC_std.c ****                 pEP = &pEP[1u];
 684:Generated_Source\PSoC4/USBTMC_std.c ****             }
 685:Generated_Source\PSoC4/USBTMC_std.c ****             
 686:Generated_Source\PSoC4/USBTMC_std.c ****         #else
 687:Generated_Source\PSoC4/USBTMC_std.c ****             for (i = USBTMC_EP1; i < USBTMC_MAX_EP; ++i)
 1266              		.loc 1 687 0
 1267 0182 1D23     		movs	r3, #29
ARM GAS  C:\Users\essele\AppData\Local\Temp\ccFLOaGJ.s 			page 37


 1268 0184 FB18     		adds	r3, r7, r3
 1269 0186 0122     		movs	r2, #1
 1270 0188 1A70     		strb	r2, [r3]
 1271 018a BBE0     		b	.L95
 1272              	.L105:
 688:Generated_Source\PSoC4/USBTMC_std.c ****             {
 689:Generated_Source\PSoC4/USBTMC_std.c ****                 /* p_list points the endpoint setting table. */
 690:Generated_Source\PSoC4/USBTMC_std.c ****                 pEP = (const T_USBTMC_EP_SETTINGS_BLOCK CYCODE *) pTmp->p_list;
 1273              		.loc 1 690 0
 1274 018c 3B69     		ldr	r3, [r7, #16]
 1275 018e 5B68     		ldr	r3, [r3, #4]
 1276 0190 7B61     		str	r3, [r7, #20]
 691:Generated_Source\PSoC4/USBTMC_std.c ****                 /* Find max length for each EP and select it (length could be different in differen
 692:Generated_Source\PSoC4/USBTMC_std.c ****                 /* but other settings should be correct with regards to Interface alt Setting */
 693:Generated_Source\PSoC4/USBTMC_std.c ****                 
 694:Generated_Source\PSoC4/USBTMC_std.c ****                 for (curEp = 0u; curEp < ep; ++curEp)
 1277              		.loc 1 694 0
 1278 0192 1E23     		movs	r3, #30
 1279 0194 FB18     		adds	r3, r7, r3
 1280 0196 0022     		movs	r2, #0
 1281 0198 1A70     		strb	r2, [r3]
 1282 019a A3E0     		b	.L96
 1283              	.L104:
 695:Generated_Source\PSoC4/USBTMC_std.c ****                 {
 696:Generated_Source\PSoC4/USBTMC_std.c ****                     if (i == (pEP->addr & USBTMC_DIR_UNUSED))
 1284              		.loc 1 696 0
 1285 019c 1D23     		movs	r3, #29
 1286 019e FB18     		adds	r3, r7, r3
 1287 01a0 1A78     		ldrb	r2, [r3]
 1288 01a2 7B69     		ldr	r3, [r7, #20]
 1289 01a4 9B78     		ldrb	r3, [r3, #2]
 1290 01a6 1900     		movs	r1, r3
 1291 01a8 7F23     		movs	r3, #127
 1292 01aa 0B40     		ands	r3, r1
 1293 01ac 9A42     		cmp	r2, r3
 1294 01ae 00D0     		beq	.LCB1156
 1295 01b0 8EE0     		b	.L97	@long jump
 1296              	.LCB1156:
 697:Generated_Source\PSoC4/USBTMC_std.c ****                     {
 698:Generated_Source\PSoC4/USBTMC_std.c ****                         /* Compare endpoint buffers size with current size to find greater. */
 699:Generated_Source\PSoC4/USBTMC_std.c ****                         if (USBTMC_EP[i].bufferSize < pEP->bufferSize)
 1297              		.loc 1 699 0
 1298 01b2 1D23     		movs	r3, #29
 1299 01b4 FB18     		adds	r3, r7, r3
 1300 01b6 1A78     		ldrb	r2, [r3]
 1301 01b8 7149     		ldr	r1, .L111
 1302 01ba 1300     		movs	r3, r2
 1303 01bc 5B00     		lsls	r3, r3, #1
 1304 01be 9B18     		adds	r3, r3, r2
 1305 01c0 9B00     		lsls	r3, r3, #2
 1306 01c2 CB18     		adds	r3, r1, r3
 1307 01c4 0833     		adds	r3, r3, #8
 1308 01c6 1B88     		ldrh	r3, [r3]
 1309 01c8 9AB2     		uxth	r2, r3
 1310 01ca 7B69     		ldr	r3, [r7, #20]
 1311 01cc 9B88     		ldrh	r3, [r3, #4]
 1312 01ce 9A42     		cmp	r2, r3
ARM GAS  C:\Users\essele\AppData\Local\Temp\ccFLOaGJ.s 			page 38


 1313 01d0 0DD2     		bcs	.L98
 700:Generated_Source\PSoC4/USBTMC_std.c ****                         {
 701:Generated_Source\PSoC4/USBTMC_std.c ****                             USBTMC_EP[i].bufferSize = pEP->bufferSize;
 1314              		.loc 1 701 0
 1315 01d2 1D23     		movs	r3, #29
 1316 01d4 FB18     		adds	r3, r7, r3
 1317 01d6 1A78     		ldrb	r2, [r3]
 1318 01d8 7B69     		ldr	r3, [r7, #20]
 1319 01da 9888     		ldrh	r0, [r3, #4]
 1320 01dc 6849     		ldr	r1, .L111
 1321 01de 1300     		movs	r3, r2
 1322 01e0 5B00     		lsls	r3, r3, #1
 1323 01e2 9B18     		adds	r3, r3, r2
 1324 01e4 9B00     		lsls	r3, r3, #2
 1325 01e6 CB18     		adds	r3, r1, r3
 1326 01e8 0833     		adds	r3, r3, #8
 1327 01ea 021C     		adds	r2, r0, #0
 1328 01ec 1A80     		strh	r2, [r3]
 1329              	.L98:
 702:Generated_Source\PSoC4/USBTMC_std.c ****                         }
 703:Generated_Source\PSoC4/USBTMC_std.c ****                         
 704:Generated_Source\PSoC4/USBTMC_std.c ****                         /* Compare current Alternate setting with EP Alt */
 705:Generated_Source\PSoC4/USBTMC_std.c ****                         if (USBTMC_interfaceSetting[pEP->interface] == pEP->altSetting)
 1330              		.loc 1 705 0
 1331 01ee 7B69     		ldr	r3, [r7, #20]
 1332 01f0 1B78     		ldrb	r3, [r3]
 1333 01f2 1A00     		movs	r2, r3
 1334 01f4 634B     		ldr	r3, .L111+4
 1335 01f6 9B5C     		ldrb	r3, [r3, r2]
 1336 01f8 DAB2     		uxtb	r2, r3
 1337 01fa 7B69     		ldr	r3, [r7, #20]
 1338 01fc 5B78     		ldrb	r3, [r3, #1]
 1339 01fe 9A42     		cmp	r2, r3
 1340 0200 66D1     		bne	.L97
 706:Generated_Source\PSoC4/USBTMC_std.c ****                         {                            
 707:Generated_Source\PSoC4/USBTMC_std.c ****                             USBTMC_EP[i].addr = pEP->addr;
 1341              		.loc 1 707 0
 1342 0202 1D23     		movs	r3, #29
 1343 0204 FB18     		adds	r3, r7, r3
 1344 0206 1A78     		ldrb	r2, [r3]
 1345 0208 7B69     		ldr	r3, [r7, #20]
 1346 020a 9878     		ldrb	r0, [r3, #2]
 1347 020c 5C49     		ldr	r1, .L111
 1348 020e 1300     		movs	r3, r2
 1349 0210 5B00     		lsls	r3, r3, #1
 1350 0212 9B18     		adds	r3, r3, r2
 1351 0214 9B00     		lsls	r3, r3, #2
 1352 0216 CB18     		adds	r3, r1, r3
 1353 0218 0433     		adds	r3, r3, #4
 1354 021a 021C     		adds	r2, r0, #0
 1355 021c 1A70     		strb	r2, [r3]
 708:Generated_Source\PSoC4/USBTMC_std.c ****                             USBTMC_EP[i].attrib = pEP->attributes;
 1356              		.loc 1 708 0
 1357 021e 1D23     		movs	r3, #29
 1358 0220 FB18     		adds	r3, r7, r3
 1359 0222 1A78     		ldrb	r2, [r3]
 1360 0224 7B69     		ldr	r3, [r7, #20]
ARM GAS  C:\Users\essele\AppData\Local\Temp\ccFLOaGJ.s 			page 39


 1361 0226 D878     		ldrb	r0, [r3, #3]
 1362 0228 5549     		ldr	r1, .L111
 1363 022a 1300     		movs	r3, r2
 1364 022c 5B00     		lsls	r3, r3, #1
 1365 022e 9B18     		adds	r3, r3, r2
 1366 0230 9B00     		lsls	r3, r3, #2
 1367 0232 021C     		adds	r2, r0, #0
 1368 0234 5A54     		strb	r2, [r3, r1]
 709:Generated_Source\PSoC4/USBTMC_std.c ****                             
 710:Generated_Source\PSoC4/USBTMC_std.c ****                             epType = pEP->attributes & USBTMC_EP_TYPE_MASK;
 1369              		.loc 1 710 0
 1370 0236 7B69     		ldr	r3, [r7, #20]
 1371 0238 DA78     		ldrb	r2, [r3, #3]
 1372 023a 0B23     		movs	r3, #11
 1373 023c FB18     		adds	r3, r7, r3
 1374 023e 0321     		movs	r1, #3
 1375 0240 0A40     		ands	r2, r1
 1376 0242 1A70     		strb	r2, [r3]
 711:Generated_Source\PSoC4/USBTMC_std.c ****                             
 712:Generated_Source\PSoC4/USBTMC_std.c ****                             if (0u != (pEP->addr & USBTMC_DIR_IN))
 1377              		.loc 1 712 0
 1378 0244 7B69     		ldr	r3, [r7, #20]
 1379 0246 9B78     		ldrb	r3, [r3, #2]
 1380 0248 5BB2     		sxtb	r3, r3
 1381 024a 002B     		cmp	r3, #0
 1382 024c 20DA     		bge	.L99
 713:Generated_Source\PSoC4/USBTMC_std.c ****                             {
 714:Generated_Source\PSoC4/USBTMC_std.c ****                                 /* IN Endpoint */
 715:Generated_Source\PSoC4/USBTMC_std.c ****                                 USBTMC_EP[i].epMode     = USBTMC_GET_ACTIVE_IN_EP_CR0_MODE(epType);
 1383              		.loc 1 715 0
 1384 024e 1D23     		movs	r3, #29
 1385 0250 FB18     		adds	r3, r7, r3
 1386 0252 1A78     		ldrb	r2, [r3]
 1387 0254 0B23     		movs	r3, #11
 1388 0256 FB18     		adds	r3, r7, r3
 1389 0258 1B78     		ldrb	r3, [r3]
 1390 025a 012B     		cmp	r3, #1
 1391 025c 01D1     		bne	.L100
 1392              		.loc 1 715 0 is_stmt 0 discriminator 1
 1393 025e 0720     		movs	r0, #7
 1394 0260 00E0     		b	.L101
 1395              	.L100:
 1396              		.loc 1 715 0 discriminator 2
 1397 0262 0D20     		movs	r0, #13
 1398              	.L101:
 1399              		.loc 1 715 0 discriminator 4
 1400 0264 4649     		ldr	r1, .L111
 1401 0266 1300     		movs	r3, r2
 1402 0268 5B00     		lsls	r3, r3, #1
 1403 026a 9B18     		adds	r3, r3, r2
 1404 026c 9B00     		lsls	r3, r3, #2
 1405 026e CB18     		adds	r3, r1, r3
 1406 0270 0533     		adds	r3, r3, #5
 1407 0272 021C     		adds	r2, r0, #0
 1408 0274 1A70     		strb	r2, [r3]
 716:Generated_Source\PSoC4/USBTMC_std.c ****                                 USBTMC_EP[i].apiEpState = USBTMC_EVENT_PENDING;
 1409              		.loc 1 716 0 is_stmt 1 discriminator 4
ARM GAS  C:\Users\essele\AppData\Local\Temp\ccFLOaGJ.s 			page 40


 1410 0276 1D23     		movs	r3, #29
 1411 0278 FB18     		adds	r3, r7, r3
 1412 027a 1A78     		ldrb	r2, [r3]
 1413 027c 4049     		ldr	r1, .L111
 1414 027e 1300     		movs	r3, r2
 1415 0280 5B00     		lsls	r3, r3, #1
 1416 0282 9B18     		adds	r3, r3, r2
 1417 0284 9B00     		lsls	r3, r3, #2
 1418 0286 CB18     		adds	r3, r1, r3
 1419 0288 0133     		adds	r3, r3, #1
 1420 028a 0122     		movs	r2, #1
 1421 028c 1A70     		strb	r2, [r3]
 1422 028e 1FE0     		b	.L97
 1423              	.L99:
 717:Generated_Source\PSoC4/USBTMC_std.c ****                                 
 718:Generated_Source\PSoC4/USBTMC_std.c ****                             #if (defined(USBTMC_ENABLE_MIDI_STREAMING) && (USBTMC_MIDI_IN_BUFF_SIZE
 719:Generated_Source\PSoC4/USBTMC_std.c ****                                 if ((pEP->bMisc == USBTMC_CLASS_AUDIO) && (epType == USBTMC_EP_TYPE
 720:Generated_Source\PSoC4/USBTMC_std.c ****                                 {
 721:Generated_Source\PSoC4/USBTMC_std.c ****                                     USBTMC_midi_in_ep = i;
 722:Generated_Source\PSoC4/USBTMC_std.c ****                                 }
 723:Generated_Source\PSoC4/USBTMC_std.c ****                             #endif  /* (USBTMC_ENABLE_MIDI_STREAMING) */
 724:Generated_Source\PSoC4/USBTMC_std.c ****                             }
 725:Generated_Source\PSoC4/USBTMC_std.c ****                             else
 726:Generated_Source\PSoC4/USBTMC_std.c ****                             {
 727:Generated_Source\PSoC4/USBTMC_std.c ****                                 /* OUT Endpoint */
 728:Generated_Source\PSoC4/USBTMC_std.c ****                                 USBTMC_EP[i].epMode     = USBTMC_GET_ACTIVE_OUT_EP_CR0_MODE(epType)
 1424              		.loc 1 728 0
 1425 0290 1D23     		movs	r3, #29
 1426 0292 FB18     		adds	r3, r7, r3
 1427 0294 1A78     		ldrb	r2, [r3]
 1428 0296 0B23     		movs	r3, #11
 1429 0298 FB18     		adds	r3, r7, r3
 1430 029a 1B78     		ldrb	r3, [r3]
 1431 029c 012B     		cmp	r3, #1
 1432 029e 01D1     		bne	.L102
 1433              		.loc 1 728 0 is_stmt 0 discriminator 1
 1434 02a0 0520     		movs	r0, #5
 1435 02a2 00E0     		b	.L103
 1436              	.L102:
 1437              		.loc 1 728 0 discriminator 2
 1438 02a4 0920     		movs	r0, #9
 1439              	.L103:
 1440              		.loc 1 728 0 discriminator 4
 1441 02a6 3649     		ldr	r1, .L111
 1442 02a8 1300     		movs	r3, r2
 1443 02aa 5B00     		lsls	r3, r3, #1
 1444 02ac 9B18     		adds	r3, r3, r2
 1445 02ae 9B00     		lsls	r3, r3, #2
 1446 02b0 CB18     		adds	r3, r1, r3
 1447 02b2 0533     		adds	r3, r3, #5
 1448 02b4 021C     		adds	r2, r0, #0
 1449 02b6 1A70     		strb	r2, [r3]
 729:Generated_Source\PSoC4/USBTMC_std.c ****                                 USBTMC_EP[i].apiEpState = USBTMC_NO_EVENT_PENDING;
 1450              		.loc 1 729 0 is_stmt 1 discriminator 4
 1451 02b8 1D23     		movs	r3, #29
 1452 02ba FB18     		adds	r3, r7, r3
 1453 02bc 1A78     		ldrb	r2, [r3]
ARM GAS  C:\Users\essele\AppData\Local\Temp\ccFLOaGJ.s 			page 41


 1454 02be 3049     		ldr	r1, .L111
 1455 02c0 1300     		movs	r3, r2
 1456 02c2 5B00     		lsls	r3, r3, #1
 1457 02c4 9B18     		adds	r3, r3, r2
 1458 02c6 9B00     		lsls	r3, r3, #2
 1459 02c8 CB18     		adds	r3, r1, r3
 1460 02ca 0133     		adds	r3, r3, #1
 1461 02cc 0022     		movs	r2, #0
 1462 02ce 1A70     		strb	r2, [r3]
 1463              	.L97:
 730:Generated_Source\PSoC4/USBTMC_std.c ****                                 
 731:Generated_Source\PSoC4/USBTMC_std.c ****                             #if (defined(USBTMC_ENABLE_MIDI_STREAMING) && (USBTMC_MIDI_OUT_BUFF_SIZ
 732:Generated_Source\PSoC4/USBTMC_std.c ****                                 if ((pEP->bMisc == USBTMC_CLASS_AUDIO) && (epType == USBTMC_EP_TYPE
 733:Generated_Source\PSoC4/USBTMC_std.c ****                                 {
 734:Generated_Source\PSoC4/USBTMC_std.c ****                                     USBTMC_midi_out_ep = i;
 735:Generated_Source\PSoC4/USBTMC_std.c ****                                 }
 736:Generated_Source\PSoC4/USBTMC_std.c ****                             #endif  /* (USBTMC_ENABLE_MIDI_STREAMING) */
 737:Generated_Source\PSoC4/USBTMC_std.c ****                             }
 738:Generated_Source\PSoC4/USBTMC_std.c **** 
 739:Generated_Source\PSoC4/USBTMC_std.c ****                         #if (defined(USBTMC_ENABLE_CDC_CLASS))
 740:Generated_Source\PSoC4/USBTMC_std.c ****                             if((pEP->bMisc == USBTMC_CLASS_CDC_DATA) ||(pEP->bMisc == USBTMC_CLASS_
 741:Generated_Source\PSoC4/USBTMC_std.c ****                             {
 742:Generated_Source\PSoC4/USBTMC_std.c ****                                 cdcComNums = USBTMC_Cdc_EpInit(pEP, i, cdcComNums);
 743:Generated_Source\PSoC4/USBTMC_std.c ****                             }
 744:Generated_Source\PSoC4/USBTMC_std.c ****                         #endif  /* (USBTMC_ENABLE_CDC_CLASS) */
 745:Generated_Source\PSoC4/USBTMC_std.c **** 
 746:Generated_Source\PSoC4/USBTMC_std.c ****                             #if (USBTMC_EP_MANAGEMENT_DMA_AUTO)
 747:Generated_Source\PSoC4/USBTMC_std.c ****                                 break;  /* Use first EP setting in Auto memory management */
 748:Generated_Source\PSoC4/USBTMC_std.c ****                             #endif /* (USBTMC_EP_MANAGEMENT_DMA_AUTO) */
 749:Generated_Source\PSoC4/USBTMC_std.c ****                         }
 750:Generated_Source\PSoC4/USBTMC_std.c ****                     }
 751:Generated_Source\PSoC4/USBTMC_std.c ****                     
 752:Generated_Source\PSoC4/USBTMC_std.c ****                     pEP = &pEP[1u];
 1464              		.loc 1 752 0 discriminator 2
 1465 02d0 7B69     		ldr	r3, [r7, #20]
 1466 02d2 0833     		adds	r3, r3, #8
 1467 02d4 7B61     		str	r3, [r7, #20]
 694:Generated_Source\PSoC4/USBTMC_std.c ****                 {
 1468              		.loc 1 694 0 discriminator 2
 1469 02d6 1E23     		movs	r3, #30
 1470 02d8 FB18     		adds	r3, r7, r3
 1471 02da 1E22     		movs	r2, #30
 1472 02dc BA18     		adds	r2, r7, r2
 1473 02de 1278     		ldrb	r2, [r2]
 1474 02e0 0132     		adds	r2, r2, #1
 1475 02e2 1A70     		strb	r2, [r3]
 1476              	.L96:
 694:Generated_Source\PSoC4/USBTMC_std.c ****                 {
 1477              		.loc 1 694 0 is_stmt 0 discriminator 1
 1478 02e4 1E23     		movs	r3, #30
 1479 02e6 FA18     		adds	r2, r7, r3
 1480 02e8 1F23     		movs	r3, #31
 1481 02ea FB18     		adds	r3, r7, r3
 1482 02ec 1278     		ldrb	r2, [r2]
 1483 02ee 1B78     		ldrb	r3, [r3]
 1484 02f0 9A42     		cmp	r2, r3
 1485 02f2 00D2     		bcs	.LCB1336
ARM GAS  C:\Users\essele\AppData\Local\Temp\ccFLOaGJ.s 			page 42


 1486 02f4 52E7     		b	.L104	@long jump
 1487              	.LCB1336:
 687:Generated_Source\PSoC4/USBTMC_std.c ****             {
 1488              		.loc 1 687 0 is_stmt 1 discriminator 2
 1489 02f6 1D23     		movs	r3, #29
 1490 02f8 FB18     		adds	r3, r7, r3
 1491 02fa 1D22     		movs	r2, #29
 1492 02fc BA18     		adds	r2, r7, r2
 1493 02fe 1278     		ldrb	r2, [r2]
 1494 0300 0132     		adds	r2, r2, #1
 1495 0302 1A70     		strb	r2, [r3]
 1496              	.L95:
 687:Generated_Source\PSoC4/USBTMC_std.c ****             {
 1497              		.loc 1 687 0 is_stmt 0 discriminator 1
 1498 0304 1D23     		movs	r3, #29
 1499 0306 FB18     		adds	r3, r7, r3
 1500 0308 1B78     		ldrb	r3, [r3]
 1501 030a 082B     		cmp	r3, #8
 1502 030c 00D8     		bhi	.LCB1350
 1503 030e 3DE7     		b	.L105	@long jump
 1504              	.LCB1350:
 753:Generated_Source\PSoC4/USBTMC_std.c ****                 }
 754:Generated_Source\PSoC4/USBTMC_std.c ****             }
 755:Generated_Source\PSoC4/USBTMC_std.c ****         #endif /*  (USBTMC_EP_MANAGEMENT_MANUAL && USBTMC_EP_ALLOC_DYNAMIC) */
 756:Generated_Source\PSoC4/USBTMC_std.c **** 
 757:Generated_Source\PSoC4/USBTMC_std.c ****         /* Init class array for each interface and interface number for each EP.
 758:Generated_Source\PSoC4/USBTMC_std.c ****         *  It is used for handling Class specific requests directed to either an
 759:Generated_Source\PSoC4/USBTMC_std.c ****         *  interface or the endpoint.
 760:Generated_Source\PSoC4/USBTMC_std.c ****         */
 761:Generated_Source\PSoC4/USBTMC_std.c ****         /* p_list points the endpoint setting table. */
 762:Generated_Source\PSoC4/USBTMC_std.c ****         pEP = (const T_USBTMC_EP_SETTINGS_BLOCK CYCODE *) pTmp->p_list;
 1505              		.loc 1 762 0 is_stmt 1
 1506 0310 3B69     		ldr	r3, [r7, #16]
 1507 0312 5B68     		ldr	r3, [r3, #4]
 1508 0314 7B61     		str	r3, [r7, #20]
 763:Generated_Source\PSoC4/USBTMC_std.c ****         for (i = 0u; i < ep; i++)
 1509              		.loc 1 763 0
 1510 0316 1D23     		movs	r3, #29
 1511 0318 FB18     		adds	r3, r7, r3
 1512 031a 0022     		movs	r2, #0
 1513 031c 1A70     		strb	r2, [r3]
 1514 031e 19E0     		b	.L106
 1515              	.L107:
 764:Generated_Source\PSoC4/USBTMC_std.c ****         {
 765:Generated_Source\PSoC4/USBTMC_std.c ****             /* Configure interface number for each EP */
 766:Generated_Source\PSoC4/USBTMC_std.c ****             USBTMC_EP[pEP->addr & USBTMC_DIR_UNUSED].interface = pEP->interface;
 1516              		.loc 1 766 0 discriminator 3
 1517 0320 7B69     		ldr	r3, [r7, #20]
 1518 0322 9B78     		ldrb	r3, [r3, #2]
 1519 0324 1A00     		movs	r2, r3
 1520 0326 7F23     		movs	r3, #127
 1521 0328 1A40     		ands	r2, r3
 1522 032a 7B69     		ldr	r3, [r7, #20]
 1523 032c 1878     		ldrb	r0, [r3]
 1524 032e 1449     		ldr	r1, .L111
 1525 0330 1300     		movs	r3, r2
 1526 0332 5B00     		lsls	r3, r3, #1
ARM GAS  C:\Users\essele\AppData\Local\Temp\ccFLOaGJ.s 			page 43


 1527 0334 9B18     		adds	r3, r3, r2
 1528 0336 9B00     		lsls	r3, r3, #2
 1529 0338 CB18     		adds	r3, r1, r3
 1530 033a 0A33     		adds	r3, r3, #10
 1531 033c 021C     		adds	r2, r0, #0
 1532 033e 1A70     		strb	r2, [r3]
 767:Generated_Source\PSoC4/USBTMC_std.c ****             pEP = &pEP[1u];
 1533              		.loc 1 767 0 discriminator 3
 1534 0340 7B69     		ldr	r3, [r7, #20]
 1535 0342 0833     		adds	r3, r3, #8
 1536 0344 7B61     		str	r3, [r7, #20]
 763:Generated_Source\PSoC4/USBTMC_std.c ****         for (i = 0u; i < ep; i++)
 1537              		.loc 1 763 0 discriminator 3
 1538 0346 1D23     		movs	r3, #29
 1539 0348 FB18     		adds	r3, r7, r3
 1540 034a 1A78     		ldrb	r2, [r3]
 1541 034c 1D23     		movs	r3, #29
 1542 034e FB18     		adds	r3, r7, r3
 1543 0350 0132     		adds	r2, r2, #1
 1544 0352 1A70     		strb	r2, [r3]
 1545              	.L106:
 763:Generated_Source\PSoC4/USBTMC_std.c ****         for (i = 0u; i < ep; i++)
 1546              		.loc 1 763 0 is_stmt 0 discriminator 1
 1547 0354 1D23     		movs	r3, #29
 1548 0356 FA18     		adds	r2, r7, r3
 1549 0358 1F23     		movs	r3, #31
 1550 035a FB18     		adds	r3, r7, r3
 1551 035c 1278     		ldrb	r2, [r2]
 1552 035e 1B78     		ldrb	r3, [r3]
 1553 0360 9A42     		cmp	r2, r3
 1554 0362 DDD3     		bcc	.L107
 768:Generated_Source\PSoC4/USBTMC_std.c ****         }
 769:Generated_Source\PSoC4/USBTMC_std.c ****         
 770:Generated_Source\PSoC4/USBTMC_std.c ****         /* Init pointer on interface class table */
 771:Generated_Source\PSoC4/USBTMC_std.c ****         USBTMC_interfaceClass = USBTMC_GetInterfaceClassTablePtr();
 1555              		.loc 1 771 0 is_stmt 1
 1556 0364 FFF7FEFF 		bl	USBTMC_GetInterfaceClassTablePtr
 1557 0368 0200     		movs	r2, r0
 1558 036a 0A4B     		ldr	r3, .L111+20
 1559 036c 1A60     		str	r2, [r3]
 772:Generated_Source\PSoC4/USBTMC_std.c ****         
 773:Generated_Source\PSoC4/USBTMC_std.c ****     /* Set the endpoint buffer addresses */
 774:Generated_Source\PSoC4/USBTMC_std.c ****     #if (!USBTMC_EP_MANAGEMENT_DMA_AUTO)
 775:Generated_Source\PSoC4/USBTMC_std.c ****         buffCount = 0u;
 1560              		.loc 1 775 0
 1561 036e 1A23     		movs	r3, #26
 1562 0370 FB18     		adds	r3, r7, r3
 1563 0372 0022     		movs	r2, #0
 1564 0374 1A80     		strh	r2, [r3]
 776:Generated_Source\PSoC4/USBTMC_std.c ****         for (ep = USBTMC_EP1; ep < USBTMC_MAX_EP; ++ep)
 1565              		.loc 1 776 0
 1566 0376 1F23     		movs	r3, #31
 1567 0378 FB18     		adds	r3, r7, r3
 1568 037a 0122     		movs	r2, #1
 1569 037c 1A70     		strb	r2, [r3]
 1570 037e 33E0     		b	.L108
 1571              	.L112:
ARM GAS  C:\Users\essele\AppData\Local\Temp\ccFLOaGJ.s 			page 44


 1572              		.align	2
 1573              	.L111:
 1574 0380 00000000 		.word	USBTMC_EP
 1575 0384 00000000 		.word	USBTMC_interfaceSetting
 1576 0388 00000000 		.word	USBTMC_interfaceSettingLast
 1577 038c 00000000 		.word	USBTMC_configuration
 1578 0390 00000000 		.word	USBTMC_deviceStatus
 1579 0394 00000000 		.word	USBTMC_interfaceClass
 1580              	.L109:
 777:Generated_Source\PSoC4/USBTMC_std.c ****         {
 778:Generated_Source\PSoC4/USBTMC_std.c ****             USBTMC_EP[ep].buffOffset = buffCount;        
 1581              		.loc 1 778 0 discriminator 3
 1582 0398 1F23     		movs	r3, #31
 1583 039a FB18     		adds	r3, r7, r3
 1584 039c 1A78     		ldrb	r2, [r3]
 1585 039e 1849     		ldr	r1, .L113
 1586 03a0 1300     		movs	r3, r2
 1587 03a2 5B00     		lsls	r3, r3, #1
 1588 03a4 9B18     		adds	r3, r3, r2
 1589 03a6 9B00     		lsls	r3, r3, #2
 1590 03a8 CB18     		adds	r3, r1, r3
 1591 03aa 0633     		adds	r3, r3, #6
 1592 03ac 1A22     		movs	r2, #26
 1593 03ae BA18     		adds	r2, r7, r2
 1594 03b0 1288     		ldrh	r2, [r2]
 1595 03b2 1A80     		strh	r2, [r3]
 779:Generated_Source\PSoC4/USBTMC_std.c ****             buffCount += USBTMC_EP[ep].bufferSize;
 1596              		.loc 1 779 0 discriminator 3
 1597 03b4 1F23     		movs	r3, #31
 1598 03b6 FB18     		adds	r3, r7, r3
 1599 03b8 1A78     		ldrb	r2, [r3]
 1600 03ba 1149     		ldr	r1, .L113
 1601 03bc 1300     		movs	r3, r2
 1602 03be 5B00     		lsls	r3, r3, #1
 1603 03c0 9B18     		adds	r3, r3, r2
 1604 03c2 9B00     		lsls	r3, r3, #2
 1605 03c4 CB18     		adds	r3, r1, r3
 1606 03c6 0833     		adds	r3, r3, #8
 1607 03c8 1B88     		ldrh	r3, [r3]
 1608 03ca 99B2     		uxth	r1, r3
 1609 03cc 1A23     		movs	r3, #26
 1610 03ce FB18     		adds	r3, r7, r3
 1611 03d0 1A22     		movs	r2, #26
 1612 03d2 BA18     		adds	r2, r7, r2
 1613 03d4 1288     		ldrh	r2, [r2]
 1614 03d6 8A18     		adds	r2, r1, r2
 1615 03d8 1A80     		strh	r2, [r3]
 776:Generated_Source\PSoC4/USBTMC_std.c ****         for (ep = USBTMC_EP1; ep < USBTMC_MAX_EP; ++ep)
 1616              		.loc 1 776 0 discriminator 3
 1617 03da 1F23     		movs	r3, #31
 1618 03dc FB18     		adds	r3, r7, r3
 1619 03de 1F22     		movs	r2, #31
 1620 03e0 BA18     		adds	r2, r7, r2
 1621 03e2 1278     		ldrb	r2, [r2]
 1622 03e4 0132     		adds	r2, r2, #1
 1623 03e6 1A70     		strb	r2, [r3]
 1624              	.L108:
ARM GAS  C:\Users\essele\AppData\Local\Temp\ccFLOaGJ.s 			page 45


 776:Generated_Source\PSoC4/USBTMC_std.c ****         for (ep = USBTMC_EP1; ep < USBTMC_MAX_EP; ++ep)
 1625              		.loc 1 776 0 is_stmt 0 discriminator 1
 1626 03e8 1F23     		movs	r3, #31
 1627 03ea FB18     		adds	r3, r7, r3
 1628 03ec 1B78     		ldrb	r3, [r3]
 1629 03ee 082B     		cmp	r3, #8
 1630 03f0 D2D9     		bls	.L109
 780:Generated_Source\PSoC4/USBTMC_std.c ****             
 781:Generated_Source\PSoC4/USBTMC_std.c ****         #if (USBTMC_GEN_16BITS_EP_ACCESS)
 782:Generated_Source\PSoC4/USBTMC_std.c ****             /* Align EP buffers to be event size to access 16-bits DR register. */
 783:Generated_Source\PSoC4/USBTMC_std.c ****             buffCount += (0u != (buffCount & 0x01u)) ? 1u : 0u;
 784:Generated_Source\PSoC4/USBTMC_std.c ****         #endif /* (USBTMC_GEN_16BITS_EP_ACCESS) */            
 785:Generated_Source\PSoC4/USBTMC_std.c ****         }
 786:Generated_Source\PSoC4/USBTMC_std.c ****     #endif /* (!USBTMC_EP_MANAGEMENT_DMA_AUTO) */
 787:Generated_Source\PSoC4/USBTMC_std.c **** 
 788:Generated_Source\PSoC4/USBTMC_std.c ****         /* Configure hardware registers */
 789:Generated_Source\PSoC4/USBTMC_std.c ****         USBTMC_ConfigReg();
 1631              		.loc 1 789 0 is_stmt 1
 1632 03f2 FFF7FEFF 		bl	USBTMC_ConfigReg
 1633              	.L110:
 790:Generated_Source\PSoC4/USBTMC_std.c ****     }
 791:Generated_Source\PSoC4/USBTMC_std.c **** }
 1634              		.loc 1 791 0
 1635 03f6 C046     		nop
 1636 03f8 BD46     		mov	sp, r7
 1637 03fa 08B0     		add	sp, sp, #32
 1638              		@ sp needed
 1639 03fc 80BD     		pop	{r7, pc}
 1640              	.L114:
 1641 03fe C046     		.align	2
 1642              	.L113:
 1643 0400 00000000 		.word	USBTMC_EP
 1644              		.cfi_endproc
 1645              	.LFE4:
 1646              		.size	USBTMC_Config, .-USBTMC_Config
 1647              		.section	.text.USBTMC_ConfigAltChanged,"ax",%progbits
 1648              		.align	2
 1649              		.global	USBTMC_ConfigAltChanged
 1650              		.code	16
 1651              		.thumb_func
 1652              		.type	USBTMC_ConfigAltChanged, %function
 1653              	USBTMC_ConfigAltChanged:
 1654              	.LFB5:
 792:Generated_Source\PSoC4/USBTMC_std.c **** 
 793:Generated_Source\PSoC4/USBTMC_std.c **** 
 794:Generated_Source\PSoC4/USBTMC_std.c **** /*******************************************************************************
 795:Generated_Source\PSoC4/USBTMC_std.c **** * Function Name: USBTMC_ConfigAltChanged
 796:Generated_Source\PSoC4/USBTMC_std.c **** ****************************************************************************//**
 797:Generated_Source\PSoC4/USBTMC_std.c **** *
 798:Generated_Source\PSoC4/USBTMC_std.c **** *  This routine update configuration for the required endpoints only.
 799:Generated_Source\PSoC4/USBTMC_std.c **** *  It is called after SET_INTERFACE request when Static memory allocation used.
 800:Generated_Source\PSoC4/USBTMC_std.c **** *
 801:Generated_Source\PSoC4/USBTMC_std.c **** * \reentrant
 802:Generated_Source\PSoC4/USBTMC_std.c **** *  No.
 803:Generated_Source\PSoC4/USBTMC_std.c **** *
 804:Generated_Source\PSoC4/USBTMC_std.c **** *******************************************************************************/
 805:Generated_Source\PSoC4/USBTMC_std.c **** void USBTMC_ConfigAltChanged(void) 
ARM GAS  C:\Users\essele\AppData\Local\Temp\ccFLOaGJ.s 			page 46


 806:Generated_Source\PSoC4/USBTMC_std.c **** {
 1655              		.loc 1 806 0
 1656              		.cfi_startproc
 1657              		@ args = 0, pretend = 0, frame = 32
 1658              		@ frame_needed = 1, uses_anonymous_args = 0
 1659 0000 80B5     		push	{r7, lr}
 1660              		.cfi_def_cfa_offset 8
 1661              		.cfi_offset 7, -8
 1662              		.cfi_offset 14, -4
 1663 0002 88B0     		sub	sp, sp, #32
 1664              		.cfi_def_cfa_offset 40
 1665 0004 00AF     		add	r7, sp, #0
 1666              		.cfi_def_cfa_register 7
 807:Generated_Source\PSoC4/USBTMC_std.c ****     uint32 ep;
 808:Generated_Source\PSoC4/USBTMC_std.c ****     uint32 curEp;
 809:Generated_Source\PSoC4/USBTMC_std.c ****     uint32 epType;
 810:Generated_Source\PSoC4/USBTMC_std.c ****     uint32 i;
 811:Generated_Source\PSoC4/USBTMC_std.c ****     uint8 interfaceNum;
 812:Generated_Source\PSoC4/USBTMC_std.c **** 
 813:Generated_Source\PSoC4/USBTMC_std.c ****     const T_USBTMC_LUT CYCODE *pTmp;
 814:Generated_Source\PSoC4/USBTMC_std.c ****     const T_USBTMC_EP_SETTINGS_BLOCK CYCODE *pEP;
 815:Generated_Source\PSoC4/USBTMC_std.c **** 
 816:Generated_Source\PSoC4/USBTMC_std.c ****     /* Init Endpoints and Device Status if configured */
 817:Generated_Source\PSoC4/USBTMC_std.c ****     if (USBTMC_configuration > 0u)
 1667              		.loc 1 817 0
 1668 0006 804B     		ldr	r3, .L127
 1669 0008 1B78     		ldrb	r3, [r3]
 1670 000a DBB2     		uxtb	r3, r3
 1671 000c 002B     		cmp	r3, #0
 1672 000e 00D1     		bne	.LCB1507
 1673 0010 F5E0     		b	.L126	@long jump
 1674              	.LCB1507:
 818:Generated_Source\PSoC4/USBTMC_std.c ****     {
 819:Generated_Source\PSoC4/USBTMC_std.c ****         /* Get number of endpoints configurations (ep). */
 820:Generated_Source\PSoC4/USBTMC_std.c ****         pTmp = USBTMC_GetConfigTablePtr(USBTMC_configuration - 1u);
 1675              		.loc 1 820 0
 1676 0012 7D4B     		ldr	r3, .L127
 1677 0014 1B78     		ldrb	r3, [r3]
 1678 0016 DBB2     		uxtb	r3, r3
 1679 0018 013B     		subs	r3, r3, #1
 1680 001a DBB2     		uxtb	r3, r3
 1681 001c 1800     		movs	r0, r3
 1682 001e FFF7FEFF 		bl	USBTMC_GetConfigTablePtr
 1683 0022 0300     		movs	r3, r0
 1684 0024 7B61     		str	r3, [r7, #20]
 821:Generated_Source\PSoC4/USBTMC_std.c ****         pTmp = &pTmp[1u];
 1685              		.loc 1 821 0
 1686 0026 7B69     		ldr	r3, [r7, #20]
 1687 0028 0833     		adds	r3, r3, #8
 1688 002a 7B61     		str	r3, [r7, #20]
 822:Generated_Source\PSoC4/USBTMC_std.c ****         ep = pTmp->c;
 1689              		.loc 1 822 0
 1690 002c 7B69     		ldr	r3, [r7, #20]
 1691 002e 1B78     		ldrb	r3, [r3]
 1692 0030 3B61     		str	r3, [r7, #16]
 823:Generated_Source\PSoC4/USBTMC_std.c **** 
 824:Generated_Source\PSoC4/USBTMC_std.c ****         /* Get pointer to endpoints setting table (pEP). */
ARM GAS  C:\Users\essele\AppData\Local\Temp\ccFLOaGJ.s 			page 47


 825:Generated_Source\PSoC4/USBTMC_std.c ****         pEP = (const T_USBTMC_EP_SETTINGS_BLOCK CYCODE *) pTmp->p_list;
 1693              		.loc 1 825 0
 1694 0032 7B69     		ldr	r3, [r7, #20]
 1695 0034 5B68     		ldr	r3, [r3, #4]
 1696 0036 BB61     		str	r3, [r7, #24]
 826:Generated_Source\PSoC4/USBTMC_std.c ****         
 827:Generated_Source\PSoC4/USBTMC_std.c ****         /* Look through all possible endpoint configurations. Find endpoints 
 828:Generated_Source\PSoC4/USBTMC_std.c ****         * which belong to current interface and alternate settings for 
 829:Generated_Source\PSoC4/USBTMC_std.c ****         * re-configuration.
 830:Generated_Source\PSoC4/USBTMC_std.c ****         */
 831:Generated_Source\PSoC4/USBTMC_std.c ****         interfaceNum = USBTMC_interfaceNumber;
 1697              		.loc 1 831 0
 1698 0038 0F23     		movs	r3, #15
 1699 003a FB18     		adds	r3, r7, r3
 1700 003c 734A     		ldr	r2, .L127+4
 1701 003e 1278     		ldrb	r2, [r2]
 1702 0040 1A70     		strb	r2, [r3]
 832:Generated_Source\PSoC4/USBTMC_std.c ****         for (i = 0u; i < ep; i++)
 1703              		.loc 1 832 0
 1704 0042 0023     		movs	r3, #0
 1705 0044 FB61     		str	r3, [r7, #28]
 1706 0046 D5E0     		b	.L117
 1707              	.L125:
 833:Generated_Source\PSoC4/USBTMC_std.c ****         {
 834:Generated_Source\PSoC4/USBTMC_std.c ****             /* Find endpoints which belong to current interface and alternate settings. */
 835:Generated_Source\PSoC4/USBTMC_std.c ****             if ((interfaceNum == pEP->interface) && 
 1708              		.loc 1 835 0
 1709 0048 BB69     		ldr	r3, [r7, #24]
 1710 004a 1B78     		ldrb	r3, [r3]
 1711 004c 0F22     		movs	r2, #15
 1712 004e BA18     		adds	r2, r7, r2
 1713 0050 1278     		ldrb	r2, [r2]
 1714 0052 9A42     		cmp	r2, r3
 1715 0054 00D0     		beq	.LCB1543
 1716 0056 C7E0     		b	.L118	@long jump
 1717              	.LCB1543:
 836:Generated_Source\PSoC4/USBTMC_std.c ****                 (USBTMC_interfaceSetting[interfaceNum] == pEP->altSetting))
 1718              		.loc 1 836 0 discriminator 1
 1719 0058 0F23     		movs	r3, #15
 1720 005a FB18     		adds	r3, r7, r3
 1721 005c 1B78     		ldrb	r3, [r3]
 1722 005e 6C4A     		ldr	r2, .L127+8
 1723 0060 D35C     		ldrb	r3, [r2, r3]
 1724 0062 DAB2     		uxtb	r2, r3
 1725 0064 BB69     		ldr	r3, [r7, #24]
 1726 0066 5B78     		ldrb	r3, [r3, #1]
 835:Generated_Source\PSoC4/USBTMC_std.c ****                 (USBTMC_interfaceSetting[interfaceNum] == pEP->altSetting))
 1727              		.loc 1 835 0 discriminator 1
 1728 0068 9A42     		cmp	r2, r3
 1729 006a 00D0     		beq	.LCB1553
 1730 006c BCE0     		b	.L118	@long jump
 1731              	.LCB1553:
 837:Generated_Source\PSoC4/USBTMC_std.c ****             {
 838:Generated_Source\PSoC4/USBTMC_std.c ****                 curEp  = ((uint32) pEP->addr & USBTMC_DIR_UNUSED);
 1732              		.loc 1 838 0
 1733 006e BB69     		ldr	r3, [r7, #24]
 1734 0070 9B78     		ldrb	r3, [r3, #2]
ARM GAS  C:\Users\essele\AppData\Local\Temp\ccFLOaGJ.s 			page 48


 1735 0072 1A00     		movs	r2, r3
 1736 0074 7F23     		movs	r3, #127
 1737 0076 1340     		ands	r3, r2
 1738 0078 BB60     		str	r3, [r7, #8]
 839:Generated_Source\PSoC4/USBTMC_std.c ****                 epType = ((uint32) pEP->attributes & USBTMC_EP_TYPE_MASK);
 1739              		.loc 1 839 0
 1740 007a BB69     		ldr	r3, [r7, #24]
 1741 007c DB78     		ldrb	r3, [r3, #3]
 1742 007e 1A00     		movs	r2, r3
 1743 0080 0323     		movs	r3, #3
 1744 0082 1340     		ands	r3, r2
 1745 0084 7B60     		str	r3, [r7, #4]
 840:Generated_Source\PSoC4/USBTMC_std.c ****                 
 841:Generated_Source\PSoC4/USBTMC_std.c ****                 /* Change the SIE mode for the selected EP to NAK ALL */
 842:Generated_Source\PSoC4/USBTMC_std.c ****                 USBTMC_EP[curEp].epToggle   = 0u;
 1746              		.loc 1 842 0
 1747 0086 6349     		ldr	r1, .L127+12
 1748 0088 BA68     		ldr	r2, [r7, #8]
 1749 008a 1300     		movs	r3, r2
 1750 008c 5B00     		lsls	r3, r3, #1
 1751 008e 9B18     		adds	r3, r3, r2
 1752 0090 9B00     		lsls	r3, r3, #2
 1753 0092 CB18     		adds	r3, r1, r3
 1754 0094 0333     		adds	r3, r3, #3
 1755 0096 0022     		movs	r2, #0
 1756 0098 1A70     		strb	r2, [r3]
 843:Generated_Source\PSoC4/USBTMC_std.c ****                 USBTMC_EP[curEp].addr       = pEP->addr;
 1757              		.loc 1 843 0
 1758 009a BB69     		ldr	r3, [r7, #24]
 1759 009c 9878     		ldrb	r0, [r3, #2]
 1760 009e 5D49     		ldr	r1, .L127+12
 1761 00a0 BA68     		ldr	r2, [r7, #8]
 1762 00a2 1300     		movs	r3, r2
 1763 00a4 5B00     		lsls	r3, r3, #1
 1764 00a6 9B18     		adds	r3, r3, r2
 1765 00a8 9B00     		lsls	r3, r3, #2
 1766 00aa CB18     		adds	r3, r1, r3
 1767 00ac 0433     		adds	r3, r3, #4
 1768 00ae 021C     		adds	r2, r0, #0
 1769 00b0 1A70     		strb	r2, [r3]
 844:Generated_Source\PSoC4/USBTMC_std.c ****                 USBTMC_EP[curEp].attrib     = pEP->attributes;
 1770              		.loc 1 844 0
 1771 00b2 BB69     		ldr	r3, [r7, #24]
 1772 00b4 D878     		ldrb	r0, [r3, #3]
 1773 00b6 5749     		ldr	r1, .L127+12
 1774 00b8 BA68     		ldr	r2, [r7, #8]
 1775 00ba 1300     		movs	r3, r2
 1776 00bc 5B00     		lsls	r3, r3, #1
 1777 00be 9B18     		adds	r3, r3, r2
 1778 00c0 9B00     		lsls	r3, r3, #2
 1779 00c2 021C     		adds	r2, r0, #0
 1780 00c4 5A54     		strb	r2, [r3, r1]
 845:Generated_Source\PSoC4/USBTMC_std.c ****                 USBTMC_EP[curEp].bufferSize = pEP->bufferSize;
 1781              		.loc 1 845 0
 1782 00c6 BB69     		ldr	r3, [r7, #24]
 1783 00c8 9888     		ldrh	r0, [r3, #4]
 1784 00ca 5249     		ldr	r1, .L127+12
ARM GAS  C:\Users\essele\AppData\Local\Temp\ccFLOaGJ.s 			page 49


 1785 00cc BA68     		ldr	r2, [r7, #8]
 1786 00ce 1300     		movs	r3, r2
 1787 00d0 5B00     		lsls	r3, r3, #1
 1788 00d2 9B18     		adds	r3, r3, r2
 1789 00d4 9B00     		lsls	r3, r3, #2
 1790 00d6 CB18     		adds	r3, r1, r3
 1791 00d8 0833     		adds	r3, r3, #8
 1792 00da 021C     		adds	r2, r0, #0
 1793 00dc 1A80     		strh	r2, [r3]
 846:Generated_Source\PSoC4/USBTMC_std.c **** 
 847:Generated_Source\PSoC4/USBTMC_std.c ****                 if (0u != (pEP->addr & USBTMC_DIR_IN))
 1794              		.loc 1 847 0
 1795 00de BB69     		ldr	r3, [r7, #24]
 1796 00e0 9B78     		ldrb	r3, [r3, #2]
 1797 00e2 5BB2     		sxtb	r3, r3
 1798 00e4 002B     		cmp	r3, #0
 1799 00e6 1ADA     		bge	.L119
 848:Generated_Source\PSoC4/USBTMC_std.c ****                 {
 849:Generated_Source\PSoC4/USBTMC_std.c ****                     /* IN Endpoint */
 850:Generated_Source\PSoC4/USBTMC_std.c ****                     USBTMC_EP[curEp].epMode     = USBTMC_GET_ACTIVE_IN_EP_CR0_MODE(epType);
 1800              		.loc 1 850 0
 1801 00e8 7B68     		ldr	r3, [r7, #4]
 1802 00ea 012B     		cmp	r3, #1
 1803 00ec 01D1     		bne	.L120
 1804              		.loc 1 850 0 is_stmt 0 discriminator 1
 1805 00ee 0720     		movs	r0, #7
 1806 00f0 00E0     		b	.L121
 1807              	.L120:
 1808              		.loc 1 850 0 discriminator 2
 1809 00f2 0D20     		movs	r0, #13
 1810              	.L121:
 1811              		.loc 1 850 0 discriminator 4
 1812 00f4 4749     		ldr	r1, .L127+12
 1813 00f6 BA68     		ldr	r2, [r7, #8]
 1814 00f8 1300     		movs	r3, r2
 1815 00fa 5B00     		lsls	r3, r3, #1
 1816 00fc 9B18     		adds	r3, r3, r2
 1817 00fe 9B00     		lsls	r3, r3, #2
 1818 0100 CB18     		adds	r3, r1, r3
 1819 0102 0533     		adds	r3, r3, #5
 1820 0104 021C     		adds	r2, r0, #0
 1821 0106 1A70     		strb	r2, [r3]
 851:Generated_Source\PSoC4/USBTMC_std.c ****                     USBTMC_EP[curEp].apiEpState = USBTMC_EVENT_PENDING;
 1822              		.loc 1 851 0 is_stmt 1 discriminator 4
 1823 0108 4249     		ldr	r1, .L127+12
 1824 010a BA68     		ldr	r2, [r7, #8]
 1825 010c 1300     		movs	r3, r2
 1826 010e 5B00     		lsls	r3, r3, #1
 1827 0110 9B18     		adds	r3, r3, r2
 1828 0112 9B00     		lsls	r3, r3, #2
 1829 0114 CB18     		adds	r3, r1, r3
 1830 0116 0133     		adds	r3, r3, #1
 1831 0118 0122     		movs	r2, #1
 1832 011a 1A70     		strb	r2, [r3]
 1833 011c 19E0     		b	.L122
 1834              	.L119:
 852:Generated_Source\PSoC4/USBTMC_std.c ****                 }
ARM GAS  C:\Users\essele\AppData\Local\Temp\ccFLOaGJ.s 			page 50


 853:Generated_Source\PSoC4/USBTMC_std.c ****                 else
 854:Generated_Source\PSoC4/USBTMC_std.c ****                 {
 855:Generated_Source\PSoC4/USBTMC_std.c ****                     /* OUT Endpoint */
 856:Generated_Source\PSoC4/USBTMC_std.c ****                     USBTMC_EP[curEp].epMode     = USBTMC_GET_ACTIVE_OUT_EP_CR0_MODE(epType);
 1835              		.loc 1 856 0
 1836 011e 7B68     		ldr	r3, [r7, #4]
 1837 0120 012B     		cmp	r3, #1
 1838 0122 01D1     		bne	.L123
 1839              		.loc 1 856 0 is_stmt 0 discriminator 1
 1840 0124 0520     		movs	r0, #5
 1841 0126 00E0     		b	.L124
 1842              	.L123:
 1843              		.loc 1 856 0 discriminator 2
 1844 0128 0920     		movs	r0, #9
 1845              	.L124:
 1846              		.loc 1 856 0 discriminator 4
 1847 012a 3A49     		ldr	r1, .L127+12
 1848 012c BA68     		ldr	r2, [r7, #8]
 1849 012e 1300     		movs	r3, r2
 1850 0130 5B00     		lsls	r3, r3, #1
 1851 0132 9B18     		adds	r3, r3, r2
 1852 0134 9B00     		lsls	r3, r3, #2
 1853 0136 CB18     		adds	r3, r1, r3
 1854 0138 0533     		adds	r3, r3, #5
 1855 013a 021C     		adds	r2, r0, #0
 1856 013c 1A70     		strb	r2, [r3]
 857:Generated_Source\PSoC4/USBTMC_std.c ****                     USBTMC_EP[curEp].apiEpState = USBTMC_NO_EVENT_PENDING;
 1857              		.loc 1 857 0 is_stmt 1 discriminator 4
 1858 013e 3549     		ldr	r1, .L127+12
 1859 0140 BA68     		ldr	r2, [r7, #8]
 1860 0142 1300     		movs	r3, r2
 1861 0144 5B00     		lsls	r3, r3, #1
 1862 0146 9B18     		adds	r3, r3, r2
 1863 0148 9B00     		lsls	r3, r3, #2
 1864 014a CB18     		adds	r3, r1, r3
 1865 014c 0133     		adds	r3, r3, #1
 1866 014e 0022     		movs	r2, #0
 1867 0150 1A70     		strb	r2, [r3]
 1868              	.L122:
 858:Generated_Source\PSoC4/USBTMC_std.c ****                 }
 859:Generated_Source\PSoC4/USBTMC_std.c ****                 
 860:Generated_Source\PSoC4/USBTMC_std.c ****                 /* Make SIE to NAK any endpoint requests */
 861:Generated_Source\PSoC4/USBTMC_std.c ****                 USBTMC_SIE_EP_BASE.sieEp[curEp].epCr0 = USBTMC_MODE_NAK_IN_OUT;
 1869              		.loc 1 861 0
 1870 0152 314A     		ldr	r2, .L127+16
 1871 0154 BB68     		ldr	r3, [r7, #8]
 1872 0156 9B01     		lsls	r3, r3, #6
 1873 0158 D318     		adds	r3, r2, r3
 1874 015a 0833     		adds	r3, r3, #8
 1875 015c 0122     		movs	r2, #1
 1876 015e 1A60     		str	r2, [r3]
 862:Generated_Source\PSoC4/USBTMC_std.c **** 
 863:Generated_Source\PSoC4/USBTMC_std.c ****             #if (USBTMC_EP_MANAGEMENT_DMA_AUTO)
 864:Generated_Source\PSoC4/USBTMC_std.c ****                 /* Clear IN data ready. */
 865:Generated_Source\PSoC4/USBTMC_std.c ****                 USBTMC_ARB_EP_BASE.arbEp[curEp].epCfg &= (uint32) ~USBTMC_ARB_EPX_CFG_IN_DATA_RDY;
 866:Generated_Source\PSoC4/USBTMC_std.c **** 
 867:Generated_Source\PSoC4/USBTMC_std.c ****                 /* Select endpoint number of reconfiguration */
ARM GAS  C:\Users\essele\AppData\Local\Temp\ccFLOaGJ.s 			page 51


 868:Generated_Source\PSoC4/USBTMC_std.c ****                 USBTMC_DYN_RECONFIG_REG = (uint32) ((curEp - 1u) << USBTMC_DYN_RECONFIG_EP_SHIFT);
 869:Generated_Source\PSoC4/USBTMC_std.c ****                 
 870:Generated_Source\PSoC4/USBTMC_std.c ****                 /* Request for dynamic re-configuration of endpoint. */
 871:Generated_Source\PSoC4/USBTMC_std.c ****                 USBTMC_DYN_RECONFIG_REG |= USBTMC_DYN_RECONFIG_ENABLE;
 872:Generated_Source\PSoC4/USBTMC_std.c ****                 
 873:Generated_Source\PSoC4/USBTMC_std.c ****                 /* Wait until block is ready for re-configuration */
 874:Generated_Source\PSoC4/USBTMC_std.c ****                 while (0u == (USBTMC_DYN_RECONFIG_REG & USBTMC_DYN_RECONFIG_RDY_STS))
 875:Generated_Source\PSoC4/USBTMC_std.c ****                 {
 876:Generated_Source\PSoC4/USBTMC_std.c ****                 }
 877:Generated_Source\PSoC4/USBTMC_std.c ****                 
 878:Generated_Source\PSoC4/USBTMC_std.c ****                 /* Once DYN_RECONFIG_RDY_STS bit is set, FW can change the EP configuration. */
 879:Generated_Source\PSoC4/USBTMC_std.c ****                 /* Change EP Type with new direction */
 880:Generated_Source\PSoC4/USBTMC_std.c ****                 if (0u != (pEP->addr & USBTMC_DIR_IN))
 881:Generated_Source\PSoC4/USBTMC_std.c ****                 {
 882:Generated_Source\PSoC4/USBTMC_std.c ****                     /* Set endpoint type: 0 - IN and 1 - OUT. */
 883:Generated_Source\PSoC4/USBTMC_std.c ****                     USBTMC_EP_TYPE_REG &= (uint32) ~(uint32)((uint32) 0x01u << (curEp - 1u));
 884:Generated_Source\PSoC4/USBTMC_std.c ****                     
 885:Generated_Source\PSoC4/USBTMC_std.c ****                 #if (CY_PSOC4)
 886:Generated_Source\PSoC4/USBTMC_std.c ****                     /* Clear DMA_TERMIN for IN endpoint */
 887:Generated_Source\PSoC4/USBTMC_std.c ****                     USBTMC_ARB_EP_BASE.arbEp[curEp].epIntEn &= (uint32) ~USBTMC_ARB_EPX_INT_DMA_TER
 888:Generated_Source\PSoC4/USBTMC_std.c ****                 #endif /* (CY_PSOC4) */
 889:Generated_Source\PSoC4/USBTMC_std.c ****                 }
 890:Generated_Source\PSoC4/USBTMC_std.c ****                 else
 891:Generated_Source\PSoC4/USBTMC_std.c ****                 {
 892:Generated_Source\PSoC4/USBTMC_std.c ****                     /* Set endpoint type: 0 - IN and 1- OUT. */
 893:Generated_Source\PSoC4/USBTMC_std.c ****                     USBTMC_EP_TYPE_REG |= (uint32) ((uint32) 0x01u << (curEp - 1u));
 894:Generated_Source\PSoC4/USBTMC_std.c ****                     
 895:Generated_Source\PSoC4/USBTMC_std.c ****                 #if (CY_PSOC4)
 896:Generated_Source\PSoC4/USBTMC_std.c ****                     /* Set DMA_TERMIN for OUT endpoint */
 897:Generated_Source\PSoC4/USBTMC_std.c ****                     USBTMC_ARB_EP_BASE.arbEp[curEp].epIntEn |= (uint32) USBTMC_ARB_EPX_INT_DMA_TERM
 898:Generated_Source\PSoC4/USBTMC_std.c ****                 #endif /* (CY_PSOC4) */
 899:Generated_Source\PSoC4/USBTMC_std.c ****                 }
 900:Generated_Source\PSoC4/USBTMC_std.c ****                 
 901:Generated_Source\PSoC4/USBTMC_std.c ****                 /* Complete dynamic re-configuration: all endpoint related status and signals 
 902:Generated_Source\PSoC4/USBTMC_std.c ****                 * are set into the default state.
 903:Generated_Source\PSoC4/USBTMC_std.c ****                 */
 904:Generated_Source\PSoC4/USBTMC_std.c ****                 USBTMC_DYN_RECONFIG_REG &= (uint32) ~USBTMC_DYN_RECONFIG_ENABLE;
 905:Generated_Source\PSoC4/USBTMC_std.c **** 
 906:Generated_Source\PSoC4/USBTMC_std.c ****             #else
 907:Generated_Source\PSoC4/USBTMC_std.c ****                 USBTMC_SIE_EP_BASE.sieEp[curEp].epCnt0 = HI8(USBTMC_EP[curEp].bufferSize);
 1877              		.loc 1 907 0
 1878 0160 2D48     		ldr	r0, .L127+16
 1879 0162 2C49     		ldr	r1, .L127+12
 1880 0164 BA68     		ldr	r2, [r7, #8]
 1881 0166 1300     		movs	r3, r2
 1882 0168 5B00     		lsls	r3, r3, #1
 1883 016a 9B18     		adds	r3, r3, r2
 1884 016c 9B00     		lsls	r3, r3, #2
 1885 016e CB18     		adds	r3, r1, r3
 1886 0170 0833     		adds	r3, r3, #8
 1887 0172 1B88     		ldrh	r3, [r3]
 1888 0174 9BB2     		uxth	r3, r3
 1889 0176 1B0A     		lsrs	r3, r3, #8
 1890 0178 9BB2     		uxth	r3, r3
 1891 017a DBB2     		uxtb	r3, r3
 1892 017c 1A00     		movs	r2, r3
 1893 017e BB68     		ldr	r3, [r7, #8]
ARM GAS  C:\Users\essele\AppData\Local\Temp\ccFLOaGJ.s 			page 52


 1894 0180 9B01     		lsls	r3, r3, #6
 1895 0182 1A50     		str	r2, [r3, r0]
 908:Generated_Source\PSoC4/USBTMC_std.c ****                 USBTMC_SIE_EP_BASE.sieEp[curEp].epCnt1 = LO8(USBTMC_EP[curEp].bufferSize);
 1896              		.loc 1 908 0
 1897 0184 2448     		ldr	r0, .L127+16
 1898 0186 2349     		ldr	r1, .L127+12
 1899 0188 BA68     		ldr	r2, [r7, #8]
 1900 018a 1300     		movs	r3, r2
 1901 018c 5B00     		lsls	r3, r3, #1
 1902 018e 9B18     		adds	r3, r3, r2
 1903 0190 9B00     		lsls	r3, r3, #2
 1904 0192 CB18     		adds	r3, r1, r3
 1905 0194 0833     		adds	r3, r3, #8
 1906 0196 1B88     		ldrh	r3, [r3]
 1907 0198 9BB2     		uxth	r3, r3
 1908 019a DBB2     		uxtb	r3, r3
 1909 019c 1A00     		movs	r2, r3
 1910 019e BB68     		ldr	r3, [r7, #8]
 1911 01a0 9B01     		lsls	r3, r3, #6
 1912 01a2 C318     		adds	r3, r0, r3
 1913 01a4 0433     		adds	r3, r3, #4
 1914 01a6 1A60     		str	r2, [r3]
 909:Generated_Source\PSoC4/USBTMC_std.c ****                 
 910:Generated_Source\PSoC4/USBTMC_std.c ****                 #if (CY_PSOC4)
 911:Generated_Source\PSoC4/USBTMC_std.c ****                     USBTMC_ARB_EP16_BASE.arbEp[curEp].rwRa16  = (uint32) USBTMC_EP[curEp].buffOffse
 1915              		.loc 1 911 0
 1916 01a8 1C48     		ldr	r0, .L127+20
 1917 01aa 1A49     		ldr	r1, .L127+12
 1918 01ac BA68     		ldr	r2, [r7, #8]
 1919 01ae 1300     		movs	r3, r2
 1920 01b0 5B00     		lsls	r3, r3, #1
 1921 01b2 9B18     		adds	r3, r3, r2
 1922 01b4 9B00     		lsls	r3, r3, #2
 1923 01b6 CB18     		adds	r3, r1, r3
 1924 01b8 0633     		adds	r3, r3, #6
 1925 01ba 1B88     		ldrh	r3, [r3]
 1926 01bc 9BB2     		uxth	r3, r3
 1927 01be 1A00     		movs	r2, r3
 1928 01c0 BB68     		ldr	r3, [r7, #8]
 1929 01c2 9B01     		lsls	r3, r3, #6
 1930 01c4 C318     		adds	r3, r0, r3
 1931 01c6 0833     		adds	r3, r3, #8
 1932 01c8 1A60     		str	r2, [r3]
 912:Generated_Source\PSoC4/USBTMC_std.c ****                     USBTMC_ARB_EP16_BASE.arbEp[curEp].rwWa16  = (uint32) USBTMC_EP[curEp].buffOffse
 1933              		.loc 1 912 0
 1934 01ca 1448     		ldr	r0, .L127+20
 1935 01cc 1149     		ldr	r1, .L127+12
 1936 01ce BA68     		ldr	r2, [r7, #8]
 1937 01d0 1300     		movs	r3, r2
 1938 01d2 5B00     		lsls	r3, r3, #1
 1939 01d4 9B18     		adds	r3, r3, r2
 1940 01d6 9B00     		lsls	r3, r3, #2
 1941 01d8 CB18     		adds	r3, r1, r3
 1942 01da 0633     		adds	r3, r3, #6
 1943 01dc 1B88     		ldrh	r3, [r3]
 1944 01de 9BB2     		uxth	r3, r3
 1945 01e0 1A00     		movs	r2, r3
ARM GAS  C:\Users\essele\AppData\Local\Temp\ccFLOaGJ.s 			page 53


 1946 01e2 BB68     		ldr	r3, [r7, #8]
 1947 01e4 9B01     		lsls	r3, r3, #6
 1948 01e6 1A50     		str	r2, [r3, r0]
 1949              	.L118:
 913:Generated_Source\PSoC4/USBTMC_std.c ****                 #else
 914:Generated_Source\PSoC4/USBTMC_std.c ****                     USBTMC_ARB_EP_BASE.arbEp[curEp].rwRa    = LO8(USBTMC_EP[curEp].buffOffset);
 915:Generated_Source\PSoC4/USBTMC_std.c ****                     USBTMC_ARB_EP_BASE.arbEp[curEp].rwRaMsb = HI8(USBTMC_EP[curEp].buffOffset);
 916:Generated_Source\PSoC4/USBTMC_std.c ****                     USBTMC_ARB_EP_BASE.arbEp[curEp].rwWa    = LO8(USBTMC_EP[curEp].buffOffset);
 917:Generated_Source\PSoC4/USBTMC_std.c ****                     USBTMC_ARB_EP_BASE.arbEp[curEp].rwWaMsb = HI8(USBTMC_EP[curEp].buffOffset);
 918:Generated_Source\PSoC4/USBTMC_std.c ****                 #endif /* (CY_PSOC4) */                
 919:Generated_Source\PSoC4/USBTMC_std.c ****             #endif /* (USBTMC_EP_MANAGEMENT_DMA_AUTO) */
 920:Generated_Source\PSoC4/USBTMC_std.c ****             }
 921:Generated_Source\PSoC4/USBTMC_std.c ****             
 922:Generated_Source\PSoC4/USBTMC_std.c ****             pEP = &pEP[1u]; /* Get next EP element */
 1950              		.loc 1 922 0 discriminator 2
 1951 01e8 BB69     		ldr	r3, [r7, #24]
 1952 01ea 0833     		adds	r3, r3, #8
 1953 01ec BB61     		str	r3, [r7, #24]
 832:Generated_Source\PSoC4/USBTMC_std.c ****         {
 1954              		.loc 1 832 0 discriminator 2
 1955 01ee FB69     		ldr	r3, [r7, #28]
 1956 01f0 0133     		adds	r3, r3, #1
 1957 01f2 FB61     		str	r3, [r7, #28]
 1958              	.L117:
 832:Generated_Source\PSoC4/USBTMC_std.c ****         {
 1959              		.loc 1 832 0 is_stmt 0 discriminator 1
 1960 01f4 FA69     		ldr	r2, [r7, #28]
 1961 01f6 3B69     		ldr	r3, [r7, #16]
 1962 01f8 9A42     		cmp	r2, r3
 1963 01fa 00D2     		bcs	.LCB1771
 1964 01fc 24E7     		b	.L125	@long jump
 1965              	.LCB1771:
 1966              	.L126:
 923:Generated_Source\PSoC4/USBTMC_std.c ****         }
 924:Generated_Source\PSoC4/USBTMC_std.c ****         
 925:Generated_Source\PSoC4/USBTMC_std.c ****         /* The main loop has to re-enable DMA and OUT endpoint */
 926:Generated_Source\PSoC4/USBTMC_std.c ****     }
 927:Generated_Source\PSoC4/USBTMC_std.c **** }
 1967              		.loc 1 927 0 is_stmt 1
 1968 01fe C046     		nop
 1969 0200 BD46     		mov	sp, r7
 1970 0202 08B0     		add	sp, sp, #32
 1971              		@ sp needed
 1972 0204 80BD     		pop	{r7, pc}
 1973              	.L128:
 1974 0206 C046     		.align	2
 1975              	.L127:
 1976 0208 00000000 		.word	USBTMC_configuration
 1977 020c 00000000 		.word	USBTMC_interfaceNumber
 1978 0210 00000000 		.word	USBTMC_interfaceSetting
 1979 0214 00000000 		.word	USBTMC_EP
 1980 0218 F0FF2B40 		.word	1076625392
 1981 021c D0112C40 		.word	1076629968
 1982              		.cfi_endproc
 1983              	.LFE5:
 1984              		.size	USBTMC_ConfigAltChanged, .-USBTMC_ConfigAltChanged
 1985              		.section	.text.USBTMC_GetConfigTablePtr,"ax",%progbits
ARM GAS  C:\Users\essele\AppData\Local\Temp\ccFLOaGJ.s 			page 54


 1986              		.align	2
 1987              		.global	USBTMC_GetConfigTablePtr
 1988              		.code	16
 1989              		.thumb_func
 1990              		.type	USBTMC_GetConfigTablePtr, %function
 1991              	USBTMC_GetConfigTablePtr:
 1992              	.LFB6:
 928:Generated_Source\PSoC4/USBTMC_std.c **** 
 929:Generated_Source\PSoC4/USBTMC_std.c **** 
 930:Generated_Source\PSoC4/USBTMC_std.c **** /*******************************************************************************
 931:Generated_Source\PSoC4/USBTMC_std.c **** * Function Name: USBTMC_GetConfigTablePtr
 932:Generated_Source\PSoC4/USBTMC_std.c **** ****************************************************************************//**
 933:Generated_Source\PSoC4/USBTMC_std.c **** *
 934:Generated_Source\PSoC4/USBTMC_std.c **** *  This routine returns a pointer a configuration table entry
 935:Generated_Source\PSoC4/USBTMC_std.c **** *
 936:Generated_Source\PSoC4/USBTMC_std.c **** *  \param confIndex:  Configuration Index
 937:Generated_Source\PSoC4/USBTMC_std.c **** *
 938:Generated_Source\PSoC4/USBTMC_std.c **** * \return
 939:Generated_Source\PSoC4/USBTMC_std.c **** *  Device Descriptor pointer or NULL when descriptor does not exist.
 940:Generated_Source\PSoC4/USBTMC_std.c **** *
 941:Generated_Source\PSoC4/USBTMC_std.c **** *******************************************************************************/
 942:Generated_Source\PSoC4/USBTMC_std.c **** const T_USBTMC_LUT CYCODE *USBTMC_GetConfigTablePtr(uint8 confIndex)
 943:Generated_Source\PSoC4/USBTMC_std.c ****                                                         
 944:Generated_Source\PSoC4/USBTMC_std.c **** {
 1993              		.loc 1 944 0
 1994              		.cfi_startproc
 1995              		@ args = 0, pretend = 0, frame = 16
 1996              		@ frame_needed = 1, uses_anonymous_args = 0
 1997 0000 80B5     		push	{r7, lr}
 1998              		.cfi_def_cfa_offset 8
 1999              		.cfi_offset 7, -8
 2000              		.cfi_offset 14, -4
 2001 0002 84B0     		sub	sp, sp, #16
 2002              		.cfi_def_cfa_offset 24
 2003 0004 00AF     		add	r7, sp, #0
 2004              		.cfi_def_cfa_register 7
 2005 0006 0200     		movs	r2, r0
 2006 0008 FB1D     		adds	r3, r7, #7
 2007 000a 1A70     		strb	r2, [r3]
 945:Generated_Source\PSoC4/USBTMC_std.c ****     /* Device Table */
 946:Generated_Source\PSoC4/USBTMC_std.c ****     const T_USBTMC_LUT CYCODE *pTmp;
 947:Generated_Source\PSoC4/USBTMC_std.c **** 
 948:Generated_Source\PSoC4/USBTMC_std.c ****     pTmp = (const T_USBTMC_LUT CYCODE *) USBTMC_TABLE[USBTMC_device].p_list;
 2008              		.loc 1 948 0
 2009 000c 104B     		ldr	r3, .L133
 2010 000e 1B78     		ldrb	r3, [r3]
 2011 0010 DBB2     		uxtb	r3, r3
 2012 0012 104A     		ldr	r2, .L133+4
 2013 0014 DB00     		lsls	r3, r3, #3
 2014 0016 D318     		adds	r3, r2, r3
 2015 0018 0433     		adds	r3, r3, #4
 2016 001a 1B68     		ldr	r3, [r3]
 2017 001c FB60     		str	r3, [r7, #12]
 949:Generated_Source\PSoC4/USBTMC_std.c **** 
 950:Generated_Source\PSoC4/USBTMC_std.c ****     /* The first entry points to the Device Descriptor,
 951:Generated_Source\PSoC4/USBTMC_std.c ****     *  the second entry point to the BOS Descriptor
 952:Generated_Source\PSoC4/USBTMC_std.c ****     *  the rest configuration entries.
ARM GAS  C:\Users\essele\AppData\Local\Temp\ccFLOaGJ.s 			page 55


 953:Generated_Source\PSoC4/USBTMC_std.c ****     *  Set pointer to the first Configuration Descriptor
 954:Generated_Source\PSoC4/USBTMC_std.c ****     */
 955:Generated_Source\PSoC4/USBTMC_std.c ****     pTmp = &pTmp[2u];
 2018              		.loc 1 955 0
 2019 001e FB68     		ldr	r3, [r7, #12]
 2020 0020 1033     		adds	r3, r3, #16
 2021 0022 FB60     		str	r3, [r7, #12]
 956:Generated_Source\PSoC4/USBTMC_std.c ****     /* For this table, c is the number of configuration descriptors  */
 957:Generated_Source\PSoC4/USBTMC_std.c ****     if(confIndex >= pTmp->c)   /* Verify that required configuration descriptor exists */
 2022              		.loc 1 957 0
 2023 0024 FB68     		ldr	r3, [r7, #12]
 2024 0026 1B78     		ldrb	r3, [r3]
 2025 0028 FA1D     		adds	r2, r7, #7
 2026 002a 1278     		ldrb	r2, [r2]
 2027 002c 9A42     		cmp	r2, r3
 2028 002e 02D3     		bcc	.L130
 958:Generated_Source\PSoC4/USBTMC_std.c ****     {
 959:Generated_Source\PSoC4/USBTMC_std.c ****         pTmp = (const T_USBTMC_LUT CYCODE *) NULL;
 2029              		.loc 1 959 0
 2030 0030 0023     		movs	r3, #0
 2031 0032 FB60     		str	r3, [r7, #12]
 2032 0034 06E0     		b	.L131
 2033              	.L130:
 960:Generated_Source\PSoC4/USBTMC_std.c ****     }
 961:Generated_Source\PSoC4/USBTMC_std.c ****     else
 962:Generated_Source\PSoC4/USBTMC_std.c ****     {
 963:Generated_Source\PSoC4/USBTMC_std.c ****         pTmp = (const T_USBTMC_LUT CYCODE *) pTmp[confIndex].p_list;
 2034              		.loc 1 963 0
 2035 0036 FB1D     		adds	r3, r7, #7
 2036 0038 1B78     		ldrb	r3, [r3]
 2037 003a DB00     		lsls	r3, r3, #3
 2038 003c FA68     		ldr	r2, [r7, #12]
 2039 003e D318     		adds	r3, r2, r3
 2040 0040 5B68     		ldr	r3, [r3, #4]
 2041 0042 FB60     		str	r3, [r7, #12]
 2042              	.L131:
 964:Generated_Source\PSoC4/USBTMC_std.c ****     }
 965:Generated_Source\PSoC4/USBTMC_std.c **** 
 966:Generated_Source\PSoC4/USBTMC_std.c ****     return (pTmp);
 2043              		.loc 1 966 0
 2044 0044 FB68     		ldr	r3, [r7, #12]
 967:Generated_Source\PSoC4/USBTMC_std.c **** }
 2045              		.loc 1 967 0
 2046 0046 1800     		movs	r0, r3
 2047 0048 BD46     		mov	sp, r7
 2048 004a 04B0     		add	sp, sp, #16
 2049              		@ sp needed
 2050 004c 80BD     		pop	{r7, pc}
 2051              	.L134:
 2052 004e C046     		.align	2
 2053              	.L133:
 2054 0050 00000000 		.word	USBTMC_device
 2055 0054 00000000 		.word	USBTMC_TABLE
 2056              		.cfi_endproc
 2057              	.LFE6:
 2058              		.size	USBTMC_GetConfigTablePtr, .-USBTMC_GetConfigTablePtr
 2059              		.section	.text.USBTMC_GetDeviceTablePtr,"ax",%progbits
ARM GAS  C:\Users\essele\AppData\Local\Temp\ccFLOaGJ.s 			page 56


 2060              		.align	2
 2061              		.global	USBTMC_GetDeviceTablePtr
 2062              		.code	16
 2063              		.thumb_func
 2064              		.type	USBTMC_GetDeviceTablePtr, %function
 2065              	USBTMC_GetDeviceTablePtr:
 2066              	.LFB7:
 968:Generated_Source\PSoC4/USBTMC_std.c **** 
 969:Generated_Source\PSoC4/USBTMC_std.c **** 
 970:Generated_Source\PSoC4/USBTMC_std.c **** #if (USBTMC_BOS_ENABLE)
 971:Generated_Source\PSoC4/USBTMC_std.c ****     /*******************************************************************************
 972:Generated_Source\PSoC4/USBTMC_std.c ****     * Function Name: USBTMC_GetBOSPtr
 973:Generated_Source\PSoC4/USBTMC_std.c ****     ****************************************************************************//**
 974:Generated_Source\PSoC4/USBTMC_std.c ****     *
 975:Generated_Source\PSoC4/USBTMC_std.c ****     *  This routine returns a pointer a BOS table entry
 976:Generated_Source\PSoC4/USBTMC_std.c ****     *
 977:Generated_Source\PSoC4/USBTMC_std.c ****     *  
 978:Generated_Source\PSoC4/USBTMC_std.c ****     *
 979:Generated_Source\PSoC4/USBTMC_std.c ****     * \return
 980:Generated_Source\PSoC4/USBTMC_std.c ****     *  BOS Descriptor pointer or NULL when descriptor does not exist.
 981:Generated_Source\PSoC4/USBTMC_std.c ****     *
 982:Generated_Source\PSoC4/USBTMC_std.c ****     *******************************************************************************/
 983:Generated_Source\PSoC4/USBTMC_std.c ****     const T_USBTMC_LUT CYCODE *USBTMC_GetBOSPtr(void)
 984:Generated_Source\PSoC4/USBTMC_std.c ****                                                             
 985:Generated_Source\PSoC4/USBTMC_std.c ****     {
 986:Generated_Source\PSoC4/USBTMC_std.c ****         /* Device Table */
 987:Generated_Source\PSoC4/USBTMC_std.c ****         const T_USBTMC_LUT CYCODE *pTmp;
 988:Generated_Source\PSoC4/USBTMC_std.c **** 
 989:Generated_Source\PSoC4/USBTMC_std.c ****         pTmp = (const T_USBTMC_LUT CYCODE *) USBTMC_TABLE[USBTMC_device].p_list;
 990:Generated_Source\PSoC4/USBTMC_std.c **** 
 991:Generated_Source\PSoC4/USBTMC_std.c ****         /* The first entry points to the Device Descriptor,
 992:Generated_Source\PSoC4/USBTMC_std.c ****         *  the second entry points to the BOS Descriptor
 993:Generated_Source\PSoC4/USBTMC_std.c ****         */
 994:Generated_Source\PSoC4/USBTMC_std.c ****         pTmp = &pTmp[1u];
 995:Generated_Source\PSoC4/USBTMC_std.c ****         pTmp = (const T_USBTMC_LUT CYCODE *) pTmp->p_list;
 996:Generated_Source\PSoC4/USBTMC_std.c ****         return (pTmp);
 997:Generated_Source\PSoC4/USBTMC_std.c ****     }
 998:Generated_Source\PSoC4/USBTMC_std.c **** #endif /* (USBTMC_BOS_ENABLE) */
 999:Generated_Source\PSoC4/USBTMC_std.c **** 
1000:Generated_Source\PSoC4/USBTMC_std.c **** 
1001:Generated_Source\PSoC4/USBTMC_std.c **** /*******************************************************************************
1002:Generated_Source\PSoC4/USBTMC_std.c **** * Function Name: USBTMC_GetDeviceTablePtr
1003:Generated_Source\PSoC4/USBTMC_std.c **** ****************************************************************************//**
1004:Generated_Source\PSoC4/USBTMC_std.c **** *
1005:Generated_Source\PSoC4/USBTMC_std.c **** *  This routine returns a pointer to the Device table
1006:Generated_Source\PSoC4/USBTMC_std.c **** *
1007:Generated_Source\PSoC4/USBTMC_std.c **** * \return
1008:Generated_Source\PSoC4/USBTMC_std.c **** *  Device Table pointer
1009:Generated_Source\PSoC4/USBTMC_std.c **** *
1010:Generated_Source\PSoC4/USBTMC_std.c **** *******************************************************************************/
1011:Generated_Source\PSoC4/USBTMC_std.c **** const T_USBTMC_LUT CYCODE *USBTMC_GetDeviceTablePtr(void)
1012:Generated_Source\PSoC4/USBTMC_std.c ****                                                             
1013:Generated_Source\PSoC4/USBTMC_std.c **** {
 2067              		.loc 1 1013 0
 2068              		.cfi_startproc
 2069              		@ args = 0, pretend = 0, frame = 0
 2070              		@ frame_needed = 1, uses_anonymous_args = 0
ARM GAS  C:\Users\essele\AppData\Local\Temp\ccFLOaGJ.s 			page 57


 2071 0000 80B5     		push	{r7, lr}
 2072              		.cfi_def_cfa_offset 8
 2073              		.cfi_offset 7, -8
 2074              		.cfi_offset 14, -4
 2075 0002 00AF     		add	r7, sp, #0
 2076              		.cfi_def_cfa_register 7
1014:Generated_Source\PSoC4/USBTMC_std.c ****     /* Device Table */
1015:Generated_Source\PSoC4/USBTMC_std.c ****     return( (const T_USBTMC_LUT CYCODE *) USBTMC_TABLE[USBTMC_device].p_list );
 2077              		.loc 1 1015 0
 2078 0004 054B     		ldr	r3, .L137
 2079 0006 1B78     		ldrb	r3, [r3]
 2080 0008 DBB2     		uxtb	r3, r3
 2081 000a 054A     		ldr	r2, .L137+4
 2082 000c DB00     		lsls	r3, r3, #3
 2083 000e D318     		adds	r3, r2, r3
 2084 0010 0433     		adds	r3, r3, #4
 2085 0012 1B68     		ldr	r3, [r3]
1016:Generated_Source\PSoC4/USBTMC_std.c **** }
 2086              		.loc 1 1016 0
 2087 0014 1800     		movs	r0, r3
 2088 0016 BD46     		mov	sp, r7
 2089              		@ sp needed
 2090 0018 80BD     		pop	{r7, pc}
 2091              	.L138:
 2092 001a C046     		.align	2
 2093              	.L137:
 2094 001c 00000000 		.word	USBTMC_device
 2095 0020 00000000 		.word	USBTMC_TABLE
 2096              		.cfi_endproc
 2097              	.LFE7:
 2098              		.size	USBTMC_GetDeviceTablePtr, .-USBTMC_GetDeviceTablePtr
 2099              		.section	.text.USBTMC_GetInterfaceClassTablePtr,"ax",%progbits
 2100              		.align	2
 2101              		.global	USBTMC_GetInterfaceClassTablePtr
 2102              		.code	16
 2103              		.thumb_func
 2104              		.type	USBTMC_GetInterfaceClassTablePtr, %function
 2105              	USBTMC_GetInterfaceClassTablePtr:
 2106              	.LFB8:
1017:Generated_Source\PSoC4/USBTMC_std.c **** 
1018:Generated_Source\PSoC4/USBTMC_std.c **** 
1019:Generated_Source\PSoC4/USBTMC_std.c **** /*******************************************************************************
1020:Generated_Source\PSoC4/USBTMC_std.c **** * Function Name: USB_GetInterfaceClassTablePtr
1021:Generated_Source\PSoC4/USBTMC_std.c **** ****************************************************************************//**
1022:Generated_Source\PSoC4/USBTMC_std.c **** *
1023:Generated_Source\PSoC4/USBTMC_std.c **** *  This routine returns Interface Class table pointer, which contains
1024:Generated_Source\PSoC4/USBTMC_std.c **** *  the relation between interface number and interface class.
1025:Generated_Source\PSoC4/USBTMC_std.c **** *
1026:Generated_Source\PSoC4/USBTMC_std.c **** * \return
1027:Generated_Source\PSoC4/USBTMC_std.c **** *  Interface Class table pointer.
1028:Generated_Source\PSoC4/USBTMC_std.c **** *
1029:Generated_Source\PSoC4/USBTMC_std.c **** *******************************************************************************/
1030:Generated_Source\PSoC4/USBTMC_std.c **** const uint8 CYCODE *USBTMC_GetInterfaceClassTablePtr(void)
1031:Generated_Source\PSoC4/USBTMC_std.c ****                                                         
1032:Generated_Source\PSoC4/USBTMC_std.c **** {
 2107              		.loc 1 1032 0
 2108              		.cfi_startproc
ARM GAS  C:\Users\essele\AppData\Local\Temp\ccFLOaGJ.s 			page 58


 2109              		@ args = 0, pretend = 0, frame = 16
 2110              		@ frame_needed = 1, uses_anonymous_args = 0
 2111 0000 80B5     		push	{r7, lr}
 2112              		.cfi_def_cfa_offset 8
 2113              		.cfi_offset 7, -8
 2114              		.cfi_offset 14, -4
 2115 0002 84B0     		sub	sp, sp, #16
 2116              		.cfi_def_cfa_offset 24
 2117 0004 00AF     		add	r7, sp, #0
 2118              		.cfi_def_cfa_register 7
1033:Generated_Source\PSoC4/USBTMC_std.c ****     const T_USBTMC_LUT CYCODE *pTmp;
1034:Generated_Source\PSoC4/USBTMC_std.c ****     const uint8 CYCODE *pInterfaceClass;
1035:Generated_Source\PSoC4/USBTMC_std.c ****     uint8 currentInterfacesNum;
1036:Generated_Source\PSoC4/USBTMC_std.c **** 
1037:Generated_Source\PSoC4/USBTMC_std.c ****     pTmp = USBTMC_GetConfigTablePtr(USBTMC_configuration - 1u);
 2119              		.loc 1 1037 0
 2120 0006 124B     		ldr	r3, .L143
 2121 0008 1B78     		ldrb	r3, [r3]
 2122 000a DBB2     		uxtb	r3, r3
 2123 000c 013B     		subs	r3, r3, #1
 2124 000e DBB2     		uxtb	r3, r3
 2125 0010 1800     		movs	r0, r3
 2126 0012 FFF7FEFF 		bl	USBTMC_GetConfigTablePtr
 2127 0016 0300     		movs	r3, r0
 2128 0018 BB60     		str	r3, [r7, #8]
1038:Generated_Source\PSoC4/USBTMC_std.c ****     if (pTmp != NULL)
 2129              		.loc 1 1038 0
 2130 001a BB68     		ldr	r3, [r7, #8]
 2131 001c 002B     		cmp	r3, #0
 2132 001e 0FD0     		beq	.L140
1039:Generated_Source\PSoC4/USBTMC_std.c ****     {
1040:Generated_Source\PSoC4/USBTMC_std.c ****         currentInterfacesNum  = ((const uint8 *) pTmp->p_list)[USBTMC_CONFIG_DESCR_NUM_INTERFACES];
 2133              		.loc 1 1040 0
 2134 0020 BB68     		ldr	r3, [r7, #8]
 2135 0022 5A68     		ldr	r2, [r3, #4]
 2136 0024 FB1D     		adds	r3, r7, #7
 2137 0026 1279     		ldrb	r2, [r2, #4]
 2138 0028 1A70     		strb	r2, [r3]
1041:Generated_Source\PSoC4/USBTMC_std.c ****         /* Third entry in the LUT starts the Interface Table pointers */
1042:Generated_Source\PSoC4/USBTMC_std.c ****         /* The INTERFACE_CLASS table is located after all interfaces */
1043:Generated_Source\PSoC4/USBTMC_std.c ****         pTmp = &pTmp[currentInterfacesNum + 2u];
 2139              		.loc 1 1043 0
 2140 002a FB1D     		adds	r3, r7, #7
 2141 002c 1B78     		ldrb	r3, [r3]
 2142 002e 0233     		adds	r3, r3, #2
 2143 0030 DB00     		lsls	r3, r3, #3
 2144 0032 BA68     		ldr	r2, [r7, #8]
 2145 0034 D318     		adds	r3, r2, r3
 2146 0036 BB60     		str	r3, [r7, #8]
1044:Generated_Source\PSoC4/USBTMC_std.c ****         pInterfaceClass = (const uint8 CYCODE *) pTmp->p_list;
 2147              		.loc 1 1044 0
 2148 0038 BB68     		ldr	r3, [r7, #8]
 2149 003a 5B68     		ldr	r3, [r3, #4]
 2150 003c FB60     		str	r3, [r7, #12]
 2151 003e 01E0     		b	.L141
 2152              	.L140:
1045:Generated_Source\PSoC4/USBTMC_std.c ****     }
ARM GAS  C:\Users\essele\AppData\Local\Temp\ccFLOaGJ.s 			page 59


1046:Generated_Source\PSoC4/USBTMC_std.c ****     else
1047:Generated_Source\PSoC4/USBTMC_std.c ****     {
1048:Generated_Source\PSoC4/USBTMC_std.c ****         pInterfaceClass = (const uint8 CYCODE *) NULL;
 2153              		.loc 1 1048 0
 2154 0040 0023     		movs	r3, #0
 2155 0042 FB60     		str	r3, [r7, #12]
 2156              	.L141:
1049:Generated_Source\PSoC4/USBTMC_std.c ****     }
1050:Generated_Source\PSoC4/USBTMC_std.c **** 
1051:Generated_Source\PSoC4/USBTMC_std.c ****     return (pInterfaceClass);
 2157              		.loc 1 1051 0
 2158 0044 FB68     		ldr	r3, [r7, #12]
1052:Generated_Source\PSoC4/USBTMC_std.c **** }
 2159              		.loc 1 1052 0
 2160 0046 1800     		movs	r0, r3
 2161 0048 BD46     		mov	sp, r7
 2162 004a 04B0     		add	sp, sp, #16
 2163              		@ sp needed
 2164 004c 80BD     		pop	{r7, pc}
 2165              	.L144:
 2166 004e C046     		.align	2
 2167              	.L143:
 2168 0050 00000000 		.word	USBTMC_configuration
 2169              		.cfi_endproc
 2170              	.LFE8:
 2171              		.size	USBTMC_GetInterfaceClassTablePtr, .-USBTMC_GetInterfaceClassTablePtr
 2172              		.section	.text.USBTMC_TerminateEP,"ax",%progbits
 2173              		.align	2
 2174              		.global	USBTMC_TerminateEP
 2175              		.code	16
 2176              		.thumb_func
 2177              		.type	USBTMC_TerminateEP, %function
 2178              	USBTMC_TerminateEP:
 2179              	.LFB9:
1053:Generated_Source\PSoC4/USBTMC_std.c **** 
1054:Generated_Source\PSoC4/USBTMC_std.c **** 
1055:Generated_Source\PSoC4/USBTMC_std.c **** /*******************************************************************************
1056:Generated_Source\PSoC4/USBTMC_std.c **** * Function Name: USBTMC_TerminateEP
1057:Generated_Source\PSoC4/USBTMC_std.c **** ****************************************************************************//**
1058:Generated_Source\PSoC4/USBTMC_std.c **** *
1059:Generated_Source\PSoC4/USBTMC_std.c **** *  This function terminates the specified USBFS endpoint.
1060:Generated_Source\PSoC4/USBTMC_std.c **** *  This function should be used before endpoint reconfiguration.
1061:Generated_Source\PSoC4/USBTMC_std.c **** *
1062:Generated_Source\PSoC4/USBTMC_std.c **** *  \param ep Contains the data endpoint number.
1063:Generated_Source\PSoC4/USBTMC_std.c **** *
1064:Generated_Source\PSoC4/USBTMC_std.c **** *  \reentrant
1065:Generated_Source\PSoC4/USBTMC_std.c **** *  No.
1066:Generated_Source\PSoC4/USBTMC_std.c **** *
1067:Generated_Source\PSoC4/USBTMC_std.c **** * \sideeffect
1068:Generated_Source\PSoC4/USBTMC_std.c **** * 
1069:Generated_Source\PSoC4/USBTMC_std.c **** * The device responds with a NAK for any transactions on the selected endpoint.
1070:Generated_Source\PSoC4/USBTMC_std.c **** *   
1071:Generated_Source\PSoC4/USBTMC_std.c **** *******************************************************************************/
1072:Generated_Source\PSoC4/USBTMC_std.c **** void USBTMC_TerminateEP(uint8 epNumber) 
1073:Generated_Source\PSoC4/USBTMC_std.c **** {
 2180              		.loc 1 1073 0
 2181              		.cfi_startproc
ARM GAS  C:\Users\essele\AppData\Local\Temp\ccFLOaGJ.s 			page 60


 2182              		@ args = 0, pretend = 0, frame = 8
 2183              		@ frame_needed = 1, uses_anonymous_args = 0
 2184 0000 80B5     		push	{r7, lr}
 2185              		.cfi_def_cfa_offset 8
 2186              		.cfi_offset 7, -8
 2187              		.cfi_offset 14, -4
 2188 0002 82B0     		sub	sp, sp, #8
 2189              		.cfi_def_cfa_offset 16
 2190 0004 00AF     		add	r7, sp, #0
 2191              		.cfi_def_cfa_register 7
 2192 0006 0200     		movs	r2, r0
 2193 0008 FB1D     		adds	r3, r7, #7
 2194 000a 1A70     		strb	r2, [r3]
1074:Generated_Source\PSoC4/USBTMC_std.c ****     /* Get endpoint number */
1075:Generated_Source\PSoC4/USBTMC_std.c ****     epNumber &= USBTMC_DIR_UNUSED;
 2195              		.loc 1 1075 0
 2196 000c FB1D     		adds	r3, r7, #7
 2197 000e FA1D     		adds	r2, r7, #7
 2198 0010 1278     		ldrb	r2, [r2]
 2199 0012 7F21     		movs	r1, #127
 2200 0014 0A40     		ands	r2, r1
 2201 0016 1A70     		strb	r2, [r3]
1076:Generated_Source\PSoC4/USBTMC_std.c **** 
1077:Generated_Source\PSoC4/USBTMC_std.c ****     if ((epNumber > USBTMC_EP0) && (epNumber < USBTMC_MAX_EP))
 2202              		.loc 1 1077 0
 2203 0018 FB1D     		adds	r3, r7, #7
 2204 001a 1B78     		ldrb	r3, [r3]
 2205 001c 002B     		cmp	r3, #0
 2206 001e 51D0     		beq	.L148
 2207              		.loc 1 1077 0 is_stmt 0 discriminator 1
 2208 0020 FB1D     		adds	r3, r7, #7
 2209 0022 1B78     		ldrb	r3, [r3]
 2210 0024 082B     		cmp	r3, #8
 2211 0026 4DD8     		bhi	.L148
1078:Generated_Source\PSoC4/USBTMC_std.c ****     {
1079:Generated_Source\PSoC4/USBTMC_std.c ****         /* Set the endpoint Halt */
1080:Generated_Source\PSoC4/USBTMC_std.c ****         USBTMC_EP[epNumber].hwEpState |= USBTMC_ENDPOINT_STATUS_HALT;
 2212              		.loc 1 1080 0 is_stmt 1
 2213 0028 FB1D     		adds	r3, r7, #7
 2214 002a 1A78     		ldrb	r2, [r3]
 2215 002c FB1D     		adds	r3, r7, #7
 2216 002e 1978     		ldrb	r1, [r3]
 2217 0030 2648     		ldr	r0, .L149
 2218 0032 0B00     		movs	r3, r1
 2219 0034 5B00     		lsls	r3, r3, #1
 2220 0036 5B18     		adds	r3, r3, r1
 2221 0038 9B00     		lsls	r3, r3, #2
 2222 003a C318     		adds	r3, r0, r3
 2223 003c 0233     		adds	r3, r3, #2
 2224 003e 1B78     		ldrb	r3, [r3]
 2225 0040 DBB2     		uxtb	r3, r3
 2226 0042 0121     		movs	r1, #1
 2227 0044 0B43     		orrs	r3, r1
 2228 0046 D8B2     		uxtb	r0, r3
 2229 0048 2049     		ldr	r1, .L149
 2230 004a 1300     		movs	r3, r2
 2231 004c 5B00     		lsls	r3, r3, #1
ARM GAS  C:\Users\essele\AppData\Local\Temp\ccFLOaGJ.s 			page 61


 2232 004e 9B18     		adds	r3, r3, r2
 2233 0050 9B00     		lsls	r3, r3, #2
 2234 0052 CB18     		adds	r3, r1, r3
 2235 0054 0233     		adds	r3, r3, #2
 2236 0056 021C     		adds	r2, r0, #0
 2237 0058 1A70     		strb	r2, [r3]
1081:Generated_Source\PSoC4/USBTMC_std.c **** 
1082:Generated_Source\PSoC4/USBTMC_std.c ****         /* Clear the data toggle */
1083:Generated_Source\PSoC4/USBTMC_std.c ****         USBTMC_EP[epNumber].epToggle = 0u;
 2238              		.loc 1 1083 0
 2239 005a FB1D     		adds	r3, r7, #7
 2240 005c 1A78     		ldrb	r2, [r3]
 2241 005e 1B49     		ldr	r1, .L149
 2242 0060 1300     		movs	r3, r2
 2243 0062 5B00     		lsls	r3, r3, #1
 2244 0064 9B18     		adds	r3, r3, r2
 2245 0066 9B00     		lsls	r3, r3, #2
 2246 0068 CB18     		adds	r3, r1, r3
 2247 006a 0333     		adds	r3, r3, #3
 2248 006c 0022     		movs	r2, #0
 2249 006e 1A70     		strb	r2, [r3]
1084:Generated_Source\PSoC4/USBTMC_std.c ****         USBTMC_EP[epNumber].apiEpState = USBTMC_NO_EVENT_ALLOWED;
 2250              		.loc 1 1084 0
 2251 0070 FB1D     		adds	r3, r7, #7
 2252 0072 1A78     		ldrb	r2, [r3]
 2253 0074 1549     		ldr	r1, .L149
 2254 0076 1300     		movs	r3, r2
 2255 0078 5B00     		lsls	r3, r3, #1
 2256 007a 9B18     		adds	r3, r3, r2
 2257 007c 9B00     		lsls	r3, r3, #2
 2258 007e CB18     		adds	r3, r1, r3
 2259 0080 0133     		adds	r3, r3, #1
 2260 0082 0222     		movs	r2, #2
 2261 0084 1A70     		strb	r2, [r3]
1085:Generated_Source\PSoC4/USBTMC_std.c **** 
1086:Generated_Source\PSoC4/USBTMC_std.c ****         if ((USBTMC_EP[epNumber].addr & USBTMC_DIR_IN) != 0u)
 2262              		.loc 1 1086 0
 2263 0086 FB1D     		adds	r3, r7, #7
 2264 0088 1A78     		ldrb	r2, [r3]
 2265 008a 1049     		ldr	r1, .L149
 2266 008c 1300     		movs	r3, r2
 2267 008e 5B00     		lsls	r3, r3, #1
 2268 0090 9B18     		adds	r3, r3, r2
 2269 0092 9B00     		lsls	r3, r3, #2
 2270 0094 CB18     		adds	r3, r1, r3
 2271 0096 0433     		adds	r3, r3, #4
 2272 0098 1B78     		ldrb	r3, [r3]
 2273 009a DBB2     		uxtb	r3, r3
 2274 009c 5BB2     		sxtb	r3, r3
 2275 009e 002B     		cmp	r3, #0
 2276 00a0 08DA     		bge	.L147
1087:Generated_Source\PSoC4/USBTMC_std.c ****         {   
1088:Generated_Source\PSoC4/USBTMC_std.c ****             /* IN Endpoint */
1089:Generated_Source\PSoC4/USBTMC_std.c ****             USBTMC_SIE_EP_BASE.sieEp[epNumber].epCr0 = USBTMC_MODE_NAK_IN;
 2277              		.loc 1 1089 0
 2278 00a2 0B4A     		ldr	r2, .L149+4
 2279 00a4 FB1D     		adds	r3, r7, #7
ARM GAS  C:\Users\essele\AppData\Local\Temp\ccFLOaGJ.s 			page 62


 2280 00a6 1B78     		ldrb	r3, [r3]
 2281 00a8 9B01     		lsls	r3, r3, #6
 2282 00aa D318     		adds	r3, r2, r3
 2283 00ac 0833     		adds	r3, r3, #8
 2284 00ae 0C22     		movs	r2, #12
 2285 00b0 1A60     		str	r2, [r3]
1090:Generated_Source\PSoC4/USBTMC_std.c ****         }
1091:Generated_Source\PSoC4/USBTMC_std.c ****         else
1092:Generated_Source\PSoC4/USBTMC_std.c ****         {
1093:Generated_Source\PSoC4/USBTMC_std.c ****             /* OUT Endpoint */
1094:Generated_Source\PSoC4/USBTMC_std.c ****             USBTMC_SIE_EP_BASE.sieEp[epNumber].epCr0 = USBTMC_MODE_NAK_OUT;
1095:Generated_Source\PSoC4/USBTMC_std.c ****         }
1096:Generated_Source\PSoC4/USBTMC_std.c ****     }
1097:Generated_Source\PSoC4/USBTMC_std.c **** }
 2286              		.loc 1 1097 0
 2287 00b2 07E0     		b	.L148
 2288              	.L147:
1094:Generated_Source\PSoC4/USBTMC_std.c ****         }
 2289              		.loc 1 1094 0
 2290 00b4 064A     		ldr	r2, .L149+4
 2291 00b6 FB1D     		adds	r3, r7, #7
 2292 00b8 1B78     		ldrb	r3, [r3]
 2293 00ba 9B01     		lsls	r3, r3, #6
 2294 00bc D318     		adds	r3, r2, r3
 2295 00be 0833     		adds	r3, r3, #8
 2296 00c0 0822     		movs	r2, #8
 2297 00c2 1A60     		str	r2, [r3]
 2298              	.L148:
 2299              		.loc 1 1097 0
 2300 00c4 C046     		nop
 2301 00c6 BD46     		mov	sp, r7
 2302 00c8 02B0     		add	sp, sp, #8
 2303              		@ sp needed
 2304 00ca 80BD     		pop	{r7, pc}
 2305              	.L150:
 2306              		.align	2
 2307              	.L149:
 2308 00cc 00000000 		.word	USBTMC_EP
 2309 00d0 F0FF2B40 		.word	1076625392
 2310              		.cfi_endproc
 2311              	.LFE9:
 2312              		.size	USBTMC_TerminateEP, .-USBTMC_TerminateEP
 2313              		.section	.text.USBTMC_SetEndpointHalt,"ax",%progbits
 2314              		.align	2
 2315              		.global	USBTMC_SetEndpointHalt
 2316              		.code	16
 2317              		.thumb_func
 2318              		.type	USBTMC_SetEndpointHalt, %function
 2319              	USBTMC_SetEndpointHalt:
 2320              	.LFB10:
1098:Generated_Source\PSoC4/USBTMC_std.c **** 
1099:Generated_Source\PSoC4/USBTMC_std.c **** 
1100:Generated_Source\PSoC4/USBTMC_std.c **** /*******************************************************************************
1101:Generated_Source\PSoC4/USBTMC_std.c **** * Function Name: USBTMC_SetEndpointHalt
1102:Generated_Source\PSoC4/USBTMC_std.c **** ****************************************************************************//**
1103:Generated_Source\PSoC4/USBTMC_std.c **** *
1104:Generated_Source\PSoC4/USBTMC_std.c **** *  This routine handles set endpoint halt.
ARM GAS  C:\Users\essele\AppData\Local\Temp\ccFLOaGJ.s 			page 63


1105:Generated_Source\PSoC4/USBTMC_std.c **** *
1106:Generated_Source\PSoC4/USBTMC_std.c **** * \return
1107:Generated_Source\PSoC4/USBTMC_std.c **** *  requestHandled.
1108:Generated_Source\PSoC4/USBTMC_std.c **** *
1109:Generated_Source\PSoC4/USBTMC_std.c **** * \reentrant
1110:Generated_Source\PSoC4/USBTMC_std.c **** *  No.
1111:Generated_Source\PSoC4/USBTMC_std.c **** *
1112:Generated_Source\PSoC4/USBTMC_std.c **** *******************************************************************************/
1113:Generated_Source\PSoC4/USBTMC_std.c **** uint8 USBTMC_SetEndpointHalt(void) 
1114:Generated_Source\PSoC4/USBTMC_std.c **** {
 2321              		.loc 1 1114 0
 2322              		.cfi_startproc
 2323              		@ args = 0, pretend = 0, frame = 8
 2324              		@ frame_needed = 1, uses_anonymous_args = 0
 2325 0000 90B5     		push	{r4, r7, lr}
 2326              		.cfi_def_cfa_offset 12
 2327              		.cfi_offset 4, -12
 2328              		.cfi_offset 7, -8
 2329              		.cfi_offset 14, -4
 2330 0002 83B0     		sub	sp, sp, #12
 2331              		.cfi_def_cfa_offset 24
 2332 0004 00AF     		add	r7, sp, #0
 2333              		.cfi_def_cfa_register 7
1115:Generated_Source\PSoC4/USBTMC_std.c ****     uint8 requestHandled = USBTMC_FALSE;
 2334              		.loc 1 1115 0
 2335 0006 FB1D     		adds	r3, r7, #7
 2336 0008 0022     		movs	r2, #0
 2337 000a 1A70     		strb	r2, [r3]
1116:Generated_Source\PSoC4/USBTMC_std.c ****     uint32 ep;
1117:Generated_Source\PSoC4/USBTMC_std.c ****     
1118:Generated_Source\PSoC4/USBTMC_std.c ****     /* Set endpoint halt */
1119:Generated_Source\PSoC4/USBTMC_std.c ****     ep = USBTMC_wIndexLoReg & USBTMC_DIR_UNUSED;
 2338              		.loc 1 1119 0
 2339 000c 344B     		ldr	r3, .L156
 2340 000e 1B69     		ldr	r3, [r3, #16]
 2341 0010 7F22     		movs	r2, #127
 2342 0012 1340     		ands	r3, r2
 2343 0014 3B60     		str	r3, [r7]
1120:Generated_Source\PSoC4/USBTMC_std.c **** 
1121:Generated_Source\PSoC4/USBTMC_std.c ****     if ((ep > USBTMC_EP0) && (ep < USBTMC_MAX_EP))
 2344              		.loc 1 1121 0
 2345 0016 3B68     		ldr	r3, [r7]
 2346 0018 002B     		cmp	r3, #0
 2347 001a 5BD0     		beq	.L152
 2348              		.loc 1 1121 0 is_stmt 0 discriminator 1
 2349 001c 3B68     		ldr	r3, [r7]
 2350 001e 082B     		cmp	r3, #8
 2351 0020 58D8     		bhi	.L152
1122:Generated_Source\PSoC4/USBTMC_std.c ****     {
1123:Generated_Source\PSoC4/USBTMC_std.c ****         /* Set the endpoint Halt */
1124:Generated_Source\PSoC4/USBTMC_std.c ****         USBTMC_EP[ep].hwEpState |= (USBTMC_ENDPOINT_STATUS_HALT);
 2352              		.loc 1 1124 0 is_stmt 1
 2353 0022 3049     		ldr	r1, .L156+4
 2354 0024 3A68     		ldr	r2, [r7]
 2355 0026 1300     		movs	r3, r2
 2356 0028 5B00     		lsls	r3, r3, #1
 2357 002a 9B18     		adds	r3, r3, r2
ARM GAS  C:\Users\essele\AppData\Local\Temp\ccFLOaGJ.s 			page 64


 2358 002c 9B00     		lsls	r3, r3, #2
 2359 002e CB18     		adds	r3, r1, r3
 2360 0030 0233     		adds	r3, r3, #2
 2361 0032 1B78     		ldrb	r3, [r3]
 2362 0034 DBB2     		uxtb	r3, r3
 2363 0036 0122     		movs	r2, #1
 2364 0038 1343     		orrs	r3, r2
 2365 003a D8B2     		uxtb	r0, r3
 2366 003c 2949     		ldr	r1, .L156+4
 2367 003e 3A68     		ldr	r2, [r7]
 2368 0040 1300     		movs	r3, r2
 2369 0042 5B00     		lsls	r3, r3, #1
 2370 0044 9B18     		adds	r3, r3, r2
 2371 0046 9B00     		lsls	r3, r3, #2
 2372 0048 CB18     		adds	r3, r1, r3
 2373 004a 0233     		adds	r3, r3, #2
 2374 004c 021C     		adds	r2, r0, #0
 2375 004e 1A70     		strb	r2, [r3]
1125:Generated_Source\PSoC4/USBTMC_std.c **** 
1126:Generated_Source\PSoC4/USBTMC_std.c ****         /* Clear the data toggle */
1127:Generated_Source\PSoC4/USBTMC_std.c ****         USBTMC_EP[ep].epToggle = 0u;
 2376              		.loc 1 1127 0
 2377 0050 2449     		ldr	r1, .L156+4
 2378 0052 3A68     		ldr	r2, [r7]
 2379 0054 1300     		movs	r3, r2
 2380 0056 5B00     		lsls	r3, r3, #1
 2381 0058 9B18     		adds	r3, r3, r2
 2382 005a 9B00     		lsls	r3, r3, #2
 2383 005c CB18     		adds	r3, r1, r3
 2384 005e 0333     		adds	r3, r3, #3
 2385 0060 0022     		movs	r2, #0
 2386 0062 1A70     		strb	r2, [r3]
1128:Generated_Source\PSoC4/USBTMC_std.c ****         USBTMC_EP[ep].apiEpState |= USBTMC_NO_EVENT_ALLOWED;
 2387              		.loc 1 1128 0
 2388 0064 1F49     		ldr	r1, .L156+4
 2389 0066 3A68     		ldr	r2, [r7]
 2390 0068 1300     		movs	r3, r2
 2391 006a 5B00     		lsls	r3, r3, #1
 2392 006c 9B18     		adds	r3, r3, r2
 2393 006e 9B00     		lsls	r3, r3, #2
 2394 0070 CB18     		adds	r3, r1, r3
 2395 0072 0133     		adds	r3, r3, #1
 2396 0074 1B78     		ldrb	r3, [r3]
 2397 0076 DBB2     		uxtb	r3, r3
 2398 0078 0222     		movs	r2, #2
 2399 007a 1343     		orrs	r3, r2
 2400 007c D8B2     		uxtb	r0, r3
 2401 007e 1949     		ldr	r1, .L156+4
 2402 0080 3A68     		ldr	r2, [r7]
 2403 0082 1300     		movs	r3, r2
 2404 0084 5B00     		lsls	r3, r3, #1
 2405 0086 9B18     		adds	r3, r3, r2
 2406 0088 9B00     		lsls	r3, r3, #2
 2407 008a CB18     		adds	r3, r1, r3
 2408 008c 0133     		adds	r3, r3, #1
 2409 008e 021C     		adds	r2, r0, #0
 2410 0090 1A70     		strb	r2, [r3]
ARM GAS  C:\Users\essele\AppData\Local\Temp\ccFLOaGJ.s 			page 65


1129:Generated_Source\PSoC4/USBTMC_std.c **** 
1130:Generated_Source\PSoC4/USBTMC_std.c ****         if ((USBTMC_EP[ep].addr & USBTMC_DIR_IN) != 0u)
 2411              		.loc 1 1130 0
 2412 0092 1449     		ldr	r1, .L156+4
 2413 0094 3A68     		ldr	r2, [r7]
 2414 0096 1300     		movs	r3, r2
 2415 0098 5B00     		lsls	r3, r3, #1
 2416 009a 9B18     		adds	r3, r3, r2
 2417 009c 9B00     		lsls	r3, r3, #2
 2418 009e CB18     		adds	r3, r1, r3
 2419 00a0 0433     		adds	r3, r3, #4
 2420 00a2 1B78     		ldrb	r3, [r3]
 2421 00a4 DBB2     		uxtb	r3, r3
 2422 00a6 5BB2     		sxtb	r3, r3
 2423 00a8 002B     		cmp	r3, #0
 2424 00aa 07DA     		bge	.L153
1131:Generated_Source\PSoC4/USBTMC_std.c ****         {
1132:Generated_Source\PSoC4/USBTMC_std.c ****             /* IN Endpoint */
1133:Generated_Source\PSoC4/USBTMC_std.c ****             USBTMC_SIE_EP_BASE.sieEp[ep].epCr0 = (USBTMC_MODE_STALL_DATA_EP | 
 2425              		.loc 1 1133 0
 2426 00ac 0E4A     		ldr	r2, .L156+8
 2427 00ae 3B68     		ldr	r3, [r7]
 2428 00b0 9B01     		lsls	r3, r3, #6
 2429 00b2 D318     		adds	r3, r2, r3
 2430 00b4 0833     		adds	r3, r3, #8
 2431 00b6 8D22     		movs	r2, #141
 2432 00b8 1A60     		str	r2, [r3]
 2433 00ba 06E0     		b	.L154
 2434              	.L153:
1134:Generated_Source\PSoC4/USBTMC_std.c ****                                                             USBTMC_MODE_ACK_IN);
1135:Generated_Source\PSoC4/USBTMC_std.c ****         }
1136:Generated_Source\PSoC4/USBTMC_std.c ****         else
1137:Generated_Source\PSoC4/USBTMC_std.c ****         {
1138:Generated_Source\PSoC4/USBTMC_std.c ****             /* OUT Endpoint */
1139:Generated_Source\PSoC4/USBTMC_std.c ****             USBTMC_SIE_EP_BASE.sieEp[ep].epCr0 = (USBTMC_MODE_STALL_DATA_EP | 
 2435              		.loc 1 1139 0
 2436 00bc 0A4A     		ldr	r2, .L156+8
 2437 00be 3B68     		ldr	r3, [r7]
 2438 00c0 9B01     		lsls	r3, r3, #6
 2439 00c2 D318     		adds	r3, r2, r3
 2440 00c4 0833     		adds	r3, r3, #8
 2441 00c6 8922     		movs	r2, #137
 2442 00c8 1A60     		str	r2, [r3]
 2443              	.L154:
1140:Generated_Source\PSoC4/USBTMC_std.c ****                                                             USBTMC_MODE_ACK_OUT);
1141:Generated_Source\PSoC4/USBTMC_std.c ****         }
1142:Generated_Source\PSoC4/USBTMC_std.c ****         requestHandled = USBTMC_InitNoDataControlTransfer();
 2444              		.loc 1 1142 0
 2445 00ca FC1D     		adds	r4, r7, #7
 2446 00cc FFF7FEFF 		bl	USBTMC_InitNoDataControlTransfer
 2447 00d0 0300     		movs	r3, r0
 2448 00d2 2370     		strb	r3, [r4]
 2449              	.L152:
1143:Generated_Source\PSoC4/USBTMC_std.c ****     }
1144:Generated_Source\PSoC4/USBTMC_std.c **** 
1145:Generated_Source\PSoC4/USBTMC_std.c ****     return (requestHandled);
 2450              		.loc 1 1145 0
ARM GAS  C:\Users\essele\AppData\Local\Temp\ccFLOaGJ.s 			page 66


 2451 00d4 FB1D     		adds	r3, r7, #7
 2452 00d6 1B78     		ldrb	r3, [r3]
1146:Generated_Source\PSoC4/USBTMC_std.c **** }
 2453              		.loc 1 1146 0
 2454 00d8 1800     		movs	r0, r3
 2455 00da BD46     		mov	sp, r7
 2456 00dc 03B0     		add	sp, sp, #12
 2457              		@ sp needed
 2458 00de 90BD     		pop	{r4, r7, pc}
 2459              	.L157:
 2460              		.align	2
 2461              	.L156:
 2462 00e0 00002C40 		.word	1076625408
 2463 00e4 00000000 		.word	USBTMC_EP
 2464 00e8 F0FF2B40 		.word	1076625392
 2465              		.cfi_endproc
 2466              	.LFE10:
 2467              		.size	USBTMC_SetEndpointHalt, .-USBTMC_SetEndpointHalt
 2468              		.section	.text.USBTMC_ClearEndpointHalt,"ax",%progbits
 2469              		.align	2
 2470              		.global	USBTMC_ClearEndpointHalt
 2471              		.code	16
 2472              		.thumb_func
 2473              		.type	USBTMC_ClearEndpointHalt, %function
 2474              	USBTMC_ClearEndpointHalt:
 2475              	.LFB11:
1147:Generated_Source\PSoC4/USBTMC_std.c **** 
1148:Generated_Source\PSoC4/USBTMC_std.c **** 
1149:Generated_Source\PSoC4/USBTMC_std.c **** /*******************************************************************************
1150:Generated_Source\PSoC4/USBTMC_std.c **** * Function Name: USBTMC_ClearEndpointHalt
1151:Generated_Source\PSoC4/USBTMC_std.c **** ****************************************************************************//**
1152:Generated_Source\PSoC4/USBTMC_std.c **** *
1153:Generated_Source\PSoC4/USBTMC_std.c **** *  This routine handles clear endpoint halt.
1154:Generated_Source\PSoC4/USBTMC_std.c **** *
1155:Generated_Source\PSoC4/USBTMC_std.c **** * \return
1156:Generated_Source\PSoC4/USBTMC_std.c **** *  requestHandled.
1157:Generated_Source\PSoC4/USBTMC_std.c **** *
1158:Generated_Source\PSoC4/USBTMC_std.c **** * \reentrant
1159:Generated_Source\PSoC4/USBTMC_std.c **** *  No.
1160:Generated_Source\PSoC4/USBTMC_std.c **** *
1161:Generated_Source\PSoC4/USBTMC_std.c **** *******************************************************************************/
1162:Generated_Source\PSoC4/USBTMC_std.c **** uint8 USBTMC_ClearEndpointHalt(void) 
1163:Generated_Source\PSoC4/USBTMC_std.c **** {
 2476              		.loc 1 1163 0
 2477              		.cfi_startproc
 2478              		@ args = 0, pretend = 0, frame = 8
 2479              		@ frame_needed = 1, uses_anonymous_args = 0
 2480 0000 90B5     		push	{r4, r7, lr}
 2481              		.cfi_def_cfa_offset 12
 2482              		.cfi_offset 4, -12
 2483              		.cfi_offset 7, -8
 2484              		.cfi_offset 14, -4
 2485 0002 83B0     		sub	sp, sp, #12
 2486              		.cfi_def_cfa_offset 24
 2487 0004 00AF     		add	r7, sp, #0
 2488              		.cfi_def_cfa_register 7
1164:Generated_Source\PSoC4/USBTMC_std.c ****     uint8 requestHandled = USBTMC_FALSE;
ARM GAS  C:\Users\essele\AppData\Local\Temp\ccFLOaGJ.s 			page 67


 2489              		.loc 1 1164 0
 2490 0006 FB1D     		adds	r3, r7, #7
 2491 0008 0022     		movs	r2, #0
 2492 000a 1A70     		strb	r2, [r3]
1165:Generated_Source\PSoC4/USBTMC_std.c ****     uint32 ep;
1166:Generated_Source\PSoC4/USBTMC_std.c **** 
1167:Generated_Source\PSoC4/USBTMC_std.c ****     /* Clear endpoint halt */
1168:Generated_Source\PSoC4/USBTMC_std.c ****     ep = USBTMC_wIndexLoReg & USBTMC_DIR_UNUSED;
 2493              		.loc 1 1168 0
 2494 000c 4F4B     		ldr	r3, .L166
 2495 000e 1B69     		ldr	r3, [r3, #16]
 2496 0010 7F22     		movs	r2, #127
 2497 0012 1340     		ands	r3, r2
 2498 0014 3B60     		str	r3, [r7]
1169:Generated_Source\PSoC4/USBTMC_std.c **** 
1170:Generated_Source\PSoC4/USBTMC_std.c ****     if ((ep > USBTMC_EP0) && (ep < USBTMC_MAX_EP))
 2499              		.loc 1 1170 0
 2500 0016 3B68     		ldr	r3, [r7]
 2501 0018 002B     		cmp	r3, #0
 2502 001a 00D1     		bne	.LCB2259
 2503 001c 8FE0     		b	.L159	@long jump
 2504              	.LCB2259:
 2505              		.loc 1 1170 0 is_stmt 0 discriminator 1
 2506 001e 3B68     		ldr	r3, [r7]
 2507 0020 082B     		cmp	r3, #8
 2508 0022 00D9     		bls	.LCB2262
 2509 0024 8BE0     		b	.L159	@long jump
 2510              	.LCB2262:
1171:Generated_Source\PSoC4/USBTMC_std.c ****     {
1172:Generated_Source\PSoC4/USBTMC_std.c ****         /* Clear the endpoint Halt */
1173:Generated_Source\PSoC4/USBTMC_std.c ****         USBTMC_EP[ep].hwEpState &= (uint8) ~USBTMC_ENDPOINT_STATUS_HALT;
 2511              		.loc 1 1173 0 is_stmt 1
 2512 0026 4A49     		ldr	r1, .L166+4
 2513 0028 3A68     		ldr	r2, [r7]
 2514 002a 1300     		movs	r3, r2
 2515 002c 5B00     		lsls	r3, r3, #1
 2516 002e 9B18     		adds	r3, r3, r2
 2517 0030 9B00     		lsls	r3, r3, #2
 2518 0032 CB18     		adds	r3, r1, r3
 2519 0034 0233     		adds	r3, r3, #2
 2520 0036 1B78     		ldrb	r3, [r3]
 2521 0038 DBB2     		uxtb	r3, r3
 2522 003a 0122     		movs	r2, #1
 2523 003c 9343     		bics	r3, r2
 2524 003e D8B2     		uxtb	r0, r3
 2525 0040 4349     		ldr	r1, .L166+4
 2526 0042 3A68     		ldr	r2, [r7]
 2527 0044 1300     		movs	r3, r2
 2528 0046 5B00     		lsls	r3, r3, #1
 2529 0048 9B18     		adds	r3, r3, r2
 2530 004a 9B00     		lsls	r3, r3, #2
 2531 004c CB18     		adds	r3, r1, r3
 2532 004e 0233     		adds	r3, r3, #2
 2533 0050 021C     		adds	r2, r0, #0
 2534 0052 1A70     		strb	r2, [r3]
1174:Generated_Source\PSoC4/USBTMC_std.c **** 
1175:Generated_Source\PSoC4/USBTMC_std.c ****         /* Clear the data toggle */
ARM GAS  C:\Users\essele\AppData\Local\Temp\ccFLOaGJ.s 			page 68


1176:Generated_Source\PSoC4/USBTMC_std.c ****         USBTMC_EP[ep].epToggle = 0u;
 2535              		.loc 1 1176 0
 2536 0054 3E49     		ldr	r1, .L166+4
 2537 0056 3A68     		ldr	r2, [r7]
 2538 0058 1300     		movs	r3, r2
 2539 005a 5B00     		lsls	r3, r3, #1
 2540 005c 9B18     		adds	r3, r3, r2
 2541 005e 9B00     		lsls	r3, r3, #2
 2542 0060 CB18     		adds	r3, r1, r3
 2543 0062 0333     		adds	r3, r3, #3
 2544 0064 0022     		movs	r2, #0
 2545 0066 1A70     		strb	r2, [r3]
1177:Generated_Source\PSoC4/USBTMC_std.c ****         
1178:Generated_Source\PSoC4/USBTMC_std.c ****         /* Clear toggle bit for already armed packet */
1179:Generated_Source\PSoC4/USBTMC_std.c ****         USBTMC_SIE_EP_BASE.sieEp[ep].epCnt0 &= (uint32) ~(uint32)USBTMC_EPX_CNT_DATA_TOGGLE;
 2546              		.loc 1 1179 0
 2547 0068 3A49     		ldr	r1, .L166+8
 2548 006a 3A4A     		ldr	r2, .L166+8
 2549 006c 3B68     		ldr	r3, [r7]
 2550 006e 9B01     		lsls	r3, r3, #6
 2551 0070 9B58     		ldr	r3, [r3, r2]
 2552 0072 8022     		movs	r2, #128
 2553 0074 9343     		bics	r3, r2
 2554 0076 1A00     		movs	r2, r3
 2555 0078 3B68     		ldr	r3, [r7]
 2556 007a 9B01     		lsls	r3, r3, #6
 2557 007c 5A50     		str	r2, [r3, r1]
1180:Generated_Source\PSoC4/USBTMC_std.c ****         
1181:Generated_Source\PSoC4/USBTMC_std.c ****         /* Return API State as it was defined before */
1182:Generated_Source\PSoC4/USBTMC_std.c ****         USBTMC_EP[ep].apiEpState &= (uint8) ~USBTMC_NO_EVENT_ALLOWED;
 2558              		.loc 1 1182 0
 2559 007e 3449     		ldr	r1, .L166+4
 2560 0080 3A68     		ldr	r2, [r7]
 2561 0082 1300     		movs	r3, r2
 2562 0084 5B00     		lsls	r3, r3, #1
 2563 0086 9B18     		adds	r3, r3, r2
 2564 0088 9B00     		lsls	r3, r3, #2
 2565 008a CB18     		adds	r3, r1, r3
 2566 008c 0133     		adds	r3, r3, #1
 2567 008e 1B78     		ldrb	r3, [r3]
 2568 0090 DBB2     		uxtb	r3, r3
 2569 0092 0222     		movs	r2, #2
 2570 0094 9343     		bics	r3, r2
 2571 0096 D8B2     		uxtb	r0, r3
 2572 0098 2D49     		ldr	r1, .L166+4
 2573 009a 3A68     		ldr	r2, [r7]
 2574 009c 1300     		movs	r3, r2
 2575 009e 5B00     		lsls	r3, r3, #1
 2576 00a0 9B18     		adds	r3, r3, r2
 2577 00a2 9B00     		lsls	r3, r3, #2
 2578 00a4 CB18     		adds	r3, r1, r3
 2579 00a6 0133     		adds	r3, r3, #1
 2580 00a8 021C     		adds	r2, r0, #0
 2581 00aa 1A70     		strb	r2, [r3]
1183:Generated_Source\PSoC4/USBTMC_std.c **** 
1184:Generated_Source\PSoC4/USBTMC_std.c ****         if ((USBTMC_EP[ep].addr & USBTMC_DIR_IN) != 0u)
 2582              		.loc 1 1184 0
ARM GAS  C:\Users\essele\AppData\Local\Temp\ccFLOaGJ.s 			page 69


 2583 00ac 2849     		ldr	r1, .L166+4
 2584 00ae 3A68     		ldr	r2, [r7]
 2585 00b0 1300     		movs	r3, r2
 2586 00b2 5B00     		lsls	r3, r3, #1
 2587 00b4 9B18     		adds	r3, r3, r2
 2588 00b6 9B00     		lsls	r3, r3, #2
 2589 00b8 CB18     		adds	r3, r1, r3
 2590 00ba 0433     		adds	r3, r3, #4
 2591 00bc 1B78     		ldrb	r3, [r3]
 2592 00be DBB2     		uxtb	r3, r3
 2593 00c0 5BB2     		sxtb	r3, r3
 2594 00c2 002B     		cmp	r3, #0
 2595 00c4 1BDA     		bge	.L160
1185:Generated_Source\PSoC4/USBTMC_std.c ****         {
1186:Generated_Source\PSoC4/USBTMC_std.c ****             /* IN Endpoint */
1187:Generated_Source\PSoC4/USBTMC_std.c ****             if(USBTMC_EP[ep].apiEpState == USBTMC_IN_BUFFER_EMPTY)
 2596              		.loc 1 1187 0
 2597 00c6 2249     		ldr	r1, .L166+4
 2598 00c8 3A68     		ldr	r2, [r7]
 2599 00ca 1300     		movs	r3, r2
 2600 00cc 5B00     		lsls	r3, r3, #1
 2601 00ce 9B18     		adds	r3, r3, r2
 2602 00d0 9B00     		lsls	r3, r3, #2
 2603 00d2 CB18     		adds	r3, r1, r3
 2604 00d4 0133     		adds	r3, r3, #1
 2605 00d6 1B78     		ldrb	r3, [r3]
 2606 00d8 DBB2     		uxtb	r3, r3
 2607 00da 012B     		cmp	r3, #1
 2608 00dc 07D1     		bne	.L161
1188:Generated_Source\PSoC4/USBTMC_std.c ****             {       
1189:Generated_Source\PSoC4/USBTMC_std.c ****                 /* Wait for next packet from application */
1190:Generated_Source\PSoC4/USBTMC_std.c ****                 USBTMC_SIE_EP_BASE.sieEp[ep].epCr0 = USBTMC_MODE_NAK_IN;
 2609              		.loc 1 1190 0
 2610 00de 1D4A     		ldr	r2, .L166+8
 2611 00e0 3B68     		ldr	r3, [r7]
 2612 00e2 9B01     		lsls	r3, r3, #6
 2613 00e4 D318     		adds	r3, r2, r3
 2614 00e6 0833     		adds	r3, r3, #8
 2615 00e8 0C22     		movs	r2, #12
 2616 00ea 1A60     		str	r2, [r3]
 2617 00ec 22E0     		b	.L163
 2618              	.L161:
1191:Generated_Source\PSoC4/USBTMC_std.c ****             }
1192:Generated_Source\PSoC4/USBTMC_std.c ****             else    /* Continue armed transfer */
1193:Generated_Source\PSoC4/USBTMC_std.c ****             {
1194:Generated_Source\PSoC4/USBTMC_std.c ****                 USBTMC_SIE_EP_BASE.sieEp[ep].epCr0 = USBTMC_MODE_ACK_IN;
 2619              		.loc 1 1194 0
 2620 00ee 194A     		ldr	r2, .L166+8
 2621 00f0 3B68     		ldr	r3, [r7]
 2622 00f2 9B01     		lsls	r3, r3, #6
 2623 00f4 D318     		adds	r3, r2, r3
 2624 00f6 0833     		adds	r3, r3, #8
 2625 00f8 0D22     		movs	r2, #13
 2626 00fa 1A60     		str	r2, [r3]
 2627 00fc 1AE0     		b	.L163
 2628              	.L160:
1195:Generated_Source\PSoC4/USBTMC_std.c ****             }
ARM GAS  C:\Users\essele\AppData\Local\Temp\ccFLOaGJ.s 			page 70


1196:Generated_Source\PSoC4/USBTMC_std.c ****         }
1197:Generated_Source\PSoC4/USBTMC_std.c ****         else
1198:Generated_Source\PSoC4/USBTMC_std.c ****         {
1199:Generated_Source\PSoC4/USBTMC_std.c ****             /* OUT Endpoint */
1200:Generated_Source\PSoC4/USBTMC_std.c ****             if (USBTMC_EP[ep].apiEpState == USBTMC_OUT_BUFFER_FULL)
 2629              		.loc 1 1200 0
 2630 00fe 1449     		ldr	r1, .L166+4
 2631 0100 3A68     		ldr	r2, [r7]
 2632 0102 1300     		movs	r3, r2
 2633 0104 5B00     		lsls	r3, r3, #1
 2634 0106 9B18     		adds	r3, r3, r2
 2635 0108 9B00     		lsls	r3, r3, #2
 2636 010a CB18     		adds	r3, r1, r3
 2637 010c 0133     		adds	r3, r3, #1
 2638 010e 1B78     		ldrb	r3, [r3]
 2639 0110 DBB2     		uxtb	r3, r3
 2640 0112 012B     		cmp	r3, #1
 2641 0114 07D1     		bne	.L164
1201:Generated_Source\PSoC4/USBTMC_std.c ****             {       
1202:Generated_Source\PSoC4/USBTMC_std.c ****                 /* Allow application to read full buffer */
1203:Generated_Source\PSoC4/USBTMC_std.c ****                 USBTMC_SIE_EP_BASE.sieEp[ep].epCr0 = USBTMC_MODE_NAK_OUT;
 2642              		.loc 1 1203 0
 2643 0116 0F4A     		ldr	r2, .L166+8
 2644 0118 3B68     		ldr	r3, [r7]
 2645 011a 9B01     		lsls	r3, r3, #6
 2646 011c D318     		adds	r3, r2, r3
 2647 011e 0833     		adds	r3, r3, #8
 2648 0120 0822     		movs	r2, #8
 2649 0122 1A60     		str	r2, [r3]
 2650 0124 06E0     		b	.L163
 2651              	.L164:
1204:Generated_Source\PSoC4/USBTMC_std.c ****             }
1205:Generated_Source\PSoC4/USBTMC_std.c ****             else    /* Mark endpoint as empty, so it will be reloaded */
1206:Generated_Source\PSoC4/USBTMC_std.c ****             {
1207:Generated_Source\PSoC4/USBTMC_std.c ****                 USBTMC_SIE_EP_BASE.sieEp[ep].epCr0 = USBTMC_MODE_ACK_OUT;
 2652              		.loc 1 1207 0
 2653 0126 0B4A     		ldr	r2, .L166+8
 2654 0128 3B68     		ldr	r3, [r7]
 2655 012a 9B01     		lsls	r3, r3, #6
 2656 012c D318     		adds	r3, r2, r3
 2657 012e 0833     		adds	r3, r3, #8
 2658 0130 0922     		movs	r2, #9
 2659 0132 1A60     		str	r2, [r3]
 2660              	.L163:
1208:Generated_Source\PSoC4/USBTMC_std.c ****             }
1209:Generated_Source\PSoC4/USBTMC_std.c ****         }
1210:Generated_Source\PSoC4/USBTMC_std.c ****         
1211:Generated_Source\PSoC4/USBTMC_std.c ****         requestHandled = USBTMC_InitNoDataControlTransfer();
 2661              		.loc 1 1211 0
 2662 0134 FC1D     		adds	r4, r7, #7
 2663 0136 FFF7FEFF 		bl	USBTMC_InitNoDataControlTransfer
 2664 013a 0300     		movs	r3, r0
 2665 013c 2370     		strb	r3, [r4]
 2666              	.L159:
1212:Generated_Source\PSoC4/USBTMC_std.c ****     }
1213:Generated_Source\PSoC4/USBTMC_std.c **** 
1214:Generated_Source\PSoC4/USBTMC_std.c ****     return(requestHandled);
ARM GAS  C:\Users\essele\AppData\Local\Temp\ccFLOaGJ.s 			page 71


 2667              		.loc 1 1214 0
 2668 013e FB1D     		adds	r3, r7, #7
 2669 0140 1B78     		ldrb	r3, [r3]
1215:Generated_Source\PSoC4/USBTMC_std.c **** }
 2670              		.loc 1 1215 0
 2671 0142 1800     		movs	r0, r3
 2672 0144 BD46     		mov	sp, r7
 2673 0146 03B0     		add	sp, sp, #12
 2674              		@ sp needed
 2675 0148 90BD     		pop	{r4, r7, pc}
 2676              	.L167:
 2677 014a C046     		.align	2
 2678              	.L166:
 2679 014c 00002C40 		.word	1076625408
 2680 0150 00000000 		.word	USBTMC_EP
 2681 0154 F0FF2B40 		.word	1076625392
 2682              		.cfi_endproc
 2683              	.LFE11:
 2684              		.size	USBTMC_ClearEndpointHalt, .-USBTMC_ClearEndpointHalt
 2685              		.section	.text.USBTMC_ValidateAlternateSetting,"ax",%progbits
 2686              		.align	2
 2687              		.global	USBTMC_ValidateAlternateSetting
 2688              		.code	16
 2689              		.thumb_func
 2690              		.type	USBTMC_ValidateAlternateSetting, %function
 2691              	USBTMC_ValidateAlternateSetting:
 2692              	.LFB12:
1216:Generated_Source\PSoC4/USBTMC_std.c **** 
1217:Generated_Source\PSoC4/USBTMC_std.c **** 
1218:Generated_Source\PSoC4/USBTMC_std.c **** /*******************************************************************************
1219:Generated_Source\PSoC4/USBTMC_std.c **** * Function Name: USBTMC_ValidateAlternateSetting
1220:Generated_Source\PSoC4/USBTMC_std.c **** ****************************************************************************//**
1221:Generated_Source\PSoC4/USBTMC_std.c **** *
1222:Generated_Source\PSoC4/USBTMC_std.c **** *  Validates (and records) a SET INTERFACE request.
1223:Generated_Source\PSoC4/USBTMC_std.c **** *
1224:Generated_Source\PSoC4/USBTMC_std.c **** * \return
1225:Generated_Source\PSoC4/USBTMC_std.c **** *  requestHandled.
1226:Generated_Source\PSoC4/USBTMC_std.c **** *
1227:Generated_Source\PSoC4/USBTMC_std.c **** * \reentrant
1228:Generated_Source\PSoC4/USBTMC_std.c **** *  No.
1229:Generated_Source\PSoC4/USBTMC_std.c **** *
1230:Generated_Source\PSoC4/USBTMC_std.c **** *******************************************************************************/
1231:Generated_Source\PSoC4/USBTMC_std.c **** uint8 USBTMC_ValidateAlternateSetting(void) 
1232:Generated_Source\PSoC4/USBTMC_std.c **** {
 2693              		.loc 1 1232 0
 2694              		.cfi_startproc
 2695              		@ args = 0, pretend = 0, frame = 16
 2696              		@ frame_needed = 1, uses_anonymous_args = 0
 2697 0000 80B5     		push	{r7, lr}
 2698              		.cfi_def_cfa_offset 8
 2699              		.cfi_offset 7, -8
 2700              		.cfi_offset 14, -4
 2701 0002 84B0     		sub	sp, sp, #16
 2702              		.cfi_def_cfa_offset 24
 2703 0004 00AF     		add	r7, sp, #0
 2704              		.cfi_def_cfa_register 7
1233:Generated_Source\PSoC4/USBTMC_std.c ****     uint8 requestHandled = USBTMC_FALSE;
ARM GAS  C:\Users\essele\AppData\Local\Temp\ccFLOaGJ.s 			page 72


 2705              		.loc 1 1233 0
 2706 0006 0F23     		movs	r3, #15
 2707 0008 FB18     		adds	r3, r7, r3
 2708 000a 0022     		movs	r2, #0
 2709 000c 1A70     		strb	r2, [r3]
1234:Generated_Source\PSoC4/USBTMC_std.c ****     
1235:Generated_Source\PSoC4/USBTMC_std.c ****     uint8 interfaceNum;
1236:Generated_Source\PSoC4/USBTMC_std.c ****     uint8 curInterfacesNum;
1237:Generated_Source\PSoC4/USBTMC_std.c ****     const T_USBTMC_LUT CYCODE *pTmp;
1238:Generated_Source\PSoC4/USBTMC_std.c ****     
1239:Generated_Source\PSoC4/USBTMC_std.c ****     /* Get interface number from the request. */
1240:Generated_Source\PSoC4/USBTMC_std.c ****     interfaceNum = (uint8) USBTMC_wIndexLoReg;
 2710              		.loc 1 1240 0
 2711 000e 1F4B     		ldr	r3, .L172
 2712 0010 1A69     		ldr	r2, [r3, #16]
 2713 0012 0E23     		movs	r3, #14
 2714 0014 FB18     		adds	r3, r7, r3
 2715 0016 1A70     		strb	r2, [r3]
1241:Generated_Source\PSoC4/USBTMC_std.c ****     
1242:Generated_Source\PSoC4/USBTMC_std.c ****     /* Get number of interfaces for current configuration. */
1243:Generated_Source\PSoC4/USBTMC_std.c ****     pTmp = USBTMC_GetConfigTablePtr(USBTMC_configuration - 1u);
 2716              		.loc 1 1243 0
 2717 0018 1D4B     		ldr	r3, .L172+4
 2718 001a 1B78     		ldrb	r3, [r3]
 2719 001c DBB2     		uxtb	r3, r3
 2720 001e 013B     		subs	r3, r3, #1
 2721 0020 DBB2     		uxtb	r3, r3
 2722 0022 1800     		movs	r0, r3
 2723 0024 FFF7FEFF 		bl	USBTMC_GetConfigTablePtr
 2724 0028 0300     		movs	r3, r0
 2725 002a BB60     		str	r3, [r7, #8]
1244:Generated_Source\PSoC4/USBTMC_std.c ****     curInterfacesNum  = ((const uint8 *) pTmp->p_list)[USBTMC_CONFIG_DESCR_NUM_INTERFACES];
 2726              		.loc 1 1244 0
 2727 002c BB68     		ldr	r3, [r7, #8]
 2728 002e 5A68     		ldr	r2, [r3, #4]
 2729 0030 FB1D     		adds	r3, r7, #7
 2730 0032 1279     		ldrb	r2, [r2, #4]
 2731 0034 1A70     		strb	r2, [r3]
1245:Generated_Source\PSoC4/USBTMC_std.c **** 
1246:Generated_Source\PSoC4/USBTMC_std.c ****     /* Validate that interface number is within range. */
1247:Generated_Source\PSoC4/USBTMC_std.c ****     if ((interfaceNum <= curInterfacesNum) || (interfaceNum <= USBTMC_MAX_INTERFACES_NUMBER))
 2732              		.loc 1 1247 0
 2733 0036 0E23     		movs	r3, #14
 2734 0038 FA18     		adds	r2, r7, r3
 2735 003a FB1D     		adds	r3, r7, #7
 2736 003c 1278     		ldrb	r2, [r2]
 2737 003e 1B78     		ldrb	r3, [r3]
 2738 0040 9A42     		cmp	r2, r3
 2739 0042 04D9     		bls	.L169
 2740              		.loc 1 1247 0 is_stmt 0 discriminator 1
 2741 0044 0E23     		movs	r3, #14
 2742 0046 FB18     		adds	r3, r7, r3
 2743 0048 1B78     		ldrb	r3, [r3]
 2744 004a 012B     		cmp	r3, #1
 2745 004c 16D8     		bhi	.L170
 2746              	.L169:
1248:Generated_Source\PSoC4/USBTMC_std.c ****     {
ARM GAS  C:\Users\essele\AppData\Local\Temp\ccFLOaGJ.s 			page 73


1249:Generated_Source\PSoC4/USBTMC_std.c ****         /* Save current and new alternate settings (come with request) to make 
1250:Generated_Source\PSoC4/USBTMC_std.c ****         * desicion about following endpoint re-configuration.
1251:Generated_Source\PSoC4/USBTMC_std.c ****         */
1252:Generated_Source\PSoC4/USBTMC_std.c ****         USBTMC_interfaceSettingLast[interfaceNum] = USBTMC_interfaceSetting[interfaceNum];
 2747              		.loc 1 1252 0 is_stmt 1
 2748 004e 0E23     		movs	r3, #14
 2749 0050 FB18     		adds	r3, r7, r3
 2750 0052 1B78     		ldrb	r3, [r3]
 2751 0054 0E22     		movs	r2, #14
 2752 0056 BA18     		adds	r2, r7, r2
 2753 0058 1278     		ldrb	r2, [r2]
 2754 005a 0E49     		ldr	r1, .L172+8
 2755 005c 8A5C     		ldrb	r2, [r1, r2]
 2756 005e D1B2     		uxtb	r1, r2
 2757 0060 0D4A     		ldr	r2, .L172+12
 2758 0062 D154     		strb	r1, [r2, r3]
1253:Generated_Source\PSoC4/USBTMC_std.c ****         USBTMC_interfaceSetting[interfaceNum]     = (uint8) USBTMC_wValueLoReg;
 2759              		.loc 1 1253 0
 2760 0064 0E23     		movs	r3, #14
 2761 0066 FB18     		adds	r3, r7, r3
 2762 0068 1A78     		ldrb	r2, [r3]
 2763 006a 084B     		ldr	r3, .L172
 2764 006c 9B68     		ldr	r3, [r3, #8]
 2765 006e D9B2     		uxtb	r1, r3
 2766 0070 084B     		ldr	r3, .L172+8
 2767 0072 9954     		strb	r1, [r3, r2]
1254:Generated_Source\PSoC4/USBTMC_std.c ****         
1255:Generated_Source\PSoC4/USBTMC_std.c ****         requestHandled = USBTMC_TRUE;
 2768              		.loc 1 1255 0
 2769 0074 0F23     		movs	r3, #15
 2770 0076 FB18     		adds	r3, r7, r3
 2771 0078 0122     		movs	r2, #1
 2772 007a 1A70     		strb	r2, [r3]
 2773              	.L170:
1256:Generated_Source\PSoC4/USBTMC_std.c ****     }
1257:Generated_Source\PSoC4/USBTMC_std.c **** 
1258:Generated_Source\PSoC4/USBTMC_std.c ****     return (requestHandled);
 2774              		.loc 1 1258 0
 2775 007c 0F23     		movs	r3, #15
 2776 007e FB18     		adds	r3, r7, r3
 2777 0080 1B78     		ldrb	r3, [r3]
1259:Generated_Source\PSoC4/USBTMC_std.c **** }
 2778              		.loc 1 1259 0
 2779 0082 1800     		movs	r0, r3
 2780 0084 BD46     		mov	sp, r7
 2781 0086 04B0     		add	sp, sp, #16
 2782              		@ sp needed
 2783 0088 80BD     		pop	{r7, pc}
 2784              	.L173:
 2785 008a C046     		.align	2
 2786              	.L172:
 2787 008c 00002C40 		.word	1076625408
 2788 0090 00000000 		.word	USBTMC_configuration
 2789 0094 00000000 		.word	USBTMC_interfaceSetting
 2790 0098 00000000 		.word	USBTMC_interfaceSettingLast
 2791              		.cfi_endproc
 2792              	.LFE12:
ARM GAS  C:\Users\essele\AppData\Local\Temp\ccFLOaGJ.s 			page 74


 2793              		.size	USBTMC_ValidateAlternateSetting, .-USBTMC_ValidateAlternateSetting
 2794              		.bss
 2795              		.align	2
 2796              	USBTMC_tBuffer.5161:
 2797 0000 0000     		.space	2
 2798              		.text
 2799              	.Letext0:
 2800              		.file 2 "Generated_Source\\PSoC4\\cytypes.h"
 2801              		.file 3 "Generated_Source\\PSoC4\\USBTMC.h"
 2802              		.file 4 "Generated_Source\\PSoC4\\USBTMC_pvt.h"
 2803              		.section	.debug_info,"",%progbits
 2804              	.Ldebug_info0:
 2805 0000 6D090000 		.4byte	0x96d
 2806 0004 0400     		.2byte	0x4
 2807 0006 00000000 		.4byte	.Ldebug_abbrev0
 2808 000a 04       		.byte	0x4
 2809 000b 01       		.uleb128 0x1
 2810 000c 5A030000 		.4byte	.LASF115
 2811 0010 0C       		.byte	0xc
 2812 0011 36010000 		.4byte	.LASF116
 2813 0015 25060000 		.4byte	.LASF117
 2814 0019 00000000 		.4byte	.Ldebug_ranges0+0
 2815 001d 00000000 		.4byte	0
 2816 0021 00000000 		.4byte	.Ldebug_line0
 2817 0025 02       		.uleb128 0x2
 2818 0026 01       		.byte	0x1
 2819 0027 06       		.byte	0x6
 2820 0028 E3000000 		.4byte	.LASF0
 2821 002c 02       		.uleb128 0x2
 2822 002d 01       		.byte	0x1
 2823 002e 08       		.byte	0x8
 2824 002f 12050000 		.4byte	.LASF1
 2825 0033 02       		.uleb128 0x2
 2826 0034 02       		.byte	0x2
 2827 0035 05       		.byte	0x5
 2828 0036 27050000 		.4byte	.LASF2
 2829 003a 02       		.uleb128 0x2
 2830 003b 02       		.byte	0x2
 2831 003c 07       		.byte	0x7
 2832 003d F4020000 		.4byte	.LASF3
 2833 0041 02       		.uleb128 0x2
 2834 0042 04       		.byte	0x4
 2835 0043 05       		.byte	0x5
 2836 0044 4A000000 		.4byte	.LASF4
 2837 0048 02       		.uleb128 0x2
 2838 0049 04       		.byte	0x4
 2839 004a 07       		.byte	0x7
 2840 004b D1020000 		.4byte	.LASF5
 2841 004f 02       		.uleb128 0x2
 2842 0050 08       		.byte	0x8
 2843 0051 05       		.byte	0x5
 2844 0052 D5000000 		.4byte	.LASF6
 2845 0056 02       		.uleb128 0x2
 2846 0057 08       		.byte	0x8
 2847 0058 07       		.byte	0x7
 2848 0059 5D000000 		.4byte	.LASF7
 2849 005d 03       		.uleb128 0x3
ARM GAS  C:\Users\essele\AppData\Local\Temp\ccFLOaGJ.s 			page 75


 2850 005e 04       		.byte	0x4
 2851 005f 05       		.byte	0x5
 2852 0060 696E7400 		.ascii	"int\000"
 2853 0064 02       		.uleb128 0x2
 2854 0065 04       		.byte	0x4
 2855 0066 07       		.byte	0x7
 2856 0067 9E020000 		.4byte	.LASF8
 2857 006b 04       		.uleb128 0x4
 2858 006c 7B010000 		.4byte	.LASF9
 2859 0070 02       		.byte	0x2
 2860 0071 E401     		.2byte	0x1e4
 2861 0073 2C000000 		.4byte	0x2c
 2862 0077 04       		.uleb128 0x4
 2863 0078 13000000 		.4byte	.LASF10
 2864 007c 02       		.byte	0x2
 2865 007d E501     		.2byte	0x1e5
 2866 007f 3A000000 		.4byte	0x3a
 2867 0083 04       		.uleb128 0x4
 2868 0084 E2010000 		.4byte	.LASF11
 2869 0088 02       		.byte	0x2
 2870 0089 E601     		.2byte	0x1e6
 2871 008b 48000000 		.4byte	0x48
 2872 008f 02       		.uleb128 0x2
 2873 0090 04       		.byte	0x4
 2874 0091 04       		.byte	0x4
 2875 0092 E1040000 		.4byte	.LASF12
 2876 0096 02       		.uleb128 0x2
 2877 0097 08       		.byte	0x8
 2878 0098 04       		.byte	0x4
 2879 0099 AA010000 		.4byte	.LASF13
 2880 009d 02       		.uleb128 0x2
 2881 009e 01       		.byte	0x1
 2882 009f 08       		.byte	0x8
 2883 00a0 99050000 		.4byte	.LASF14
 2884 00a4 05       		.uleb128 0x5
 2885 00a5 6B000000 		.4byte	0x6b
 2886 00a9 04       		.uleb128 0x4
 2887 00aa F2030000 		.4byte	.LASF15
 2888 00ae 02       		.byte	0x2
 2889 00af 9002     		.2byte	0x290
 2890 00b1 B5000000 		.4byte	0xb5
 2891 00b5 05       		.uleb128 0x5
 2892 00b6 83000000 		.4byte	0x83
 2893 00ba 02       		.uleb128 0x2
 2894 00bb 08       		.byte	0x8
 2895 00bc 04       		.byte	0x4
 2896 00bd 2A040000 		.4byte	.LASF16
 2897 00c1 02       		.uleb128 0x2
 2898 00c2 04       		.byte	0x4
 2899 00c3 07       		.byte	0x7
 2900 00c4 21040000 		.4byte	.LASF17
 2901 00c8 06       		.uleb128 0x6
 2902 00c9 0C       		.byte	0xc
 2903 00ca 03       		.byte	0x3
 2904 00cb 8C       		.byte	0x8c
 2905 00cc 3D010000 		.4byte	0x13d
 2906 00d0 07       		.uleb128 0x7
ARM GAS  C:\Users\essele\AppData\Local\Temp\ccFLOaGJ.s 			page 76


 2907 00d1 54040000 		.4byte	.LASF18
 2908 00d5 03       		.byte	0x3
 2909 00d6 8E       		.byte	0x8e
 2910 00d7 6B000000 		.4byte	0x6b
 2911 00db 00       		.byte	0
 2912 00dc 07       		.uleb128 0x7
 2913 00dd E7040000 		.4byte	.LASF19
 2914 00e1 03       		.byte	0x3
 2915 00e2 8F       		.byte	0x8f
 2916 00e3 6B000000 		.4byte	0x6b
 2917 00e7 01       		.byte	0x1
 2918 00e8 07       		.uleb128 0x7
 2919 00e9 0B040000 		.4byte	.LASF20
 2920 00ed 03       		.byte	0x3
 2921 00ee 90       		.byte	0x90
 2922 00ef 6B000000 		.4byte	0x6b
 2923 00f3 02       		.byte	0x2
 2924 00f4 07       		.uleb128 0x7
 2925 00f5 9C010000 		.4byte	.LASF21
 2926 00f9 03       		.byte	0x3
 2927 00fa 91       		.byte	0x91
 2928 00fb 6B000000 		.4byte	0x6b
 2929 00ff 03       		.byte	0x3
 2930 0100 07       		.uleb128 0x7
 2931 0101 74000000 		.4byte	.LASF22
 2932 0105 03       		.byte	0x3
 2933 0106 92       		.byte	0x92
 2934 0107 6B000000 		.4byte	0x6b
 2935 010b 04       		.byte	0x4
 2936 010c 07       		.uleb128 0x7
 2937 010d 0F020000 		.4byte	.LASF23
 2938 0111 03       		.byte	0x3
 2939 0112 93       		.byte	0x93
 2940 0113 6B000000 		.4byte	0x6b
 2941 0117 05       		.byte	0x5
 2942 0118 07       		.uleb128 0x7
 2943 0119 D5050000 		.4byte	.LASF24
 2944 011d 03       		.byte	0x3
 2945 011e 94       		.byte	0x94
 2946 011f 77000000 		.4byte	0x77
 2947 0123 06       		.byte	0x6
 2948 0124 07       		.uleb128 0x7
 2949 0125 9E050000 		.4byte	.LASF25
 2950 0129 03       		.byte	0x3
 2951 012a 95       		.byte	0x95
 2952 012b 77000000 		.4byte	0x77
 2953 012f 08       		.byte	0x8
 2954 0130 07       		.uleb128 0x7
 2955 0131 E8030000 		.4byte	.LASF26
 2956 0135 03       		.byte	0x3
 2957 0136 96       		.byte	0x96
 2958 0137 6B000000 		.4byte	0x6b
 2959 013b 0A       		.byte	0xa
 2960 013c 00       		.byte	0
 2961 013d 08       		.uleb128 0x8
 2962 013e 28070000 		.4byte	.LASF27
 2963 0142 03       		.byte	0x3
ARM GAS  C:\Users\essele\AppData\Local\Temp\ccFLOaGJ.s 			page 77


 2964 0143 97       		.byte	0x97
 2965 0144 C8000000 		.4byte	0xc8
 2966 0148 06       		.uleb128 0x6
 2967 0149 08       		.byte	0x8
 2968 014a 03       		.byte	0x3
 2969 014b 99       		.byte	0x99
 2970 014c 99010000 		.4byte	0x199
 2971 0150 07       		.uleb128 0x7
 2972 0151 E8030000 		.4byte	.LASF26
 2973 0155 03       		.byte	0x3
 2974 0156 9B       		.byte	0x9b
 2975 0157 6B000000 		.4byte	0x6b
 2976 015b 00       		.byte	0
 2977 015c 07       		.uleb128 0x7
 2978 015d 8E050000 		.4byte	.LASF28
 2979 0161 03       		.byte	0x3
 2980 0162 9C       		.byte	0x9c
 2981 0163 6B000000 		.4byte	0x6b
 2982 0167 01       		.byte	0x1
 2983 0168 07       		.uleb128 0x7
 2984 0169 74000000 		.4byte	.LASF22
 2985 016d 03       		.byte	0x3
 2986 016e 9D       		.byte	0x9d
 2987 016f 6B000000 		.4byte	0x6b
 2988 0173 02       		.byte	0x2
 2989 0174 07       		.uleb128 0x7
 2990 0175 3E050000 		.4byte	.LASF29
 2991 0179 03       		.byte	0x3
 2992 017a 9E       		.byte	0x9e
 2993 017b 6B000000 		.4byte	0x6b
 2994 017f 03       		.byte	0x3
 2995 0180 07       		.uleb128 0x7
 2996 0181 9E050000 		.4byte	.LASF25
 2997 0185 03       		.byte	0x3
 2998 0186 9F       		.byte	0x9f
 2999 0187 77000000 		.4byte	0x77
 3000 018b 04       		.byte	0x4
 3001 018c 07       		.uleb128 0x7
 3002 018d A8060000 		.4byte	.LASF30
 3003 0191 03       		.byte	0x3
 3004 0192 A0       		.byte	0xa0
 3005 0193 6B000000 		.4byte	0x6b
 3006 0197 06       		.byte	0x6
 3007 0198 00       		.byte	0
 3008 0199 08       		.uleb128 0x8
 3009 019a 81010000 		.4byte	.LASF31
 3010 019e 03       		.byte	0x3
 3011 019f A1       		.byte	0xa1
 3012 01a0 48010000 		.4byte	0x148
 3013 01a4 06       		.uleb128 0x6
 3014 01a5 04       		.byte	0x4
 3015 01a6 03       		.byte	0x3
 3016 01a7 A3       		.byte	0xa3
 3017 01a8 C5010000 		.4byte	0x1c5
 3018 01ac 07       		.uleb128 0x7
 3019 01ad 66060000 		.4byte	.LASF32
 3020 01b1 03       		.byte	0x3
ARM GAS  C:\Users\essele\AppData\Local\Temp\ccFLOaGJ.s 			page 78


 3021 01b2 A5       		.byte	0xa5
 3022 01b3 6B000000 		.4byte	0x6b
 3023 01b7 00       		.byte	0
 3024 01b8 07       		.uleb128 0x7
 3025 01b9 06060000 		.4byte	.LASF33
 3026 01bd 03       		.byte	0x3
 3027 01be A6       		.byte	0xa6
 3028 01bf 77000000 		.4byte	0x77
 3029 01c3 02       		.byte	0x2
 3030 01c4 00       		.byte	0
 3031 01c5 08       		.uleb128 0x8
 3032 01c6 77040000 		.4byte	.LASF34
 3033 01ca 03       		.byte	0x3
 3034 01cb A7       		.byte	0xa7
 3035 01cc A4010000 		.4byte	0x1a4
 3036 01d0 06       		.uleb128 0x6
 3037 01d1 0C       		.byte	0xc
 3038 01d2 03       		.byte	0x3
 3039 01d3 A9       		.byte	0xa9
 3040 01d4 FD010000 		.4byte	0x1fd
 3041 01d8 07       		.uleb128 0x7
 3042 01d9 0D000000 		.4byte	.LASF35
 3043 01dd 03       		.byte	0x3
 3044 01de AB       		.byte	0xab
 3045 01df 77000000 		.4byte	0x77
 3046 01e3 00       		.byte	0
 3047 01e4 07       		.uleb128 0x7
 3048 01e5 03020000 		.4byte	.LASF36
 3049 01e9 03       		.byte	0x3
 3050 01ea AC       		.byte	0xac
 3051 01eb FD010000 		.4byte	0x1fd
 3052 01ef 04       		.byte	0x4
 3053 01f0 07       		.uleb128 0x7
 3054 01f1 00000000 		.4byte	.LASF37
 3055 01f5 03       		.byte	0x3
 3056 01f6 AD       		.byte	0xad
 3057 01f7 03020000 		.4byte	0x203
 3058 01fb 08       		.byte	0x8
 3059 01fc 00       		.byte	0
 3060 01fd 09       		.uleb128 0x9
 3061 01fe 04       		.byte	0x4
 3062 01ff A4000000 		.4byte	0xa4
 3063 0203 09       		.uleb128 0x9
 3064 0204 04       		.byte	0x4
 3065 0205 C5010000 		.4byte	0x1c5
 3066 0209 08       		.uleb128 0x8
 3067 020a 01050000 		.4byte	.LASF38
 3068 020e 03       		.byte	0x3
 3069 020f AE       		.byte	0xae
 3070 0210 D0010000 		.4byte	0x1d0
 3071 0214 06       		.uleb128 0x6
 3072 0215 08       		.byte	0x8
 3073 0216 03       		.byte	0x3
 3074 0217 B0       		.byte	0xb0
 3075 0218 33020000 		.4byte	0x233
 3076 021c 0A       		.uleb128 0xa
 3077 021d 6300     		.ascii	"c\000"
ARM GAS  C:\Users\essele\AppData\Local\Temp\ccFLOaGJ.s 			page 79


 3078 021f 03       		.byte	0x3
 3079 0220 B2       		.byte	0xb2
 3080 0221 6B000000 		.4byte	0x6b
 3081 0225 00       		.byte	0
 3082 0226 07       		.uleb128 0x7
 3083 0227 43040000 		.4byte	.LASF39
 3084 022b 03       		.byte	0x3
 3085 022c B3       		.byte	0xb3
 3086 022d 33020000 		.4byte	0x233
 3087 0231 04       		.byte	0x4
 3088 0232 00       		.byte	0
 3089 0233 09       		.uleb128 0x9
 3090 0234 04       		.byte	0x4
 3091 0235 39020000 		.4byte	0x239
 3092 0239 0B       		.uleb128 0xb
 3093 023a 08       		.uleb128 0x8
 3094 023b 36040000 		.4byte	.LASF40
 3095 023f 03       		.byte	0x3
 3096 0240 B4       		.byte	0xb4
 3097 0241 14020000 		.4byte	0x214
 3098 0245 06       		.uleb128 0x6
 3099 0246 20       		.byte	0x20
 3100 0247 03       		.byte	0x3
 3101 0248 C4       		.byte	0xc4
 3102 0249 5A020000 		.4byte	0x25a
 3103 024d 07       		.uleb128 0x7
 3104 024e A1060000 		.4byte	.LASF41
 3105 0252 03       		.byte	0x3
 3106 0253 C6       		.byte	0xc6
 3107 0254 5A020000 		.4byte	0x25a
 3108 0258 00       		.byte	0
 3109 0259 00       		.byte	0
 3110 025a 0C       		.uleb128 0xc
 3111 025b 83000000 		.4byte	0x83
 3112 025f 6A020000 		.4byte	0x26a
 3113 0263 0D       		.uleb128 0xd
 3114 0264 C1000000 		.4byte	0xc1
 3115 0268 07       		.byte	0x7
 3116 0269 00       		.byte	0
 3117 026a 08       		.uleb128 0x8
 3118 026b 09010000 		.4byte	.LASF42
 3119 026f 03       		.byte	0x3
 3120 0270 C7       		.byte	0xc7
 3121 0271 45020000 		.4byte	0x245
 3122 0275 06       		.uleb128 0x6
 3123 0276 40       		.byte	0x40
 3124 0277 03       		.byte	0x3
 3125 0278 D3       		.byte	0xd3
 3126 0279 AE020000 		.4byte	0x2ae
 3127 027d 07       		.uleb128 0x7
 3128 027e A7040000 		.4byte	.LASF43
 3129 0282 03       		.byte	0x3
 3130 0283 D5       		.byte	0xd5
 3131 0284 83000000 		.4byte	0x83
 3132 0288 00       		.byte	0
 3133 0289 07       		.uleb128 0x7
 3134 028a AE040000 		.4byte	.LASF44
ARM GAS  C:\Users\essele\AppData\Local\Temp\ccFLOaGJ.s 			page 80


 3135 028e 03       		.byte	0x3
 3136 028f D6       		.byte	0xd6
 3137 0290 83000000 		.4byte	0x83
 3138 0294 04       		.byte	0x4
 3139 0295 07       		.uleb128 0x7
 3140 0296 B5040000 		.4byte	.LASF45
 3141 029a 03       		.byte	0x3
 3142 029b D7       		.byte	0xd7
 3143 029c 83000000 		.4byte	0x83
 3144 02a0 08       		.byte	0x8
 3145 02a1 0A       		.uleb128 0xa
 3146 02a2 67617000 		.ascii	"gap\000"
 3147 02a6 03       		.byte	0x3
 3148 02a7 D8       		.byte	0xd8
 3149 02a8 AE020000 		.4byte	0x2ae
 3150 02ac 0C       		.byte	0xc
 3151 02ad 00       		.byte	0
 3152 02ae 0C       		.uleb128 0xc
 3153 02af 83000000 		.4byte	0x83
 3154 02b3 BE020000 		.4byte	0x2be
 3155 02b7 0D       		.uleb128 0xd
 3156 02b8 C1000000 		.4byte	0xc1
 3157 02bc 0C       		.byte	0xc
 3158 02bd 00       		.byte	0
 3159 02be 08       		.uleb128 0x8
 3160 02bf 92040000 		.4byte	.LASF46
 3161 02c3 03       		.byte	0x3
 3162 02c4 D9       		.byte	0xd9
 3163 02c5 75020000 		.4byte	0x275
 3164 02c9 06       		.uleb128 0x6
 3165 02ca 40       		.byte	0x40
 3166 02cb 03       		.byte	0x3
 3167 02cc E5       		.byte	0xe5
 3168 02cd 4A030000 		.4byte	0x34a
 3169 02d1 07       		.uleb128 0x7
 3170 02d2 80000000 		.4byte	.LASF47
 3171 02d6 03       		.byte	0x3
 3172 02d7 E7       		.byte	0xe7
 3173 02d8 83000000 		.4byte	0x83
 3174 02dc 00       		.byte	0
 3175 02dd 07       		.uleb128 0x7
 3176 02de CA060000 		.4byte	.LASF48
 3177 02e2 03       		.byte	0x3
 3178 02e3 E8       		.byte	0xe8
 3179 02e4 83000000 		.4byte	0x83
 3180 02e8 04       		.byte	0x4
 3181 02e9 07       		.uleb128 0x7
 3182 02ea B1010000 		.4byte	.LASF49
 3183 02ee 03       		.byte	0x3
 3184 02ef E9       		.byte	0xe9
 3185 02f0 83000000 		.4byte	0x83
 3186 02f4 08       		.byte	0x8
 3187 02f5 07       		.uleb128 0x7
 3188 02f6 45020000 		.4byte	.LASF50
 3189 02fa 03       		.byte	0x3
 3190 02fb EA       		.byte	0xea
 3191 02fc 83000000 		.4byte	0x83
ARM GAS  C:\Users\essele\AppData\Local\Temp\ccFLOaGJ.s 			page 81


 3192 0300 0C       		.byte	0xc
 3193 0301 07       		.uleb128 0x7
 3194 0302 A5010000 		.4byte	.LASF51
 3195 0306 03       		.byte	0x3
 3196 0307 EB       		.byte	0xeb
 3197 0308 83000000 		.4byte	0x83
 3198 030c 10       		.byte	0x10
 3199 030d 07       		.uleb128 0x7
 3200 030e 36050000 		.4byte	.LASF52
 3201 0312 03       		.byte	0x3
 3202 0313 EC       		.byte	0xec
 3203 0314 83000000 		.4byte	0x83
 3204 0318 14       		.byte	0x14
 3205 0319 07       		.uleb128 0x7
 3206 031a 31050000 		.4byte	.LASF53
 3207 031e 03       		.byte	0x3
 3208 031f ED       		.byte	0xed
 3209 0320 83000000 		.4byte	0x83
 3210 0324 18       		.byte	0x18
 3211 0325 07       		.uleb128 0x7
 3212 0326 CD050000 		.4byte	.LASF54
 3213 032a 03       		.byte	0x3
 3214 032b EE       		.byte	0xee
 3215 032c 83000000 		.4byte	0x83
 3216 0330 1C       		.byte	0x1c
 3217 0331 07       		.uleb128 0x7
 3218 0332 6D060000 		.4byte	.LASF55
 3219 0336 03       		.byte	0x3
 3220 0337 EF       		.byte	0xef
 3221 0338 83000000 		.4byte	0x83
 3222 033c 20       		.byte	0x20
 3223 033d 0A       		.uleb128 0xa
 3224 033e 67617000 		.ascii	"gap\000"
 3225 0342 03       		.byte	0x3
 3226 0343 F0       		.byte	0xf0
 3227 0344 4A030000 		.4byte	0x34a
 3228 0348 24       		.byte	0x24
 3229 0349 00       		.byte	0
 3230 034a 0C       		.uleb128 0xc
 3231 034b 83000000 		.4byte	0x83
 3232 034f 5A030000 		.4byte	0x35a
 3233 0353 0D       		.uleb128 0xd
 3234 0354 C1000000 		.4byte	0xc1
 3235 0358 06       		.byte	0x6
 3236 0359 00       		.byte	0
 3237 035a 08       		.uleb128 0x8
 3238 035b CD010000 		.4byte	.LASF56
 3239 035f 03       		.byte	0x3
 3240 0360 F1       		.byte	0xf1
 3241 0361 C9020000 		.4byte	0x2c9
 3242 0365 06       		.uleb128 0x6
 3243 0366 40       		.byte	0x40
 3244 0367 03       		.byte	0x3
 3245 0368 FE       		.byte	0xfe
 3246 0369 BC030000 		.4byte	0x3bc
 3247 036d 0E       		.uleb128 0xe
 3248 036e 79000000 		.4byte	.LASF57
ARM GAS  C:\Users\essele\AppData\Local\Temp\ccFLOaGJ.s 			page 82


 3249 0372 03       		.byte	0x3
 3250 0373 0001     		.2byte	0x100
 3251 0375 83000000 		.4byte	0x83
 3252 0379 00       		.byte	0
 3253 037a 0E       		.uleb128 0xe
 3254 037b D2060000 		.4byte	.LASF58
 3255 037f 03       		.byte	0x3
 3256 0380 0101     		.2byte	0x101
 3257 0382 83000000 		.4byte	0x83
 3258 0386 04       		.byte	0x4
 3259 0387 0E       		.uleb128 0xe
 3260 0388 20050000 		.4byte	.LASF59
 3261 038c 03       		.byte	0x3
 3262 038d 0201     		.2byte	0x102
 3263 038f 83000000 		.4byte	0x83
 3264 0393 08       		.byte	0x8
 3265 0394 0E       		.uleb128 0xe
 3266 0395 DC060000 		.4byte	.LASF60
 3267 0399 03       		.byte	0x3
 3268 039a 0301     		.2byte	0x103
 3269 039c 83000000 		.4byte	0x83
 3270 03a0 0C       		.byte	0xc
 3271 03a1 0E       		.uleb128 0xe
 3272 03a2 97000000 		.4byte	.LASF61
 3273 03a6 03       		.byte	0x3
 3274 03a7 0401     		.2byte	0x104
 3275 03a9 83000000 		.4byte	0x83
 3276 03ad 10       		.byte	0x10
 3277 03ae 0F       		.uleb128 0xf
 3278 03af 67617000 		.ascii	"gap\000"
 3279 03b3 03       		.byte	0x3
 3280 03b4 0501     		.2byte	0x105
 3281 03b6 BC030000 		.4byte	0x3bc
 3282 03ba 14       		.byte	0x14
 3283 03bb 00       		.byte	0
 3284 03bc 0C       		.uleb128 0xc
 3285 03bd 83000000 		.4byte	0x83
 3286 03c1 CC030000 		.4byte	0x3cc
 3287 03c5 0D       		.uleb128 0xd
 3288 03c6 C1000000 		.4byte	0xc1
 3289 03ca 0A       		.byte	0xa
 3290 03cb 00       		.byte	0
 3291 03cc 04       		.uleb128 0x4
 3292 03cd 6E020000 		.4byte	.LASF62
 3293 03d1 03       		.byte	0x3
 3294 03d2 0601     		.2byte	0x106
 3295 03d4 65030000 		.4byte	0x365
 3296 03d8 10       		.uleb128 0x10
 3297 03d9 4002     		.2byte	0x240
 3298 03db 03       		.byte	0x3
 3299 03dc 0D01     		.2byte	0x10d
 3300 03de F0030000 		.4byte	0x3f0
 3301 03e2 0E       		.uleb128 0xe
 3302 03e3 09020000 		.4byte	.LASF63
 3303 03e7 03       		.byte	0x3
 3304 03e8 0F01     		.2byte	0x10f
 3305 03ea F0030000 		.4byte	0x3f0
ARM GAS  C:\Users\essele\AppData\Local\Temp\ccFLOaGJ.s 			page 83


 3306 03ee 00       		.byte	0
 3307 03ef 00       		.byte	0
 3308 03f0 0C       		.uleb128 0xc
 3309 03f1 BE020000 		.4byte	0x2be
 3310 03f5 00040000 		.4byte	0x400
 3311 03f9 0D       		.uleb128 0xd
 3312 03fa C1000000 		.4byte	0xc1
 3313 03fe 08       		.byte	0x8
 3314 03ff 00       		.byte	0
 3315 0400 04       		.uleb128 0x4
 3316 0401 F0050000 		.4byte	.LASF64
 3317 0405 03       		.byte	0x3
 3318 0406 1001     		.2byte	0x110
 3319 0408 D8030000 		.4byte	0x3d8
 3320 040c 10       		.uleb128 0x10
 3321 040d 4002     		.2byte	0x240
 3322 040f 03       		.byte	0x3
 3323 0410 1301     		.2byte	0x113
 3324 0412 24040000 		.4byte	0x424
 3325 0416 0E       		.uleb128 0xe
 3326 0417 54030000 		.4byte	.LASF65
 3327 041b 03       		.byte	0x3
 3328 041c 1501     		.2byte	0x115
 3329 041e 24040000 		.4byte	0x424
 3330 0422 00       		.byte	0
 3331 0423 00       		.byte	0
 3332 0424 0C       		.uleb128 0xc
 3333 0425 5A030000 		.4byte	0x35a
 3334 0429 34040000 		.4byte	0x434
 3335 042d 0D       		.uleb128 0xd
 3336 042e C1000000 		.4byte	0xc1
 3337 0432 08       		.byte	0x8
 3338 0433 00       		.byte	0
 3339 0434 04       		.uleb128 0x4
 3340 0435 BF000000 		.4byte	.LASF66
 3341 0439 03       		.byte	0x3
 3342 043a 1601     		.2byte	0x116
 3343 043c 0C040000 		.4byte	0x40c
 3344 0440 10       		.uleb128 0x10
 3345 0441 4002     		.2byte	0x240
 3346 0443 03       		.byte	0x3
 3347 0444 1A01     		.2byte	0x11a
 3348 0446 58040000 		.4byte	0x458
 3349 044a 0E       		.uleb128 0xe
 3350 044b 54030000 		.4byte	.LASF65
 3351 044f 03       		.byte	0x3
 3352 0450 1C01     		.2byte	0x11c
 3353 0452 58040000 		.4byte	0x458
 3354 0456 00       		.byte	0
 3355 0457 00       		.byte	0
 3356 0458 0C       		.uleb128 0xc
 3357 0459 CC030000 		.4byte	0x3cc
 3358 045d 68040000 		.4byte	0x468
 3359 0461 0D       		.uleb128 0xd
 3360 0462 C1000000 		.4byte	0xc1
 3361 0466 08       		.byte	0x8
 3362 0467 00       		.byte	0
ARM GAS  C:\Users\essele\AppData\Local\Temp\ccFLOaGJ.s 			page 84


 3363 0468 04       		.uleb128 0x4
 3364 0469 5B040000 		.4byte	.LASF67
 3365 046d 03       		.byte	0x3
 3366 046e 1D01     		.2byte	0x11d
 3367 0470 40040000 		.4byte	0x440
 3368 0474 11       		.uleb128 0x11
 3369 0475 2B020000 		.4byte	.LASF86
 3370 0479 01       		.byte	0x1
 3371 047a 54       		.byte	0x54
 3372 047b 6B000000 		.4byte	0x6b
 3373 047f 00000000 		.4byte	.LFB1
 3374 0483 7C040000 		.4byte	.LFE1-.LFB1
 3375 0487 01       		.uleb128 0x1
 3376 0488 9C       		.byte	0x9c
 3377 0489 0F050000 		.4byte	0x50f
 3378 048d 12       		.uleb128 0x12
 3379 048e A9050000 		.4byte	.LASF68
 3380 0492 01       		.byte	0x1
 3381 0493 56       		.byte	0x56
 3382 0494 6B000000 		.4byte	0x6b
 3383 0498 02       		.uleb128 0x2
 3384 0499 91       		.byte	0x91
 3385 049a 6F       		.sleb128 -17
 3386 049b 12       		.uleb128 0x12
 3387 049c E0050000 		.4byte	.LASF69
 3388 04a0 01       		.byte	0x1
 3389 04a1 57       		.byte	0x57
 3390 04a2 83000000 		.4byte	0x83
 3391 04a6 02       		.uleb128 0x2
 3392 04a7 91       		.byte	0x91
 3393 04a8 50       		.sleb128 -48
 3394 04a9 12       		.uleb128 0x12
 3395 04aa F2040000 		.4byte	.LASF70
 3396 04ae 01       		.byte	0x1
 3397 04af 58       		.byte	0x58
 3398 04b0 83000000 		.4byte	0x83
 3399 04b4 02       		.uleb128 0x2
 3400 04b5 91       		.byte	0x91
 3401 04b6 54       		.sleb128 -44
 3402 04b7 12       		.uleb128 0x12
 3403 04b8 1D020000 		.4byte	.LASF71
 3404 04bc 01       		.byte	0x1
 3405 04bd 59       		.byte	0x59
 3406 04be 83000000 		.4byte	0x83
 3407 04c2 02       		.uleb128 0x2
 3408 04c3 91       		.byte	0x91
 3409 04c4 5C       		.sleb128 -36
 3410 04c5 12       		.uleb128 0x12
 3411 04c6 0D050000 		.4byte	.LASF72
 3412 04ca 01       		.byte	0x1
 3413 04cb 5C       		.byte	0x5c
 3414 04cc FD010000 		.4byte	0x1fd
 3415 04d0 02       		.uleb128 0x2
 3416 04d1 91       		.byte	0x91
 3417 04d2 68       		.sleb128 -24
 3418 04d3 12       		.uleb128 0x12
 3419 04d4 20060000 		.4byte	.LASF73
ARM GAS  C:\Users\essele\AppData\Local\Temp\ccFLOaGJ.s 			page 85


 3420 04d8 01       		.byte	0x1
 3421 04d9 5E       		.byte	0x5e
 3422 04da 6B000000 		.4byte	0x6b
 3423 04de 02       		.uleb128 0x2
 3424 04df 91       		.byte	0x91
 3425 04e0 67       		.sleb128 -25
 3426 04e1 12       		.uleb128 0x12
 3427 04e2 15040000 		.4byte	.LASF74
 3428 04e6 01       		.byte	0x1
 3429 04e7 5F       		.byte	0x5f
 3430 04e8 6B000000 		.4byte	0x6b
 3431 04ec 02       		.uleb128 0x2
 3432 04ed 91       		.byte	0x91
 3433 04ee 5B       		.sleb128 -37
 3434 04ef 12       		.uleb128 0x12
 3435 04f0 AB020000 		.4byte	.LASF75
 3436 04f4 01       		.byte	0x1
 3437 04f5 63       		.byte	0x63
 3438 04f6 1F050000 		.4byte	0x51f
 3439 04fa 05       		.uleb128 0x5
 3440 04fb 03       		.byte	0x3
 3441 04fc 00000000 		.4byte	USBTMC_tBuffer.5161
 3442 0500 12       		.uleb128 0x12
 3443 0501 83060000 		.4byte	.LASF76
 3444 0505 01       		.byte	0x1
 3445 0506 64       		.byte	0x64
 3446 0507 24050000 		.4byte	0x524
 3447 050b 02       		.uleb128 0x2
 3448 050c 91       		.byte	0x91
 3449 050d 60       		.sleb128 -32
 3450 050e 00       		.byte	0
 3451 050f 0C       		.uleb128 0xc
 3452 0510 A4000000 		.4byte	0xa4
 3453 0514 1F050000 		.4byte	0x51f
 3454 0518 0D       		.uleb128 0xd
 3455 0519 C1000000 		.4byte	0xc1
 3456 051d 01       		.byte	0x1
 3457 051e 00       		.byte	0
 3458 051f 05       		.uleb128 0x5
 3459 0520 0F050000 		.4byte	0x50f
 3460 0524 09       		.uleb128 0x9
 3461 0525 04       		.byte	0x4
 3462 0526 2A050000 		.4byte	0x52a
 3463 052a 13       		.uleb128 0x13
 3464 052b 3A020000 		.4byte	0x23a
 3465 052f 14       		.uleb128 0x14
 3466 0530 86000000 		.4byte	.LASF77
 3467 0534 01       		.byte	0x1
 3468 0535 B501     		.2byte	0x1b5
 3469 0537 00000000 		.4byte	.LFB2
 3470 053b E4000000 		.4byte	.LFE2-.LFB2
 3471 053f 01       		.uleb128 0x1
 3472 0540 9C       		.byte	0x9c
 3473 0541 54050000 		.4byte	0x554
 3474 0545 15       		.uleb128 0x15
 3475 0546 657000   		.ascii	"ep\000"
 3476 0549 01       		.byte	0x1
ARM GAS  C:\Users\essele\AppData\Local\Temp\ccFLOaGJ.s 			page 86


 3477 054a B701     		.2byte	0x1b7
 3478 054c 83000000 		.4byte	0x83
 3479 0550 02       		.uleb128 0x2
 3480 0551 91       		.byte	0x91
 3481 0552 74       		.sleb128 -12
 3482 0553 00       		.byte	0
 3483 0554 14       		.uleb128 0x14
 3484 0555 0D060000 		.4byte	.LASF78
 3485 0559 01       		.byte	0x1
 3486 055a 1402     		.2byte	0x214
 3487 055c 00000000 		.4byte	.LFB3
 3488 0560 78000000 		.4byte	.LFE3-.LFB3
 3489 0564 01       		.uleb128 0x1
 3490 0565 9C       		.byte	0x9c
 3491 0566 78050000 		.4byte	0x578
 3492 056a 15       		.uleb128 0x15
 3493 056b 6900     		.ascii	"i\000"
 3494 056d 01       		.byte	0x1
 3495 056e 1602     		.2byte	0x216
 3496 0570 6B000000 		.4byte	0x6b
 3497 0574 02       		.uleb128 0x2
 3498 0575 91       		.byte	0x91
 3499 0576 77       		.sleb128 -9
 3500 0577 00       		.byte	0
 3501 0578 16       		.uleb128 0x16
 3502 0579 0E030000 		.4byte	.LASF79
 3503 057d 01       		.byte	0x1
 3504 057e 3A02     		.2byte	0x23a
 3505 0580 00000000 		.4byte	.LFB4
 3506 0584 04040000 		.4byte	.LFE4-.LFB4
 3507 0588 01       		.uleb128 0x1
 3508 0589 9C       		.byte	0x9c
 3509 058a 13060000 		.4byte	0x613
 3510 058e 17       		.uleb128 0x17
 3511 058f F9000000 		.4byte	.LASF88
 3512 0593 01       		.byte	0x1
 3513 0594 3A02     		.2byte	0x23a
 3514 0596 6B000000 		.4byte	0x6b
 3515 059a 02       		.uleb128 0x2
 3516 059b 91       		.byte	0x91
 3517 059c 5F       		.sleb128 -33
 3518 059d 15       		.uleb128 0x15
 3519 059e 657000   		.ascii	"ep\000"
 3520 05a1 01       		.byte	0x1
 3521 05a2 3C02     		.2byte	0x23c
 3522 05a4 6B000000 		.4byte	0x6b
 3523 05a8 02       		.uleb128 0x2
 3524 05a9 91       		.byte	0x91
 3525 05aa 77       		.sleb128 -9
 3526 05ab 18       		.uleb128 0x18
 3527 05ac F8030000 		.4byte	.LASF80
 3528 05b0 01       		.byte	0x1
 3529 05b1 3D02     		.2byte	0x23d
 3530 05b3 6B000000 		.4byte	0x6b
 3531 05b7 02       		.uleb128 0x2
 3532 05b8 91       		.byte	0x91
 3533 05b9 76       		.sleb128 -10
ARM GAS  C:\Users\essele\AppData\Local\Temp\ccFLOaGJ.s 			page 87


 3534 05ba 15       		.uleb128 0x15
 3535 05bb 6900     		.ascii	"i\000"
 3536 05bd 01       		.byte	0x1
 3537 05be 3E02     		.2byte	0x23e
 3538 05c0 6B000000 		.4byte	0x6b
 3539 05c4 02       		.uleb128 0x2
 3540 05c5 91       		.byte	0x91
 3541 05c6 75       		.sleb128 -11
 3542 05c7 18       		.uleb128 0x18
 3543 05c8 16020000 		.4byte	.LASF81
 3544 05cc 01       		.byte	0x1
 3545 05cd 3F02     		.2byte	0x23f
 3546 05cf 6B000000 		.4byte	0x6b
 3547 05d3 02       		.uleb128 0x2
 3548 05d4 91       		.byte	0x91
 3549 05d5 63       		.sleb128 -29
 3550 05d6 18       		.uleb128 0x18
 3551 05d7 07030000 		.4byte	.LASF82
 3552 05db 01       		.byte	0x1
 3553 05dc 4002     		.2byte	0x240
 3554 05de 13060000 		.4byte	0x613
 3555 05e2 02       		.uleb128 0x2
 3556 05e3 91       		.byte	0x91
 3557 05e4 64       		.sleb128 -28
 3558 05e5 18       		.uleb128 0x18
 3559 05e6 4A040000 		.4byte	.LASF83
 3560 05ea 01       		.byte	0x1
 3561 05eb 4302     		.2byte	0x243
 3562 05ed 77000000 		.4byte	0x77
 3563 05f1 02       		.uleb128 0x2
 3564 05f2 91       		.byte	0x91
 3565 05f3 72       		.sleb128 -14
 3566 05f4 18       		.uleb128 0x18
 3567 05f5 83060000 		.4byte	.LASF76
 3568 05f9 01       		.byte	0x1
 3569 05fa 4602     		.2byte	0x246
 3570 05fc 24050000 		.4byte	0x524
 3571 0600 02       		.uleb128 0x2
 3572 0601 91       		.byte	0x91
 3573 0602 68       		.sleb128 -24
 3574 0603 15       		.uleb128 0x15
 3575 0604 70455000 		.ascii	"pEP\000"
 3576 0608 01       		.byte	0x1
 3577 0609 4702     		.2byte	0x247
 3578 060b 1E060000 		.4byte	0x61e
 3579 060f 02       		.uleb128 0x2
 3580 0610 91       		.byte	0x91
 3581 0611 6C       		.sleb128 -20
 3582 0612 00       		.byte	0
 3583 0613 09       		.uleb128 0x9
 3584 0614 04       		.byte	0x4
 3585 0615 19060000 		.4byte	0x619
 3586 0619 13       		.uleb128 0x13
 3587 061a 6B000000 		.4byte	0x6b
 3588 061e 09       		.uleb128 0x9
 3589 061f 04       		.byte	0x4
 3590 0620 24060000 		.4byte	0x624
ARM GAS  C:\Users\essele\AppData\Local\Temp\ccFLOaGJ.s 			page 88


 3591 0624 13       		.uleb128 0x13
 3592 0625 99010000 		.4byte	0x199
 3593 0629 16       		.uleb128 0x16
 3594 062a A7000000 		.4byte	.LASF84
 3595 062e 01       		.byte	0x1
 3596 062f 2503     		.2byte	0x325
 3597 0631 00000000 		.4byte	.LFB5
 3598 0635 20020000 		.4byte	.LFE5-.LFB5
 3599 0639 01       		.uleb128 0x1
 3600 063a 9C       		.byte	0x9c
 3601 063b A6060000 		.4byte	0x6a6
 3602 063f 15       		.uleb128 0x15
 3603 0640 657000   		.ascii	"ep\000"
 3604 0643 01       		.byte	0x1
 3605 0644 2703     		.2byte	0x327
 3606 0646 83000000 		.4byte	0x83
 3607 064a 02       		.uleb128 0x2
 3608 064b 91       		.byte	0x91
 3609 064c 68       		.sleb128 -24
 3610 064d 18       		.uleb128 0x18
 3611 064e F8030000 		.4byte	.LASF80
 3612 0652 01       		.byte	0x1
 3613 0653 2803     		.2byte	0x328
 3614 0655 83000000 		.4byte	0x83
 3615 0659 02       		.uleb128 0x2
 3616 065a 91       		.byte	0x91
 3617 065b 60       		.sleb128 -32
 3618 065c 18       		.uleb128 0x18
 3619 065d 16020000 		.4byte	.LASF81
 3620 0661 01       		.byte	0x1
 3621 0662 2903     		.2byte	0x329
 3622 0664 83000000 		.4byte	0x83
 3623 0668 02       		.uleb128 0x2
 3624 0669 91       		.byte	0x91
 3625 066a 5C       		.sleb128 -36
 3626 066b 15       		.uleb128 0x15
 3627 066c 6900     		.ascii	"i\000"
 3628 066e 01       		.byte	0x1
 3629 066f 2A03     		.2byte	0x32a
 3630 0671 83000000 		.4byte	0x83
 3631 0675 02       		.uleb128 0x2
 3632 0676 91       		.byte	0x91
 3633 0677 74       		.sleb128 -12
 3634 0678 18       		.uleb128 0x18
 3635 0679 BB040000 		.4byte	.LASF85
 3636 067d 01       		.byte	0x1
 3637 067e 2B03     		.2byte	0x32b
 3638 0680 6B000000 		.4byte	0x6b
 3639 0684 02       		.uleb128 0x2
 3640 0685 91       		.byte	0x91
 3641 0686 67       		.sleb128 -25
 3642 0687 18       		.uleb128 0x18
 3643 0688 83060000 		.4byte	.LASF76
 3644 068c 01       		.byte	0x1
 3645 068d 2D03     		.2byte	0x32d
 3646 068f 24050000 		.4byte	0x524
 3647 0693 02       		.uleb128 0x2
ARM GAS  C:\Users\essele\AppData\Local\Temp\ccFLOaGJ.s 			page 89


 3648 0694 91       		.byte	0x91
 3649 0695 6C       		.sleb128 -20
 3650 0696 15       		.uleb128 0x15
 3651 0697 70455000 		.ascii	"pEP\000"
 3652 069b 01       		.byte	0x1
 3653 069c 2E03     		.2byte	0x32e
 3654 069e 1E060000 		.4byte	0x61e
 3655 06a2 02       		.uleb128 0x2
 3656 06a3 91       		.byte	0x91
 3657 06a4 70       		.sleb128 -16
 3658 06a5 00       		.byte	0
 3659 06a6 19       		.uleb128 0x19
 3660 06a7 88060000 		.4byte	.LASF87
 3661 06ab 01       		.byte	0x1
 3662 06ac AE03     		.2byte	0x3ae
 3663 06ae 24050000 		.4byte	0x524
 3664 06b2 00000000 		.4byte	.LFB6
 3665 06b6 58000000 		.4byte	.LFE6-.LFB6
 3666 06ba 01       		.uleb128 0x1
 3667 06bb 9C       		.byte	0x9c
 3668 06bc DF060000 		.4byte	0x6df
 3669 06c0 17       		.uleb128 0x17
 3670 06c1 53000000 		.4byte	.LASF89
 3671 06c5 01       		.byte	0x1
 3672 06c6 AE03     		.2byte	0x3ae
 3673 06c8 6B000000 		.4byte	0x6b
 3674 06cc 02       		.uleb128 0x2
 3675 06cd 91       		.byte	0x91
 3676 06ce 6F       		.sleb128 -17
 3677 06cf 18       		.uleb128 0x18
 3678 06d0 83060000 		.4byte	.LASF76
 3679 06d4 01       		.byte	0x1
 3680 06d5 B203     		.2byte	0x3b2
 3681 06d7 24050000 		.4byte	0x524
 3682 06db 02       		.uleb128 0x2
 3683 06dc 91       		.byte	0x91
 3684 06dd 74       		.sleb128 -12
 3685 06de 00       		.byte	0
 3686 06df 1A       		.uleb128 0x1a
 3687 06e0 C8040000 		.4byte	.LASF118
 3688 06e4 01       		.byte	0x1
 3689 06e5 F303     		.2byte	0x3f3
 3690 06e7 24050000 		.4byte	0x524
 3691 06eb 00000000 		.4byte	.LFB7
 3692 06ef 24000000 		.4byte	.LFE7-.LFB7
 3693 06f3 01       		.uleb128 0x1
 3694 06f4 9C       		.byte	0x9c
 3695 06f5 1B       		.uleb128 0x1b
 3696 06f6 5A010000 		.4byte	.LASF90
 3697 06fa 01       		.byte	0x1
 3698 06fb 0604     		.2byte	0x406
 3699 06fd 13060000 		.4byte	0x613
 3700 0701 00000000 		.4byte	.LFB8
 3701 0705 54000000 		.4byte	.LFE8-.LFB8
 3702 0709 01       		.uleb128 0x1
 3703 070a 9C       		.byte	0x9c
 3704 070b 3D070000 		.4byte	0x73d
ARM GAS  C:\Users\essele\AppData\Local\Temp\ccFLOaGJ.s 			page 90


 3705 070f 18       		.uleb128 0x18
 3706 0710 83060000 		.4byte	.LASF76
 3707 0714 01       		.byte	0x1
 3708 0715 0904     		.2byte	0x409
 3709 0717 24050000 		.4byte	0x524
 3710 071b 02       		.uleb128 0x2
 3711 071c 91       		.byte	0x91
 3712 071d 70       		.sleb128 -16
 3713 071e 18       		.uleb128 0x18
 3714 071f 1C030000 		.4byte	.LASF91
 3715 0723 01       		.byte	0x1
 3716 0724 0A04     		.2byte	0x40a
 3717 0726 13060000 		.4byte	0x613
 3718 072a 02       		.uleb128 0x2
 3719 072b 91       		.byte	0x91
 3720 072c 74       		.sleb128 -12
 3721 072d 18       		.uleb128 0x18
 3722 072e B8050000 		.4byte	.LASF92
 3723 0732 01       		.byte	0x1
 3724 0733 0B04     		.2byte	0x40b
 3725 0735 6B000000 		.4byte	0x6b
 3726 0739 02       		.uleb128 0x2
 3727 073a 91       		.byte	0x91
 3728 073b 6F       		.sleb128 -17
 3729 073c 00       		.byte	0
 3730 073d 14       		.uleb128 0x14
 3731 073e 41030000 		.4byte	.LASF93
 3732 0742 01       		.byte	0x1
 3733 0743 3004     		.2byte	0x430
 3734 0745 00000000 		.4byte	.LFB9
 3735 0749 D4000000 		.4byte	.LFE9-.LFB9
 3736 074d 01       		.uleb128 0x1
 3737 074e 9C       		.byte	0x9c
 3738 074f 63070000 		.4byte	0x763
 3739 0753 17       		.uleb128 0x17
 3740 0754 9E000000 		.4byte	.LASF94
 3741 0758 01       		.byte	0x1
 3742 0759 3004     		.2byte	0x430
 3743 075b 6B000000 		.4byte	0x6b
 3744 075f 02       		.uleb128 0x2
 3745 0760 91       		.byte	0x91
 3746 0761 77       		.sleb128 -9
 3747 0762 00       		.byte	0
 3748 0763 1B       		.uleb128 0x1b
 3749 0764 BA020000 		.4byte	.LASF95
 3750 0768 01       		.byte	0x1
 3751 0769 5904     		.2byte	0x459
 3752 076b 6B000000 		.4byte	0x6b
 3753 076f 00000000 		.4byte	.LFB10
 3754 0773 EC000000 		.4byte	.LFE10-.LFB10
 3755 0777 01       		.uleb128 0x1
 3756 0778 9C       		.byte	0x9c
 3757 0779 9B070000 		.4byte	0x79b
 3758 077d 18       		.uleb128 0x18
 3759 077e A9050000 		.4byte	.LASF68
 3760 0782 01       		.byte	0x1
 3761 0783 5B04     		.2byte	0x45b
ARM GAS  C:\Users\essele\AppData\Local\Temp\ccFLOaGJ.s 			page 91


 3762 0785 6B000000 		.4byte	0x6b
 3763 0789 02       		.uleb128 0x2
 3764 078a 91       		.byte	0x91
 3765 078b 6F       		.sleb128 -17
 3766 078c 15       		.uleb128 0x15
 3767 078d 657000   		.ascii	"ep\000"
 3768 0790 01       		.byte	0x1
 3769 0791 5C04     		.2byte	0x45c
 3770 0793 83000000 		.4byte	0x83
 3771 0797 02       		.uleb128 0x2
 3772 0798 91       		.byte	0x91
 3773 0799 68       		.sleb128 -24
 3774 079a 00       		.byte	0
 3775 079b 1B       		.uleb128 0x1b
 3776 079c 31000000 		.4byte	.LASF96
 3777 07a0 01       		.byte	0x1
 3778 07a1 8A04     		.2byte	0x48a
 3779 07a3 6B000000 		.4byte	0x6b
 3780 07a7 00000000 		.4byte	.LFB11
 3781 07ab 58010000 		.4byte	.LFE11-.LFB11
 3782 07af 01       		.uleb128 0x1
 3783 07b0 9C       		.byte	0x9c
 3784 07b1 D3070000 		.4byte	0x7d3
 3785 07b5 18       		.uleb128 0x18
 3786 07b6 A9050000 		.4byte	.LASF68
 3787 07ba 01       		.byte	0x1
 3788 07bb 8C04     		.2byte	0x48c
 3789 07bd 6B000000 		.4byte	0x6b
 3790 07c1 02       		.uleb128 0x2
 3791 07c2 91       		.byte	0x91
 3792 07c3 6F       		.sleb128 -17
 3793 07c4 15       		.uleb128 0x15
 3794 07c5 657000   		.ascii	"ep\000"
 3795 07c8 01       		.byte	0x1
 3796 07c9 8D04     		.2byte	0x48d
 3797 07cb 83000000 		.4byte	0x83
 3798 07cf 02       		.uleb128 0x2
 3799 07d0 91       		.byte	0x91
 3800 07d1 68       		.sleb128 -24
 3801 07d2 00       		.byte	0
 3802 07d3 1B       		.uleb128 0x1b
 3803 07d4 4E020000 		.4byte	.LASF97
 3804 07d8 01       		.byte	0x1
 3805 07d9 CF04     		.2byte	0x4cf
 3806 07db 6B000000 		.4byte	0x6b
 3807 07df 00000000 		.4byte	.LFB12
 3808 07e3 9C000000 		.4byte	.LFE12-.LFB12
 3809 07e7 01       		.uleb128 0x1
 3810 07e8 9C       		.byte	0x9c
 3811 07e9 2A080000 		.4byte	0x82a
 3812 07ed 18       		.uleb128 0x18
 3813 07ee A9050000 		.4byte	.LASF68
 3814 07f2 01       		.byte	0x1
 3815 07f3 D104     		.2byte	0x4d1
 3816 07f5 6B000000 		.4byte	0x6b
 3817 07f9 02       		.uleb128 0x2
 3818 07fa 91       		.byte	0x91
ARM GAS  C:\Users\essele\AppData\Local\Temp\ccFLOaGJ.s 			page 92


 3819 07fb 77       		.sleb128 -9
 3820 07fc 18       		.uleb128 0x18
 3821 07fd BB040000 		.4byte	.LASF85
 3822 0801 01       		.byte	0x1
 3823 0802 D304     		.2byte	0x4d3
 3824 0804 6B000000 		.4byte	0x6b
 3825 0808 02       		.uleb128 0x2
 3826 0809 91       		.byte	0x91
 3827 080a 76       		.sleb128 -10
 3828 080b 18       		.uleb128 0x18
 3829 080c 72060000 		.4byte	.LASF98
 3830 0810 01       		.byte	0x1
 3831 0811 D404     		.2byte	0x4d4
 3832 0813 6B000000 		.4byte	0x6b
 3833 0817 02       		.uleb128 0x2
 3834 0818 91       		.byte	0x91
 3835 0819 6F       		.sleb128 -17
 3836 081a 18       		.uleb128 0x18
 3837 081b 83060000 		.4byte	.LASF76
 3838 081f 01       		.byte	0x1
 3839 0820 D504     		.2byte	0x4d5
 3840 0822 24050000 		.4byte	0x524
 3841 0826 02       		.uleb128 0x2
 3842 0827 91       		.byte	0x91
 3843 0828 70       		.sleb128 -16
 3844 0829 00       		.byte	0
 3845 082a 1C       		.uleb128 0x1c
 3846 082b 02070000 		.4byte	.LASF99
 3847 082f 03       		.byte	0x3
 3848 0830 D102     		.2byte	0x2d1
 3849 0832 A4000000 		.4byte	0xa4
 3850 0836 1C       		.uleb128 0x1c
 3851 0837 2C030000 		.4byte	.LASF100
 3852 083b 03       		.byte	0x3
 3853 083c D302     		.2byte	0x2d3
 3854 083e A4000000 		.4byte	0xa4
 3855 0842 1C       		.uleb128 0x1c
 3856 0843 5E050000 		.4byte	.LASF101
 3857 0847 03       		.byte	0x3
 3858 0848 D402     		.2byte	0x2d4
 3859 084a A4000000 		.4byte	0xa4
 3860 084e 1C       		.uleb128 0x1c
 3861 084f 7A050000 		.4byte	.LASF102
 3862 0853 03       		.byte	0x3
 3863 0854 D502     		.2byte	0x2d5
 3864 0856 A4000000 		.4byte	0xa4
 3865 085a 0C       		.uleb128 0xc
 3866 085b 19060000 		.4byte	0x619
 3867 085f 6A080000 		.4byte	0x86a
 3868 0863 0D       		.uleb128 0xd
 3869 0864 C1000000 		.4byte	0xc1
 3870 0868 11       		.byte	0x11
 3871 0869 00       		.byte	0
 3872 086a 1D       		.uleb128 0x1d
 3873 086b 49050000 		.4byte	.LASF103
 3874 086f 04       		.byte	0x4
 3875 0870 61       		.byte	0x61
ARM GAS  C:\Users\essele\AppData\Local\Temp\ccFLOaGJ.s 			page 93


 3876 0871 75080000 		.4byte	0x875
 3877 0875 13       		.uleb128 0x13
 3878 0876 5A080000 		.4byte	0x85a
 3879 087a 0C       		.uleb128 0xc
 3880 087b 2A050000 		.4byte	0x52a
 3881 087f 8A080000 		.4byte	0x88a
 3882 0883 0D       		.uleb128 0xd
 3883 0884 C1000000 		.4byte	0xc1
 3884 0888 00       		.byte	0
 3885 0889 00       		.byte	0
 3886 088a 1D       		.uleb128 0x1d
 3887 088b FE030000 		.4byte	.LASF104
 3888 088f 04       		.byte	0x4
 3889 0890 67       		.byte	0x67
 3890 0891 95080000 		.4byte	0x895
 3891 0895 13       		.uleb128 0x13
 3892 0896 7A080000 		.4byte	0x87a
 3893 089a 0C       		.uleb128 0xc
 3894 089b 19060000 		.4byte	0x619
 3895 089f AA080000 		.4byte	0x8aa
 3896 08a3 0D       		.uleb128 0xd
 3897 08a4 C1000000 		.4byte	0xc1
 3898 08a8 15       		.byte	0x15
 3899 08a9 00       		.byte	0
 3900 08aa 1D       		.uleb128 0x1d
 3901 08ab AE060000 		.4byte	.LASF105
 3902 08af 04       		.byte	0x4
 3903 08b0 68       		.byte	0x68
 3904 08b1 B5080000 		.4byte	0x8b5
 3905 08b5 13       		.uleb128 0x13
 3906 08b6 9A080000 		.4byte	0x89a
 3907 08ba 0C       		.uleb128 0xc
 3908 08bb 19060000 		.4byte	0x619
 3909 08bf CA080000 		.4byte	0x8ca
 3910 08c3 0D       		.uleb128 0xd
 3911 08c4 C1000000 		.4byte	0xc1
 3912 08c8 1A       		.byte	0x1a
 3913 08c9 00       		.byte	0
 3914 08ca 1D       		.uleb128 0x1d
 3915 08cb E9010000 		.4byte	.LASF106
 3916 08cf 04       		.byte	0x4
 3917 08d0 69       		.byte	0x69
 3918 08d1 D5080000 		.4byte	0x8d5
 3919 08d5 13       		.uleb128 0x13
 3920 08d6 BA080000 		.4byte	0x8ba
 3921 08da 1D       		.uleb128 0x1d
 3922 08db B6010000 		.4byte	.LASF107
 3923 08df 04       		.byte	0x4
 3924 08e0 72       		.byte	0x72
 3925 08e1 A4000000 		.4byte	0xa4
 3926 08e5 0C       		.uleb128 0xc
 3927 08e6 A4000000 		.4byte	0xa4
 3928 08ea F5080000 		.4byte	0x8f5
 3929 08ee 0D       		.uleb128 0xd
 3930 08ef C1000000 		.4byte	0xc1
 3931 08f3 00       		.byte	0
 3932 08f4 00       		.byte	0
ARM GAS  C:\Users\essele\AppData\Local\Temp\ccFLOaGJ.s 			page 94


 3933 08f5 1D       		.uleb128 0x1d
 3934 08f6 10070000 		.4byte	.LASF108
 3935 08fa 04       		.byte	0x4
 3936 08fb 73       		.byte	0x73
 3937 08fc 00090000 		.4byte	0x900
 3938 0900 05       		.uleb128 0x5
 3939 0901 E5080000 		.4byte	0x8e5
 3940 0905 1D       		.uleb128 0x1d
 3941 0906 E6060000 		.4byte	.LASF109
 3942 090a 04       		.byte	0x4
 3943 090b 74       		.byte	0x74
 3944 090c 10090000 		.4byte	0x910
 3945 0910 05       		.uleb128 0x5
 3946 0911 E5080000 		.4byte	0x8e5
 3947 0915 1D       		.uleb128 0x1d
 3948 0916 89020000 		.4byte	.LASF110
 3949 091a 04       		.byte	0x4
 3950 091b 75       		.byte	0x75
 3951 091c A4000000 		.4byte	0xa4
 3952 0920 1D       		.uleb128 0x1d
 3953 0921 1A000000 		.4byte	.LASF111
 3954 0925 04       		.byte	0x4
 3955 0926 76       		.byte	0x76
 3956 0927 2B090000 		.4byte	0x92b
 3957 092b 05       		.uleb128 0x5
 3958 092c E5080000 		.4byte	0x8e5
 3959 0930 1D       		.uleb128 0x1d
 3960 0931 20010000 		.4byte	.LASF112
 3961 0935 04       		.byte	0x4
 3962 0936 77       		.byte	0x77
 3963 0937 13060000 		.4byte	0x613
 3964 093b 0C       		.uleb128 0xc
 3965 093c 4B090000 		.4byte	0x94b
 3966 0940 4B090000 		.4byte	0x94b
 3967 0944 0D       		.uleb128 0xd
 3968 0945 C1000000 		.4byte	0xc1
 3969 0949 08       		.byte	0x8
 3970 094a 00       		.byte	0
 3971 094b 05       		.uleb128 0x5
 3972 094c 3D010000 		.4byte	0x13d
 3973 0950 1D       		.uleb128 0x1d
 3974 0951 EF000000 		.4byte	.LASF113
 3975 0955 04       		.byte	0x4
 3976 0956 79       		.byte	0x79
 3977 0957 5B090000 		.4byte	0x95b
 3978 095b 05       		.uleb128 0x5
 3979 095c 3B090000 		.4byte	0x93b
 3980 0960 1D       		.uleb128 0x1d
 3981 0961 E3020000 		.4byte	.LASF114
 3982 0965 04       		.byte	0x4
 3983 0966 7A       		.byte	0x7a
 3984 0967 6B090000 		.4byte	0x96b
 3985 096b 05       		.uleb128 0x5
 3986 096c 09020000 		.4byte	0x209
 3987 0970 00       		.byte	0
 3988              		.section	.debug_abbrev,"",%progbits
 3989              	.Ldebug_abbrev0:
ARM GAS  C:\Users\essele\AppData\Local\Temp\ccFLOaGJ.s 			page 95


 3990 0000 01       		.uleb128 0x1
 3991 0001 11       		.uleb128 0x11
 3992 0002 01       		.byte	0x1
 3993 0003 25       		.uleb128 0x25
 3994 0004 0E       		.uleb128 0xe
 3995 0005 13       		.uleb128 0x13
 3996 0006 0B       		.uleb128 0xb
 3997 0007 03       		.uleb128 0x3
 3998 0008 0E       		.uleb128 0xe
 3999 0009 1B       		.uleb128 0x1b
 4000 000a 0E       		.uleb128 0xe
 4001 000b 55       		.uleb128 0x55
 4002 000c 17       		.uleb128 0x17
 4003 000d 11       		.uleb128 0x11
 4004 000e 01       		.uleb128 0x1
 4005 000f 10       		.uleb128 0x10
 4006 0010 17       		.uleb128 0x17
 4007 0011 00       		.byte	0
 4008 0012 00       		.byte	0
 4009 0013 02       		.uleb128 0x2
 4010 0014 24       		.uleb128 0x24
 4011 0015 00       		.byte	0
 4012 0016 0B       		.uleb128 0xb
 4013 0017 0B       		.uleb128 0xb
 4014 0018 3E       		.uleb128 0x3e
 4015 0019 0B       		.uleb128 0xb
 4016 001a 03       		.uleb128 0x3
 4017 001b 0E       		.uleb128 0xe
 4018 001c 00       		.byte	0
 4019 001d 00       		.byte	0
 4020 001e 03       		.uleb128 0x3
 4021 001f 24       		.uleb128 0x24
 4022 0020 00       		.byte	0
 4023 0021 0B       		.uleb128 0xb
 4024 0022 0B       		.uleb128 0xb
 4025 0023 3E       		.uleb128 0x3e
 4026 0024 0B       		.uleb128 0xb
 4027 0025 03       		.uleb128 0x3
 4028 0026 08       		.uleb128 0x8
 4029 0027 00       		.byte	0
 4030 0028 00       		.byte	0
 4031 0029 04       		.uleb128 0x4
 4032 002a 16       		.uleb128 0x16
 4033 002b 00       		.byte	0
 4034 002c 03       		.uleb128 0x3
 4035 002d 0E       		.uleb128 0xe
 4036 002e 3A       		.uleb128 0x3a
 4037 002f 0B       		.uleb128 0xb
 4038 0030 3B       		.uleb128 0x3b
 4039 0031 05       		.uleb128 0x5
 4040 0032 49       		.uleb128 0x49
 4041 0033 13       		.uleb128 0x13
 4042 0034 00       		.byte	0
 4043 0035 00       		.byte	0
 4044 0036 05       		.uleb128 0x5
 4045 0037 35       		.uleb128 0x35
 4046 0038 00       		.byte	0
ARM GAS  C:\Users\essele\AppData\Local\Temp\ccFLOaGJ.s 			page 96


 4047 0039 49       		.uleb128 0x49
 4048 003a 13       		.uleb128 0x13
 4049 003b 00       		.byte	0
 4050 003c 00       		.byte	0
 4051 003d 06       		.uleb128 0x6
 4052 003e 13       		.uleb128 0x13
 4053 003f 01       		.byte	0x1
 4054 0040 0B       		.uleb128 0xb
 4055 0041 0B       		.uleb128 0xb
 4056 0042 3A       		.uleb128 0x3a
 4057 0043 0B       		.uleb128 0xb
 4058 0044 3B       		.uleb128 0x3b
 4059 0045 0B       		.uleb128 0xb
 4060 0046 01       		.uleb128 0x1
 4061 0047 13       		.uleb128 0x13
 4062 0048 00       		.byte	0
 4063 0049 00       		.byte	0
 4064 004a 07       		.uleb128 0x7
 4065 004b 0D       		.uleb128 0xd
 4066 004c 00       		.byte	0
 4067 004d 03       		.uleb128 0x3
 4068 004e 0E       		.uleb128 0xe
 4069 004f 3A       		.uleb128 0x3a
 4070 0050 0B       		.uleb128 0xb
 4071 0051 3B       		.uleb128 0x3b
 4072 0052 0B       		.uleb128 0xb
 4073 0053 49       		.uleb128 0x49
 4074 0054 13       		.uleb128 0x13
 4075 0055 38       		.uleb128 0x38
 4076 0056 0B       		.uleb128 0xb
 4077 0057 00       		.byte	0
 4078 0058 00       		.byte	0
 4079 0059 08       		.uleb128 0x8
 4080 005a 16       		.uleb128 0x16
 4081 005b 00       		.byte	0
 4082 005c 03       		.uleb128 0x3
 4083 005d 0E       		.uleb128 0xe
 4084 005e 3A       		.uleb128 0x3a
 4085 005f 0B       		.uleb128 0xb
 4086 0060 3B       		.uleb128 0x3b
 4087 0061 0B       		.uleb128 0xb
 4088 0062 49       		.uleb128 0x49
 4089 0063 13       		.uleb128 0x13
 4090 0064 00       		.byte	0
 4091 0065 00       		.byte	0
 4092 0066 09       		.uleb128 0x9
 4093 0067 0F       		.uleb128 0xf
 4094 0068 00       		.byte	0
 4095 0069 0B       		.uleb128 0xb
 4096 006a 0B       		.uleb128 0xb
 4097 006b 49       		.uleb128 0x49
 4098 006c 13       		.uleb128 0x13
 4099 006d 00       		.byte	0
 4100 006e 00       		.byte	0
 4101 006f 0A       		.uleb128 0xa
 4102 0070 0D       		.uleb128 0xd
 4103 0071 00       		.byte	0
ARM GAS  C:\Users\essele\AppData\Local\Temp\ccFLOaGJ.s 			page 97


 4104 0072 03       		.uleb128 0x3
 4105 0073 08       		.uleb128 0x8
 4106 0074 3A       		.uleb128 0x3a
 4107 0075 0B       		.uleb128 0xb
 4108 0076 3B       		.uleb128 0x3b
 4109 0077 0B       		.uleb128 0xb
 4110 0078 49       		.uleb128 0x49
 4111 0079 13       		.uleb128 0x13
 4112 007a 38       		.uleb128 0x38
 4113 007b 0B       		.uleb128 0xb
 4114 007c 00       		.byte	0
 4115 007d 00       		.byte	0
 4116 007e 0B       		.uleb128 0xb
 4117 007f 26       		.uleb128 0x26
 4118 0080 00       		.byte	0
 4119 0081 00       		.byte	0
 4120 0082 00       		.byte	0
 4121 0083 0C       		.uleb128 0xc
 4122 0084 01       		.uleb128 0x1
 4123 0085 01       		.byte	0x1
 4124 0086 49       		.uleb128 0x49
 4125 0087 13       		.uleb128 0x13
 4126 0088 01       		.uleb128 0x1
 4127 0089 13       		.uleb128 0x13
 4128 008a 00       		.byte	0
 4129 008b 00       		.byte	0
 4130 008c 0D       		.uleb128 0xd
 4131 008d 21       		.uleb128 0x21
 4132 008e 00       		.byte	0
 4133 008f 49       		.uleb128 0x49
 4134 0090 13       		.uleb128 0x13
 4135 0091 2F       		.uleb128 0x2f
 4136 0092 0B       		.uleb128 0xb
 4137 0093 00       		.byte	0
 4138 0094 00       		.byte	0
 4139 0095 0E       		.uleb128 0xe
 4140 0096 0D       		.uleb128 0xd
 4141 0097 00       		.byte	0
 4142 0098 03       		.uleb128 0x3
 4143 0099 0E       		.uleb128 0xe
 4144 009a 3A       		.uleb128 0x3a
 4145 009b 0B       		.uleb128 0xb
 4146 009c 3B       		.uleb128 0x3b
 4147 009d 05       		.uleb128 0x5
 4148 009e 49       		.uleb128 0x49
 4149 009f 13       		.uleb128 0x13
 4150 00a0 38       		.uleb128 0x38
 4151 00a1 0B       		.uleb128 0xb
 4152 00a2 00       		.byte	0
 4153 00a3 00       		.byte	0
 4154 00a4 0F       		.uleb128 0xf
 4155 00a5 0D       		.uleb128 0xd
 4156 00a6 00       		.byte	0
 4157 00a7 03       		.uleb128 0x3
 4158 00a8 08       		.uleb128 0x8
 4159 00a9 3A       		.uleb128 0x3a
 4160 00aa 0B       		.uleb128 0xb
ARM GAS  C:\Users\essele\AppData\Local\Temp\ccFLOaGJ.s 			page 98


 4161 00ab 3B       		.uleb128 0x3b
 4162 00ac 05       		.uleb128 0x5
 4163 00ad 49       		.uleb128 0x49
 4164 00ae 13       		.uleb128 0x13
 4165 00af 38       		.uleb128 0x38
 4166 00b0 0B       		.uleb128 0xb
 4167 00b1 00       		.byte	0
 4168 00b2 00       		.byte	0
 4169 00b3 10       		.uleb128 0x10
 4170 00b4 13       		.uleb128 0x13
 4171 00b5 01       		.byte	0x1
 4172 00b6 0B       		.uleb128 0xb
 4173 00b7 05       		.uleb128 0x5
 4174 00b8 3A       		.uleb128 0x3a
 4175 00b9 0B       		.uleb128 0xb
 4176 00ba 3B       		.uleb128 0x3b
 4177 00bb 05       		.uleb128 0x5
 4178 00bc 01       		.uleb128 0x1
 4179 00bd 13       		.uleb128 0x13
 4180 00be 00       		.byte	0
 4181 00bf 00       		.byte	0
 4182 00c0 11       		.uleb128 0x11
 4183 00c1 2E       		.uleb128 0x2e
 4184 00c2 01       		.byte	0x1
 4185 00c3 3F       		.uleb128 0x3f
 4186 00c4 19       		.uleb128 0x19
 4187 00c5 03       		.uleb128 0x3
 4188 00c6 0E       		.uleb128 0xe
 4189 00c7 3A       		.uleb128 0x3a
 4190 00c8 0B       		.uleb128 0xb
 4191 00c9 3B       		.uleb128 0x3b
 4192 00ca 0B       		.uleb128 0xb
 4193 00cb 27       		.uleb128 0x27
 4194 00cc 19       		.uleb128 0x19
 4195 00cd 49       		.uleb128 0x49
 4196 00ce 13       		.uleb128 0x13
 4197 00cf 11       		.uleb128 0x11
 4198 00d0 01       		.uleb128 0x1
 4199 00d1 12       		.uleb128 0x12
 4200 00d2 06       		.uleb128 0x6
 4201 00d3 40       		.uleb128 0x40
 4202 00d4 18       		.uleb128 0x18
 4203 00d5 9642     		.uleb128 0x2116
 4204 00d7 19       		.uleb128 0x19
 4205 00d8 01       		.uleb128 0x1
 4206 00d9 13       		.uleb128 0x13
 4207 00da 00       		.byte	0
 4208 00db 00       		.byte	0
 4209 00dc 12       		.uleb128 0x12
 4210 00dd 34       		.uleb128 0x34
 4211 00de 00       		.byte	0
 4212 00df 03       		.uleb128 0x3
 4213 00e0 0E       		.uleb128 0xe
 4214 00e1 3A       		.uleb128 0x3a
 4215 00e2 0B       		.uleb128 0xb
 4216 00e3 3B       		.uleb128 0x3b
 4217 00e4 0B       		.uleb128 0xb
ARM GAS  C:\Users\essele\AppData\Local\Temp\ccFLOaGJ.s 			page 99


 4218 00e5 49       		.uleb128 0x49
 4219 00e6 13       		.uleb128 0x13
 4220 00e7 02       		.uleb128 0x2
 4221 00e8 18       		.uleb128 0x18
 4222 00e9 00       		.byte	0
 4223 00ea 00       		.byte	0
 4224 00eb 13       		.uleb128 0x13
 4225 00ec 26       		.uleb128 0x26
 4226 00ed 00       		.byte	0
 4227 00ee 49       		.uleb128 0x49
 4228 00ef 13       		.uleb128 0x13
 4229 00f0 00       		.byte	0
 4230 00f1 00       		.byte	0
 4231 00f2 14       		.uleb128 0x14
 4232 00f3 2E       		.uleb128 0x2e
 4233 00f4 01       		.byte	0x1
 4234 00f5 3F       		.uleb128 0x3f
 4235 00f6 19       		.uleb128 0x19
 4236 00f7 03       		.uleb128 0x3
 4237 00f8 0E       		.uleb128 0xe
 4238 00f9 3A       		.uleb128 0x3a
 4239 00fa 0B       		.uleb128 0xb
 4240 00fb 3B       		.uleb128 0x3b
 4241 00fc 05       		.uleb128 0x5
 4242 00fd 27       		.uleb128 0x27
 4243 00fe 19       		.uleb128 0x19
 4244 00ff 11       		.uleb128 0x11
 4245 0100 01       		.uleb128 0x1
 4246 0101 12       		.uleb128 0x12
 4247 0102 06       		.uleb128 0x6
 4248 0103 40       		.uleb128 0x40
 4249 0104 18       		.uleb128 0x18
 4250 0105 9742     		.uleb128 0x2117
 4251 0107 19       		.uleb128 0x19
 4252 0108 01       		.uleb128 0x1
 4253 0109 13       		.uleb128 0x13
 4254 010a 00       		.byte	0
 4255 010b 00       		.byte	0
 4256 010c 15       		.uleb128 0x15
 4257 010d 34       		.uleb128 0x34
 4258 010e 00       		.byte	0
 4259 010f 03       		.uleb128 0x3
 4260 0110 08       		.uleb128 0x8
 4261 0111 3A       		.uleb128 0x3a
 4262 0112 0B       		.uleb128 0xb
 4263 0113 3B       		.uleb128 0x3b
 4264 0114 05       		.uleb128 0x5
 4265 0115 49       		.uleb128 0x49
 4266 0116 13       		.uleb128 0x13
 4267 0117 02       		.uleb128 0x2
 4268 0118 18       		.uleb128 0x18
 4269 0119 00       		.byte	0
 4270 011a 00       		.byte	0
 4271 011b 16       		.uleb128 0x16
 4272 011c 2E       		.uleb128 0x2e
 4273 011d 01       		.byte	0x1
 4274 011e 3F       		.uleb128 0x3f
ARM GAS  C:\Users\essele\AppData\Local\Temp\ccFLOaGJ.s 			page 100


 4275 011f 19       		.uleb128 0x19
 4276 0120 03       		.uleb128 0x3
 4277 0121 0E       		.uleb128 0xe
 4278 0122 3A       		.uleb128 0x3a
 4279 0123 0B       		.uleb128 0xb
 4280 0124 3B       		.uleb128 0x3b
 4281 0125 05       		.uleb128 0x5
 4282 0126 27       		.uleb128 0x27
 4283 0127 19       		.uleb128 0x19
 4284 0128 11       		.uleb128 0x11
 4285 0129 01       		.uleb128 0x1
 4286 012a 12       		.uleb128 0x12
 4287 012b 06       		.uleb128 0x6
 4288 012c 40       		.uleb128 0x40
 4289 012d 18       		.uleb128 0x18
 4290 012e 9642     		.uleb128 0x2116
 4291 0130 19       		.uleb128 0x19
 4292 0131 01       		.uleb128 0x1
 4293 0132 13       		.uleb128 0x13
 4294 0133 00       		.byte	0
 4295 0134 00       		.byte	0
 4296 0135 17       		.uleb128 0x17
 4297 0136 05       		.uleb128 0x5
 4298 0137 00       		.byte	0
 4299 0138 03       		.uleb128 0x3
 4300 0139 0E       		.uleb128 0xe
 4301 013a 3A       		.uleb128 0x3a
 4302 013b 0B       		.uleb128 0xb
 4303 013c 3B       		.uleb128 0x3b
 4304 013d 05       		.uleb128 0x5
 4305 013e 49       		.uleb128 0x49
 4306 013f 13       		.uleb128 0x13
 4307 0140 02       		.uleb128 0x2
 4308 0141 18       		.uleb128 0x18
 4309 0142 00       		.byte	0
 4310 0143 00       		.byte	0
 4311 0144 18       		.uleb128 0x18
 4312 0145 34       		.uleb128 0x34
 4313 0146 00       		.byte	0
 4314 0147 03       		.uleb128 0x3
 4315 0148 0E       		.uleb128 0xe
 4316 0149 3A       		.uleb128 0x3a
 4317 014a 0B       		.uleb128 0xb
 4318 014b 3B       		.uleb128 0x3b
 4319 014c 05       		.uleb128 0x5
 4320 014d 49       		.uleb128 0x49
 4321 014e 13       		.uleb128 0x13
 4322 014f 02       		.uleb128 0x2
 4323 0150 18       		.uleb128 0x18
 4324 0151 00       		.byte	0
 4325 0152 00       		.byte	0
 4326 0153 19       		.uleb128 0x19
 4327 0154 2E       		.uleb128 0x2e
 4328 0155 01       		.byte	0x1
 4329 0156 3F       		.uleb128 0x3f
 4330 0157 19       		.uleb128 0x19
 4331 0158 03       		.uleb128 0x3
ARM GAS  C:\Users\essele\AppData\Local\Temp\ccFLOaGJ.s 			page 101


 4332 0159 0E       		.uleb128 0xe
 4333 015a 3A       		.uleb128 0x3a
 4334 015b 0B       		.uleb128 0xb
 4335 015c 3B       		.uleb128 0x3b
 4336 015d 05       		.uleb128 0x5
 4337 015e 27       		.uleb128 0x27
 4338 015f 19       		.uleb128 0x19
 4339 0160 49       		.uleb128 0x49
 4340 0161 13       		.uleb128 0x13
 4341 0162 11       		.uleb128 0x11
 4342 0163 01       		.uleb128 0x1
 4343 0164 12       		.uleb128 0x12
 4344 0165 06       		.uleb128 0x6
 4345 0166 40       		.uleb128 0x40
 4346 0167 18       		.uleb128 0x18
 4347 0168 9742     		.uleb128 0x2117
 4348 016a 19       		.uleb128 0x19
 4349 016b 01       		.uleb128 0x1
 4350 016c 13       		.uleb128 0x13
 4351 016d 00       		.byte	0
 4352 016e 00       		.byte	0
 4353 016f 1A       		.uleb128 0x1a
 4354 0170 2E       		.uleb128 0x2e
 4355 0171 00       		.byte	0
 4356 0172 3F       		.uleb128 0x3f
 4357 0173 19       		.uleb128 0x19
 4358 0174 03       		.uleb128 0x3
 4359 0175 0E       		.uleb128 0xe
 4360 0176 3A       		.uleb128 0x3a
 4361 0177 0B       		.uleb128 0xb
 4362 0178 3B       		.uleb128 0x3b
 4363 0179 05       		.uleb128 0x5
 4364 017a 27       		.uleb128 0x27
 4365 017b 19       		.uleb128 0x19
 4366 017c 49       		.uleb128 0x49
 4367 017d 13       		.uleb128 0x13
 4368 017e 11       		.uleb128 0x11
 4369 017f 01       		.uleb128 0x1
 4370 0180 12       		.uleb128 0x12
 4371 0181 06       		.uleb128 0x6
 4372 0182 40       		.uleb128 0x40
 4373 0183 18       		.uleb128 0x18
 4374 0184 9742     		.uleb128 0x2117
 4375 0186 19       		.uleb128 0x19
 4376 0187 00       		.byte	0
 4377 0188 00       		.byte	0
 4378 0189 1B       		.uleb128 0x1b
 4379 018a 2E       		.uleb128 0x2e
 4380 018b 01       		.byte	0x1
 4381 018c 3F       		.uleb128 0x3f
 4382 018d 19       		.uleb128 0x19
 4383 018e 03       		.uleb128 0x3
 4384 018f 0E       		.uleb128 0xe
 4385 0190 3A       		.uleb128 0x3a
 4386 0191 0B       		.uleb128 0xb
 4387 0192 3B       		.uleb128 0x3b
 4388 0193 05       		.uleb128 0x5
ARM GAS  C:\Users\essele\AppData\Local\Temp\ccFLOaGJ.s 			page 102


 4389 0194 27       		.uleb128 0x27
 4390 0195 19       		.uleb128 0x19
 4391 0196 49       		.uleb128 0x49
 4392 0197 13       		.uleb128 0x13
 4393 0198 11       		.uleb128 0x11
 4394 0199 01       		.uleb128 0x1
 4395 019a 12       		.uleb128 0x12
 4396 019b 06       		.uleb128 0x6
 4397 019c 40       		.uleb128 0x40
 4398 019d 18       		.uleb128 0x18
 4399 019e 9642     		.uleb128 0x2116
 4400 01a0 19       		.uleb128 0x19
 4401 01a1 01       		.uleb128 0x1
 4402 01a2 13       		.uleb128 0x13
 4403 01a3 00       		.byte	0
 4404 01a4 00       		.byte	0
 4405 01a5 1C       		.uleb128 0x1c
 4406 01a6 34       		.uleb128 0x34
 4407 01a7 00       		.byte	0
 4408 01a8 03       		.uleb128 0x3
 4409 01a9 0E       		.uleb128 0xe
 4410 01aa 3A       		.uleb128 0x3a
 4411 01ab 0B       		.uleb128 0xb
 4412 01ac 3B       		.uleb128 0x3b
 4413 01ad 05       		.uleb128 0x5
 4414 01ae 49       		.uleb128 0x49
 4415 01af 13       		.uleb128 0x13
 4416 01b0 3F       		.uleb128 0x3f
 4417 01b1 19       		.uleb128 0x19
 4418 01b2 3C       		.uleb128 0x3c
 4419 01b3 19       		.uleb128 0x19
 4420 01b4 00       		.byte	0
 4421 01b5 00       		.byte	0
 4422 01b6 1D       		.uleb128 0x1d
 4423 01b7 34       		.uleb128 0x34
 4424 01b8 00       		.byte	0
 4425 01b9 03       		.uleb128 0x3
 4426 01ba 0E       		.uleb128 0xe
 4427 01bb 3A       		.uleb128 0x3a
 4428 01bc 0B       		.uleb128 0xb
 4429 01bd 3B       		.uleb128 0x3b
 4430 01be 0B       		.uleb128 0xb
 4431 01bf 49       		.uleb128 0x49
 4432 01c0 13       		.uleb128 0x13
 4433 01c1 3F       		.uleb128 0x3f
 4434 01c2 19       		.uleb128 0x19
 4435 01c3 3C       		.uleb128 0x3c
 4436 01c4 19       		.uleb128 0x19
 4437 01c5 00       		.byte	0
 4438 01c6 00       		.byte	0
 4439 01c7 00       		.byte	0
 4440              		.section	.debug_aranges,"",%progbits
 4441 0000 74000000 		.4byte	0x74
 4442 0004 0200     		.2byte	0x2
 4443 0006 00000000 		.4byte	.Ldebug_info0
 4444 000a 04       		.byte	0x4
 4445 000b 00       		.byte	0
ARM GAS  C:\Users\essele\AppData\Local\Temp\ccFLOaGJ.s 			page 103


 4446 000c 0000     		.2byte	0
 4447 000e 0000     		.2byte	0
 4448 0010 00000000 		.4byte	.LFB1
 4449 0014 7C040000 		.4byte	.LFE1-.LFB1
 4450 0018 00000000 		.4byte	.LFB2
 4451 001c E4000000 		.4byte	.LFE2-.LFB2
 4452 0020 00000000 		.4byte	.LFB3
 4453 0024 78000000 		.4byte	.LFE3-.LFB3
 4454 0028 00000000 		.4byte	.LFB4
 4455 002c 04040000 		.4byte	.LFE4-.LFB4
 4456 0030 00000000 		.4byte	.LFB5
 4457 0034 20020000 		.4byte	.LFE5-.LFB5
 4458 0038 00000000 		.4byte	.LFB6
 4459 003c 58000000 		.4byte	.LFE6-.LFB6
 4460 0040 00000000 		.4byte	.LFB7
 4461 0044 24000000 		.4byte	.LFE7-.LFB7
 4462 0048 00000000 		.4byte	.LFB8
 4463 004c 54000000 		.4byte	.LFE8-.LFB8
 4464 0050 00000000 		.4byte	.LFB9
 4465 0054 D4000000 		.4byte	.LFE9-.LFB9
 4466 0058 00000000 		.4byte	.LFB10
 4467 005c EC000000 		.4byte	.LFE10-.LFB10
 4468 0060 00000000 		.4byte	.LFB11
 4469 0064 58010000 		.4byte	.LFE11-.LFB11
 4470 0068 00000000 		.4byte	.LFB12
 4471 006c 9C000000 		.4byte	.LFE12-.LFB12
 4472 0070 00000000 		.4byte	0
 4473 0074 00000000 		.4byte	0
 4474              		.section	.debug_ranges,"",%progbits
 4475              	.Ldebug_ranges0:
 4476 0000 00000000 		.4byte	.LFB1
 4477 0004 7C040000 		.4byte	.LFE1
 4478 0008 00000000 		.4byte	.LFB2
 4479 000c E4000000 		.4byte	.LFE2
 4480 0010 00000000 		.4byte	.LFB3
 4481 0014 78000000 		.4byte	.LFE3
 4482 0018 00000000 		.4byte	.LFB4
 4483 001c 04040000 		.4byte	.LFE4
 4484 0020 00000000 		.4byte	.LFB5
 4485 0024 20020000 		.4byte	.LFE5
 4486 0028 00000000 		.4byte	.LFB6
 4487 002c 58000000 		.4byte	.LFE6
 4488 0030 00000000 		.4byte	.LFB7
 4489 0034 24000000 		.4byte	.LFE7
 4490 0038 00000000 		.4byte	.LFB8
 4491 003c 54000000 		.4byte	.LFE8
 4492 0040 00000000 		.4byte	.LFB9
 4493 0044 D4000000 		.4byte	.LFE9
 4494 0048 00000000 		.4byte	.LFB10
 4495 004c EC000000 		.4byte	.LFE10
 4496 0050 00000000 		.4byte	.LFB11
 4497 0054 58010000 		.4byte	.LFE11
 4498 0058 00000000 		.4byte	.LFB12
 4499 005c 9C000000 		.4byte	.LFE12
 4500 0060 00000000 		.4byte	0
 4501 0064 00000000 		.4byte	0
 4502              		.section	.debug_line,"",%progbits
ARM GAS  C:\Users\essele\AppData\Local\Temp\ccFLOaGJ.s 			page 104


 4503              	.Ldebug_line0:
 4504 0000 10040000 		.section	.debug_str,"MS",%progbits,1
 4504      02006300 
 4504      00000201 
 4504      FB0E0D00 
 4504      01010101 
 4505              	.LASF37:
 4506 0000 70537461 		.ascii	"pStatusBlock\000"
 4506      74757342 
 4506      6C6F636B 
 4506      00
 4507              	.LASF35:
 4508 000d 636F756E 		.ascii	"count\000"
 4508      7400
 4509              	.LASF10:
 4510 0013 75696E74 		.ascii	"uint16\000"
 4510      313600
 4511              	.LASF111:
 4512 001a 55534254 		.ascii	"USBTMC_interfaceStatus\000"
 4512      4D435F69 
 4512      6E746572 
 4512      66616365 
 4512      53746174 
 4513              	.LASF96:
 4514 0031 55534254 		.ascii	"USBTMC_ClearEndpointHalt\000"
 4514      4D435F43 
 4514      6C656172 
 4514      456E6470 
 4514      6F696E74 
 4515              	.LASF4:
 4516 004a 6C6F6E67 		.ascii	"long int\000"
 4516      20696E74 
 4516      00
 4517              	.LASF89:
 4518 0053 636F6E66 		.ascii	"confIndex\000"
 4518      496E6465 
 4518      7800
 4519              	.LASF7:
 4520 005d 6C6F6E67 		.ascii	"long long unsigned int\000"
 4520      206C6F6E 
 4520      6720756E 
 4520      7369676E 
 4520      65642069 
 4521              	.LASF22:
 4522 0074 61646472 		.ascii	"addr\000"
 4522      00
 4523              	.LASF57:
 4524 0079 72775761 		.ascii	"rwWa16\000"
 4524      313600
 4525              	.LASF47:
 4526 0080 65704366 		.ascii	"epCfg\000"
 4526      6700
 4527              	.LASF77:
 4528 0086 55534254 		.ascii	"USBTMC_ConfigReg\000"
 4528      4D435F43 
 4528      6F6E6669 
 4528      67526567 
ARM GAS  C:\Users\essele\AppData\Local\Temp\ccFLOaGJ.s 			page 105


 4528      00
 4529              	.LASF61:
 4530 0097 72774472 		.ascii	"rwDr16\000"
 4530      313600
 4531              	.LASF94:
 4532 009e 65704E75 		.ascii	"epNumber\000"
 4532      6D626572 
 4532      00
 4533              	.LASF84:
 4534 00a7 55534254 		.ascii	"USBTMC_ConfigAltChanged\000"
 4534      4D435F43 
 4534      6F6E6669 
 4534      67416C74 
 4534      4368616E 
 4535              	.LASF66:
 4536 00bf 55534254 		.ascii	"USBTMC_arb_eps_struct\000"
 4536      4D435F61 
 4536      72625F65 
 4536      70735F73 
 4536      74727563 
 4537              	.LASF6:
 4538 00d5 6C6F6E67 		.ascii	"long long int\000"
 4538      206C6F6E 
 4538      6720696E 
 4538      7400
 4539              	.LASF0:
 4540 00e3 7369676E 		.ascii	"signed char\000"
 4540      65642063 
 4540      68617200 
 4541              	.LASF113:
 4542 00ef 55534254 		.ascii	"USBTMC_EP\000"
 4542      4D435F45 
 4542      5000
 4543              	.LASF88:
 4544 00f9 636C6561 		.ascii	"clearAltSetting\000"
 4544      72416C74 
 4544      53657474 
 4544      696E6700 
 4545              	.LASF42:
 4546 0109 55534254 		.ascii	"USBTMC_ep0_data_struct\000"
 4546      4D435F65 
 4546      70305F64 
 4546      6174615F 
 4546      73747275 
 4547              	.LASF112:
 4548 0120 55534254 		.ascii	"USBTMC_interfaceClass\000"
 4548      4D435F69 
 4548      6E746572 
 4548      66616365 
 4548      436C6173 
 4549              	.LASF116:
 4550 0136 47656E65 		.ascii	"Generated_Source\\PSoC4\\USBTMC_std.c\000"
 4550      72617465 
 4550      645F536F 
 4550      75726365 
 4550      5C50536F 
 4551              	.LASF90:
ARM GAS  C:\Users\essele\AppData\Local\Temp\ccFLOaGJ.s 			page 106


 4552 015a 55534254 		.ascii	"USBTMC_GetInterfaceClassTablePtr\000"
 4552      4D435F47 
 4552      6574496E 
 4552      74657266 
 4552      61636543 
 4553              	.LASF9:
 4554 017b 75696E74 		.ascii	"uint8\000"
 4554      3800
 4555              	.LASF31:
 4556 0181 545F5553 		.ascii	"T_USBTMC_EP_SETTINGS_BLOCK\000"
 4556      42544D43 
 4556      5F45505F 
 4556      53455454 
 4556      494E4753 
 4557              	.LASF21:
 4558 019c 6570546F 		.ascii	"epToggle\000"
 4558      67676C65 
 4558      00
 4559              	.LASF51:
 4560 01a5 72775761 		.ascii	"rwWa\000"
 4560      00
 4561              	.LASF13:
 4562 01aa 646F7562 		.ascii	"double\000"
 4562      6C6500
 4563              	.LASF49:
 4564 01b1 65705372 		.ascii	"epSr\000"
 4564      00
 4565              	.LASF107:
 4566 01b6 55534254 		.ascii	"USBTMC_interfaceNumber\000"
 4566      4D435F69 
 4566      6E746572 
 4566      66616365 
 4566      4E756D62 
 4567              	.LASF56:
 4568 01cd 55534254 		.ascii	"USBTMC_arb_ep_struct\000"
 4568      4D435F61 
 4568      72625F65 
 4568      705F7374 
 4568      72756374 
 4569              	.LASF11:
 4570 01e2 75696E74 		.ascii	"uint32\000"
 4570      333200
 4571              	.LASF106:
 4572 01e9 55534254 		.ascii	"USBTMC_STRING_DESCRIPTORS\000"
 4572      4D435F53 
 4572      5452494E 
 4572      475F4445 
 4572      53435249 
 4573              	.LASF36:
 4574 0203 70446174 		.ascii	"pData\000"
 4574      6100
 4575              	.LASF63:
 4576 0209 73696545 		.ascii	"sieEp\000"
 4576      7000
 4577              	.LASF23:
 4578 020f 65704D6F 		.ascii	"epMode\000"
 4578      646500
ARM GAS  C:\Users\essele\AppData\Local\Temp\ccFLOaGJ.s 			page 107


 4579              	.LASF81:
 4580 0216 65705479 		.ascii	"epType\000"
 4580      706500
 4581              	.LASF71:
 4582 021d 626D5265 		.ascii	"bmRequestType\000"
 4582      71756573 
 4582      74547970 
 4582      6500
 4583              	.LASF86:
 4584 022b 55534254 		.ascii	"USBTMC_HandleStandardRqst\000"
 4584      4D435F48 
 4584      616E646C 
 4584      65537461 
 4584      6E646172 
 4585              	.LASF50:
 4586 0245 72657365 		.ascii	"reserved\000"
 4586      72766564 
 4586      00
 4587              	.LASF97:
 4588 024e 55534254 		.ascii	"USBTMC_ValidateAlternateSetting\000"
 4588      4D435F56 
 4588      616C6964 
 4588      61746541 
 4588      6C746572 
 4589              	.LASF62:
 4590 026e 55534254 		.ascii	"USBTMC_arb_ep_reg16_struct\000"
 4590      4D435F61 
 4590      72625F65 
 4590      705F7265 
 4590      6731365F 
 4591              	.LASF110:
 4592 0289 55534254 		.ascii	"USBTMC_deviceAddress\000"
 4592      4D435F64 
 4592      65766963 
 4592      65416464 
 4592      72657373 
 4593              	.LASF8:
 4594 029e 756E7369 		.ascii	"unsigned int\000"
 4594      676E6564 
 4594      20696E74 
 4594      00
 4595              	.LASF75:
 4596 02ab 55534254 		.ascii	"USBTMC_tBuffer\000"
 4596      4D435F74 
 4596      42756666 
 4596      657200
 4597              	.LASF95:
 4598 02ba 55534254 		.ascii	"USBTMC_SetEndpointHalt\000"
 4598      4D435F53 
 4598      6574456E 
 4598      64706F69 
 4598      6E744861 
 4599              	.LASF5:
 4600 02d1 6C6F6E67 		.ascii	"long unsigned int\000"
 4600      20756E73 
 4600      69676E65 
 4600      6420696E 
ARM GAS  C:\Users\essele\AppData\Local\Temp\ccFLOaGJ.s 			page 108


 4600      7400
 4601              	.LASF114:
 4602 02e3 55534254 		.ascii	"USBTMC_currentTD\000"
 4602      4D435F63 
 4602      75727265 
 4602      6E745444 
 4602      00
 4603              	.LASF3:
 4604 02f4 73686F72 		.ascii	"short unsigned int\000"
 4604      7420756E 
 4604      7369676E 
 4604      65642069 
 4604      6E7400
 4605              	.LASF82:
 4606 0307 70446573 		.ascii	"pDescr\000"
 4606      637200
 4607              	.LASF79:
 4608 030e 55534254 		.ascii	"USBTMC_Config\000"
 4608      4D435F43 
 4608      6F6E6669 
 4608      6700
 4609              	.LASF91:
 4610 031c 70496E74 		.ascii	"pInterfaceClass\000"
 4610      65726661 
 4610      6365436C 
 4610      61737300 
 4611              	.LASF100:
 4612 032c 55534254 		.ascii	"USBTMC_configuration\000"
 4612      4D435F63 
 4612      6F6E6669 
 4612      67757261 
 4612      74696F6E 
 4613              	.LASF93:
 4614 0341 55534254 		.ascii	"USBTMC_TerminateEP\000"
 4614      4D435F54 
 4614      65726D69 
 4614      6E617465 
 4614      455000
 4615              	.LASF65:
 4616 0354 61726245 		.ascii	"arbEp\000"
 4616      7000
 4617              	.LASF115:
 4618 035a 474E5520 		.ascii	"GNU C11 5.4.1 20160609 (release) [ARM/embedded-5-br"
 4618      43313120 
 4618      352E342E 
 4618      31203230 
 4618      31363036 
 4619 038d 616E6368 		.ascii	"anch revision 237715] -mcpu=cortex-m0 -mthumb -g -O"
 4619      20726576 
 4619      6973696F 
 4619      6E203233 
 4619      37373135 
 4620 03c0 30202D66 		.ascii	"0 -ffunction-sections -ffat-lto-objects\000"
 4620      66756E63 
 4620      74696F6E 
 4620      2D736563 
 4620      74696F6E 
ARM GAS  C:\Users\essele\AppData\Local\Temp\ccFLOaGJ.s 			page 109


 4621              	.LASF26:
 4622 03e8 696E7465 		.ascii	"interface\000"
 4622      72666163 
 4622      6500
 4623              	.LASF15:
 4624 03f2 72656733 		.ascii	"reg32\000"
 4624      3200
 4625              	.LASF80:
 4626 03f8 63757245 		.ascii	"curEp\000"
 4626      7000
 4627              	.LASF104:
 4628 03fe 55534254 		.ascii	"USBTMC_TABLE\000"
 4628      4D435F54 
 4628      41424C45 
 4628      00
 4629              	.LASF20:
 4630 040b 68774570 		.ascii	"hwEpState\000"
 4630      53746174 
 4630      6500
 4631              	.LASF74:
 4632 0415 64657363 		.ascii	"descrLength\000"
 4632      724C656E 
 4632      67746800 
 4633              	.LASF17:
 4634 0421 73697A65 		.ascii	"sizetype\000"
 4634      74797065 
 4634      00
 4635              	.LASF16:
 4636 042a 6C6F6E67 		.ascii	"long double\000"
 4636      20646F75 
 4636      626C6500 
 4637              	.LASF40:
 4638 0436 545F5553 		.ascii	"T_USBTMC_LUT\000"
 4638      42544D43 
 4638      5F4C5554 
 4638      00
 4639              	.LASF39:
 4640 0443 705F6C69 		.ascii	"p_list\000"
 4640      737400
 4641              	.LASF83:
 4642 044a 62756666 		.ascii	"buffCount\000"
 4642      436F756E 
 4642      7400
 4643              	.LASF18:
 4644 0454 61747472 		.ascii	"attrib\000"
 4644      696200
 4645              	.LASF67:
 4646 045b 55534254 		.ascii	"USBTMC_arb_eps_reg16_struct\000"
 4646      4D435F61 
 4646      72625F65 
 4646      70735F72 
 4646      65673136 
 4647              	.LASF34:
 4648 0477 545F5553 		.ascii	"T_USBTMC_XFER_STATUS_BLOCK\000"
 4648      42544D43 
 4648      5F584645 
 4648      525F5354 
ARM GAS  C:\Users\essele\AppData\Local\Temp\ccFLOaGJ.s 			page 110


 4648      41545553 
 4649              	.LASF46:
 4650 0492 55534254 		.ascii	"USBTMC_sie_ep_struct\000"
 4650      4D435F73 
 4650      69655F65 
 4650      705F7374 
 4650      72756374 
 4651              	.LASF43:
 4652 04a7 6570436E 		.ascii	"epCnt0\000"
 4652      743000
 4653              	.LASF44:
 4654 04ae 6570436E 		.ascii	"epCnt1\000"
 4654      743100
 4655              	.LASF45:
 4656 04b5 65704372 		.ascii	"epCr0\000"
 4656      3000
 4657              	.LASF85:
 4658 04bb 696E7465 		.ascii	"interfaceNum\000"
 4658      72666163 
 4658      654E756D 
 4658      00
 4659              	.LASF118:
 4660 04c8 55534254 		.ascii	"USBTMC_GetDeviceTablePtr\000"
 4660      4D435F47 
 4660      65744465 
 4660      76696365 
 4660      5461626C 
 4661              	.LASF12:
 4662 04e1 666C6F61 		.ascii	"float\000"
 4662      7400
 4663              	.LASF19:
 4664 04e7 61706945 		.ascii	"apiEpState\000"
 4664      70537461 
 4664      746500
 4665              	.LASF70:
 4666 04f2 636F6E66 		.ascii	"configurationN\000"
 4666      69677572 
 4666      6174696F 
 4666      6E4E00
 4667              	.LASF38:
 4668 0501 545F5553 		.ascii	"T_USBTMC_TD\000"
 4668      42544D43 
 4668      5F544400 
 4669              	.LASF72:
 4670 050d 70537472 		.ascii	"pStr\000"
 4670      00
 4671              	.LASF1:
 4672 0512 756E7369 		.ascii	"unsigned char\000"
 4672      676E6564 
 4672      20636861 
 4672      7200
 4673              	.LASF59:
 4674 0520 72775261 		.ascii	"rwRa16\000"
 4674      313600
 4675              	.LASF2:
 4676 0527 73686F72 		.ascii	"short int\000"
 4676      7420696E 
ARM GAS  C:\Users\essele\AppData\Local\Temp\ccFLOaGJ.s 			page 111


 4676      7400
 4677              	.LASF53:
 4678 0531 72775261 		.ascii	"rwRa\000"
 4678      00
 4679              	.LASF52:
 4680 0536 72775761 		.ascii	"rwWaMsb\000"
 4680      4D736200 
 4681              	.LASF29:
 4682 053e 61747472 		.ascii	"attributes\000"
 4682      69627574 
 4682      657300
 4683              	.LASF103:
 4684 0549 55534254 		.ascii	"USBTMC_DEVICE0_DESCR\000"
 4684      4D435F44 
 4684      45564943 
 4684      45305F44 
 4684      45534352 
 4685              	.LASF101:
 4686 055e 55534254 		.ascii	"USBTMC_configurationChanged\000"
 4686      4D435F63 
 4686      6F6E6669 
 4686      67757261 
 4686      74696F6E 
 4687              	.LASF102:
 4688 057a 55534254 		.ascii	"USBTMC_deviceStatus\000"
 4688      4D435F64 
 4688      65766963 
 4688      65537461 
 4688      74757300 
 4689              	.LASF28:
 4690 058e 616C7453 		.ascii	"altSetting\000"
 4690      65747469 
 4690      6E6700
 4691              	.LASF14:
 4692 0599 63686172 		.ascii	"char\000"
 4692      00
 4693              	.LASF25:
 4694 059e 62756666 		.ascii	"bufferSize\000"
 4694      65725369 
 4694      7A6500
 4695              	.LASF68:
 4696 05a9 72657175 		.ascii	"requestHandled\000"
 4696      65737448 
 4696      616E646C 
 4696      656400
 4697              	.LASF92:
 4698 05b8 63757272 		.ascii	"currentInterfacesNum\000"
 4698      656E7449 
 4698      6E746572 
 4698      66616365 
 4698      734E756D 
 4699              	.LASF54:
 4700 05cd 72775261 		.ascii	"rwRaMsb\000"
 4700      4D736200 
 4701              	.LASF24:
 4702 05d5 62756666 		.ascii	"buffOffset\000"
 4702      4F666673 
ARM GAS  C:\Users\essele\AppData\Local\Temp\ccFLOaGJ.s 			page 112


 4702      657400
 4703              	.LASF69:
 4704 05e0 696E7465 		.ascii	"interfaceNumber\000"
 4704      72666163 
 4704      654E756D 
 4704      62657200 
 4705              	.LASF64:
 4706 05f0 55534254 		.ascii	"USBTMC_sie_eps_struct\000"
 4706      4D435F73 
 4706      69655F65 
 4706      70735F73 
 4706      74727563 
 4707              	.LASF33:
 4708 0606 6C656E67 		.ascii	"length\000"
 4708      746800
 4709              	.LASF78:
 4710 060d 55534254 		.ascii	"USBTMC_EpStateInit\000"
 4710      4D435F45 
 4710      70537461 
 4710      7465496E 
 4710      697400
 4711              	.LASF73:
 4712 0620 6E537472 		.ascii	"nStr\000"
 4712      00
 4713              	.LASF117:
 4714 0625 5C5C4D61 		.ascii	"\\\\Mac\\Home\\Documents\\dev\\yaugi\\GPIB USB Adap"
 4714      635C486F 
 4714      6D655C44 
 4714      6F63756D 
 4714      656E7473 
 4715 0651 7465725C 		.ascii	"ter\\GPIB USB 1.cydsn\000"
 4715      47504942 
 4715      20555342 
 4715      20312E63 
 4715      7964736E 
 4716              	.LASF32:
 4717 0666 73746174 		.ascii	"status\000"
 4717      757300
 4718              	.LASF55:
 4719 066d 72774472 		.ascii	"rwDr\000"
 4719      00
 4720              	.LASF98:
 4721 0672 63757249 		.ascii	"curInterfacesNum\000"
 4721      6E746572 
 4721      66616365 
 4721      734E756D 
 4721      00
 4722              	.LASF76:
 4723 0683 70546D70 		.ascii	"pTmp\000"
 4723      00
 4724              	.LASF87:
 4725 0688 55534254 		.ascii	"USBTMC_GetConfigTablePtr\000"
 4725      4D435F47 
 4725      6574436F 
 4725      6E666967 
 4725      5461626C 
 4726              	.LASF41:
ARM GAS  C:\Users\essele\AppData\Local\Temp\ccFLOaGJ.s 			page 113


 4727 06a1 65704461 		.ascii	"epData\000"
 4727      746100
 4728              	.LASF30:
 4729 06a8 624D6973 		.ascii	"bMisc\000"
 4729      6300
 4730              	.LASF105:
 4731 06ae 55534254 		.ascii	"USBTMC_SN_STRING_DESCRIPTOR\000"
 4731      4D435F53 
 4731      4E5F5354 
 4731      52494E47 
 4731      5F444553 
 4732              	.LASF48:
 4733 06ca 6570496E 		.ascii	"epIntEn\000"
 4733      74456E00 
 4734              	.LASF58:
 4735 06d2 72657365 		.ascii	"reserved0\000"
 4735      72766564 
 4735      3000
 4736              	.LASF60:
 4737 06dc 72657365 		.ascii	"reserved1\000"
 4737      72766564 
 4737      3100
 4738              	.LASF109:
 4739 06e6 55534254 		.ascii	"USBTMC_interfaceSettingLast\000"
 4739      4D435F69 
 4739      6E746572 
 4739      66616365 
 4739      53657474 
 4740              	.LASF99:
 4741 0702 55534254 		.ascii	"USBTMC_device\000"
 4741      4D435F64 
 4741      65766963 
 4741      6500
 4742              	.LASF108:
 4743 0710 55534254 		.ascii	"USBTMC_interfaceSetting\000"
 4743      4D435F69 
 4743      6E746572 
 4743      66616365 
 4743      53657474 
 4744              	.LASF27:
 4745 0728 545F5553 		.ascii	"T_USBTMC_EP_CTL_BLOCK\000"
 4745      42544D43 
 4745      5F45505F 
 4745      43544C5F 
 4745      424C4F43 
 4746              		.ident	"GCC: (GNU Tools for ARM Embedded Processors) 5.4.1 20160609 (release) [ARM/embedded-5-bran
