ARM GAS  C:\Users\essele\AppData\Local\Temp\ccFlKeMv.s 			page 1


   1              		.syntax unified
   2              		.cpu cortex-m0
   3              		.fpu softvfp
   4              		.eabi_attribute 20, 1
   5              		.eabi_attribute 21, 1
   6              		.eabi_attribute 23, 3
   7              		.eabi_attribute 24, 1
   8              		.eabi_attribute 25, 1
   9              		.eabi_attribute 26, 1
  10              		.eabi_attribute 30, 6
  11              		.eabi_attribute 34, 0
  12              		.eabi_attribute 18, 4
  13              		.thumb
  14              		.syntax unified
  15              		.file	"USBTMC_pm.c"
  16              		.text
  17              	.Ltext0:
  18              		.cfi_sections	.debug_frame
  19              		.bss
  20              		.align	2
  21              	USBTMC_backup:
  22 0000 000000   		.space	3
  23              		.section	.text.USBTMC_DP_ISR,"ax",%progbits
  24              		.align	2
  25              		.global	USBTMC_DP_ISR
  26              		.code	16
  27              		.thumb_func
  28              		.type	USBTMC_DP_ISR, %function
  29              	USBTMC_DP_ISR:
  30              	.LFB1:
  31              		.file 1 "Generated_Source\\PSoC4\\USBTMC_pm.c"
   1:Generated_Source\PSoC4/USBTMC_pm.c **** /***************************************************************************//**
   2:Generated_Source\PSoC4/USBTMC_pm.c **** * \file USBTMC_pm.c
   3:Generated_Source\PSoC4/USBTMC_pm.c **** * \version 3.20
   4:Generated_Source\PSoC4/USBTMC_pm.c **** *
   5:Generated_Source\PSoC4/USBTMC_pm.c **** * \brief
   6:Generated_Source\PSoC4/USBTMC_pm.c **** *  This file provides Suspend/Resume APIs implementation.
   7:Generated_Source\PSoC4/USBTMC_pm.c **** *
   8:Generated_Source\PSoC4/USBTMC_pm.c **** ********************************************************************************
   9:Generated_Source\PSoC4/USBTMC_pm.c **** * \copyright
  10:Generated_Source\PSoC4/USBTMC_pm.c **** * Copyright 2008-2016, Cypress Semiconductor Corporation.  All rights reserved.
  11:Generated_Source\PSoC4/USBTMC_pm.c **** * You may use this file only in accordance with the license, terms, conditions,
  12:Generated_Source\PSoC4/USBTMC_pm.c **** * disclaimers, and limitations in the end user license agreement accompanying
  13:Generated_Source\PSoC4/USBTMC_pm.c **** * the software package with which this file was provided.
  14:Generated_Source\PSoC4/USBTMC_pm.c **** *******************************************************************************/
  15:Generated_Source\PSoC4/USBTMC_pm.c **** 
  16:Generated_Source\PSoC4/USBTMC_pm.c **** #include "USBTMC_pvt.h"
  17:Generated_Source\PSoC4/USBTMC_pm.c **** #include "USBTMC_Dp.h"
  18:Generated_Source\PSoC4/USBTMC_pm.c **** #include "cyapicallbacks.h"
  19:Generated_Source\PSoC4/USBTMC_pm.c **** 
  20:Generated_Source\PSoC4/USBTMC_pm.c **** /***************************************
  21:Generated_Source\PSoC4/USBTMC_pm.c **** * Custom Declarations
  22:Generated_Source\PSoC4/USBTMC_pm.c **** ***************************************/
  23:Generated_Source\PSoC4/USBTMC_pm.c **** /* `#START PM_CUSTOM_DECLARATIONS` Place your declaration here */
  24:Generated_Source\PSoC4/USBTMC_pm.c **** 
  25:Generated_Source\PSoC4/USBTMC_pm.c **** /* `#END` */
  26:Generated_Source\PSoC4/USBTMC_pm.c **** 
ARM GAS  C:\Users\essele\AppData\Local\Temp\ccFlKeMv.s 			page 2


  27:Generated_Source\PSoC4/USBTMC_pm.c **** 
  28:Generated_Source\PSoC4/USBTMC_pm.c **** /***************************************
  29:Generated_Source\PSoC4/USBTMC_pm.c **** * Local data allocation
  30:Generated_Source\PSoC4/USBTMC_pm.c **** ***************************************/
  31:Generated_Source\PSoC4/USBTMC_pm.c **** 
  32:Generated_Source\PSoC4/USBTMC_pm.c **** static USBTMC_BACKUP_STRUCT  USBTMC_backup;
  33:Generated_Source\PSoC4/USBTMC_pm.c **** 
  34:Generated_Source\PSoC4/USBTMC_pm.c **** #if (USBTMC_DP_ISR_ACTIVE)
  35:Generated_Source\PSoC4/USBTMC_pm.c ****     /*******************************************************************************
  36:Generated_Source\PSoC4/USBTMC_pm.c ****     * Function Name: USBTMC_DP_ISR
  37:Generated_Source\PSoC4/USBTMC_pm.c ****     ****************************************************************************//**
  38:Generated_Source\PSoC4/USBTMC_pm.c ****     *
  39:Generated_Source\PSoC4/USBTMC_pm.c ****     *  This Interrupt Service Routine handles DP pin changes for wake-up from
  40:Generated_Source\PSoC4/USBTMC_pm.c ****     *  the sleep mode.
  41:Generated_Source\PSoC4/USBTMC_pm.c ****     *
  42:Generated_Source\PSoC4/USBTMC_pm.c ****     *******************************************************************************/
  43:Generated_Source\PSoC4/USBTMC_pm.c ****     CY_ISR(USBTMC_DP_ISR)
  44:Generated_Source\PSoC4/USBTMC_pm.c ****     {
  32              		.loc 1 44 0
  33              		.cfi_startproc
  34              		@ args = 0, pretend = 0, frame = 0
  35              		@ frame_needed = 1, uses_anonymous_args = 0
  36 0000 80B5     		push	{r7, lr}
  37              		.cfi_def_cfa_offset 8
  38              		.cfi_offset 7, -8
  39              		.cfi_offset 14, -4
  40 0002 00AF     		add	r7, sp, #0
  41              		.cfi_def_cfa_register 7
  45:Generated_Source\PSoC4/USBTMC_pm.c ****     #ifdef USBTMC_DP_ISR_ENTRY_CALLBACK
  46:Generated_Source\PSoC4/USBTMC_pm.c ****         USBTMC_DP_ISR_EntryCallback();
  47:Generated_Source\PSoC4/USBTMC_pm.c ****     #endif /* (USBTMC_DP_ISR_ENTRY_CALLBACK) */
  48:Generated_Source\PSoC4/USBTMC_pm.c **** 
  49:Generated_Source\PSoC4/USBTMC_pm.c ****         /* `#START DP_USER_CODE` Place your code here */
  50:Generated_Source\PSoC4/USBTMC_pm.c **** 
  51:Generated_Source\PSoC4/USBTMC_pm.c ****         /* `#END` */
  52:Generated_Source\PSoC4/USBTMC_pm.c **** 
  53:Generated_Source\PSoC4/USBTMC_pm.c ****         (void) USBTMC_Dp_ClearInterrupt();
  42              		.loc 1 53 0
  43 0004 FFF7FEFF 		bl	USBTMC_Dp_ClearInterrupt
  54:Generated_Source\PSoC4/USBTMC_pm.c **** 		
  55:Generated_Source\PSoC4/USBTMC_pm.c **** 	#ifdef USBTMC_DP_ISR_EXIT_CALLBACK
  56:Generated_Source\PSoC4/USBTMC_pm.c ****         USBTMC_DP_ISR_ExitCallback();
  57:Generated_Source\PSoC4/USBTMC_pm.c ****     #endif /* (USBTMC_DP_ISR_EXIT_CALLBACK) */
  58:Generated_Source\PSoC4/USBTMC_pm.c ****     }
  44              		.loc 1 58 0
  45 0008 C046     		nop
  46 000a BD46     		mov	sp, r7
  47              		@ sp needed
  48 000c 80BD     		pop	{r7, pc}
  49              		.cfi_endproc
  50              	.LFE1:
  51              		.size	USBTMC_DP_ISR, .-USBTMC_DP_ISR
  52 000e C046     		.section	.text.USBTMC_SaveConfig,"ax",%progbits
  53              		.align	2
  54              		.global	USBTMC_SaveConfig
  55              		.code	16
  56              		.thumb_func
ARM GAS  C:\Users\essele\AppData\Local\Temp\ccFlKeMv.s 			page 3


  57              		.type	USBTMC_SaveConfig, %function
  58              	USBTMC_SaveConfig:
  59              	.LFB2:
  59:Generated_Source\PSoC4/USBTMC_pm.c **** #endif /* (USBTMC_DP_ISR_ACTIVE) */
  60:Generated_Source\PSoC4/USBTMC_pm.c **** 
  61:Generated_Source\PSoC4/USBTMC_pm.c **** 
  62:Generated_Source\PSoC4/USBTMC_pm.c **** /*******************************************************************************
  63:Generated_Source\PSoC4/USBTMC_pm.c **** * Function Name: USBTMC_SaveConfig
  64:Generated_Source\PSoC4/USBTMC_pm.c **** ****************************************************************************//**
  65:Generated_Source\PSoC4/USBTMC_pm.c **** *
  66:Generated_Source\PSoC4/USBTMC_pm.c **** *  Saves the current user configuration.
  67:Generated_Source\PSoC4/USBTMC_pm.c **** *
  68:Generated_Source\PSoC4/USBTMC_pm.c **** * \reentrant
  69:Generated_Source\PSoC4/USBTMC_pm.c **** *  No.
  70:Generated_Source\PSoC4/USBTMC_pm.c **** *
  71:Generated_Source\PSoC4/USBTMC_pm.c **** *******************************************************************************/
  72:Generated_Source\PSoC4/USBTMC_pm.c **** void USBTMC_SaveConfig(void) 
  73:Generated_Source\PSoC4/USBTMC_pm.c **** {
  60              		.loc 1 73 0
  61              		.cfi_startproc
  62              		@ args = 0, pretend = 0, frame = 0
  63              		@ frame_needed = 1, uses_anonymous_args = 0
  64 0000 80B5     		push	{r7, lr}
  65              		.cfi_def_cfa_offset 8
  66              		.cfi_offset 7, -8
  67              		.cfi_offset 14, -4
  68 0002 00AF     		add	r7, sp, #0
  69              		.cfi_def_cfa_register 7
  74:Generated_Source\PSoC4/USBTMC_pm.c ****     /* Empty function added for the compatibility purpose. */
  75:Generated_Source\PSoC4/USBTMC_pm.c **** }
  70              		.loc 1 75 0
  71 0004 C046     		nop
  72 0006 BD46     		mov	sp, r7
  73              		@ sp needed
  74 0008 80BD     		pop	{r7, pc}
  75              		.cfi_endproc
  76              	.LFE2:
  77              		.size	USBTMC_SaveConfig, .-USBTMC_SaveConfig
  78              		.section	.text.USBTMC_RestoreConfig,"ax",%progbits
  79              		.align	2
  80              		.global	USBTMC_RestoreConfig
  81              		.code	16
  82              		.thumb_func
  83              		.type	USBTMC_RestoreConfig, %function
  84              	USBTMC_RestoreConfig:
  85              	.LFB3:
  76:Generated_Source\PSoC4/USBTMC_pm.c **** 
  77:Generated_Source\PSoC4/USBTMC_pm.c **** 
  78:Generated_Source\PSoC4/USBTMC_pm.c **** /*******************************************************************************
  79:Generated_Source\PSoC4/USBTMC_pm.c **** * Function Name: USBTMC_RestoreConfig
  80:Generated_Source\PSoC4/USBTMC_pm.c **** ****************************************************************************//**
  81:Generated_Source\PSoC4/USBTMC_pm.c **** *
  82:Generated_Source\PSoC4/USBTMC_pm.c **** *  Restores the current user configuration.
  83:Generated_Source\PSoC4/USBTMC_pm.c **** *
  84:Generated_Source\PSoC4/USBTMC_pm.c **** * \reentrant
  85:Generated_Source\PSoC4/USBTMC_pm.c **** *  No.
  86:Generated_Source\PSoC4/USBTMC_pm.c **** *
ARM GAS  C:\Users\essele\AppData\Local\Temp\ccFlKeMv.s 			page 4


  87:Generated_Source\PSoC4/USBTMC_pm.c **** *******************************************************************************/
  88:Generated_Source\PSoC4/USBTMC_pm.c **** void USBTMC_RestoreConfig(void) 
  89:Generated_Source\PSoC4/USBTMC_pm.c **** {
  86              		.loc 1 89 0
  87              		.cfi_startproc
  88              		@ args = 0, pretend = 0, frame = 0
  89              		@ frame_needed = 1, uses_anonymous_args = 0
  90 0000 80B5     		push	{r7, lr}
  91              		.cfi_def_cfa_offset 8
  92              		.cfi_offset 7, -8
  93              		.cfi_offset 14, -4
  94 0002 00AF     		add	r7, sp, #0
  95              		.cfi_def_cfa_register 7
  90:Generated_Source\PSoC4/USBTMC_pm.c ****     if (USBTMC_configuration != 0u)
  96              		.loc 1 90 0
  97 0004 054B     		ldr	r3, .L6
  98 0006 1B78     		ldrb	r3, [r3]
  99 0008 DBB2     		uxtb	r3, r3
 100 000a 002B     		cmp	r3, #0
 101 000c 03D0     		beq	.L5
  91:Generated_Source\PSoC4/USBTMC_pm.c ****     {
  92:Generated_Source\PSoC4/USBTMC_pm.c ****         USBTMC_ConfigReg();
 102              		.loc 1 92 0
 103 000e FFF7FEFF 		bl	USBTMC_ConfigReg
  93:Generated_Source\PSoC4/USBTMC_pm.c ****         USBTMC_EpStateInit();
 104              		.loc 1 93 0
 105 0012 FFF7FEFF 		bl	USBTMC_EpStateInit
 106              	.L5:
  94:Generated_Source\PSoC4/USBTMC_pm.c ****     }
  95:Generated_Source\PSoC4/USBTMC_pm.c **** }
 107              		.loc 1 95 0
 108 0016 C046     		nop
 109 0018 BD46     		mov	sp, r7
 110              		@ sp needed
 111 001a 80BD     		pop	{r7, pc}
 112              	.L7:
 113              		.align	2
 114              	.L6:
 115 001c 00000000 		.word	USBTMC_configuration
 116              		.cfi_endproc
 117              	.LFE3:
 118              		.size	USBTMC_RestoreConfig, .-USBTMC_RestoreConfig
 119              		.section	.text.USBTMC_Suspend,"ax",%progbits
 120              		.align	2
 121              		.global	USBTMC_Suspend
 122              		.code	16
 123              		.thumb_func
 124              		.type	USBTMC_Suspend, %function
 125              	USBTMC_Suspend:
 126              	.LFB4:
  96:Generated_Source\PSoC4/USBTMC_pm.c **** 
  97:Generated_Source\PSoC4/USBTMC_pm.c **** 
  98:Generated_Source\PSoC4/USBTMC_pm.c **** /*******************************************************************************
  99:Generated_Source\PSoC4/USBTMC_pm.c **** * Function Name: USBTMC_Suspend
 100:Generated_Source\PSoC4/USBTMC_pm.c **** ****************************************************************************//**
 101:Generated_Source\PSoC4/USBTMC_pm.c **** *
 102:Generated_Source\PSoC4/USBTMC_pm.c **** *  This function prepares the USBFS component to enter low power mode. The 
ARM GAS  C:\Users\essele\AppData\Local\Temp\ccFlKeMv.s 			page 5


 103:Generated_Source\PSoC4/USBTMC_pm.c **** *  interrupt on falling edge on Dp pin is configured to wakeup device when the 
 104:Generated_Source\PSoC4/USBTMC_pm.c **** *  host drives resume condition. The pull-up is enabled on the Dp line while 
 105:Generated_Source\PSoC4/USBTMC_pm.c **** *  device is in low power mode. The supported low power modes are Deep Sleep 
 106:Generated_Source\PSoC4/USBTMC_pm.c **** *  (PSoC 4200L) and Sleep (PSoC 3/ PSoC 5LP).
 107:Generated_Source\PSoC4/USBTMC_pm.c **** *  
 108:Generated_Source\PSoC4/USBTMC_pm.c **** *  *Note* For PSoC 4200L devices, this function should not be called before 
 109:Generated_Source\PSoC4/USBTMC_pm.c **** *  entering Sleep.
 110:Generated_Source\PSoC4/USBTMC_pm.c **** *  
 111:Generated_Source\PSoC4/USBTMC_pm.c **** *  *Note* After enter low power mode, the data which is left in the IN or OUT 
 112:Generated_Source\PSoC4/USBTMC_pm.c **** *  endpoint buffers is not restored after wakeup and lost. Therefore it should 
 113:Generated_Source\PSoC4/USBTMC_pm.c **** *  be stored in the SRAM for OUT endpoint or read by the host for IN endpoint 
 114:Generated_Source\PSoC4/USBTMC_pm.c **** *  before enter low power mode.
 115:Generated_Source\PSoC4/USBTMC_pm.c **** *
 116:Generated_Source\PSoC4/USBTMC_pm.c **** * \globalvars
 117:Generated_Source\PSoC4/USBTMC_pm.c **** *  USBTMC_backup.enable:  modified.
 118:Generated_Source\PSoC4/USBTMC_pm.c **** *
 119:Generated_Source\PSoC4/USBTMC_pm.c **** * \reentrant
 120:Generated_Source\PSoC4/USBTMC_pm.c **** *  No.
 121:Generated_Source\PSoC4/USBTMC_pm.c **** *
 122:Generated_Source\PSoC4/USBTMC_pm.c **** *******************************************************************************/
 123:Generated_Source\PSoC4/USBTMC_pm.c **** void USBTMC_Suspend(void) 
 124:Generated_Source\PSoC4/USBTMC_pm.c **** {
 127              		.loc 1 124 0
 128              		.cfi_startproc
 129              		@ args = 0, pretend = 0, frame = 8
 130              		@ frame_needed = 1, uses_anonymous_args = 0
 131 0000 90B5     		push	{r4, r7, lr}
 132              		.cfi_def_cfa_offset 12
 133              		.cfi_offset 4, -12
 134              		.cfi_offset 7, -8
 135              		.cfi_offset 14, -4
 136 0002 83B0     		sub	sp, sp, #12
 137              		.cfi_def_cfa_offset 24
 138 0004 00AF     		add	r7, sp, #0
 139              		.cfi_def_cfa_register 7
 125:Generated_Source\PSoC4/USBTMC_pm.c ****     uint8 enableInterrupts;
 126:Generated_Source\PSoC4/USBTMC_pm.c **** 
 127:Generated_Source\PSoC4/USBTMC_pm.c ****     enableInterrupts = CyEnterCriticalSection();
 140              		.loc 1 127 0
 141 0006 FC1D     		adds	r4, r7, #7
 142 0008 FFF7FEFF 		bl	CyEnterCriticalSection
 143 000c 0300     		movs	r3, r0
 144 000e 2370     		strb	r3, [r4]
 128:Generated_Source\PSoC4/USBTMC_pm.c **** 
 129:Generated_Source\PSoC4/USBTMC_pm.c ****     if (0u != (USBTMC_CR0_REG & USBTMC_CR0_ENABLE))
 145              		.loc 1 129 0
 146 0010 1A4B     		ldr	r3, .L11
 147 0012 1B68     		ldr	r3, [r3]
 148 0014 8022     		movs	r2, #128
 149 0016 1340     		ands	r3, r2
 150 0018 1CD0     		beq	.L9
 130:Generated_Source\PSoC4/USBTMC_pm.c ****     {
 131:Generated_Source\PSoC4/USBTMC_pm.c ****         /* USB block is enabled. */
 132:Generated_Source\PSoC4/USBTMC_pm.c ****         USBTMC_backup.enableState = 1u;
 151              		.loc 1 132 0
 152 001a 194B     		ldr	r3, .L11+4
 153 001c 0122     		movs	r2, #1
ARM GAS  C:\Users\essele\AppData\Local\Temp\ccFlKeMv.s 			page 6


 154 001e 1A70     		strb	r2, [r3]
 133:Generated_Source\PSoC4/USBTMC_pm.c **** 
 134:Generated_Source\PSoC4/USBTMC_pm.c ****     #if (USBTMC_EP_MANAGEMENT_DMA)
 135:Generated_Source\PSoC4/USBTMC_pm.c ****         USBTMC_Stop_DMA(USBTMC_MAX_EP);
 136:Generated_Source\PSoC4/USBTMC_pm.c ****     #endif /* (USBTMC_EP_MANAGEMENT_DMA) */
 137:Generated_Source\PSoC4/USBTMC_pm.c **** 
 138:Generated_Source\PSoC4/USBTMC_pm.c ****     #if (CY_PSOC4)
 139:Generated_Source\PSoC4/USBTMC_pm.c ****         /* Suspend enter sequence. */
 140:Generated_Source\PSoC4/USBTMC_pm.c ****         USBTMC_POWER_CTRL_REG |= (USBTMC_POWER_CTRL_SUSPEND |
 155              		.loc 1 140 0
 156 0020 184B     		ldr	r3, .L11+8
 157 0022 184A     		ldr	r2, .L11+8
 158 0024 1268     		ldr	r2, [r2]
 159 0026 0C21     		movs	r1, #12
 160 0028 0A43     		orrs	r2, r1
 161 002a 1A60     		str	r2, [r3]
 141:Generated_Source\PSoC4/USBTMC_pm.c ****                                             USBTMC_POWER_CTRL_SUSPEND_DEL);
 142:Generated_Source\PSoC4/USBTMC_pm.c **** 
 143:Generated_Source\PSoC4/USBTMC_pm.c ****         /* Store state of USB regulator and disable it. */
 144:Generated_Source\PSoC4/USBTMC_pm.c ****         USBTMC_backup.mode = (uint8)  (USBTMC_CR1_REG & USBTMC_CR1_REG_ENABLE);
 162              		.loc 1 144 0
 163 002c 164B     		ldr	r3, .L11+12
 164 002e 1B68     		ldr	r3, [r3]
 165 0030 DBB2     		uxtb	r3, r3
 166 0032 0122     		movs	r2, #1
 167 0034 1340     		ands	r3, r2
 168 0036 DAB2     		uxtb	r2, r3
 169 0038 114B     		ldr	r3, .L11+4
 170 003a 5A70     		strb	r2, [r3, #1]
 145:Generated_Source\PSoC4/USBTMC_pm.c ****         USBTMC_CR1_REG    &= (uint32) ~USBTMC_CR1_REG_ENABLE;
 171              		.loc 1 145 0
 172 003c 124B     		ldr	r3, .L11+12
 173 003e 124A     		ldr	r2, .L11+12
 174 0040 1268     		ldr	r2, [r2]
 175 0042 0121     		movs	r1, #1
 176 0044 8A43     		bics	r2, r1
 177 0046 1A60     		str	r2, [r3]
 146:Generated_Source\PSoC4/USBTMC_pm.c ****         
 147:Generated_Source\PSoC4/USBTMC_pm.c ****         /* Store SIE interrupt sources. Valid bits are 0 - 4. */
 148:Generated_Source\PSoC4/USBTMC_pm.c ****         USBTMC_backup.intrSeiMask = (uint8) USBTMC_INTR_SIE_MASK_REG;
 178              		.loc 1 148 0
 179 0048 104B     		ldr	r3, .L11+16
 180 004a 1B68     		ldr	r3, [r3]
 181 004c DAB2     		uxtb	r2, r3
 182 004e 0C4B     		ldr	r3, .L11+4
 183 0050 9A70     		strb	r2, [r3, #2]
 184 0052 02E0     		b	.L10
 185              	.L9:
 149:Generated_Source\PSoC4/USBTMC_pm.c **** 
 150:Generated_Source\PSoC4/USBTMC_pm.c ****     #else
 151:Generated_Source\PSoC4/USBTMC_pm.c ****         /* Ensure USB transmit enable is low (USB_USBIO_CR0.ten). - Manual Transmission - Disabled.
 152:Generated_Source\PSoC4/USBTMC_pm.c ****         USBTMC_USBIO_CR0_REG &= (uint8) ~USBTMC_USBIO_CR0_TEN;
 153:Generated_Source\PSoC4/USBTMC_pm.c ****         CyDelayUs(USBTMC_WAIT_REG_STABILITY_50NS);  /*~50ns delay. */
 154:Generated_Source\PSoC4/USBTMC_pm.c **** 
 155:Generated_Source\PSoC4/USBTMC_pm.c ****         /* Disable the USBIO by asserting PM.USB_CR0.fsusbio_pd_n(Inverted) and pd_pullup_hv(Invert
 156:Generated_Source\PSoC4/USBTMC_pm.c ****         USBTMC_PM_USB_CR0_REG &= (uint8) ~(USBTMC_PM_USB_CR0_PD_N |
 157:Generated_Source\PSoC4/USBTMC_pm.c ****                                                      USBTMC_PM_USB_CR0_PD_PULLUP_N);
ARM GAS  C:\Users\essele\AppData\Local\Temp\ccFlKeMv.s 			page 7


 158:Generated_Source\PSoC4/USBTMC_pm.c **** 
 159:Generated_Source\PSoC4/USBTMC_pm.c ****         /* Disable the SIE. */
 160:Generated_Source\PSoC4/USBTMC_pm.c ****         USBTMC_CR0_REG &= (uint8) ~USBTMC_CR0_ENABLE;
 161:Generated_Source\PSoC4/USBTMC_pm.c **** 
 162:Generated_Source\PSoC4/USBTMC_pm.c ****         CyDelayUs(USBTMC_WAIT_REG_STABILITY_50NS);  /* ~50ns delay. */
 163:Generated_Source\PSoC4/USBTMC_pm.c ****         /* Store mode and disable VRegulator. */
 164:Generated_Source\PSoC4/USBTMC_pm.c ****         USBTMC_backup.mode = (uint8) (USBTMC_CR1_REG & USBTMC_CR1_REG_ENABLE);
 165:Generated_Source\PSoC4/USBTMC_pm.c ****         USBTMC_CR1_REG    &= (uint8) ~USBTMC_CR1_REG_ENABLE;
 166:Generated_Source\PSoC4/USBTMC_pm.c **** 
 167:Generated_Source\PSoC4/USBTMC_pm.c ****         CyDelayUs(USBTMC_WAIT_REG_STABILITY_1US); /* min 0.5us delay required. */
 168:Generated_Source\PSoC4/USBTMC_pm.c **** 
 169:Generated_Source\PSoC4/USBTMC_pm.c ****         /* Disable the USBIO reference by setting PM.USB_CR0.fsusbio_ref_en.*/
 170:Generated_Source\PSoC4/USBTMC_pm.c ****         USBTMC_PM_USB_CR0_REG &= (uint8) ~USBTMC_PM_USB_CR0_REF_EN;
 171:Generated_Source\PSoC4/USBTMC_pm.c **** 
 172:Generated_Source\PSoC4/USBTMC_pm.c ****         /* Switch DP and DM terminals to GPIO mode and disconnect 1.5k pull-up. */
 173:Generated_Source\PSoC4/USBTMC_pm.c ****         USBTMC_USBIO_CR1_REG |= USBTMC_USBIO_CR1_IOMODE;
 174:Generated_Source\PSoC4/USBTMC_pm.c **** 
 175:Generated_Source\PSoC4/USBTMC_pm.c ****         /* Disable USBFS block. */
 176:Generated_Source\PSoC4/USBTMC_pm.c ****         /* Clear power active and standby mode templates: disable USB block. */
 177:Generated_Source\PSoC4/USBTMC_pm.c ****         USBTMC_PM_ACT_CFG_REG  &= (uint8) ~USBTMC_PM_ACT_EN_FSUSB;
 178:Generated_Source\PSoC4/USBTMC_pm.c ****         USBTMC_PM_STBY_CFG_REG &= (uint8) ~USBTMC_PM_STBY_EN_FSUSB;
 179:Generated_Source\PSoC4/USBTMC_pm.c **** 
 180:Generated_Source\PSoC4/USBTMC_pm.c ****         CyDelayUs(USBTMC_WAIT_REG_STABILITY_1US); /* min 0.5us delay required. */
 181:Generated_Source\PSoC4/USBTMC_pm.c ****     #endif /* (CY_PSOC4) */
 182:Generated_Source\PSoC4/USBTMC_pm.c ****     }
 183:Generated_Source\PSoC4/USBTMC_pm.c ****     else
 184:Generated_Source\PSoC4/USBTMC_pm.c ****     {
 185:Generated_Source\PSoC4/USBTMC_pm.c ****         USBTMC_backup.enableState = 0u;
 186              		.loc 1 185 0
 187 0054 0A4B     		ldr	r3, .L11+4
 188 0056 0022     		movs	r2, #0
 189 0058 1A70     		strb	r2, [r3]
 190              	.L10:
 186:Generated_Source\PSoC4/USBTMC_pm.c ****     }
 187:Generated_Source\PSoC4/USBTMC_pm.c **** 
 188:Generated_Source\PSoC4/USBTMC_pm.c ****     CyExitCriticalSection(enableInterrupts);
 191              		.loc 1 188 0
 192 005a FB1D     		adds	r3, r7, #7
 193 005c 1B78     		ldrb	r3, [r3]
 194 005e 1800     		movs	r0, r3
 195 0060 FFF7FEFF 		bl	CyExitCriticalSection
 189:Generated_Source\PSoC4/USBTMC_pm.c **** 
 190:Generated_Source\PSoC4/USBTMC_pm.c **** #if (USBTMC_DP_ISR_ACTIVE)
 191:Generated_Source\PSoC4/USBTMC_pm.c ****     /* Clear active mode Dp interrupt source history. */
 192:Generated_Source\PSoC4/USBTMC_pm.c ****     (void) USBTMC_Dp_ClearInterrupt();
 196              		.loc 1 192 0
 197 0064 FFF7FEFF 		bl	USBTMC_Dp_ClearInterrupt
 193:Generated_Source\PSoC4/USBTMC_pm.c ****     CyIntClearPending(USBTMC_DP_INTC_VECT_NUM);
 198              		.loc 1 193 0
 199 0068 0520     		movs	r0, #5
 200 006a FFF7FEFF 		bl	CyIntClearPending
 194:Generated_Source\PSoC4/USBTMC_pm.c **** 
 195:Generated_Source\PSoC4/USBTMC_pm.c ****     CyIntEnable      (USBTMC_DP_INTC_VECT_NUM);
 201              		.loc 1 195 0
 202 006e 0520     		movs	r0, #5
 203 0070 FFF7FEFF 		bl	CyIntEnable
 196:Generated_Source\PSoC4/USBTMC_pm.c **** #endif /* (USBTMC_DP_ISR_ACTIVE). */
ARM GAS  C:\Users\essele\AppData\Local\Temp\ccFlKeMv.s 			page 8


 197:Generated_Source\PSoC4/USBTMC_pm.c **** }
 204              		.loc 1 197 0
 205 0074 C046     		nop
 206 0076 BD46     		mov	sp, r7
 207 0078 03B0     		add	sp, sp, #12
 208              		@ sp needed
 209 007a 90BD     		pop	{r4, r7, pc}
 210              	.L12:
 211              		.align	2
 212              	.L11:
 213 007c 20002C40 		.word	1076625440
 214 0080 00000000 		.word	USBTMC_backup
 215 0084 00202C40 		.word	1076633600
 216 0088 24002C40 		.word	1076625444
 217 008c 28202C40 		.word	1076633640
 218              		.cfi_endproc
 219              	.LFE4:
 220              		.size	USBTMC_Suspend, .-USBTMC_Suspend
 221              		.section	.text.USBTMC_Resume,"ax",%progbits
 222              		.align	2
 223              		.global	USBTMC_Resume
 224              		.code	16
 225              		.thumb_func
 226              		.type	USBTMC_Resume, %function
 227              	USBTMC_Resume:
 228              	.LFB5:
 198:Generated_Source\PSoC4/USBTMC_pm.c **** 
 199:Generated_Source\PSoC4/USBTMC_pm.c **** 
 200:Generated_Source\PSoC4/USBTMC_pm.c **** /*******************************************************************************
 201:Generated_Source\PSoC4/USBTMC_pm.c **** * Function Name: USBTMC_Resume
 202:Generated_Source\PSoC4/USBTMC_pm.c **** ****************************************************************************//**
 203:Generated_Source\PSoC4/USBTMC_pm.c **** *
 204:Generated_Source\PSoC4/USBTMC_pm.c **** *  This function prepares the USBFS component for active mode operation after 
 205:Generated_Source\PSoC4/USBTMC_pm.c **** *  exit low power mode. It restores the component active mode configuration such 
 206:Generated_Source\PSoC4/USBTMC_pm.c **** *  as device address assigned previously by the host, endpoints buffer and disables 
 207:Generated_Source\PSoC4/USBTMC_pm.c **** *  interrupt on Dp pin.
 208:Generated_Source\PSoC4/USBTMC_pm.c **** *  The supported low power modes are Deep Sleep (PSoC 4200L) and Sleep 
 209:Generated_Source\PSoC4/USBTMC_pm.c **** *  (PSoC 3/ PSoC 5LP).
 210:Generated_Source\PSoC4/USBTMC_pm.c **** *  
 211:Generated_Source\PSoC4/USBTMC_pm.c **** *  *Note* For PSoC 4200L devices, this function should not be called after 
 212:Generated_Source\PSoC4/USBTMC_pm.c **** *  exiting Sleep.
 213:Generated_Source\PSoC4/USBTMC_pm.c **** *  
 214:Generated_Source\PSoC4/USBTMC_pm.c **** *  *Note* To resume communication with the host, the data endpoints must be 
 215:Generated_Source\PSoC4/USBTMC_pm.c **** *  managed: the OUT endpoints must be enabled and IN endpoints must be loaded 
 216:Generated_Source\PSoC4/USBTMC_pm.c **** *  with data. For DMA with Automatic Buffer Management, all endpoints buffers 
 217:Generated_Source\PSoC4/USBTMC_pm.c **** *  must be initialized again before making them available to the host.
 218:Generated_Source\PSoC4/USBTMC_pm.c **** *
 219:Generated_Source\PSoC4/USBTMC_pm.c **** *
 220:Generated_Source\PSoC4/USBTMC_pm.c **** * \globalvars
 221:Generated_Source\PSoC4/USBTMC_pm.c **** *  USBTMC_backup - checked.
 222:Generated_Source\PSoC4/USBTMC_pm.c **** *
 223:Generated_Source\PSoC4/USBTMC_pm.c **** * \reentrant
 224:Generated_Source\PSoC4/USBTMC_pm.c **** *  No.
 225:Generated_Source\PSoC4/USBTMC_pm.c **** *
 226:Generated_Source\PSoC4/USBTMC_pm.c **** *******************************************************************************/
 227:Generated_Source\PSoC4/USBTMC_pm.c **** void USBTMC_Resume(void) 
 228:Generated_Source\PSoC4/USBTMC_pm.c **** {
ARM GAS  C:\Users\essele\AppData\Local\Temp\ccFlKeMv.s 			page 9


 229              		.loc 1 228 0
 230              		.cfi_startproc
 231              		@ args = 0, pretend = 0, frame = 8
 232              		@ frame_needed = 1, uses_anonymous_args = 0
 233 0000 90B5     		push	{r4, r7, lr}
 234              		.cfi_def_cfa_offset 12
 235              		.cfi_offset 4, -12
 236              		.cfi_offset 7, -8
 237              		.cfi_offset 14, -4
 238 0002 83B0     		sub	sp, sp, #12
 239              		.cfi_def_cfa_offset 24
 240 0004 00AF     		add	r7, sp, #0
 241              		.cfi_def_cfa_register 7
 229:Generated_Source\PSoC4/USBTMC_pm.c ****     uint8 enableInterrupts;
 230:Generated_Source\PSoC4/USBTMC_pm.c **** 
 231:Generated_Source\PSoC4/USBTMC_pm.c ****     enableInterrupts = CyEnterCriticalSection();
 242              		.loc 1 231 0
 243 0006 FC1D     		adds	r4, r7, #7
 244 0008 FFF7FEFF 		bl	CyEnterCriticalSection
 245 000c 0300     		movs	r3, r0
 246 000e 2370     		strb	r3, [r4]
 232:Generated_Source\PSoC4/USBTMC_pm.c **** 
 233:Generated_Source\PSoC4/USBTMC_pm.c ****     if (0u != USBTMC_backup.enableState)
 247              		.loc 1 233 0
 248 0010 1D4B     		ldr	r3, .L15
 249 0012 1B78     		ldrb	r3, [r3]
 250 0014 002B     		cmp	r3, #0
 251 0016 2DD0     		beq	.L14
 234:Generated_Source\PSoC4/USBTMC_pm.c ****     {
 235:Generated_Source\PSoC4/USBTMC_pm.c ****     #if (USBTMC_DP_ISR_ACTIVE)
 236:Generated_Source\PSoC4/USBTMC_pm.c ****         CyIntDisable(USBTMC_DP_INTC_VECT_NUM);
 252              		.loc 1 236 0
 253 0018 0520     		movs	r0, #5
 254 001a FFF7FEFF 		bl	CyIntDisable
 237:Generated_Source\PSoC4/USBTMC_pm.c ****     #endif /* (USBTMC_DP_ISR_ACTIVE) */
 238:Generated_Source\PSoC4/USBTMC_pm.c **** 
 239:Generated_Source\PSoC4/USBTMC_pm.c ****     #if (CY_PSOC4)
 240:Generated_Source\PSoC4/USBTMC_pm.c ****         /* Enable clock to USB IP. */
 241:Generated_Source\PSoC4/USBTMC_pm.c ****         USBTMC_USB_CLK_EN_REG |= USBTMC_USB_CLK_CSR_CLK_EN;
 255              		.loc 1 241 0
 256 001e 1B4B     		ldr	r3, .L15+4
 257 0020 1A4A     		ldr	r2, .L15+4
 258 0022 1268     		ldr	r2, [r2]
 259 0024 0121     		movs	r1, #1
 260 0026 0A43     		orrs	r2, r1
 261 0028 1A60     		str	r2, [r3]
 242:Generated_Source\PSoC4/USBTMC_pm.c **** 
 243:Generated_Source\PSoC4/USBTMC_pm.c ****         /* Restore arbiter configuration for DMA transfers. */
 244:Generated_Source\PSoC4/USBTMC_pm.c ****         #if (USBTMC_EP_MANAGEMENT_DMA)
 245:Generated_Source\PSoC4/USBTMC_pm.c ****             #if (USBTMC_ARB_ISR_ACTIVE)
 246:Generated_Source\PSoC4/USBTMC_pm.c ****                 /* Enable ARB EP interrupt sources. */
 247:Generated_Source\PSoC4/USBTMC_pm.c ****                 USBTMC_ARB_INT_EN_REG = USBTMC_DEFAULT_ARB_INT_EN;
 248:Generated_Source\PSoC4/USBTMC_pm.c ****             #endif /* (USBTMC_EP_MANAGEMENT_DMA) */
 249:Generated_Source\PSoC4/USBTMC_pm.c **** 
 250:Generated_Source\PSoC4/USBTMC_pm.c ****             /* Configure arbiter for Manual or Auto DMA operation and clear 
 251:Generated_Source\PSoC4/USBTMC_pm.c ****             * configuration completion. 
 252:Generated_Source\PSoC4/USBTMC_pm.c ****             */
ARM GAS  C:\Users\essele\AppData\Local\Temp\ccFlKeMv.s 			page 10


 253:Generated_Source\PSoC4/USBTMC_pm.c ****             USBTMC_ARB_CFG_REG = USBTMC_DEFAULT_ARB_CFG;
 254:Generated_Source\PSoC4/USBTMC_pm.c ****         #endif /* (USBTMC_EP_MANAGEMENT_DMA) */
 255:Generated_Source\PSoC4/USBTMC_pm.c **** 
 256:Generated_Source\PSoC4/USBTMC_pm.c ****         /* Restore level (hi, lo, med) for each interrupt source. */
 257:Generated_Source\PSoC4/USBTMC_pm.c ****         USBTMC_INTR_LVL_SEL_REG = USBTMC_DEFAULT_INTR_LVL_SEL;
 262              		.loc 1 257 0
 263 002a 194B     		ldr	r3, .L15+8
 264 002c 194A     		ldr	r2, .L15+12
 265 002e 1A60     		str	r2, [r3]
 258:Generated_Source\PSoC4/USBTMC_pm.c ****         
 259:Generated_Source\PSoC4/USBTMC_pm.c ****         /* Store SIE interrupt sources. */
 260:Generated_Source\PSoC4/USBTMC_pm.c ****         USBTMC_INTR_SIE_MASK_REG = (uint32) USBTMC_backup.intrSeiMask;
 266              		.loc 1 260 0
 267 0030 194B     		ldr	r3, .L15+16
 268 0032 154A     		ldr	r2, .L15
 269 0034 9278     		ldrb	r2, [r2, #2]
 270 0036 1A60     		str	r2, [r3]
 261:Generated_Source\PSoC4/USBTMC_pm.c **** 
 262:Generated_Source\PSoC4/USBTMC_pm.c ****         /* Set EP0.CR: ACK Setup, NAK IN/OUT. */
 263:Generated_Source\PSoC4/USBTMC_pm.c ****         USBTMC_EP0_CR_REG = USBTMC_MODE_NAK_IN_OUT;
 271              		.loc 1 263 0
 272 0038 184B     		ldr	r3, .L15+20
 273 003a 0122     		movs	r2, #1
 274 003c 1A60     		str	r2, [r3]
 264:Generated_Source\PSoC4/USBTMC_pm.c **** 
 265:Generated_Source\PSoC4/USBTMC_pm.c ****         /* Restore data EP1-8 configuration. */
 266:Generated_Source\PSoC4/USBTMC_pm.c ****         USBTMC_RestoreConfig();
 275              		.loc 1 266 0
 276 003e FFF7FEFF 		bl	USBTMC_RestoreConfig
 267:Generated_Source\PSoC4/USBTMC_pm.c **** 
 268:Generated_Source\PSoC4/USBTMC_pm.c ****         /* Restore state of USB regulator and wait until it supples stable power. */
 269:Generated_Source\PSoC4/USBTMC_pm.c ****         USBTMC_CR1_REG |= USBTMC_backup.mode;
 277              		.loc 1 269 0
 278 0042 174B     		ldr	r3, .L15+24
 279 0044 164A     		ldr	r2, .L15+24
 280 0046 1268     		ldr	r2, [r2]
 281 0048 0F49     		ldr	r1, .L15
 282 004a 4978     		ldrb	r1, [r1, #1]
 283 004c 0A43     		orrs	r2, r1
 284 004e 1A60     		str	r2, [r3]
 270:Generated_Source\PSoC4/USBTMC_pm.c ****         CyDelayUs(USBTMC_WAIT_VREF_STABILITY);
 285              		.loc 1 270 0
 286 0050 0020     		movs	r0, #0
 287 0052 FFF7FEFF 		bl	CyDelayUs
 271:Generated_Source\PSoC4/USBTMC_pm.c **** 
 272:Generated_Source\PSoC4/USBTMC_pm.c ****         /* Suspend exit sequence. */
 273:Generated_Source\PSoC4/USBTMC_pm.c ****         USBTMC_POWER_CTRL_REG &= (uint32) ~USBTMC_POWER_CTRL_SUSPEND;
 288              		.loc 1 273 0
 289 0056 134B     		ldr	r3, .L15+28
 290 0058 124A     		ldr	r2, .L15+28
 291 005a 1268     		ldr	r2, [r2]
 292 005c 0421     		movs	r1, #4
 293 005e 8A43     		bics	r2, r1
 294 0060 1A60     		str	r2, [r3]
 274:Generated_Source\PSoC4/USBTMC_pm.c ****         CyDelayUs(USBTMC_WAIT_SUSPEND_DEL_DISABLE);
 295              		.loc 1 274 0
 296 0062 0220     		movs	r0, #2
ARM GAS  C:\Users\essele\AppData\Local\Temp\ccFlKeMv.s 			page 11


 297 0064 FFF7FEFF 		bl	CyDelayUs
 275:Generated_Source\PSoC4/USBTMC_pm.c ****         USBTMC_POWER_CTRL_REG &= (uint32) ~USBTMC_POWER_CTRL_SUSPEND_DEL;
 298              		.loc 1 275 0
 299 0068 0E4B     		ldr	r3, .L15+28
 300 006a 0E4A     		ldr	r2, .L15+28
 301 006c 1268     		ldr	r2, [r2]
 302 006e 0821     		movs	r1, #8
 303 0070 8A43     		bics	r2, r1
 304 0072 1A60     		str	r2, [r3]
 305              	.L14:
 276:Generated_Source\PSoC4/USBTMC_pm.c **** 
 277:Generated_Source\PSoC4/USBTMC_pm.c ****     #else
 278:Generated_Source\PSoC4/USBTMC_pm.c ****         /* Set power active and standby mode templates: enable USB block. */
 279:Generated_Source\PSoC4/USBTMC_pm.c ****         USBTMC_PM_ACT_CFG_REG  |= USBTMC_PM_ACT_EN_FSUSB;
 280:Generated_Source\PSoC4/USBTMC_pm.c ****         USBTMC_PM_STBY_CFG_REG |= USBTMC_PM_STBY_EN_FSUSB;
 281:Generated_Source\PSoC4/USBTMC_pm.c **** 
 282:Generated_Source\PSoC4/USBTMC_pm.c ****         /* Enable core clock. */
 283:Generated_Source\PSoC4/USBTMC_pm.c ****         USBTMC_USB_CLK_EN_REG |= USBTMC_USB_CLK_ENABLE;
 284:Generated_Source\PSoC4/USBTMC_pm.c **** 
 285:Generated_Source\PSoC4/USBTMC_pm.c ****         /* Enable the USBIO reference by setting PM.USB_CR0.fsusbio_ref_en.*/
 286:Generated_Source\PSoC4/USBTMC_pm.c ****         USBTMC_PM_USB_CR0_REG |= USBTMC_PM_USB_CR0_REF_EN;
 287:Generated_Source\PSoC4/USBTMC_pm.c **** 
 288:Generated_Source\PSoC4/USBTMC_pm.c ****         /* The reference is available ~40us after power restored. */
 289:Generated_Source\PSoC4/USBTMC_pm.c ****         CyDelayUs(USBTMC_WAIT_VREF_RESTORE);
 290:Generated_Source\PSoC4/USBTMC_pm.c ****         /* Restore state of USB regulator and wait until it supples stable power. */
 291:Generated_Source\PSoC4/USBTMC_pm.c ****         USBTMC_CR1_REG |= USBTMC_backup.mode;
 292:Generated_Source\PSoC4/USBTMC_pm.c ****         CyDelayUs(USBTMC_WAIT_VREF_STABILITY);   /*~50ns delay. */
 293:Generated_Source\PSoC4/USBTMC_pm.c **** 
 294:Generated_Source\PSoC4/USBTMC_pm.c ****         /* Enable USBIO. */
 295:Generated_Source\PSoC4/USBTMC_pm.c ****         USBTMC_PM_USB_CR0_REG |= USBTMC_PM_USB_CR0_PD_N;
 296:Generated_Source\PSoC4/USBTMC_pm.c ****         CyDelayUs(USBTMC_WAIT_PD_PULLUP_N_ENABLE);
 297:Generated_Source\PSoC4/USBTMC_pm.c ****         /* Set the USBIO pull-up enable. */
 298:Generated_Source\PSoC4/USBTMC_pm.c ****         USBTMC_PM_USB_CR0_REG |= USBTMC_PM_USB_CR0_PD_PULLUP_N;
 299:Generated_Source\PSoC4/USBTMC_pm.c **** 
 300:Generated_Source\PSoC4/USBTMC_pm.c ****         /* Restore arbiter configuration for DMA transfers. */
 301:Generated_Source\PSoC4/USBTMC_pm.c ****         #if (USBTMC_EP_MANAGEMENT_DMA)
 302:Generated_Source\PSoC4/USBTMC_pm.c ****             #if (USBTMC_ARB_ISR_ACTIVE)
 303:Generated_Source\PSoC4/USBTMC_pm.c ****                 /* Enable ARB EP interrupt sources. */
 304:Generated_Source\PSoC4/USBTMC_pm.c ****                 USBTMC_ARB_INT_EN_REG = USBTMC_DEFAULT_ARB_INT_EN;
 305:Generated_Source\PSoC4/USBTMC_pm.c ****             #endif /* (USBTMC_EP_MANAGEMENT_DMA) */
 306:Generated_Source\PSoC4/USBTMC_pm.c **** 
 307:Generated_Source\PSoC4/USBTMC_pm.c ****             /* Configure arbiter for Manual or Auto DMA operation and clear 
 308:Generated_Source\PSoC4/USBTMC_pm.c ****             * configuration completion. 
 309:Generated_Source\PSoC4/USBTMC_pm.c ****             */
 310:Generated_Source\PSoC4/USBTMC_pm.c ****             USBTMC_ARB_CFG_REG = USBTMC_DEFAULT_ARB_CFG;
 311:Generated_Source\PSoC4/USBTMC_pm.c ****         #endif /* (USBTMC_EP_MANAGEMENT_DMA) */
 312:Generated_Source\PSoC4/USBTMC_pm.c **** 
 313:Generated_Source\PSoC4/USBTMC_pm.c ****         /* Set EP0.CR: ACK Setup, STALL IN/OUT. */
 314:Generated_Source\PSoC4/USBTMC_pm.c ****         USBTMC_EP0_CR_REG = USBTMC_MODE_STALL_IN_OUT;
 315:Generated_Source\PSoC4/USBTMC_pm.c **** 
 316:Generated_Source\PSoC4/USBTMC_pm.c ****         /* Enable the USB IP to respond to USB traffic with the last address. */
 317:Generated_Source\PSoC4/USBTMC_pm.c ****         USBTMC_CR0_REG |= USBTMC_CR0_ENABLE;
 318:Generated_Source\PSoC4/USBTMC_pm.c ****         CyDelayCycles(USBTMC_WAIT_CR0_REG_STABILITY);
 319:Generated_Source\PSoC4/USBTMC_pm.c **** 
 320:Generated_Source\PSoC4/USBTMC_pm.c ****         /* Enable D+ pull-up and keep USB control on IO. */
 321:Generated_Source\PSoC4/USBTMC_pm.c ****         USBTMC_USBIO_CR1_REG = USBTMC_USBIO_CR1_USBPUEN;
 322:Generated_Source\PSoC4/USBTMC_pm.c **** 
ARM GAS  C:\Users\essele\AppData\Local\Temp\ccFlKeMv.s 			page 12


 323:Generated_Source\PSoC4/USBTMC_pm.c ****         /* Restore data EP1-8 configuration. */
 324:Generated_Source\PSoC4/USBTMC_pm.c ****         USBTMC_RestoreConfig();
 325:Generated_Source\PSoC4/USBTMC_pm.c ****     #endif /* (CY_PSOC4) */
 326:Generated_Source\PSoC4/USBTMC_pm.c ****     }
 327:Generated_Source\PSoC4/USBTMC_pm.c **** 
 328:Generated_Source\PSoC4/USBTMC_pm.c ****     CyExitCriticalSection(enableInterrupts);
 306              		.loc 1 328 0
 307 0074 FB1D     		adds	r3, r7, #7
 308 0076 1B78     		ldrb	r3, [r3]
 309 0078 1800     		movs	r0, r3
 310 007a FFF7FEFF 		bl	CyExitCriticalSection
 329:Generated_Source\PSoC4/USBTMC_pm.c **** }
 311              		.loc 1 329 0
 312 007e C046     		nop
 313 0080 BD46     		mov	sp, r7
 314 0082 03B0     		add	sp, sp, #12
 315              		@ sp needed
 316 0084 90BD     		pop	{r4, r7, pc}
 317              	.L16:
 318 0086 C046     		.align	2
 319              	.L15:
 320 0088 00000000 		.word	USBTMC_backup
 321 008c 74022C40 		.word	1076626036
 322 0090 30202C40 		.word	1076633648
 323 0094 18001500 		.word	1376280
 324 0098 28202C40 		.word	1076633640
 325 009c A0002C40 		.word	1076625568
 326 00a0 24002C40 		.word	1076625444
 327 00a4 00202C40 		.word	1076633600
 328              		.cfi_endproc
 329              	.LFE5:
 330              		.size	USBTMC_Resume, .-USBTMC_Resume
 331              		.text
 332              	.Letext0:
 333              		.file 2 "Generated_Source\\PSoC4\\cytypes.h"
 334              		.file 3 "Generated_Source\\PSoC4\\USBTMC.h"