ARM GAS  C:\Users\essele\AppData\Local\Temp\ccwMrTV8.s 			page 1


   1              		.syntax unified
   2              		.cpu cortex-m0
   3              		.fpu softvfp
   4              		.eabi_attribute 20, 1
   5              		.eabi_attribute 21, 1
   6              		.eabi_attribute 23, 3
   7              		.eabi_attribute 24, 1
   8              		.eabi_attribute 25, 1
   9              		.eabi_attribute 26, 1
  10              		.eabi_attribute 30, 6
  11              		.eabi_attribute 34, 0
  12              		.eabi_attribute 18, 4
  13              		.thumb
  14              		.syntax unified
  15              		.file	"USBTMC_episr.c"
  16              		.text
  17              	.Ltext0:
  18              		.cfi_sections	.debug_frame
  19              		.section	.text.USBTMC_EP_1_ISR,"ax",%progbits
  20              		.align	2
  21              		.global	USBTMC_EP_1_ISR
  22              		.code	16
  23              		.thumb_func
  24              		.type	USBTMC_EP_1_ISR, %function
  25              	USBTMC_EP_1_ISR:
  26              	.LFB1:
  27              		.file 1 "Generated_Source\\PSoC4\\USBTMC_episr.c"
   1:Generated_Source\PSoC4/USBTMC_episr.c **** /***************************************************************************//**
   2:Generated_Source\PSoC4/USBTMC_episr.c **** * \file USBTMC_episr.c
   3:Generated_Source\PSoC4/USBTMC_episr.c **** * \version 3.20
   4:Generated_Source\PSoC4/USBTMC_episr.c **** *
   5:Generated_Source\PSoC4/USBTMC_episr.c **** * \brief
   6:Generated_Source\PSoC4/USBTMC_episr.c **** *  This file contains the Data endpoint Interrupt Service Routines.
   7:Generated_Source\PSoC4/USBTMC_episr.c **** *
   8:Generated_Source\PSoC4/USBTMC_episr.c **** ********************************************************************************
   9:Generated_Source\PSoC4/USBTMC_episr.c **** * \copyright
  10:Generated_Source\PSoC4/USBTMC_episr.c **** * Copyright 2008-2016, Cypress Semiconductor Corporation.  All rights reserved.
  11:Generated_Source\PSoC4/USBTMC_episr.c **** * You may use this file only in accordance with the license, terms, conditions,
  12:Generated_Source\PSoC4/USBTMC_episr.c **** * disclaimers, and limitations in the end user license agreement accompanying
  13:Generated_Source\PSoC4/USBTMC_episr.c **** * the software package with which this file was provided.
  14:Generated_Source\PSoC4/USBTMC_episr.c **** *******************************************************************************/
  15:Generated_Source\PSoC4/USBTMC_episr.c **** 
  16:Generated_Source\PSoC4/USBTMC_episr.c **** #include "USBTMC_pvt.h"
  17:Generated_Source\PSoC4/USBTMC_episr.c **** #include "USBTMC_cydmac.h"
  18:Generated_Source\PSoC4/USBTMC_episr.c **** #include "cyapicallbacks.h"
  19:Generated_Source\PSoC4/USBTMC_episr.c **** 
  20:Generated_Source\PSoC4/USBTMC_episr.c **** 
  21:Generated_Source\PSoC4/USBTMC_episr.c **** /***************************************
  22:Generated_Source\PSoC4/USBTMC_episr.c **** * Custom Declarations
  23:Generated_Source\PSoC4/USBTMC_episr.c **** ***************************************/
  24:Generated_Source\PSoC4/USBTMC_episr.c **** /* `#START CUSTOM_DECLARATIONS` Place your declaration here */
  25:Generated_Source\PSoC4/USBTMC_episr.c **** 
  26:Generated_Source\PSoC4/USBTMC_episr.c **** /* `#END` */
  27:Generated_Source\PSoC4/USBTMC_episr.c **** 
  28:Generated_Source\PSoC4/USBTMC_episr.c **** 
  29:Generated_Source\PSoC4/USBTMC_episr.c **** #if (USBTMC_EP1_ISR_ACTIVE)
  30:Generated_Source\PSoC4/USBTMC_episr.c ****     /******************************************************************************
ARM GAS  C:\Users\essele\AppData\Local\Temp\ccwMrTV8.s 			page 2


  31:Generated_Source\PSoC4/USBTMC_episr.c ****     * Function Name: USBTMC_EP_1_ISR
  32:Generated_Source\PSoC4/USBTMC_episr.c ****     ***************************************************************************//**
  33:Generated_Source\PSoC4/USBTMC_episr.c ****     *
  34:Generated_Source\PSoC4/USBTMC_episr.c ****     *  Endpoint 1 Interrupt Service Routine
  35:Generated_Source\PSoC4/USBTMC_episr.c ****     *
  36:Generated_Source\PSoC4/USBTMC_episr.c ****     ******************************************************************************/
  37:Generated_Source\PSoC4/USBTMC_episr.c ****     CY_ISR(USBTMC_EP_1_ISR)
  38:Generated_Source\PSoC4/USBTMC_episr.c ****     {
  28              		.loc 1 38 0
  29              		.cfi_startproc
  30              		@ args = 0, pretend = 0, frame = 0
  31              		@ frame_needed = 1, uses_anonymous_args = 0
  32 0000 80B5     		push	{r7, lr}
  33              		.cfi_def_cfa_offset 8
  34              		.cfi_offset 7, -8
  35              		.cfi_offset 14, -4
  36 0002 00AF     		add	r7, sp, #0
  37              		.cfi_def_cfa_register 7
  39:Generated_Source\PSoC4/USBTMC_episr.c **** 
  40:Generated_Source\PSoC4/USBTMC_episr.c ****     #ifdef USBTMC_EP_1_ISR_ENTRY_CALLBACK
  41:Generated_Source\PSoC4/USBTMC_episr.c ****         USBTMC_EP_1_ISR_EntryCallback();
  42:Generated_Source\PSoC4/USBTMC_episr.c ****     #endif /* (USBTMC_EP_1_ISR_ENTRY_CALLBACK) */
  43:Generated_Source\PSoC4/USBTMC_episr.c **** 
  44:Generated_Source\PSoC4/USBTMC_episr.c ****         /* `#START EP1_USER_CODE` Place your code here */
  45:Generated_Source\PSoC4/USBTMC_episr.c **** 
  46:Generated_Source\PSoC4/USBTMC_episr.c ****         /* `#END` */
  47:Generated_Source\PSoC4/USBTMC_episr.c **** 
  48:Generated_Source\PSoC4/USBTMC_episr.c ****     #if (CY_PSOC3 && defined(USBTMC_ENABLE_MIDI_STREAMING) && \
  49:Generated_Source\PSoC4/USBTMC_episr.c ****         !defined(USBTMC_MAIN_SERVICE_MIDI_OUT) && USBTMC_ISR_SERVICE_MIDI_OUT)
  50:Generated_Source\PSoC4/USBTMC_episr.c ****         {
  51:Generated_Source\PSoC4/USBTMC_episr.c ****             uint8 intEn = EA;
  52:Generated_Source\PSoC4/USBTMC_episr.c ****             CyGlobalIntEnable;  /* Enable nested interrupts. */
  53:Generated_Source\PSoC4/USBTMC_episr.c ****     #endif /* (CY_PSOC3 && USBTMC_ISR_SERVICE_MIDI_OUT) */
  54:Generated_Source\PSoC4/USBTMC_episr.c ****     
  55:Generated_Source\PSoC4/USBTMC_episr.c ****         USBTMC_ClearSieEpInterruptSource(USBTMC_SIE_INT_EP1_INTR);
  38              		.loc 1 55 0
  39 0004 0D4B     		ldr	r3, .L3
  40 0006 0122     		movs	r2, #1
  41 0008 1A60     		str	r2, [r3]
  56:Generated_Source\PSoC4/USBTMC_episr.c ****             
  57:Generated_Source\PSoC4/USBTMC_episr.c ****         /* Notifies user that transfer IN or OUT transfer is completed.
  58:Generated_Source\PSoC4/USBTMC_episr.c ****         * IN endpoint: endpoint buffer can be reloaded, Host is read data.
  59:Generated_Source\PSoC4/USBTMC_episr.c ****         * OUT endpoint: data is ready to be read from endpoint buffer. 
  60:Generated_Source\PSoC4/USBTMC_episr.c ****         */
  61:Generated_Source\PSoC4/USBTMC_episr.c ****     #if (CY_PSOC4 && USBTMC_EP_MANAGEMENT_DMA_AUTO)
  62:Generated_Source\PSoC4/USBTMC_episr.c ****         if (0u != (USBTMC_EP[USBTMC_EP1].addr & USBTMC_DIR_IN))
  63:Generated_Source\PSoC4/USBTMC_episr.c ****     #endif /* (CY_PSOC4 && USBTMC_EP_MANAGEMENT_DMA_AUTO) */
  64:Generated_Source\PSoC4/USBTMC_episr.c ****         {
  65:Generated_Source\PSoC4/USBTMC_episr.c ****             /* Read CR0 register to clear SIE lock. */
  66:Generated_Source\PSoC4/USBTMC_episr.c ****             (void) USBTMC_SIE_EP_BASE.sieEp[USBTMC_EP1].epCr0;
  42              		.loc 1 66 0
  43 000a 0D4B     		ldr	r3, .L3+4
  44 000c 9B6C     		ldr	r3, [r3, #72]
  67:Generated_Source\PSoC4/USBTMC_episr.c ****             
  68:Generated_Source\PSoC4/USBTMC_episr.c ****             /* Toggle all endpoint types except ISOC. */
  69:Generated_Source\PSoC4/USBTMC_episr.c ****             if (USBTMC_GET_EP_TYPE(USBTMC_EP1) != USBTMC_EP_TYPE_ISOC)
  45              		.loc 1 69 0
ARM GAS  C:\Users\essele\AppData\Local\Temp\ccwMrTV8.s 			page 3


  46 000e 0D4B     		ldr	r3, .L3+8
  47 0010 1B7B     		ldrb	r3, [r3, #12]
  48 0012 DBB2     		uxtb	r3, r3
  49 0014 1A00     		movs	r2, r3
  50 0016 0323     		movs	r3, #3
  51 0018 1340     		ands	r3, r2
  52 001a 012B     		cmp	r3, #1
  53 001c 08D0     		beq	.L2
  70:Generated_Source\PSoC4/USBTMC_episr.c ****             {
  71:Generated_Source\PSoC4/USBTMC_episr.c ****                 USBTMC_EP[USBTMC_EP1].epToggle ^= USBTMC_EPX_CNT_DATA_TOGGLE;
  54              		.loc 1 71 0
  55 001e 094B     		ldr	r3, .L3+8
  56 0020 DB7B     		ldrb	r3, [r3, #15]
  57 0022 DBB2     		uxtb	r3, r3
  58 0024 8022     		movs	r2, #128
  59 0026 5242     		rsbs	r2, r2, #0
  60 0028 5340     		eors	r3, r2
  61 002a DAB2     		uxtb	r2, r3
  62 002c 054B     		ldr	r3, .L3+8
  63 002e DA73     		strb	r2, [r3, #15]
  64              	.L2:
  72:Generated_Source\PSoC4/USBTMC_episr.c ****             }
  73:Generated_Source\PSoC4/USBTMC_episr.c **** 
  74:Generated_Source\PSoC4/USBTMC_episr.c ****             /* EP_MANAGEMENT_DMA_AUTO (Ticket ID# 214187): For OUT endpoint this event is used to n
  75:Generated_Source\PSoC4/USBTMC_episr.c ****             * user that DMA has completed copying data from OUT endpoint which is not completely tr
  76:Generated_Source\PSoC4/USBTMC_episr.c ****             * Because last chunk of data is being copied.
  77:Generated_Source\PSoC4/USBTMC_episr.c ****             * For CY_PSOC 3/5LP: it is acceptable as DMA is really fast.
  78:Generated_Source\PSoC4/USBTMC_episr.c ****             * For CY_PSOC4: this event is set in Arbiter interrupt (source is DMA_TERMIN).
  79:Generated_Source\PSoC4/USBTMC_episr.c ****             */
  80:Generated_Source\PSoC4/USBTMC_episr.c ****             USBTMC_EP[USBTMC_EP1].apiEpState = USBTMC_EVENT_PENDING;
  65              		.loc 1 80 0
  66 0030 044B     		ldr	r3, .L3+8
  67 0032 0122     		movs	r2, #1
  68 0034 5A73     		strb	r2, [r3, #13]
  81:Generated_Source\PSoC4/USBTMC_episr.c ****         }
  82:Generated_Source\PSoC4/USBTMC_episr.c **** 
  83:Generated_Source\PSoC4/USBTMC_episr.c ****     #if (!(CY_PSOC4 && USBTMC_EP_MANAGEMENT_DMA_AUTO))
  84:Generated_Source\PSoC4/USBTMC_episr.c ****         #if (defined(USBTMC_ENABLE_MIDI_STREAMING) && \
  85:Generated_Source\PSoC4/USBTMC_episr.c ****             !defined(USBTMC_MAIN_SERVICE_MIDI_OUT) && USBTMC_ISR_SERVICE_MIDI_OUT)
  86:Generated_Source\PSoC4/USBTMC_episr.c ****             if (USBTMC_midi_out_ep == USBTMC_EP1)
  87:Generated_Source\PSoC4/USBTMC_episr.c ****             {
  88:Generated_Source\PSoC4/USBTMC_episr.c ****                 USBTMC_MIDI_OUT_Service();
  89:Generated_Source\PSoC4/USBTMC_episr.c ****             }
  90:Generated_Source\PSoC4/USBTMC_episr.c ****         #endif /* (USBTMC_ISR_SERVICE_MIDI_OUT) */
  91:Generated_Source\PSoC4/USBTMC_episr.c ****     #endif /* (!(CY_PSOC4 && USBTMC_EP_MANAGEMENT_DMA_AUTO)) */
  92:Generated_Source\PSoC4/USBTMC_episr.c ****     
  93:Generated_Source\PSoC4/USBTMC_episr.c ****         /* `#START EP1_END_USER_CODE` Place your code here */
  94:Generated_Source\PSoC4/USBTMC_episr.c **** 
  95:Generated_Source\PSoC4/USBTMC_episr.c ****         /* `#END` */
  96:Generated_Source\PSoC4/USBTMC_episr.c **** 
  97:Generated_Source\PSoC4/USBTMC_episr.c ****     #ifdef USBTMC_EP_1_ISR_EXIT_CALLBACK
  98:Generated_Source\PSoC4/USBTMC_episr.c ****         USBTMC_EP_1_ISR_ExitCallback();
  99:Generated_Source\PSoC4/USBTMC_episr.c ****     #endif /* (USBTMC_EP_1_ISR_EXIT_CALLBACK) */
 100:Generated_Source\PSoC4/USBTMC_episr.c **** 
 101:Generated_Source\PSoC4/USBTMC_episr.c ****     #if (CY_PSOC3 && defined(USBTMC_ENABLE_MIDI_STREAMING) && \
 102:Generated_Source\PSoC4/USBTMC_episr.c ****         !defined(USBTMC_MAIN_SERVICE_MIDI_OUT) && USBTMC_ISR_SERVICE_MIDI_OUT)
 103:Generated_Source\PSoC4/USBTMC_episr.c ****         
ARM GAS  C:\Users\essele\AppData\Local\Temp\ccwMrTV8.s 			page 4


 104:Generated_Source\PSoC4/USBTMC_episr.c ****             EA = intEn; /* Restore nested interrupt configuration. */
 105:Generated_Source\PSoC4/USBTMC_episr.c ****         }
 106:Generated_Source\PSoC4/USBTMC_episr.c ****     #endif /* (CY_PSOC3 && USBTMC_ISR_SERVICE_MIDI_OUT) */
 107:Generated_Source\PSoC4/USBTMC_episr.c ****     }
  69              		.loc 1 107 0
  70 0036 C046     		nop
  71 0038 BD46     		mov	sp, r7
  72              		@ sp needed
  73 003a 80BD     		pop	{r7, pc}
  74              	.L4:
  75              		.align	2
  76              	.L3:
  77 003c 2C002C40 		.word	1076625452
  78 0040 F0FF2B40 		.word	1076625392
  79 0044 00000000 		.word	USBTMC_EP
  80              		.cfi_endproc
  81              	.LFE1:
  82              		.size	USBTMC_EP_1_ISR, .-USBTMC_EP_1_ISR
  83              		.section	.text.USBTMC_EP_2_ISR,"ax",%progbits
  84              		.align	2
  85              		.global	USBTMC_EP_2_ISR
  86              		.code	16
  87              		.thumb_func
  88              		.type	USBTMC_EP_2_ISR, %function
  89              	USBTMC_EP_2_ISR:
  90              	.LFB2:
 108:Generated_Source\PSoC4/USBTMC_episr.c **** 
 109:Generated_Source\PSoC4/USBTMC_episr.c **** #endif /* (USBTMC_EP1_ISR_ACTIVE) */
 110:Generated_Source\PSoC4/USBTMC_episr.c **** 
 111:Generated_Source\PSoC4/USBTMC_episr.c **** 
 112:Generated_Source\PSoC4/USBTMC_episr.c **** #if (USBTMC_EP2_ISR_ACTIVE)
 113:Generated_Source\PSoC4/USBTMC_episr.c ****     /*******************************************************************************
 114:Generated_Source\PSoC4/USBTMC_episr.c ****     * Function Name: USBTMC_EP_2_ISR
 115:Generated_Source\PSoC4/USBTMC_episr.c ****     ****************************************************************************//**
 116:Generated_Source\PSoC4/USBTMC_episr.c ****     *
 117:Generated_Source\PSoC4/USBTMC_episr.c ****     *  Endpoint 2 Interrupt Service Routine.
 118:Generated_Source\PSoC4/USBTMC_episr.c ****     *
 119:Generated_Source\PSoC4/USBTMC_episr.c ****     *******************************************************************************/
 120:Generated_Source\PSoC4/USBTMC_episr.c ****     CY_ISR(USBTMC_EP_2_ISR)
 121:Generated_Source\PSoC4/USBTMC_episr.c ****     {
  91              		.loc 1 121 0
  92              		.cfi_startproc
  93              		@ args = 0, pretend = 0, frame = 0
  94              		@ frame_needed = 1, uses_anonymous_args = 0
  95 0000 80B5     		push	{r7, lr}
  96              		.cfi_def_cfa_offset 8
  97              		.cfi_offset 7, -8
  98              		.cfi_offset 14, -4
  99 0002 00AF     		add	r7, sp, #0
 100              		.cfi_def_cfa_register 7
 122:Generated_Source\PSoC4/USBTMC_episr.c ****     #ifdef USBTMC_EP_2_ISR_ENTRY_CALLBACK
 123:Generated_Source\PSoC4/USBTMC_episr.c ****         USBTMC_EP_2_ISR_EntryCallback();
 124:Generated_Source\PSoC4/USBTMC_episr.c ****     #endif /* (USBTMC_EP_2_ISR_ENTRY_CALLBACK) */
 125:Generated_Source\PSoC4/USBTMC_episr.c **** 
 126:Generated_Source\PSoC4/USBTMC_episr.c ****         /* `#START EP2_USER_CODE` Place your code here */
 127:Generated_Source\PSoC4/USBTMC_episr.c **** 
 128:Generated_Source\PSoC4/USBTMC_episr.c ****         /* `#END` */
ARM GAS  C:\Users\essele\AppData\Local\Temp\ccwMrTV8.s 			page 5


 129:Generated_Source\PSoC4/USBTMC_episr.c **** 
 130:Generated_Source\PSoC4/USBTMC_episr.c ****     #if (CY_PSOC3 && defined(USBTMC_ENABLE_MIDI_STREAMING) && \
 131:Generated_Source\PSoC4/USBTMC_episr.c ****         !defined(USBTMC_MAIN_SERVICE_MIDI_OUT) && USBTMC_ISR_SERVICE_MIDI_OUT)
 132:Generated_Source\PSoC4/USBTMC_episr.c ****         {
 133:Generated_Source\PSoC4/USBTMC_episr.c ****             uint8 intEn = EA;
 134:Generated_Source\PSoC4/USBTMC_episr.c ****             CyGlobalIntEnable;  /* Enable nested interrupts. */
 135:Generated_Source\PSoC4/USBTMC_episr.c ****     #endif /* (CY_PSOC3 && USBTMC_ISR_SERVICE_MIDI_OUT) */
 136:Generated_Source\PSoC4/USBTMC_episr.c **** 
 137:Generated_Source\PSoC4/USBTMC_episr.c ****         USBTMC_ClearSieEpInterruptSource(USBTMC_SIE_INT_EP2_INTR);
 101              		.loc 1 137 0
 102 0004 0E4B     		ldr	r3, .L7
 103 0006 0222     		movs	r2, #2
 104 0008 1A60     		str	r2, [r3]
 138:Generated_Source\PSoC4/USBTMC_episr.c **** 
 139:Generated_Source\PSoC4/USBTMC_episr.c ****         /* Notifies user that transfer IN or OUT transfer is completed.
 140:Generated_Source\PSoC4/USBTMC_episr.c ****         * IN endpoint: endpoint buffer can be reloaded, Host is read data.
 141:Generated_Source\PSoC4/USBTMC_episr.c ****         * OUT endpoint: data is ready to be read from endpoint buffer. 
 142:Generated_Source\PSoC4/USBTMC_episr.c ****         */
 143:Generated_Source\PSoC4/USBTMC_episr.c ****     #if (CY_PSOC4 && USBTMC_EP_MANAGEMENT_DMA_AUTO)
 144:Generated_Source\PSoC4/USBTMC_episr.c ****         if (0u != (USBTMC_EP[USBTMC_EP2].addr & USBTMC_DIR_IN))
 145:Generated_Source\PSoC4/USBTMC_episr.c ****     #endif /* (CY_PSOC4 && USBTMC_EP_MANAGEMENT_DMA_AUTO) */
 146:Generated_Source\PSoC4/USBTMC_episr.c ****         {            
 147:Generated_Source\PSoC4/USBTMC_episr.c ****             /* Read CR0 register to clear SIE lock. */
 148:Generated_Source\PSoC4/USBTMC_episr.c ****             (void) USBTMC_SIE_EP_BASE.sieEp[USBTMC_EP2].epCr0;
 105              		.loc 1 148 0
 106 000a 0E4A     		ldr	r2, .L7+4
 107 000c 8823     		movs	r3, #136
 108 000e D358     		ldr	r3, [r2, r3]
 149:Generated_Source\PSoC4/USBTMC_episr.c ****             
 150:Generated_Source\PSoC4/USBTMC_episr.c ****             /* Toggle all endpoint types except ISOC. */
 151:Generated_Source\PSoC4/USBTMC_episr.c ****             if (USBTMC_GET_EP_TYPE(USBTMC_EP2) != USBTMC_EP_TYPE_ISOC)
 109              		.loc 1 151 0
 110 0010 0D4B     		ldr	r3, .L7+8
 111 0012 1B7E     		ldrb	r3, [r3, #24]
 112 0014 DBB2     		uxtb	r3, r3
 113 0016 1A00     		movs	r2, r3
 114 0018 0323     		movs	r3, #3
 115 001a 1340     		ands	r3, r2
 116 001c 012B     		cmp	r3, #1
 117 001e 08D0     		beq	.L6
 152:Generated_Source\PSoC4/USBTMC_episr.c ****             {
 153:Generated_Source\PSoC4/USBTMC_episr.c ****                 USBTMC_EP[USBTMC_EP2].epToggle ^= USBTMC_EPX_CNT_DATA_TOGGLE;
 118              		.loc 1 153 0
 119 0020 094B     		ldr	r3, .L7+8
 120 0022 DB7E     		ldrb	r3, [r3, #27]
 121 0024 DBB2     		uxtb	r3, r3
 122 0026 8022     		movs	r2, #128
 123 0028 5242     		rsbs	r2, r2, #0
 124 002a 5340     		eors	r3, r2
 125 002c DAB2     		uxtb	r2, r3
 126 002e 064B     		ldr	r3, .L7+8
 127 0030 DA76     		strb	r2, [r3, #27]
 128              	.L6:
 154:Generated_Source\PSoC4/USBTMC_episr.c ****             }
 155:Generated_Source\PSoC4/USBTMC_episr.c **** 
 156:Generated_Source\PSoC4/USBTMC_episr.c ****             /* EP_MANAGEMENT_DMA_AUTO (Ticket ID# 214187): For OUT endpoint this event is used to n
 157:Generated_Source\PSoC4/USBTMC_episr.c ****             * user that DMA has completed copying data from OUT endpoint which is not completely tr
ARM GAS  C:\Users\essele\AppData\Local\Temp\ccwMrTV8.s 			page 6


 158:Generated_Source\PSoC4/USBTMC_episr.c ****             * Because last chunk of data is being copied.
 159:Generated_Source\PSoC4/USBTMC_episr.c ****             * For CY_PSOC 3/5LP: it is acceptable as DMA is really fast.
 160:Generated_Source\PSoC4/USBTMC_episr.c ****             * For CY_PSOC4: this event is set in Arbiter interrupt (source is DMA_TERMIN).
 161:Generated_Source\PSoC4/USBTMC_episr.c ****             */
 162:Generated_Source\PSoC4/USBTMC_episr.c ****             USBTMC_EP[USBTMC_EP2].apiEpState = USBTMC_EVENT_PENDING;
 129              		.loc 1 162 0
 130 0032 054B     		ldr	r3, .L7+8
 131 0034 0122     		movs	r2, #1
 132 0036 5A76     		strb	r2, [r3, #25]
 163:Generated_Source\PSoC4/USBTMC_episr.c ****         }
 164:Generated_Source\PSoC4/USBTMC_episr.c **** 
 165:Generated_Source\PSoC4/USBTMC_episr.c ****     #if (!(CY_PSOC4 && USBTMC_EP_MANAGEMENT_DMA_AUTO))
 166:Generated_Source\PSoC4/USBTMC_episr.c ****         #if (defined(USBTMC_ENABLE_MIDI_STREAMING) && \
 167:Generated_Source\PSoC4/USBTMC_episr.c ****             !defined(USBTMC_MAIN_SERVICE_MIDI_OUT) && USBTMC_ISR_SERVICE_MIDI_OUT)
 168:Generated_Source\PSoC4/USBTMC_episr.c ****             if (USBTMC_midi_out_ep == USBTMC_EP2)
 169:Generated_Source\PSoC4/USBTMC_episr.c ****             {
 170:Generated_Source\PSoC4/USBTMC_episr.c ****                 USBTMC_MIDI_OUT_Service();
 171:Generated_Source\PSoC4/USBTMC_episr.c ****             }
 172:Generated_Source\PSoC4/USBTMC_episr.c ****         #endif /* (USBTMC_ISR_SERVICE_MIDI_OUT) */
 173:Generated_Source\PSoC4/USBTMC_episr.c ****     #endif /* (!(CY_PSOC4 && USBTMC_EP_MANAGEMENT_DMA_AUTO)) */        
 174:Generated_Source\PSoC4/USBTMC_episr.c ****     
 175:Generated_Source\PSoC4/USBTMC_episr.c ****         /* `#START EP2_END_USER_CODE` Place your code here */
 176:Generated_Source\PSoC4/USBTMC_episr.c **** 
 177:Generated_Source\PSoC4/USBTMC_episr.c ****         /* `#END` */
 178:Generated_Source\PSoC4/USBTMC_episr.c **** 
 179:Generated_Source\PSoC4/USBTMC_episr.c ****     #ifdef USBTMC_EP_2_ISR_EXIT_CALLBACK
 180:Generated_Source\PSoC4/USBTMC_episr.c ****         USBTMC_EP_2_ISR_ExitCallback();
 181:Generated_Source\PSoC4/USBTMC_episr.c ****     #endif /* (USBTMC_EP_2_ISR_EXIT_CALLBACK) */
 182:Generated_Source\PSoC4/USBTMC_episr.c **** 
 183:Generated_Source\PSoC4/USBTMC_episr.c ****     #if (CY_PSOC3 && defined(USBTMC_ENABLE_MIDI_STREAMING) && \
 184:Generated_Source\PSoC4/USBTMC_episr.c ****         !defined(USBTMC_MAIN_SERVICE_MIDI_OUT) && USBTMC_ISR_SERVICE_MIDI_OUT)
 185:Generated_Source\PSoC4/USBTMC_episr.c ****         
 186:Generated_Source\PSoC4/USBTMC_episr.c ****             EA = intEn; /* Restore nested interrupt configuration. */
 187:Generated_Source\PSoC4/USBTMC_episr.c ****         }
 188:Generated_Source\PSoC4/USBTMC_episr.c ****     #endif /* (CY_PSOC3 && USBTMC_ISR_SERVICE_MIDI_OUT) */
 189:Generated_Source\PSoC4/USBTMC_episr.c ****     }
 133              		.loc 1 189 0
 134 0038 C046     		nop
 135 003a BD46     		mov	sp, r7
 136              		@ sp needed
 137 003c 80BD     		pop	{r7, pc}
 138              	.L8:
 139 003e C046     		.align	2
 140              	.L7:
 141 0040 2C002C40 		.word	1076625452
 142 0044 F0FF2B40 		.word	1076625392
 143 0048 00000000 		.word	USBTMC_EP
 144              		.cfi_endproc
 145              	.LFE2:
 146              		.size	USBTMC_EP_2_ISR, .-USBTMC_EP_2_ISR
 147              		.section	.text.USBTMC_EP_3_ISR,"ax",%progbits
 148              		.align	2
 149              		.global	USBTMC_EP_3_ISR
 150              		.code	16
 151              		.thumb_func
 152              		.type	USBTMC_EP_3_ISR, %function
 153              	USBTMC_EP_3_ISR:
ARM GAS  C:\Users\essele\AppData\Local\Temp\ccwMrTV8.s 			page 7


 154              	.LFB3:
 190:Generated_Source\PSoC4/USBTMC_episr.c **** #endif /* (USBTMC_EP2_ISR_ACTIVE) */
 191:Generated_Source\PSoC4/USBTMC_episr.c **** 
 192:Generated_Source\PSoC4/USBTMC_episr.c **** 
 193:Generated_Source\PSoC4/USBTMC_episr.c **** #if (USBTMC_EP3_ISR_ACTIVE)
 194:Generated_Source\PSoC4/USBTMC_episr.c ****     /*******************************************************************************
 195:Generated_Source\PSoC4/USBTMC_episr.c ****     * Function Name: USBTMC_EP_3_ISR
 196:Generated_Source\PSoC4/USBTMC_episr.c ****     ****************************************************************************//**
 197:Generated_Source\PSoC4/USBTMC_episr.c ****     *
 198:Generated_Source\PSoC4/USBTMC_episr.c ****     *  Endpoint 3 Interrupt Service Routine.
 199:Generated_Source\PSoC4/USBTMC_episr.c ****     *
 200:Generated_Source\PSoC4/USBTMC_episr.c ****     *******************************************************************************/
 201:Generated_Source\PSoC4/USBTMC_episr.c ****     CY_ISR(USBTMC_EP_3_ISR)
 202:Generated_Source\PSoC4/USBTMC_episr.c ****     {
 155              		.loc 1 202 0
 156              		.cfi_startproc
 157              		@ args = 0, pretend = 0, frame = 0
 158              		@ frame_needed = 1, uses_anonymous_args = 0
 159 0000 80B5     		push	{r7, lr}
 160              		.cfi_def_cfa_offset 8
 161              		.cfi_offset 7, -8
 162              		.cfi_offset 14, -4
 163 0002 00AF     		add	r7, sp, #0
 164              		.cfi_def_cfa_register 7
 203:Generated_Source\PSoC4/USBTMC_episr.c ****     #ifdef USBTMC_EP_3_ISR_ENTRY_CALLBACK
 204:Generated_Source\PSoC4/USBTMC_episr.c ****         USBTMC_EP_3_ISR_EntryCallback();
 205:Generated_Source\PSoC4/USBTMC_episr.c ****     #endif /* (USBTMC_EP_3_ISR_ENTRY_CALLBACK) */
 206:Generated_Source\PSoC4/USBTMC_episr.c **** 
 207:Generated_Source\PSoC4/USBTMC_episr.c ****         /* `#START EP3_USER_CODE` Place your code here */
 208:Generated_Source\PSoC4/USBTMC_episr.c **** 
 209:Generated_Source\PSoC4/USBTMC_episr.c ****         /* `#END` */
 210:Generated_Source\PSoC4/USBTMC_episr.c **** 
 211:Generated_Source\PSoC4/USBTMC_episr.c ****     #if (CY_PSOC3 && defined(USBTMC_ENABLE_MIDI_STREAMING) && \
 212:Generated_Source\PSoC4/USBTMC_episr.c ****         !defined(USBTMC_MAIN_SERVICE_MIDI_OUT) && USBTMC_ISR_SERVICE_MIDI_OUT)
 213:Generated_Source\PSoC4/USBTMC_episr.c ****         {
 214:Generated_Source\PSoC4/USBTMC_episr.c ****             uint8 intEn = EA;
 215:Generated_Source\PSoC4/USBTMC_episr.c ****             CyGlobalIntEnable;  /* Enable nested interrupts. */
 216:Generated_Source\PSoC4/USBTMC_episr.c ****     #endif /* (CY_PSOC3 && USBTMC_ISR_SERVICE_MIDI_OUT) */
 217:Generated_Source\PSoC4/USBTMC_episr.c **** 
 218:Generated_Source\PSoC4/USBTMC_episr.c ****         USBTMC_ClearSieEpInterruptSource(USBTMC_SIE_INT_EP3_INTR);    
 165              		.loc 1 218 0
 166 0004 104B     		ldr	r3, .L11
 167 0006 0422     		movs	r2, #4
 168 0008 1A60     		str	r2, [r3]
 219:Generated_Source\PSoC4/USBTMC_episr.c **** 
 220:Generated_Source\PSoC4/USBTMC_episr.c ****         /* Notifies user that transfer IN or OUT transfer is completed.
 221:Generated_Source\PSoC4/USBTMC_episr.c ****         * IN endpoint: endpoint buffer can be reloaded, Host is read data.
 222:Generated_Source\PSoC4/USBTMC_episr.c ****         * OUT endpoint: data is ready to be read from endpoint buffer. 
 223:Generated_Source\PSoC4/USBTMC_episr.c ****         */
 224:Generated_Source\PSoC4/USBTMC_episr.c ****     #if (CY_PSOC4 && USBTMC_EP_MANAGEMENT_DMA_AUTO)
 225:Generated_Source\PSoC4/USBTMC_episr.c ****         if (0u != (USBTMC_EP[USBTMC_EP3].addr & USBTMC_DIR_IN))
 226:Generated_Source\PSoC4/USBTMC_episr.c ****     #endif /* (USBTMC_EP_MANAGEMENT_DMA_AUTO) */
 227:Generated_Source\PSoC4/USBTMC_episr.c ****         {            
 228:Generated_Source\PSoC4/USBTMC_episr.c ****             /* Read CR0 register to clear SIE lock. */
 229:Generated_Source\PSoC4/USBTMC_episr.c ****             (void) USBTMC_SIE_EP_BASE.sieEp[USBTMC_EP3].epCr0;
 169              		.loc 1 229 0
 170 000a 104A     		ldr	r2, .L11+4
ARM GAS  C:\Users\essele\AppData\Local\Temp\ccwMrTV8.s 			page 8


 171 000c C823     		movs	r3, #200
 172 000e D358     		ldr	r3, [r2, r3]
 230:Generated_Source\PSoC4/USBTMC_episr.c **** 
 231:Generated_Source\PSoC4/USBTMC_episr.c ****             /* Toggle all endpoint types except ISOC. */
 232:Generated_Source\PSoC4/USBTMC_episr.c ****             if (USBTMC_GET_EP_TYPE(USBTMC_EP3) != USBTMC_EP_TYPE_ISOC)
 173              		.loc 1 232 0
 174 0010 0F4B     		ldr	r3, .L11+8
 175 0012 2422     		movs	r2, #36
 176 0014 9B5C     		ldrb	r3, [r3, r2]
 177 0016 DBB2     		uxtb	r3, r3
 178 0018 1A00     		movs	r2, r3
 179 001a 0323     		movs	r3, #3
 180 001c 1340     		ands	r3, r2
 181 001e 012B     		cmp	r3, #1
 182 0020 0AD0     		beq	.L10
 233:Generated_Source\PSoC4/USBTMC_episr.c ****             {
 234:Generated_Source\PSoC4/USBTMC_episr.c ****                 USBTMC_EP[USBTMC_EP3].epToggle ^= USBTMC_EPX_CNT_DATA_TOGGLE;
 183              		.loc 1 234 0
 184 0022 0B4B     		ldr	r3, .L11+8
 185 0024 2722     		movs	r2, #39
 186 0026 9B5C     		ldrb	r3, [r3, r2]
 187 0028 DBB2     		uxtb	r3, r3
 188 002a 8022     		movs	r2, #128
 189 002c 5242     		rsbs	r2, r2, #0
 190 002e 5340     		eors	r3, r2
 191 0030 D9B2     		uxtb	r1, r3
 192 0032 074B     		ldr	r3, .L11+8
 193 0034 2722     		movs	r2, #39
 194 0036 9954     		strb	r1, [r3, r2]
 195              	.L10:
 235:Generated_Source\PSoC4/USBTMC_episr.c ****             }
 236:Generated_Source\PSoC4/USBTMC_episr.c **** 
 237:Generated_Source\PSoC4/USBTMC_episr.c ****             /* EP_MANAGEMENT_DMA_AUTO (Ticket ID# 214187): For OUT endpoint this event is used to n
 238:Generated_Source\PSoC4/USBTMC_episr.c ****             * user that DMA has completed copying data from OUT endpoint which is not completely tr
 239:Generated_Source\PSoC4/USBTMC_episr.c ****             * Because last chunk of data is being copied.
 240:Generated_Source\PSoC4/USBTMC_episr.c ****             * For CY_PSOC 3/5LP: it is acceptable as DMA is really fast.
 241:Generated_Source\PSoC4/USBTMC_episr.c ****             * For CY_PSOC4: this event is set in Arbiter interrupt (source is DMA_TERMIN).
 242:Generated_Source\PSoC4/USBTMC_episr.c ****             */
 243:Generated_Source\PSoC4/USBTMC_episr.c ****             USBTMC_EP[USBTMC_EP3].apiEpState = USBTMC_EVENT_PENDING;
 196              		.loc 1 243 0
 197 0038 054B     		ldr	r3, .L11+8
 198 003a 2522     		movs	r2, #37
 199 003c 0121     		movs	r1, #1
 200 003e 9954     		strb	r1, [r3, r2]
 244:Generated_Source\PSoC4/USBTMC_episr.c ****         }
 245:Generated_Source\PSoC4/USBTMC_episr.c **** 
 246:Generated_Source\PSoC4/USBTMC_episr.c ****     #if (!(CY_PSOC4 && USBTMC_EP_MANAGEMENT_DMA_AUTO))
 247:Generated_Source\PSoC4/USBTMC_episr.c ****         #if (defined(USBTMC_ENABLE_MIDI_STREAMING) && \
 248:Generated_Source\PSoC4/USBTMC_episr.c ****             !defined(USBTMC_MAIN_SERVICE_MIDI_OUT) && USBTMC_ISR_SERVICE_MIDI_OUT)
 249:Generated_Source\PSoC4/USBTMC_episr.c ****             if (USBTMC_midi_out_ep == USBTMC_EP3)
 250:Generated_Source\PSoC4/USBTMC_episr.c ****             {
 251:Generated_Source\PSoC4/USBTMC_episr.c ****                 USBTMC_MIDI_OUT_Service();
 252:Generated_Source\PSoC4/USBTMC_episr.c ****             }
 253:Generated_Source\PSoC4/USBTMC_episr.c ****         #endif /* (USBTMC_ISR_SERVICE_MIDI_OUT) */
 254:Generated_Source\PSoC4/USBTMC_episr.c ****     #endif /* (!(CY_PSOC4 && USBTMC_EP_MANAGEMENT_DMA_AUTO)) */        
 255:Generated_Source\PSoC4/USBTMC_episr.c **** 
 256:Generated_Source\PSoC4/USBTMC_episr.c ****         /* `#START EP3_END_USER_CODE` Place your code here */
ARM GAS  C:\Users\essele\AppData\Local\Temp\ccwMrTV8.s 			page 9


 257:Generated_Source\PSoC4/USBTMC_episr.c **** 
 258:Generated_Source\PSoC4/USBTMC_episr.c ****         /* `#END` */
 259:Generated_Source\PSoC4/USBTMC_episr.c **** 
 260:Generated_Source\PSoC4/USBTMC_episr.c ****     #ifdef USBTMC_EP_3_ISR_EXIT_CALLBACK
 261:Generated_Source\PSoC4/USBTMC_episr.c ****         USBTMC_EP_3_ISR_ExitCallback();
 262:Generated_Source\PSoC4/USBTMC_episr.c ****     #endif /* (USBTMC_EP_3_ISR_EXIT_CALLBACK) */
 263:Generated_Source\PSoC4/USBTMC_episr.c **** 
 264:Generated_Source\PSoC4/USBTMC_episr.c ****     #if (CY_PSOC3 && defined(USBTMC_ENABLE_MIDI_STREAMING) && \
 265:Generated_Source\PSoC4/USBTMC_episr.c ****         !defined(USBTMC_MAIN_SERVICE_MIDI_OUT) && USBTMC_ISR_SERVICE_MIDI_OUT)
 266:Generated_Source\PSoC4/USBTMC_episr.c ****         
 267:Generated_Source\PSoC4/USBTMC_episr.c ****             EA = intEn; /* Restore nested interrupt configuration. */
 268:Generated_Source\PSoC4/USBTMC_episr.c ****         }
 269:Generated_Source\PSoC4/USBTMC_episr.c ****     #endif /* (CY_PSOC3 && USBTMC_ISR_SERVICE_MIDI_OUT) */
 270:Generated_Source\PSoC4/USBTMC_episr.c ****     }
 201              		.loc 1 270 0
 202 0040 C046     		nop
 203 0042 BD46     		mov	sp, r7
 204              		@ sp needed
 205 0044 80BD     		pop	{r7, pc}
 206              	.L12:
 207 0046 C046     		.align	2
 208              	.L11:
 209 0048 2C002C40 		.word	1076625452
 210 004c F0FF2B40 		.word	1076625392
 211 0050 00000000 		.word	USBTMC_EP
 212              		.cfi_endproc
 213              	.LFE3:
 214              		.size	USBTMC_EP_3_ISR, .-USBTMC_EP_3_ISR
 215              		.section	.text.USBTMC_BUS_RESET_ISR,"ax",%progbits
 216              		.align	2
 217              		.global	USBTMC_BUS_RESET_ISR
 218              		.code	16
 219              		.thumb_func
 220              		.type	USBTMC_BUS_RESET_ISR, %function
 221              	USBTMC_BUS_RESET_ISR:
 222              	.LFB4:
 271:Generated_Source\PSoC4/USBTMC_episr.c **** #endif /* (USBTMC_EP3_ISR_ACTIVE) */
 272:Generated_Source\PSoC4/USBTMC_episr.c **** 
 273:Generated_Source\PSoC4/USBTMC_episr.c **** 
 274:Generated_Source\PSoC4/USBTMC_episr.c **** #if (USBTMC_EP4_ISR_ACTIVE)
 275:Generated_Source\PSoC4/USBTMC_episr.c ****     /*******************************************************************************
 276:Generated_Source\PSoC4/USBTMC_episr.c ****     * Function Name: USBTMC_EP_4_ISR
 277:Generated_Source\PSoC4/USBTMC_episr.c ****     ****************************************************************************//**
 278:Generated_Source\PSoC4/USBTMC_episr.c ****     *
 279:Generated_Source\PSoC4/USBTMC_episr.c ****     *  Endpoint 4 Interrupt Service Routine.
 280:Generated_Source\PSoC4/USBTMC_episr.c ****     *
 281:Generated_Source\PSoC4/USBTMC_episr.c ****     *******************************************************************************/
 282:Generated_Source\PSoC4/USBTMC_episr.c ****     CY_ISR(USBTMC_EP_4_ISR)
 283:Generated_Source\PSoC4/USBTMC_episr.c ****     {
 284:Generated_Source\PSoC4/USBTMC_episr.c ****     #ifdef USBTMC_EP_4_ISR_ENTRY_CALLBACK
 285:Generated_Source\PSoC4/USBTMC_episr.c ****         USBTMC_EP_4_ISR_EntryCallback();
 286:Generated_Source\PSoC4/USBTMC_episr.c ****     #endif /* (USBTMC_EP_4_ISR_ENTRY_CALLBACK) */
 287:Generated_Source\PSoC4/USBTMC_episr.c **** 
 288:Generated_Source\PSoC4/USBTMC_episr.c ****         /* `#START EP4_USER_CODE` Place your code here */
 289:Generated_Source\PSoC4/USBTMC_episr.c **** 
 290:Generated_Source\PSoC4/USBTMC_episr.c ****         /* `#END` */
 291:Generated_Source\PSoC4/USBTMC_episr.c **** 
ARM GAS  C:\Users\essele\AppData\Local\Temp\ccwMrTV8.s 			page 10


 292:Generated_Source\PSoC4/USBTMC_episr.c ****     #if (CY_PSOC3 && defined(USBTMC_ENABLE_MIDI_STREAMING) && \
 293:Generated_Source\PSoC4/USBTMC_episr.c ****         !defined(USBTMC_MAIN_SERVICE_MIDI_OUT) && USBTMC_ISR_SERVICE_MIDI_OUT)
 294:Generated_Source\PSoC4/USBTMC_episr.c ****         {
 295:Generated_Source\PSoC4/USBTMC_episr.c ****             uint8 intEn = EA;
 296:Generated_Source\PSoC4/USBTMC_episr.c ****             CyGlobalIntEnable;  /* Enable nested interrupts. */
 297:Generated_Source\PSoC4/USBTMC_episr.c ****     #endif /* (CY_PSOC3 && USBTMC_ISR_SERVICE_MIDI_OUT) */
 298:Generated_Source\PSoC4/USBTMC_episr.c **** 
 299:Generated_Source\PSoC4/USBTMC_episr.c ****         USBTMC_ClearSieEpInterruptSource(USBTMC_SIE_INT_EP4_INTR);
 300:Generated_Source\PSoC4/USBTMC_episr.c ****         
 301:Generated_Source\PSoC4/USBTMC_episr.c ****         /* Notifies user that transfer IN or OUT transfer is completed.
 302:Generated_Source\PSoC4/USBTMC_episr.c ****         * IN endpoint: endpoint buffer can be reloaded, Host is read data.
 303:Generated_Source\PSoC4/USBTMC_episr.c ****         * OUT endpoint: data is ready to read from endpoint buffer. 
 304:Generated_Source\PSoC4/USBTMC_episr.c ****         */
 305:Generated_Source\PSoC4/USBTMC_episr.c ****     #if (CY_PSOC4 && USBTMC_EP_MANAGEMENT_DMA_AUTO)
 306:Generated_Source\PSoC4/USBTMC_episr.c ****         if (0u != (USBTMC_EP[USBTMC_EP4].addr & USBTMC_DIR_IN))
 307:Generated_Source\PSoC4/USBTMC_episr.c ****     #endif /* (USBTMC_EP_MANAGEMENT_DMA_AUTO) */
 308:Generated_Source\PSoC4/USBTMC_episr.c ****         {
 309:Generated_Source\PSoC4/USBTMC_episr.c ****             /* Read CR0 register to clear SIE lock. */
 310:Generated_Source\PSoC4/USBTMC_episr.c ****             (void) USBTMC_SIE_EP_BASE.sieEp[USBTMC_EP4].epCr0;
 311:Generated_Source\PSoC4/USBTMC_episr.c **** 
 312:Generated_Source\PSoC4/USBTMC_episr.c ****             /* Toggle all endpoint types except ISOC. */
 313:Generated_Source\PSoC4/USBTMC_episr.c ****             if (USBTMC_GET_EP_TYPE(USBTMC_EP4) != USBTMC_EP_TYPE_ISOC)
 314:Generated_Source\PSoC4/USBTMC_episr.c ****             {
 315:Generated_Source\PSoC4/USBTMC_episr.c ****                 USBTMC_EP[USBTMC_EP4].epToggle ^= USBTMC_EPX_CNT_DATA_TOGGLE;
 316:Generated_Source\PSoC4/USBTMC_episr.c ****             }
 317:Generated_Source\PSoC4/USBTMC_episr.c **** 
 318:Generated_Source\PSoC4/USBTMC_episr.c ****             /* EP_MANAGEMENT_DMA_AUTO (Ticket ID# 214187): For OUT endpoint this event is used to n
 319:Generated_Source\PSoC4/USBTMC_episr.c ****             * user that DMA has completed copying data from OUT endpoint which is not completely tr
 320:Generated_Source\PSoC4/USBTMC_episr.c ****             * Because last chunk of data is being copied.
 321:Generated_Source\PSoC4/USBTMC_episr.c ****             * For CY_PSOC 3/5LP: it is acceptable as DMA is really fast.
 322:Generated_Source\PSoC4/USBTMC_episr.c ****             * For CY_PSOC4: this event is set in Arbiter interrupt (source is DMA_TERMIN).
 323:Generated_Source\PSoC4/USBTMC_episr.c ****             */
 324:Generated_Source\PSoC4/USBTMC_episr.c ****             USBTMC_EP[USBTMC_EP4].apiEpState = USBTMC_EVENT_PENDING;
 325:Generated_Source\PSoC4/USBTMC_episr.c ****         }
 326:Generated_Source\PSoC4/USBTMC_episr.c **** 
 327:Generated_Source\PSoC4/USBTMC_episr.c ****     #if (!(CY_PSOC4 && USBTMC_EP_MANAGEMENT_DMA_AUTO))
 328:Generated_Source\PSoC4/USBTMC_episr.c ****         #if (defined(USBTMC_ENABLE_MIDI_STREAMING) && \
 329:Generated_Source\PSoC4/USBTMC_episr.c ****             !defined(USBTMC_MAIN_SERVICE_MIDI_OUT) && USBTMC_ISR_SERVICE_MIDI_OUT)
 330:Generated_Source\PSoC4/USBTMC_episr.c ****             if(USBTMC_midi_out_ep == USBTMC_EP4)
 331:Generated_Source\PSoC4/USBTMC_episr.c ****             {
 332:Generated_Source\PSoC4/USBTMC_episr.c ****                 USBTMC_MIDI_OUT_Service();
 333:Generated_Source\PSoC4/USBTMC_episr.c ****             }
 334:Generated_Source\PSoC4/USBTMC_episr.c ****         #endif /* (USBTMC_ISR_SERVICE_MIDI_OUT) */
 335:Generated_Source\PSoC4/USBTMC_episr.c ****     #endif /* (!(CY_PSOC4 && USBTMC_EP_MANAGEMENT_DMA_AUTO)) */        
 336:Generated_Source\PSoC4/USBTMC_episr.c **** 
 337:Generated_Source\PSoC4/USBTMC_episr.c ****         /* `#START EP4_END_USER_CODE` Place your code here */
 338:Generated_Source\PSoC4/USBTMC_episr.c **** 
 339:Generated_Source\PSoC4/USBTMC_episr.c ****         /* `#END` */
 340:Generated_Source\PSoC4/USBTMC_episr.c **** 
 341:Generated_Source\PSoC4/USBTMC_episr.c ****     #ifdef USBTMC_EP_4_ISR_EXIT_CALLBACK
 342:Generated_Source\PSoC4/USBTMC_episr.c ****         USBTMC_EP_4_ISR_ExitCallback();
 343:Generated_Source\PSoC4/USBTMC_episr.c ****     #endif /* (USBTMC_EP_4_ISR_EXIT_CALLBACK) */
 344:Generated_Source\PSoC4/USBTMC_episr.c **** 
 345:Generated_Source\PSoC4/USBTMC_episr.c ****     #if (CY_PSOC3 && defined(USBTMC_ENABLE_MIDI_STREAMING) && \
 346:Generated_Source\PSoC4/USBTMC_episr.c ****         !defined(USBTMC_MAIN_SERVICE_MIDI_OUT) && USBTMC_ISR_SERVICE_MIDI_OUT)
 347:Generated_Source\PSoC4/USBTMC_episr.c ****         
 348:Generated_Source\PSoC4/USBTMC_episr.c ****             EA = intEn; /* Restore nested interrupt configuration. */
ARM GAS  C:\Users\essele\AppData\Local\Temp\ccwMrTV8.s 			page 11


 349:Generated_Source\PSoC4/USBTMC_episr.c ****         }
 350:Generated_Source\PSoC4/USBTMC_episr.c ****     #endif /* (CY_PSOC3 && USBTMC_ISR_SERVICE_MIDI_OUT) */
 351:Generated_Source\PSoC4/USBTMC_episr.c ****     }
 352:Generated_Source\PSoC4/USBTMC_episr.c **** #endif /* (USBTMC_EP4_ISR_ACTIVE) */
 353:Generated_Source\PSoC4/USBTMC_episr.c **** 
 354:Generated_Source\PSoC4/USBTMC_episr.c **** 
 355:Generated_Source\PSoC4/USBTMC_episr.c **** #if (USBTMC_EP5_ISR_ACTIVE)
 356:Generated_Source\PSoC4/USBTMC_episr.c ****     /*******************************************************************************
 357:Generated_Source\PSoC4/USBTMC_episr.c ****     * Function Name: USBTMC_EP_5_ISR
 358:Generated_Source\PSoC4/USBTMC_episr.c ****     ****************************************************************************//**
 359:Generated_Source\PSoC4/USBTMC_episr.c ****     *
 360:Generated_Source\PSoC4/USBTMC_episr.c ****     *  Endpoint 5 Interrupt Service Routine
 361:Generated_Source\PSoC4/USBTMC_episr.c ****     *
 362:Generated_Source\PSoC4/USBTMC_episr.c ****     *
 363:Generated_Source\PSoC4/USBTMC_episr.c ****     *******************************************************************************/
 364:Generated_Source\PSoC4/USBTMC_episr.c ****     CY_ISR(USBTMC_EP_5_ISR)
 365:Generated_Source\PSoC4/USBTMC_episr.c ****     {
 366:Generated_Source\PSoC4/USBTMC_episr.c ****     #ifdef USBTMC_EP_5_ISR_ENTRY_CALLBACK
 367:Generated_Source\PSoC4/USBTMC_episr.c ****         USBTMC_EP_5_ISR_EntryCallback();
 368:Generated_Source\PSoC4/USBTMC_episr.c ****     #endif /* (USBTMC_EP_5_ISR_ENTRY_CALLBACK) */
 369:Generated_Source\PSoC4/USBTMC_episr.c **** 
 370:Generated_Source\PSoC4/USBTMC_episr.c ****         /* `#START EP5_USER_CODE` Place your code here */
 371:Generated_Source\PSoC4/USBTMC_episr.c **** 
 372:Generated_Source\PSoC4/USBTMC_episr.c ****         /* `#END` */
 373:Generated_Source\PSoC4/USBTMC_episr.c **** 
 374:Generated_Source\PSoC4/USBTMC_episr.c ****     #if (defined(USBTMC_ENABLE_MIDI_STREAMING) && !defined(USBTMC_MAIN_SERVICE_MIDI_OUT) && \
 375:Generated_Source\PSoC4/USBTMC_episr.c ****                  USBTMC_ISR_SERVICE_MIDI_OUT && CY_PSOC3)
 376:Generated_Source\PSoC4/USBTMC_episr.c ****         {
 377:Generated_Source\PSoC4/USBTMC_episr.c ****             uint8 intEn = EA;
 378:Generated_Source\PSoC4/USBTMC_episr.c ****             CyGlobalIntEnable;  /* Enable nested interrupts. */
 379:Generated_Source\PSoC4/USBTMC_episr.c ****     #endif /* (CY_PSOC3 && USBTMC_ISR_SERVICE_MIDI_OUT) */
 380:Generated_Source\PSoC4/USBTMC_episr.c **** 
 381:Generated_Source\PSoC4/USBTMC_episr.c ****         USBTMC_ClearSieEpInterruptSource(USBTMC_SIE_INT_EP5_INTR);
 382:Generated_Source\PSoC4/USBTMC_episr.c ****     
 383:Generated_Source\PSoC4/USBTMC_episr.c ****         /* Notifies user that transfer IN or OUT transfer is completed.
 384:Generated_Source\PSoC4/USBTMC_episr.c ****         * IN endpoint: endpoint buffer can be reloaded, Host is read data.
 385:Generated_Source\PSoC4/USBTMC_episr.c ****         * OUT endpoint: data is ready to read from endpoint buffer. 
 386:Generated_Source\PSoC4/USBTMC_episr.c ****         */
 387:Generated_Source\PSoC4/USBTMC_episr.c ****     #if (CY_PSOC4 && USBTMC_EP_MANAGEMENT_DMA_AUTO)
 388:Generated_Source\PSoC4/USBTMC_episr.c ****         if (0u != (USBTMC_EP[USBTMC_EP5].addr & USBTMC_DIR_IN))
 389:Generated_Source\PSoC4/USBTMC_episr.c ****     #endif /* (USBTMC_EP_MANAGEMENT_DMA_AUTO) */
 390:Generated_Source\PSoC4/USBTMC_episr.c ****         {            
 391:Generated_Source\PSoC4/USBTMC_episr.c ****             /* Read CR0 register to clear SIE lock. */
 392:Generated_Source\PSoC4/USBTMC_episr.c ****             (void) USBTMC_SIE_EP_BASE.sieEp[USBTMC_EP5].epCr0;
 393:Generated_Source\PSoC4/USBTMC_episr.c **** 
 394:Generated_Source\PSoC4/USBTMC_episr.c ****             /* Toggle all endpoint types except ISOC. */
 395:Generated_Source\PSoC4/USBTMC_episr.c ****             if (USBTMC_GET_EP_TYPE(USBTMC_EP5) != USBTMC_EP_TYPE_ISOC)
 396:Generated_Source\PSoC4/USBTMC_episr.c ****             {
 397:Generated_Source\PSoC4/USBTMC_episr.c ****                 USBTMC_EP[USBTMC_EP5].epToggle ^= USBTMC_EPX_CNT_DATA_TOGGLE;
 398:Generated_Source\PSoC4/USBTMC_episr.c ****             }
 399:Generated_Source\PSoC4/USBTMC_episr.c **** 
 400:Generated_Source\PSoC4/USBTMC_episr.c ****             /* EP_MANAGEMENT_DMA_AUTO (Ticket ID# 214187): For OUT endpoint this event is used to n
 401:Generated_Source\PSoC4/USBTMC_episr.c ****             * user that DMA has completed copying data from OUT endpoint which is not completely tr
 402:Generated_Source\PSoC4/USBTMC_episr.c ****             * Because last chunk of data is being copied.
 403:Generated_Source\PSoC4/USBTMC_episr.c ****             * For CY_PSOC 3/5LP: it is acceptable as DMA is really fast.
 404:Generated_Source\PSoC4/USBTMC_episr.c ****             * For CY_PSOC4: this event is set in Arbiter interrupt (source is DMA_TERMIN).
 405:Generated_Source\PSoC4/USBTMC_episr.c ****             */
ARM GAS  C:\Users\essele\AppData\Local\Temp\ccwMrTV8.s 			page 12


 406:Generated_Source\PSoC4/USBTMC_episr.c ****             USBTMC_EP[USBTMC_EP5].apiEpState = USBTMC_EVENT_PENDING;
 407:Generated_Source\PSoC4/USBTMC_episr.c ****         }
 408:Generated_Source\PSoC4/USBTMC_episr.c **** 
 409:Generated_Source\PSoC4/USBTMC_episr.c ****     #if (!(CY_PSOC4 && USBTMC_EP_MANAGEMENT_DMA_AUTO))        
 410:Generated_Source\PSoC4/USBTMC_episr.c ****         #if (defined(USBTMC_ENABLE_MIDI_STREAMING) && \
 411:Generated_Source\PSoC4/USBTMC_episr.c ****             !defined(USBTMC_MAIN_SERVICE_MIDI_OUT) && USBTMC_ISR_SERVICE_MIDI_OUT)
 412:Generated_Source\PSoC4/USBTMC_episr.c ****             if (USBTMC_midi_out_ep == USBTMC_EP5)
 413:Generated_Source\PSoC4/USBTMC_episr.c ****             {
 414:Generated_Source\PSoC4/USBTMC_episr.c ****                 USBTMC_MIDI_OUT_Service();
 415:Generated_Source\PSoC4/USBTMC_episr.c ****             }
 416:Generated_Source\PSoC4/USBTMC_episr.c ****         #endif /* (USBTMC_ISR_SERVICE_MIDI_OUT) */
 417:Generated_Source\PSoC4/USBTMC_episr.c ****     #endif /* (!(CY_PSOC4 && USBTMC_EP_MANAGEMENT_DMA_AUTO)) */
 418:Generated_Source\PSoC4/USBTMC_episr.c **** 
 419:Generated_Source\PSoC4/USBTMC_episr.c ****         /* `#START EP5_END_USER_CODE` Place your code here */
 420:Generated_Source\PSoC4/USBTMC_episr.c **** 
 421:Generated_Source\PSoC4/USBTMC_episr.c ****         /* `#END` */
 422:Generated_Source\PSoC4/USBTMC_episr.c **** 
 423:Generated_Source\PSoC4/USBTMC_episr.c ****     #ifdef USBTMC_EP_5_ISR_EXIT_CALLBACK
 424:Generated_Source\PSoC4/USBTMC_episr.c ****         USBTMC_EP_5_ISR_ExitCallback();
 425:Generated_Source\PSoC4/USBTMC_episr.c ****     #endif /* (USBTMC_EP_5_ISR_EXIT_CALLBACK) */
 426:Generated_Source\PSoC4/USBTMC_episr.c **** 
 427:Generated_Source\PSoC4/USBTMC_episr.c ****     #if (CY_PSOC3 && defined(USBTMC_ENABLE_MIDI_STREAMING) && \
 428:Generated_Source\PSoC4/USBTMC_episr.c ****         !defined(USBTMC_MAIN_SERVICE_MIDI_OUT) && USBTMC_ISR_SERVICE_MIDI_OUT)
 429:Generated_Source\PSoC4/USBTMC_episr.c ****         
 430:Generated_Source\PSoC4/USBTMC_episr.c ****             EA = intEn; /* Restore nested interrupt configuration. */
 431:Generated_Source\PSoC4/USBTMC_episr.c ****         }
 432:Generated_Source\PSoC4/USBTMC_episr.c ****     #endif /* (CY_PSOC3 && USBTMC_ISR_SERVICE_MIDI_OUT) */
 433:Generated_Source\PSoC4/USBTMC_episr.c ****     }
 434:Generated_Source\PSoC4/USBTMC_episr.c **** #endif /* (USBTMC_EP5_ISR_ACTIVE) */
 435:Generated_Source\PSoC4/USBTMC_episr.c **** 
 436:Generated_Source\PSoC4/USBTMC_episr.c **** 
 437:Generated_Source\PSoC4/USBTMC_episr.c **** #if (USBTMC_EP6_ISR_ACTIVE)
 438:Generated_Source\PSoC4/USBTMC_episr.c ****     /*******************************************************************************
 439:Generated_Source\PSoC4/USBTMC_episr.c ****     * Function Name: USBTMC_EP_6_ISR
 440:Generated_Source\PSoC4/USBTMC_episr.c ****     ****************************************************************************//**
 441:Generated_Source\PSoC4/USBTMC_episr.c ****     *
 442:Generated_Source\PSoC4/USBTMC_episr.c ****     *  Endpoint 6 Interrupt Service Routine.
 443:Generated_Source\PSoC4/USBTMC_episr.c ****     *
 444:Generated_Source\PSoC4/USBTMC_episr.c ****     *
 445:Generated_Source\PSoC4/USBTMC_episr.c ****     *******************************************************************************/
 446:Generated_Source\PSoC4/USBTMC_episr.c ****     CY_ISR(USBTMC_EP_6_ISR)
 447:Generated_Source\PSoC4/USBTMC_episr.c ****     {
 448:Generated_Source\PSoC4/USBTMC_episr.c ****     #ifdef USBTMC_EP_6_ISR_ENTRY_CALLBACK
 449:Generated_Source\PSoC4/USBTMC_episr.c ****         USBTMC_EP_6_ISR_EntryCallback();
 450:Generated_Source\PSoC4/USBTMC_episr.c ****     #endif /* (USBTMC_EP_6_ISR_ENTRY_CALLBACK) */
 451:Generated_Source\PSoC4/USBTMC_episr.c **** 
 452:Generated_Source\PSoC4/USBTMC_episr.c ****         /* `#START EP6_USER_CODE` Place your code here */
 453:Generated_Source\PSoC4/USBTMC_episr.c **** 
 454:Generated_Source\PSoC4/USBTMC_episr.c ****         /* `#END` */
 455:Generated_Source\PSoC4/USBTMC_episr.c **** 
 456:Generated_Source\PSoC4/USBTMC_episr.c ****     #if (CY_PSOC3 && defined(USBTMC_ENABLE_MIDI_STREAMING) && \
 457:Generated_Source\PSoC4/USBTMC_episr.c ****         !defined(USBTMC_MAIN_SERVICE_MIDI_OUT) && USBTMC_ISR_SERVICE_MIDI_OUT)
 458:Generated_Source\PSoC4/USBTMC_episr.c ****         {
 459:Generated_Source\PSoC4/USBTMC_episr.c ****             uint8 intEn = EA;
 460:Generated_Source\PSoC4/USBTMC_episr.c ****             CyGlobalIntEnable;  /* Enable nested interrupts. */
 461:Generated_Source\PSoC4/USBTMC_episr.c ****     #endif /* (CY_PSOC3 && USBTMC_ISR_SERVICE_MIDI_OUT) */
 462:Generated_Source\PSoC4/USBTMC_episr.c **** 
ARM GAS  C:\Users\essele\AppData\Local\Temp\ccwMrTV8.s 			page 13


 463:Generated_Source\PSoC4/USBTMC_episr.c ****         USBTMC_ClearSieEpInterruptSource(USBTMC_SIE_INT_EP6_INTR);
 464:Generated_Source\PSoC4/USBTMC_episr.c ****         
 465:Generated_Source\PSoC4/USBTMC_episr.c ****         /* Notifies user that transfer IN or OUT transfer is completed.
 466:Generated_Source\PSoC4/USBTMC_episr.c ****         * IN endpoint: endpoint buffer can be reloaded, Host is read data.
 467:Generated_Source\PSoC4/USBTMC_episr.c ****         * OUT endpoint: data is ready to read from endpoint buffer. 
 468:Generated_Source\PSoC4/USBTMC_episr.c ****         */
 469:Generated_Source\PSoC4/USBTMC_episr.c ****     #if (CY_PSOC4 && USBTMC_EP_MANAGEMENT_DMA_AUTO)
 470:Generated_Source\PSoC4/USBTMC_episr.c ****         if (0u != (USBTMC_EP[USBTMC_EP6].addr & USBTMC_DIR_IN))
 471:Generated_Source\PSoC4/USBTMC_episr.c ****     #endif /* (USBTMC_EP_MANAGEMENT_DMA_AUTO) */
 472:Generated_Source\PSoC4/USBTMC_episr.c ****         {
 473:Generated_Source\PSoC4/USBTMC_episr.c ****             /* Read CR0 register to clear SIE lock. */
 474:Generated_Source\PSoC4/USBTMC_episr.c ****             (void) USBTMC_SIE_EP_BASE.sieEp[USBTMC_EP6].epCr0;
 475:Generated_Source\PSoC4/USBTMC_episr.c **** 
 476:Generated_Source\PSoC4/USBTMC_episr.c ****             /* Toggle all endpoint types except ISOC. */
 477:Generated_Source\PSoC4/USBTMC_episr.c ****             if (USBTMC_GET_EP_TYPE(USBTMC_EP6) != USBTMC_EP_TYPE_ISOC)
 478:Generated_Source\PSoC4/USBTMC_episr.c ****             {
 479:Generated_Source\PSoC4/USBTMC_episr.c ****                 USBTMC_EP[USBTMC_EP6].epToggle ^= USBTMC_EPX_CNT_DATA_TOGGLE;
 480:Generated_Source\PSoC4/USBTMC_episr.c ****             }
 481:Generated_Source\PSoC4/USBTMC_episr.c ****             
 482:Generated_Source\PSoC4/USBTMC_episr.c ****             /* EP_MANAGEMENT_DMA_AUTO (Ticket ID# 214187): For OUT endpoint this event is used to n
 483:Generated_Source\PSoC4/USBTMC_episr.c ****             * user that DMA has completed copying data from OUT endpoint which is not completely tr
 484:Generated_Source\PSoC4/USBTMC_episr.c ****             * Because last chunk of data is being copied.
 485:Generated_Source\PSoC4/USBTMC_episr.c ****             * For CY_PSOC 3/5LP: it is acceptable as DMA is really fast.
 486:Generated_Source\PSoC4/USBTMC_episr.c ****             * For CY_PSOC4: this event is set in Arbiter interrupt (source is DMA_TERMIN).
 487:Generated_Source\PSoC4/USBTMC_episr.c ****             */
 488:Generated_Source\PSoC4/USBTMC_episr.c ****             USBTMC_EP[USBTMC_EP6].apiEpState = USBTMC_EVENT_PENDING;
 489:Generated_Source\PSoC4/USBTMC_episr.c ****         }
 490:Generated_Source\PSoC4/USBTMC_episr.c **** 
 491:Generated_Source\PSoC4/USBTMC_episr.c ****     #if (!(CY_PSOC4 && USBTMC_EP_MANAGEMENT_DMA_AUTO))
 492:Generated_Source\PSoC4/USBTMC_episr.c ****         #if (defined(USBTMC_ENABLE_MIDI_STREAMING) && \
 493:Generated_Source\PSoC4/USBTMC_episr.c ****             !defined(USBTMC_MAIN_SERVICE_MIDI_OUT) && USBTMC_ISR_SERVICE_MIDI_OUT)
 494:Generated_Source\PSoC4/USBTMC_episr.c ****             if (USBTMC_midi_out_ep == USBTMC_EP6)
 495:Generated_Source\PSoC4/USBTMC_episr.c ****             {
 496:Generated_Source\PSoC4/USBTMC_episr.c ****                 USBTMC_MIDI_OUT_Service();
 497:Generated_Source\PSoC4/USBTMC_episr.c ****             }
 498:Generated_Source\PSoC4/USBTMC_episr.c ****         #endif /* (USBTMC_ISR_SERVICE_MIDI_OUT) */
 499:Generated_Source\PSoC4/USBTMC_episr.c ****     #endif /* (!(CY_PSOC4 && USBTMC_EP_MANAGEMENT_DMA_AUTO)) */
 500:Generated_Source\PSoC4/USBTMC_episr.c **** 
 501:Generated_Source\PSoC4/USBTMC_episr.c ****         /* `#START EP6_END_USER_CODE` Place your code here */
 502:Generated_Source\PSoC4/USBTMC_episr.c **** 
 503:Generated_Source\PSoC4/USBTMC_episr.c ****         /* `#END` */
 504:Generated_Source\PSoC4/USBTMC_episr.c **** 
 505:Generated_Source\PSoC4/USBTMC_episr.c ****     #ifdef USBTMC_EP_6_ISR_EXIT_CALLBACK
 506:Generated_Source\PSoC4/USBTMC_episr.c ****         USBTMC_EP_6_ISR_ExitCallback();
 507:Generated_Source\PSoC4/USBTMC_episr.c ****     #endif /* (USBTMC_EP_6_ISR_EXIT_CALLBACK) */
 508:Generated_Source\PSoC4/USBTMC_episr.c **** 
 509:Generated_Source\PSoC4/USBTMC_episr.c ****     #if (CY_PSOC3 && defined(USBTMC_ENABLE_MIDI_STREAMING) && \
 510:Generated_Source\PSoC4/USBTMC_episr.c ****         !defined(USBTMC_MAIN_SERVICE_MIDI_OUT) && USBTMC_ISR_SERVICE_MIDI_OUT)
 511:Generated_Source\PSoC4/USBTMC_episr.c ****         
 512:Generated_Source\PSoC4/USBTMC_episr.c ****             EA = intEn; /* Restore nested interrupt configuration. */
 513:Generated_Source\PSoC4/USBTMC_episr.c ****         }
 514:Generated_Source\PSoC4/USBTMC_episr.c ****     #endif /* (CY_PSOC3 && USBTMC_ISR_SERVICE_MIDI_OUT) */
 515:Generated_Source\PSoC4/USBTMC_episr.c ****     }
 516:Generated_Source\PSoC4/USBTMC_episr.c **** #endif /* (USBTMC_EP6_ISR_ACTIVE) */
 517:Generated_Source\PSoC4/USBTMC_episr.c **** 
 518:Generated_Source\PSoC4/USBTMC_episr.c **** 
 519:Generated_Source\PSoC4/USBTMC_episr.c **** #if (USBTMC_EP7_ISR_ACTIVE)
ARM GAS  C:\Users\essele\AppData\Local\Temp\ccwMrTV8.s 			page 14


 520:Generated_Source\PSoC4/USBTMC_episr.c ****     /*******************************************************************************
 521:Generated_Source\PSoC4/USBTMC_episr.c ****     * Function Name: USBTMC_EP_7_ISR
 522:Generated_Source\PSoC4/USBTMC_episr.c ****     ****************************************************************************//**
 523:Generated_Source\PSoC4/USBTMC_episr.c ****     *
 524:Generated_Source\PSoC4/USBTMC_episr.c ****     *  Endpoint 7 Interrupt Service Routine.
 525:Generated_Source\PSoC4/USBTMC_episr.c ****     *
 526:Generated_Source\PSoC4/USBTMC_episr.c ****     *
 527:Generated_Source\PSoC4/USBTMC_episr.c ****     *******************************************************************************/
 528:Generated_Source\PSoC4/USBTMC_episr.c ****     CY_ISR(USBTMC_EP_7_ISR)
 529:Generated_Source\PSoC4/USBTMC_episr.c ****     {
 530:Generated_Source\PSoC4/USBTMC_episr.c ****     #ifdef USBTMC_EP_7_ISR_ENTRY_CALLBACK
 531:Generated_Source\PSoC4/USBTMC_episr.c ****         USBTMC_EP_7_ISR_EntryCallback();
 532:Generated_Source\PSoC4/USBTMC_episr.c ****     #endif /* (USBTMC_EP_7_ISR_ENTRY_CALLBACK) */
 533:Generated_Source\PSoC4/USBTMC_episr.c **** 
 534:Generated_Source\PSoC4/USBTMC_episr.c ****         /* `#START EP7_USER_CODE` Place your code here */
 535:Generated_Source\PSoC4/USBTMC_episr.c **** 
 536:Generated_Source\PSoC4/USBTMC_episr.c ****         /* `#END` */
 537:Generated_Source\PSoC4/USBTMC_episr.c **** 
 538:Generated_Source\PSoC4/USBTMC_episr.c ****     #if (CY_PSOC3 && defined(USBTMC_ENABLE_MIDI_STREAMING) && \
 539:Generated_Source\PSoC4/USBTMC_episr.c ****         !defined(USBTMC_MAIN_SERVICE_MIDI_OUT) && USBTMC_ISR_SERVICE_MIDI_OUT)
 540:Generated_Source\PSoC4/USBTMC_episr.c ****         {
 541:Generated_Source\PSoC4/USBTMC_episr.c ****             uint8 intEn = EA;
 542:Generated_Source\PSoC4/USBTMC_episr.c ****             CyGlobalIntEnable;  /* Enable nested interrupts. */
 543:Generated_Source\PSoC4/USBTMC_episr.c ****     #endif /* (CY_PSOC3 && USBTMC_ISR_SERVICE_MIDI_OUT) */
 544:Generated_Source\PSoC4/USBTMC_episr.c ****     
 545:Generated_Source\PSoC4/USBTMC_episr.c ****         USBTMC_ClearSieEpInterruptSource(USBTMC_SIE_INT_EP7_INTR);
 546:Generated_Source\PSoC4/USBTMC_episr.c ****         
 547:Generated_Source\PSoC4/USBTMC_episr.c ****         /* Notifies user that transfer IN or OUT transfer is completed.
 548:Generated_Source\PSoC4/USBTMC_episr.c ****         * IN endpoint: endpoint buffer can be reloaded, Host is read data.
 549:Generated_Source\PSoC4/USBTMC_episr.c ****         * OUT endpoint: data is ready to read from endpoint buffer. 
 550:Generated_Source\PSoC4/USBTMC_episr.c ****         */
 551:Generated_Source\PSoC4/USBTMC_episr.c ****     #if (CY_PSOC4 && USBTMC_EP_MANAGEMENT_DMA_AUTO)
 552:Generated_Source\PSoC4/USBTMC_episr.c ****         if (0u != (USBTMC_EP[USBTMC_EP7].addr & USBTMC_DIR_IN))
 553:Generated_Source\PSoC4/USBTMC_episr.c ****     #endif /* (USBTMC_EP_MANAGEMENT_DMA_AUTO) */
 554:Generated_Source\PSoC4/USBTMC_episr.c ****         {           
 555:Generated_Source\PSoC4/USBTMC_episr.c ****             /* Read CR0 register to clear SIE lock. */
 556:Generated_Source\PSoC4/USBTMC_episr.c ****             (void) USBTMC_SIE_EP_BASE.sieEp[USBTMC_EP7].epCr0;
 557:Generated_Source\PSoC4/USBTMC_episr.c **** 
 558:Generated_Source\PSoC4/USBTMC_episr.c ****             /* Toggle all endpoint types except ISOC. */
 559:Generated_Source\PSoC4/USBTMC_episr.c ****             if (USBTMC_GET_EP_TYPE(USBTMC_EP7) != USBTMC_EP_TYPE_ISOC)
 560:Generated_Source\PSoC4/USBTMC_episr.c ****             {
 561:Generated_Source\PSoC4/USBTMC_episr.c ****                 USBTMC_EP[USBTMC_EP7].epToggle ^= USBTMC_EPX_CNT_DATA_TOGGLE;
 562:Generated_Source\PSoC4/USBTMC_episr.c ****             }
 563:Generated_Source\PSoC4/USBTMC_episr.c ****             
 564:Generated_Source\PSoC4/USBTMC_episr.c ****             /* EP_MANAGEMENT_DMA_AUTO (Ticket ID# 214187): For OUT endpoint this event is used to n
 565:Generated_Source\PSoC4/USBTMC_episr.c ****             * user that DMA has completed copying data from OUT endpoint which is not completely tr
 566:Generated_Source\PSoC4/USBTMC_episr.c ****             * Because last chunk of data is being copied.
 567:Generated_Source\PSoC4/USBTMC_episr.c ****             * For CY_PSOC 3/5LP: it is acceptable as DMA is really fast.
 568:Generated_Source\PSoC4/USBTMC_episr.c ****             * For CY_PSOC4: this event is set in Arbiter interrupt (source is DMA_TERMIN).
 569:Generated_Source\PSoC4/USBTMC_episr.c ****             */
 570:Generated_Source\PSoC4/USBTMC_episr.c ****             USBTMC_EP[USBTMC_EP7].apiEpState = USBTMC_EVENT_PENDING;
 571:Generated_Source\PSoC4/USBTMC_episr.c ****         }
 572:Generated_Source\PSoC4/USBTMC_episr.c **** 
 573:Generated_Source\PSoC4/USBTMC_episr.c **** 
 574:Generated_Source\PSoC4/USBTMC_episr.c ****     #if (!(CY_PSOC4 && USBTMC_EP_MANAGEMENT_DMA_AUTO))
 575:Generated_Source\PSoC4/USBTMC_episr.c ****         #if (defined(USBTMC_ENABLE_MIDI_STREAMING) && \
 576:Generated_Source\PSoC4/USBTMC_episr.c ****             !defined(USBTMC_MAIN_SERVICE_MIDI_OUT) && USBTMC_ISR_SERVICE_MIDI_OUT)
ARM GAS  C:\Users\essele\AppData\Local\Temp\ccwMrTV8.s 			page 15


 577:Generated_Source\PSoC4/USBTMC_episr.c ****             if(USBTMC_midi_out_ep == USBTMC_EP7)
 578:Generated_Source\PSoC4/USBTMC_episr.c ****             {
 579:Generated_Source\PSoC4/USBTMC_episr.c ****                 USBTMC_MIDI_OUT_Service();
 580:Generated_Source\PSoC4/USBTMC_episr.c ****             }
 581:Generated_Source\PSoC4/USBTMC_episr.c ****         #endif /* (USBTMC_ISR_SERVICE_MIDI_OUT) */
 582:Generated_Source\PSoC4/USBTMC_episr.c ****     #endif /* (!(CY_PSOC4 && USBTMC_EP_MANAGEMENT_DMA_AUTO)) */
 583:Generated_Source\PSoC4/USBTMC_episr.c **** 
 584:Generated_Source\PSoC4/USBTMC_episr.c ****         /* `#START EP7_END_USER_CODE` Place your code here */
 585:Generated_Source\PSoC4/USBTMC_episr.c **** 
 586:Generated_Source\PSoC4/USBTMC_episr.c ****         /* `#END` */
 587:Generated_Source\PSoC4/USBTMC_episr.c **** 
 588:Generated_Source\PSoC4/USBTMC_episr.c ****     #ifdef USBTMC_EP_7_ISR_EXIT_CALLBACK
 589:Generated_Source\PSoC4/USBTMC_episr.c ****         USBTMC_EP_7_ISR_ExitCallback();
 590:Generated_Source\PSoC4/USBTMC_episr.c ****     #endif /* (USBTMC_EP_7_ISR_EXIT_CALLBACK) */
 591:Generated_Source\PSoC4/USBTMC_episr.c **** 
 592:Generated_Source\PSoC4/USBTMC_episr.c ****     #if (CY_PSOC3 && defined(USBTMC_ENABLE_MIDI_STREAMING) && \
 593:Generated_Source\PSoC4/USBTMC_episr.c ****         !defined(USBTMC_MAIN_SERVICE_MIDI_OUT) && USBTMC_ISR_SERVICE_MIDI_OUT)
 594:Generated_Source\PSoC4/USBTMC_episr.c ****         
 595:Generated_Source\PSoC4/USBTMC_episr.c ****             EA = intEn; /* Restore nested interrupt configuration. */
 596:Generated_Source\PSoC4/USBTMC_episr.c ****         }
 597:Generated_Source\PSoC4/USBTMC_episr.c ****     #endif /* (CY_PSOC3 && USBTMC_ISR_SERVICE_MIDI_OUT) */
 598:Generated_Source\PSoC4/USBTMC_episr.c ****     }
 599:Generated_Source\PSoC4/USBTMC_episr.c **** #endif /* (USBTMC_EP7_ISR_ACTIVE) */
 600:Generated_Source\PSoC4/USBTMC_episr.c **** 
 601:Generated_Source\PSoC4/USBTMC_episr.c **** 
 602:Generated_Source\PSoC4/USBTMC_episr.c **** #if (USBTMC_EP8_ISR_ACTIVE)
 603:Generated_Source\PSoC4/USBTMC_episr.c ****     /*******************************************************************************
 604:Generated_Source\PSoC4/USBTMC_episr.c ****     * Function Name: USBTMC_EP_8_ISR
 605:Generated_Source\PSoC4/USBTMC_episr.c ****     ****************************************************************************//**
 606:Generated_Source\PSoC4/USBTMC_episr.c ****     *
 607:Generated_Source\PSoC4/USBTMC_episr.c ****     *  Endpoint 8 Interrupt Service Routine
 608:Generated_Source\PSoC4/USBTMC_episr.c ****     *
 609:Generated_Source\PSoC4/USBTMC_episr.c ****     *
 610:Generated_Source\PSoC4/USBTMC_episr.c ****     *******************************************************************************/
 611:Generated_Source\PSoC4/USBTMC_episr.c ****     CY_ISR(USBTMC_EP_8_ISR)
 612:Generated_Source\PSoC4/USBTMC_episr.c ****     {
 613:Generated_Source\PSoC4/USBTMC_episr.c ****     #ifdef USBTMC_EP_8_ISR_ENTRY_CALLBACK
 614:Generated_Source\PSoC4/USBTMC_episr.c ****         USBTMC_EP_8_ISR_EntryCallback();
 615:Generated_Source\PSoC4/USBTMC_episr.c ****     #endif /* (USBTMC_EP_8_ISR_ENTRY_CALLBACK) */
 616:Generated_Source\PSoC4/USBTMC_episr.c **** 
 617:Generated_Source\PSoC4/USBTMC_episr.c ****         /* `#START EP8_USER_CODE` Place your code here */
 618:Generated_Source\PSoC4/USBTMC_episr.c **** 
 619:Generated_Source\PSoC4/USBTMC_episr.c ****         /* `#END` */
 620:Generated_Source\PSoC4/USBTMC_episr.c **** 
 621:Generated_Source\PSoC4/USBTMC_episr.c ****     #if (CY_PSOC3 && defined(USBTMC_ENABLE_MIDI_STREAMING) && \
 622:Generated_Source\PSoC4/USBTMC_episr.c ****         !defined(USBTMC_MAIN_SERVICE_MIDI_OUT) && USBTMC_ISR_SERVICE_MIDI_OUT)
 623:Generated_Source\PSoC4/USBTMC_episr.c ****         {
 624:Generated_Source\PSoC4/USBTMC_episr.c ****             uint8 intEn = EA;
 625:Generated_Source\PSoC4/USBTMC_episr.c ****             CyGlobalIntEnable;  /* Enable nested interrupts. */
 626:Generated_Source\PSoC4/USBTMC_episr.c ****     #endif /* (CY_PSOC3 && USBTMC_ISR_SERVICE_MIDI_OUT) */
 627:Generated_Source\PSoC4/USBTMC_episr.c **** 
 628:Generated_Source\PSoC4/USBTMC_episr.c ****         USBTMC_ClearSieEpInterruptSource(USBTMC_SIE_INT_EP8_INTR);
 629:Generated_Source\PSoC4/USBTMC_episr.c ****         
 630:Generated_Source\PSoC4/USBTMC_episr.c ****         /* Notifies user that transfer IN or OUT transfer is completed.
 631:Generated_Source\PSoC4/USBTMC_episr.c ****         * IN endpoint: endpoint buffer can be reloaded, Host is read data.
 632:Generated_Source\PSoC4/USBTMC_episr.c ****         * OUT endpoint: data is ready to read from endpoint buffer. 
 633:Generated_Source\PSoC4/USBTMC_episr.c ****         */
ARM GAS  C:\Users\essele\AppData\Local\Temp\ccwMrTV8.s 			page 16


 634:Generated_Source\PSoC4/USBTMC_episr.c ****     #if (CY_PSOC4 && USBTMC_EP_MANAGEMENT_DMA_AUTO)
 635:Generated_Source\PSoC4/USBTMC_episr.c ****         if (0u != (USBTMC_EP[USBTMC_EP8].addr & USBTMC_DIR_IN))
 636:Generated_Source\PSoC4/USBTMC_episr.c ****     #endif /* (USBTMC_EP_MANAGEMENT_DMA_AUTO) */
 637:Generated_Source\PSoC4/USBTMC_episr.c ****         {
 638:Generated_Source\PSoC4/USBTMC_episr.c ****             /* Read CR0 register to clear SIE lock. */
 639:Generated_Source\PSoC4/USBTMC_episr.c ****             (void) USBTMC_SIE_EP_BASE.sieEp[USBTMC_EP8].epCr0;
 640:Generated_Source\PSoC4/USBTMC_episr.c **** 
 641:Generated_Source\PSoC4/USBTMC_episr.c ****             /* Toggle all endpoint types except ISOC. */
 642:Generated_Source\PSoC4/USBTMC_episr.c ****             if (USBTMC_GET_EP_TYPE(USBTMC_EP8) != USBTMC_EP_TYPE_ISOC)
 643:Generated_Source\PSoC4/USBTMC_episr.c ****             {
 644:Generated_Source\PSoC4/USBTMC_episr.c ****                 USBTMC_EP[USBTMC_EP8].epToggle ^= USBTMC_EPX_CNT_DATA_TOGGLE;
 645:Generated_Source\PSoC4/USBTMC_episr.c ****             }
 646:Generated_Source\PSoC4/USBTMC_episr.c **** 
 647:Generated_Source\PSoC4/USBTMC_episr.c ****             /* EP_MANAGEMENT_DMA_AUTO (Ticket ID# 214187): For OUT endpoint this event is used to n
 648:Generated_Source\PSoC4/USBTMC_episr.c ****             * user that DMA has completed copying data from OUT endpoint which is not completely tr
 649:Generated_Source\PSoC4/USBTMC_episr.c ****             * Because last chunk of data is being copied.
 650:Generated_Source\PSoC4/USBTMC_episr.c ****             * For CY_PSOC 3/5LP: it is acceptable as DMA is really fast.
 651:Generated_Source\PSoC4/USBTMC_episr.c ****             * For CY_PSOC4: this event is set in Arbiter interrupt (source is DMA_TERMIN).
 652:Generated_Source\PSoC4/USBTMC_episr.c ****             */
 653:Generated_Source\PSoC4/USBTMC_episr.c ****             USBTMC_EP[USBTMC_EP8].apiEpState = USBTMC_EVENT_PENDING;
 654:Generated_Source\PSoC4/USBTMC_episr.c ****         }
 655:Generated_Source\PSoC4/USBTMC_episr.c **** 
 656:Generated_Source\PSoC4/USBTMC_episr.c ****     #if (!(CY_PSOC4 && USBTMC_EP_MANAGEMENT_DMA_AUTO))
 657:Generated_Source\PSoC4/USBTMC_episr.c ****         #if (defined(USBTMC_ENABLE_MIDI_STREAMING) && \
 658:Generated_Source\PSoC4/USBTMC_episr.c ****             !defined(USBTMC_MAIN_SERVICE_MIDI_OUT) && USBTMC_ISR_SERVICE_MIDI_OUT)
 659:Generated_Source\PSoC4/USBTMC_episr.c ****             if (USBTMC_midi_out_ep == USBTMC_EP8)
 660:Generated_Source\PSoC4/USBTMC_episr.c ****             {
 661:Generated_Source\PSoC4/USBTMC_episr.c ****                 USBTMC_MIDI_OUT_Service();
 662:Generated_Source\PSoC4/USBTMC_episr.c ****             }
 663:Generated_Source\PSoC4/USBTMC_episr.c ****         #endif /* (USBTMC_ISR_SERVICE_MIDI_OUT) */
 664:Generated_Source\PSoC4/USBTMC_episr.c ****     #endif /* (!(CY_PSOC4 && USBTMC_EP_MANAGEMENT_DMA_AUTO)) */
 665:Generated_Source\PSoC4/USBTMC_episr.c **** 
 666:Generated_Source\PSoC4/USBTMC_episr.c ****         /* `#START EP8_END_USER_CODE` Place your code here */
 667:Generated_Source\PSoC4/USBTMC_episr.c **** 
 668:Generated_Source\PSoC4/USBTMC_episr.c ****         /* `#END` */
 669:Generated_Source\PSoC4/USBTMC_episr.c **** 
 670:Generated_Source\PSoC4/USBTMC_episr.c ****     #ifdef USBTMC_EP_8_ISR_EXIT_CALLBACK
 671:Generated_Source\PSoC4/USBTMC_episr.c ****         USBTMC_EP_8_ISR_ExitCallback();
 672:Generated_Source\PSoC4/USBTMC_episr.c ****     #endif /* (USBTMC_EP_8_ISR_EXIT_CALLBACK) */
 673:Generated_Source\PSoC4/USBTMC_episr.c **** 
 674:Generated_Source\PSoC4/USBTMC_episr.c ****     #if (CY_PSOC3 && defined(USBTMC_ENABLE_MIDI_STREAMING) && \
 675:Generated_Source\PSoC4/USBTMC_episr.c ****         !defined(USBTMC_MAIN_SERVICE_MIDI_OUT) && USBTMC_ISR_SERVICE_MIDI_OUT)
 676:Generated_Source\PSoC4/USBTMC_episr.c ****         
 677:Generated_Source\PSoC4/USBTMC_episr.c ****             EA = intEn; /* Restore nested interrupt configuration. */
 678:Generated_Source\PSoC4/USBTMC_episr.c ****         }
 679:Generated_Source\PSoC4/USBTMC_episr.c ****     #endif /* (CY_PSOC3 && USBTMC_ISR_SERVICE_MIDI_OUT) */
 680:Generated_Source\PSoC4/USBTMC_episr.c ****     }
 681:Generated_Source\PSoC4/USBTMC_episr.c **** #endif /* (USBTMC_EP8_ISR_ACTIVE) */
 682:Generated_Source\PSoC4/USBTMC_episr.c **** 
 683:Generated_Source\PSoC4/USBTMC_episr.c **** 
 684:Generated_Source\PSoC4/USBTMC_episr.c **** #if (USBTMC_SOF_ISR_ACTIVE)
 685:Generated_Source\PSoC4/USBTMC_episr.c ****     /*******************************************************************************
 686:Generated_Source\PSoC4/USBTMC_episr.c ****     * Function Name: USBTMC_SOF_ISR
 687:Generated_Source\PSoC4/USBTMC_episr.c ****     ****************************************************************************//**
 688:Generated_Source\PSoC4/USBTMC_episr.c ****     *
 689:Generated_Source\PSoC4/USBTMC_episr.c ****     *  Start of Frame Interrupt Service Routine.
 690:Generated_Source\PSoC4/USBTMC_episr.c ****     *
ARM GAS  C:\Users\essele\AppData\Local\Temp\ccwMrTV8.s 			page 17


 691:Generated_Source\PSoC4/USBTMC_episr.c ****     *
 692:Generated_Source\PSoC4/USBTMC_episr.c ****     *******************************************************************************/
 693:Generated_Source\PSoC4/USBTMC_episr.c ****     CY_ISR(USBTMC_SOF_ISR)
 694:Generated_Source\PSoC4/USBTMC_episr.c ****     {
 695:Generated_Source\PSoC4/USBTMC_episr.c ****     #ifdef USBTMC_SOF_ISR_ENTRY_CALLBACK
 696:Generated_Source\PSoC4/USBTMC_episr.c ****         USBTMC_SOF_ISR_EntryCallback();
 697:Generated_Source\PSoC4/USBTMC_episr.c ****     #endif /* (USBTMC_SOF_ISR_ENTRY_CALLBACK) */
 698:Generated_Source\PSoC4/USBTMC_episr.c **** 
 699:Generated_Source\PSoC4/USBTMC_episr.c ****         /* `#START SOF_USER_CODE` Place your code here */
 700:Generated_Source\PSoC4/USBTMC_episr.c **** 
 701:Generated_Source\PSoC4/USBTMC_episr.c ****         /* `#END` */
 702:Generated_Source\PSoC4/USBTMC_episr.c **** 
 703:Generated_Source\PSoC4/USBTMC_episr.c ****         USBTMC_ClearSieInterruptSource(USBTMC_INTR_SIE_SOF_INTR);
 704:Generated_Source\PSoC4/USBTMC_episr.c **** 
 705:Generated_Source\PSoC4/USBTMC_episr.c ****     #ifdef USBTMC_SOF_ISR_EXIT_CALLBACK
 706:Generated_Source\PSoC4/USBTMC_episr.c ****         USBTMC_SOF_ISR_ExitCallback();
 707:Generated_Source\PSoC4/USBTMC_episr.c ****     #endif /* (USBTMC_SOF_ISR_EXIT_CALLBACK) */
 708:Generated_Source\PSoC4/USBTMC_episr.c ****     }
 709:Generated_Source\PSoC4/USBTMC_episr.c **** #endif /* (USBTMC_SOF_ISR_ACTIVE) */
 710:Generated_Source\PSoC4/USBTMC_episr.c **** 
 711:Generated_Source\PSoC4/USBTMC_episr.c **** 
 712:Generated_Source\PSoC4/USBTMC_episr.c **** #if (USBTMC_BUS_RESET_ISR_ACTIVE)
 713:Generated_Source\PSoC4/USBTMC_episr.c **** /*******************************************************************************
 714:Generated_Source\PSoC4/USBTMC_episr.c **** * Function Name: USBTMC_BUS_RESET_ISR
 715:Generated_Source\PSoC4/USBTMC_episr.c **** ****************************************************************************//**
 716:Generated_Source\PSoC4/USBTMC_episr.c **** *
 717:Generated_Source\PSoC4/USBTMC_episr.c **** *  USB Bus Reset Interrupt Service Routine.  Calls _Start with the same
 718:Generated_Source\PSoC4/USBTMC_episr.c **** *  parameters as the last USER call to _Start
 719:Generated_Source\PSoC4/USBTMC_episr.c **** *
 720:Generated_Source\PSoC4/USBTMC_episr.c **** *
 721:Generated_Source\PSoC4/USBTMC_episr.c **** *******************************************************************************/
 722:Generated_Source\PSoC4/USBTMC_episr.c **** CY_ISR(USBTMC_BUS_RESET_ISR)
 723:Generated_Source\PSoC4/USBTMC_episr.c **** {
 223              		.loc 1 723 0
 224              		.cfi_startproc
 225              		@ args = 0, pretend = 0, frame = 0
 226              		@ frame_needed = 1, uses_anonymous_args = 0
 227 0000 80B5     		push	{r7, lr}
 228              		.cfi_def_cfa_offset 8
 229              		.cfi_offset 7, -8
 230              		.cfi_offset 14, -4
 231 0002 00AF     		add	r7, sp, #0
 232              		.cfi_def_cfa_register 7
 724:Generated_Source\PSoC4/USBTMC_episr.c **** #ifdef USBTMC_BUS_RESET_ISR_ENTRY_CALLBACK
 725:Generated_Source\PSoC4/USBTMC_episr.c ****     USBTMC_BUS_RESET_ISR_EntryCallback();
 726:Generated_Source\PSoC4/USBTMC_episr.c **** #endif /* (USBTMC_BUS_RESET_ISR_ENTRY_CALLBACK) */
 727:Generated_Source\PSoC4/USBTMC_episr.c **** 
 728:Generated_Source\PSoC4/USBTMC_episr.c ****     /* `#START BUS_RESET_USER_CODE` Place your code here */
 729:Generated_Source\PSoC4/USBTMC_episr.c **** 
 730:Generated_Source\PSoC4/USBTMC_episr.c ****     /* `#END` */
 731:Generated_Source\PSoC4/USBTMC_episr.c **** 
 732:Generated_Source\PSoC4/USBTMC_episr.c ****     USBTMC_ClearSieInterruptSource(USBTMC_INTR_SIE_BUS_RESET_INTR);
 233              		.loc 1 732 0
 234 0004 034B     		ldr	r3, .L14
 235 0006 0222     		movs	r2, #2
 236 0008 1A60     		str	r2, [r3]
 733:Generated_Source\PSoC4/USBTMC_episr.c **** 
ARM GAS  C:\Users\essele\AppData\Local\Temp\ccwMrTV8.s 			page 18


 734:Generated_Source\PSoC4/USBTMC_episr.c ****     USBTMC_ReInitComponent();
 237              		.loc 1 734 0
 238 000a FFF7FEFF 		bl	USBTMC_ReInitComponent
 735:Generated_Source\PSoC4/USBTMC_episr.c **** 
 736:Generated_Source\PSoC4/USBTMC_episr.c **** #ifdef USBTMC_BUS_RESET_ISR_EXIT_CALLBACK
 737:Generated_Source\PSoC4/USBTMC_episr.c ****     USBTMC_BUS_RESET_ISR_ExitCallback();
 738:Generated_Source\PSoC4/USBTMC_episr.c **** #endif /* (USBTMC_BUS_RESET_ISR_EXIT_CALLBACK) */
 739:Generated_Source\PSoC4/USBTMC_episr.c **** }
 239              		.loc 1 739 0
 240 000e C046     		nop
 241 0010 BD46     		mov	sp, r7
 242              		@ sp needed
 243 0012 80BD     		pop	{r7, pc}
 244              	.L15:
 245              		.align	2
 246              	.L14:
 247 0014 20202C40 		.word	1076633632
 248              		.cfi_endproc
 249              	.LFE4:
 250              		.size	USBTMC_BUS_RESET_ISR, .-USBTMC_BUS_RESET_ISR
 251              		.section	.text.USBTMC_IntrHandler,"ax",%progbits
 252              		.align	2
 253              		.code	16
 254              		.thumb_func
 255              		.type	USBTMC_IntrHandler, %function
 256              	USBTMC_IntrHandler:
 257              	.LFB5:
 740:Generated_Source\PSoC4/USBTMC_episr.c **** #endif /* (USBTMC_BUS_RESET_ISR_ACTIVE) */
 741:Generated_Source\PSoC4/USBTMC_episr.c **** 
 742:Generated_Source\PSoC4/USBTMC_episr.c **** 
 743:Generated_Source\PSoC4/USBTMC_episr.c **** #if (USBTMC_LPM_ACTIVE)
 744:Generated_Source\PSoC4/USBTMC_episr.c **** /***************************************************************************
 745:Generated_Source\PSoC4/USBTMC_episr.c **** * Function Name: USBTMC_INTR_LPM_ISR
 746:Generated_Source\PSoC4/USBTMC_episr.c **** ************************************************************************//**
 747:Generated_Source\PSoC4/USBTMC_episr.c **** *
 748:Generated_Source\PSoC4/USBTMC_episr.c **** *   Interrupt Service Routine for LPM of the interrupt sources.
 749:Generated_Source\PSoC4/USBTMC_episr.c **** *
 750:Generated_Source\PSoC4/USBTMC_episr.c **** *
 751:Generated_Source\PSoC4/USBTMC_episr.c **** ***************************************************************************/
 752:Generated_Source\PSoC4/USBTMC_episr.c **** CY_ISR(USBTMC_LPM_ISR)
 753:Generated_Source\PSoC4/USBTMC_episr.c **** {
 754:Generated_Source\PSoC4/USBTMC_episr.c **** #ifdef USBTMC_LPM_ISR_ENTRY_CALLBACK
 755:Generated_Source\PSoC4/USBTMC_episr.c ****     USBTMC_LPM_ISR_EntryCallback();
 756:Generated_Source\PSoC4/USBTMC_episr.c **** #endif /* (USBTMC_LPM_ISR_ENTRY_CALLBACK) */
 757:Generated_Source\PSoC4/USBTMC_episr.c **** 
 758:Generated_Source\PSoC4/USBTMC_episr.c ****     /* `#START LPM_BEGIN_USER_CODE` Place your code here */
 759:Generated_Source\PSoC4/USBTMC_episr.c **** 
 760:Generated_Source\PSoC4/USBTMC_episr.c ****     /* `#END` */
 761:Generated_Source\PSoC4/USBTMC_episr.c **** 
 762:Generated_Source\PSoC4/USBTMC_episr.c ****     USBTMC_ClearSieInterruptSource(USBTMC_INTR_SIE_LPM_INTR);
 763:Generated_Source\PSoC4/USBTMC_episr.c **** 
 764:Generated_Source\PSoC4/USBTMC_episr.c ****     /* `#START LPM_END_USER_CODE` Place your code here */
 765:Generated_Source\PSoC4/USBTMC_episr.c **** 
 766:Generated_Source\PSoC4/USBTMC_episr.c ****     /* `#END` */
 767:Generated_Source\PSoC4/USBTMC_episr.c **** 
 768:Generated_Source\PSoC4/USBTMC_episr.c **** #ifdef USBTMC_LPM_ISR_EXIT_CALLBACK
 769:Generated_Source\PSoC4/USBTMC_episr.c ****     USBTMC_LPM_ISR_ExitCallback();
ARM GAS  C:\Users\essele\AppData\Local\Temp\ccwMrTV8.s 			page 19


 770:Generated_Source\PSoC4/USBTMC_episr.c **** #endif /* (USBTMC_LPM_ISR_EXIT_CALLBACK) */
 771:Generated_Source\PSoC4/USBTMC_episr.c **** }
 772:Generated_Source\PSoC4/USBTMC_episr.c **** #endif /* (USBTMC_LPM_ACTIVE) */
 773:Generated_Source\PSoC4/USBTMC_episr.c **** 
 774:Generated_Source\PSoC4/USBTMC_episr.c **** 
 775:Generated_Source\PSoC4/USBTMC_episr.c **** #if (USBTMC_EP_MANAGEMENT_DMA && USBTMC_ARB_ISR_ACTIVE)
 776:Generated_Source\PSoC4/USBTMC_episr.c ****     /***************************************************************************
 777:Generated_Source\PSoC4/USBTMC_episr.c ****     * Function Name: USBTMC_ARB_ISR
 778:Generated_Source\PSoC4/USBTMC_episr.c ****     ************************************************************************//**
 779:Generated_Source\PSoC4/USBTMC_episr.c ****     *
 780:Generated_Source\PSoC4/USBTMC_episr.c ****     *  Arbiter Interrupt Service Routine.
 781:Generated_Source\PSoC4/USBTMC_episr.c ****     *
 782:Generated_Source\PSoC4/USBTMC_episr.c ****     *
 783:Generated_Source\PSoC4/USBTMC_episr.c ****     ***************************************************************************/
 784:Generated_Source\PSoC4/USBTMC_episr.c ****     CY_ISR(USBTMC_ARB_ISR)
 785:Generated_Source\PSoC4/USBTMC_episr.c ****     {
 786:Generated_Source\PSoC4/USBTMC_episr.c ****         uint32 arbIntrStatus;
 787:Generated_Source\PSoC4/USBTMC_episr.c ****         uint32 epStatus;
 788:Generated_Source\PSoC4/USBTMC_episr.c ****         uint32 ep = USBTMC_EP1;
 789:Generated_Source\PSoC4/USBTMC_episr.c **** 
 790:Generated_Source\PSoC4/USBTMC_episr.c ****     #ifdef USBTMC_ARB_ISR_ENTRY_CALLBACK
 791:Generated_Source\PSoC4/USBTMC_episr.c ****         USBTMC_ARB_ISR_EntryCallback();
 792:Generated_Source\PSoC4/USBTMC_episr.c ****     #endif /* (USBTMC_ARB_ISR_ENTRY_CALLBACK) */
 793:Generated_Source\PSoC4/USBTMC_episr.c **** 
 794:Generated_Source\PSoC4/USBTMC_episr.c ****         /* `#START ARB_BEGIN_USER_CODE` Place your code here */
 795:Generated_Source\PSoC4/USBTMC_episr.c **** 
 796:Generated_Source\PSoC4/USBTMC_episr.c ****         /* `#END` */
 797:Generated_Source\PSoC4/USBTMC_episr.c **** 
 798:Generated_Source\PSoC4/USBTMC_episr.c ****         /* Get pending ARB interrupt sources. */
 799:Generated_Source\PSoC4/USBTMC_episr.c ****         arbIntrStatus = USBTMC_ARB_INT_SR_REG;
 800:Generated_Source\PSoC4/USBTMC_episr.c **** 
 801:Generated_Source\PSoC4/USBTMC_episr.c ****         while (0u != arbIntrStatus)
 802:Generated_Source\PSoC4/USBTMC_episr.c ****         {
 803:Generated_Source\PSoC4/USBTMC_episr.c ****             /* Check which EP is interrupt source. */
 804:Generated_Source\PSoC4/USBTMC_episr.c ****             if (0u != (arbIntrStatus & 0x01u))
 805:Generated_Source\PSoC4/USBTMC_episr.c ****             {
 806:Generated_Source\PSoC4/USBTMC_episr.c ****                 /* Get endpoint enable interrupt sources. */
 807:Generated_Source\PSoC4/USBTMC_episr.c ****                 epStatus = (USBTMC_ARB_EP_BASE.arbEp[ep].epSr & USBTMC_ARB_EP_BASE.arbEp[ep].epIntE
 808:Generated_Source\PSoC4/USBTMC_episr.c **** 
 809:Generated_Source\PSoC4/USBTMC_episr.c ****                 /* Handle IN endpoint buffer full event: happens only once when endpoint buffer is 
 810:Generated_Source\PSoC4/USBTMC_episr.c ****                 if (0u != (epStatus & USBTMC_ARB_EPX_INT_IN_BUF_FULL))
 811:Generated_Source\PSoC4/USBTMC_episr.c ****                 {
 812:Generated_Source\PSoC4/USBTMC_episr.c ****                     if (0u != (USBTMC_EP[ep].addr & USBTMC_DIR_IN))
 813:Generated_Source\PSoC4/USBTMC_episr.c ****                     {
 814:Generated_Source\PSoC4/USBTMC_episr.c ****                         /* Clear data ready status. */
 815:Generated_Source\PSoC4/USBTMC_episr.c ****                         USBTMC_ARB_EP_BASE.arbEp[ep].epCfg &= (uint32) ~USBTMC_ARB_EPX_CFG_IN_DATA_
 816:Generated_Source\PSoC4/USBTMC_episr.c **** 
 817:Generated_Source\PSoC4/USBTMC_episr.c ****                     #if (CY_PSOC3 || CY_PSOC5LP)
 818:Generated_Source\PSoC4/USBTMC_episr.c ****                         #if (USBTMC_EP_MANAGEMENT_DMA_AUTO && (USBTMC_EP_DMA_AUTO_OPT == 0u))
 819:Generated_Source\PSoC4/USBTMC_episr.c ****                             /* Set up common area DMA with rest of data. */
 820:Generated_Source\PSoC4/USBTMC_episr.c ****                             if(USBTMC_inLength[ep] > USBTMC_DMA_BYTES_PER_BURST)
 821:Generated_Source\PSoC4/USBTMC_episr.c ****                             {
 822:Generated_Source\PSoC4/USBTMC_episr.c ****                                 USBTMC_LoadNextInEP(ep, 0u);
 823:Generated_Source\PSoC4/USBTMC_episr.c ****                             }
 824:Generated_Source\PSoC4/USBTMC_episr.c ****                             else
 825:Generated_Source\PSoC4/USBTMC_episr.c ****                             {
 826:Generated_Source\PSoC4/USBTMC_episr.c ****                                 USBTMC_inBufFull[ep] = 1u;
ARM GAS  C:\Users\essele\AppData\Local\Temp\ccwMrTV8.s 			page 20


 827:Generated_Source\PSoC4/USBTMC_episr.c ****                             }
 828:Generated_Source\PSoC4/USBTMC_episr.c ****                         #endif /* (USBTMC_EP_MANAGEMENT_DMA_AUTO && (USBTMC_EP_DMA_AUTO_OPT == 0u))
 829:Generated_Source\PSoC4/USBTMC_episr.c ****                     #endif /* (CY_PSOC3 || CY_PSOC5LP) */
 830:Generated_Source\PSoC4/USBTMC_episr.c **** 
 831:Generated_Source\PSoC4/USBTMC_episr.c ****                         /* Arm IN endpoint. */
 832:Generated_Source\PSoC4/USBTMC_episr.c ****                         USBTMC_SIE_EP_BASE.sieEp[ep].epCr0 = USBTMC_EP[ep].epMode;
 833:Generated_Source\PSoC4/USBTMC_episr.c **** 
 834:Generated_Source\PSoC4/USBTMC_episr.c ****                     #if (defined(USBTMC_ENABLE_MIDI_STREAMING) && USBTMC_ISR_SERVICE_MIDI_IN)
 835:Generated_Source\PSoC4/USBTMC_episr.c ****                         if (ep == USBTMC_midi_in_ep)
 836:Generated_Source\PSoC4/USBTMC_episr.c ****                         {
 837:Generated_Source\PSoC4/USBTMC_episr.c ****                             /* Clear MIDI input pointer. */
 838:Generated_Source\PSoC4/USBTMC_episr.c ****                             USBTMC_midiInPointer = 0u;
 839:Generated_Source\PSoC4/USBTMC_episr.c ****                         }
 840:Generated_Source\PSoC4/USBTMC_episr.c ****                     #endif /* (USBTMC_ENABLE_MIDI_STREAMING) */
 841:Generated_Source\PSoC4/USBTMC_episr.c ****                     }
 842:Generated_Source\PSoC4/USBTMC_episr.c ****                 }
 843:Generated_Source\PSoC4/USBTMC_episr.c **** 
 844:Generated_Source\PSoC4/USBTMC_episr.c ****             #if (USBTMC_EP_MANAGEMENT_DMA_MANUAL)
 845:Generated_Source\PSoC4/USBTMC_episr.c ****                 /* Handle DMA completion event for OUT endpoints. */
 846:Generated_Source\PSoC4/USBTMC_episr.c ****                 if (0u != (epStatus & USBTMC_ARB_EPX_SR_DMA_GNT))
 847:Generated_Source\PSoC4/USBTMC_episr.c ****                 {
 848:Generated_Source\PSoC4/USBTMC_episr.c ****                     if (0u == (USBTMC_EP[ep].addr & USBTMC_DIR_IN))
 849:Generated_Source\PSoC4/USBTMC_episr.c ****                     {
 850:Generated_Source\PSoC4/USBTMC_episr.c ****                         /* Notify user that data has been copied from endpoint buffer. */
 851:Generated_Source\PSoC4/USBTMC_episr.c ****                         USBTMC_EP[ep].apiEpState = USBTMC_NO_EVENT_PENDING;
 852:Generated_Source\PSoC4/USBTMC_episr.c **** 
 853:Generated_Source\PSoC4/USBTMC_episr.c ****                         /* DMA done coping data: OUT endpoint has to be re-armed by user. */
 854:Generated_Source\PSoC4/USBTMC_episr.c ****                     }
 855:Generated_Source\PSoC4/USBTMC_episr.c ****                 }
 856:Generated_Source\PSoC4/USBTMC_episr.c ****             #endif /* (USBTMC_EP_MANAGEMENT_DMA_MANUAL) */
 857:Generated_Source\PSoC4/USBTMC_episr.c **** 
 858:Generated_Source\PSoC4/USBTMC_episr.c ****             #if (CY_PSOC4 && USBTMC_EP_MANAGEMENT_DMA_AUTO)
 859:Generated_Source\PSoC4/USBTMC_episr.c ****                 /* Handle DMA completion event for OUT endpoints. */
 860:Generated_Source\PSoC4/USBTMC_episr.c ****                 if (0u != (epStatus & USBTMC_ARB_EPX_INT_DMA_TERMIN))
 861:Generated_Source\PSoC4/USBTMC_episr.c ****                 {
 862:Generated_Source\PSoC4/USBTMC_episr.c ****                     uint32 channelNum = USBTMC_DmaChan[ep];
 863:Generated_Source\PSoC4/USBTMC_episr.c **** 
 864:Generated_Source\PSoC4/USBTMC_episr.c ****                     /* Restore burst counter for endpoint. */
 865:Generated_Source\PSoC4/USBTMC_episr.c ****                     USBTMC_DmaEpBurstCnt[ep] = USBTMC_DMA_GET_BURST_CNT(USBTMC_DmaEpBurstCntBackup[
 866:Generated_Source\PSoC4/USBTMC_episr.c **** 
 867:Generated_Source\PSoC4/USBTMC_episr.c ****                     /* Disable DMA channel to restore descriptor configuration. The on-going transf
 868:Generated_Source\PSoC4/USBTMC_episr.c ****                     USBTMC_CyDmaChDisable(channelNum);
 869:Generated_Source\PSoC4/USBTMC_episr.c **** 
 870:Generated_Source\PSoC4/USBTMC_episr.c ****                     /* Generate DMA tr_out signal to notify USB IP that DMA is done. This signal is
 871:Generated_Source\PSoC4/USBTMC_episr.c ****                     * when transfer was aborted (it occurs when host writes less bytes than buffer 
 872:Generated_Source\PSoC4/USBTMC_episr.c ****                     */
 873:Generated_Source\PSoC4/USBTMC_episr.c ****                     USBTMC_CyDmaTriggerOut(USBTMC_DmaBurstEndOut[ep]);
 874:Generated_Source\PSoC4/USBTMC_episr.c **** 
 875:Generated_Source\PSoC4/USBTMC_episr.c ****                     /* Restore destination address for output endpoint. */
 876:Generated_Source\PSoC4/USBTMC_episr.c ****                     USBTMC_CyDmaSetDstAddress(channelNum, USBTMC_DMA_DESCR0, (void*) ((uint32) USBT
 877:Generated_Source\PSoC4/USBTMC_episr.c ****                     USBTMC_CyDmaSetDstAddress(channelNum, USBTMC_DMA_DESCR1, (void*) ((uint32) USBT
 878:Generated_Source\PSoC4/USBTMC_episr.c ****                                                                                                    
 879:Generated_Source\PSoC4/USBTMC_episr.c **** 
 880:Generated_Source\PSoC4/USBTMC_episr.c ****                     /* Restore number of data elements to transfer which was adjusted for last burs
 881:Generated_Source\PSoC4/USBTMC_episr.c ****                     if (0u != (USBTMC_DmaEpLastBurstEl[ep] & USBTMC_DMA_DESCR_REVERT))
 882:Generated_Source\PSoC4/USBTMC_episr.c ****                     {
 883:Generated_Source\PSoC4/USBTMC_episr.c ****                         USBTMC_CyDmaSetNumDataElements(channelNum, (USBTMC_DmaEpLastBurstEl[ep] >> 
ARM GAS  C:\Users\essele\AppData\Local\Temp\ccwMrTV8.s 			page 21


 884:Generated_Source\PSoC4/USBTMC_episr.c ****                                                                              USBTMC_DMA_GET_MAX_ELE
 885:Generated_Source\PSoC4/USBTMC_episr.c ****                     }
 886:Generated_Source\PSoC4/USBTMC_episr.c **** 
 887:Generated_Source\PSoC4/USBTMC_episr.c ****                     /* Validate descriptor 0 and 1 (also reset current state). Command to start wit
 888:Generated_Source\PSoC4/USBTMC_episr.c ****                     USBTMC_CyDmaValidateDescriptor(channelNum, USBTMC_DMA_DESCR0);
 889:Generated_Source\PSoC4/USBTMC_episr.c ****                     if (USBTMC_DmaEpBurstCntBackup[ep] > 1u)
 890:Generated_Source\PSoC4/USBTMC_episr.c ****                     {
 891:Generated_Source\PSoC4/USBTMC_episr.c ****                         USBTMC_CyDmaValidateDescriptor(channelNum, USBTMC_DMA_DESCR1);
 892:Generated_Source\PSoC4/USBTMC_episr.c ****                     }
 893:Generated_Source\PSoC4/USBTMC_episr.c ****                     USBTMC_CyDmaSetDescriptor0Next(channelNum);
 894:Generated_Source\PSoC4/USBTMC_episr.c **** 
 895:Generated_Source\PSoC4/USBTMC_episr.c ****                     /* Enable DMA channel: configuration complete. */
 896:Generated_Source\PSoC4/USBTMC_episr.c ****                     USBTMC_CyDmaChEnable(channelNum);
 897:Generated_Source\PSoC4/USBTMC_episr.c ****                     
 898:Generated_Source\PSoC4/USBTMC_episr.c ****                     
 899:Generated_Source\PSoC4/USBTMC_episr.c ****                     /* Read CR0 register to clear SIE lock. */
 900:Generated_Source\PSoC4/USBTMC_episr.c ****                     (void) USBTMC_SIE_EP_BASE.sieEp[ep].epCr0;
 901:Generated_Source\PSoC4/USBTMC_episr.c ****                     
 902:Generated_Source\PSoC4/USBTMC_episr.c ****                     /* Toggle all endpoint types except ISOC. */
 903:Generated_Source\PSoC4/USBTMC_episr.c ****                     if (USBTMC_GET_EP_TYPE(ep) != USBTMC_EP_TYPE_ISOC)
 904:Generated_Source\PSoC4/USBTMC_episr.c ****                     {
 905:Generated_Source\PSoC4/USBTMC_episr.c ****                         USBTMC_EP[ep].epToggle ^= USBTMC_EPX_CNT_DATA_TOGGLE;
 906:Generated_Source\PSoC4/USBTMC_episr.c ****                     }
 907:Generated_Source\PSoC4/USBTMC_episr.c ****             
 908:Generated_Source\PSoC4/USBTMC_episr.c ****                     /* Notify user that data has been copied from endpoint buffer. */
 909:Generated_Source\PSoC4/USBTMC_episr.c ****                     USBTMC_EP[ep].apiEpState = USBTMC_EVENT_PENDING;
 910:Generated_Source\PSoC4/USBTMC_episr.c ****                     
 911:Generated_Source\PSoC4/USBTMC_episr.c ****                 #if (defined(USBTMC_ENABLE_MIDI_STREAMING) && \
 912:Generated_Source\PSoC4/USBTMC_episr.c ****                     !defined(USBTMC_MAIN_SERVICE_MIDI_OUT) && USBTMC_ISR_SERVICE_MIDI_OUT)
 913:Generated_Source\PSoC4/USBTMC_episr.c ****                     if (USBTMC_midi_out_ep == ep)
 914:Generated_Source\PSoC4/USBTMC_episr.c ****                     {
 915:Generated_Source\PSoC4/USBTMC_episr.c ****                         USBTMC_MIDI_OUT_Service();
 916:Generated_Source\PSoC4/USBTMC_episr.c ****                     }
 917:Generated_Source\PSoC4/USBTMC_episr.c ****                 #endif /* (USBTMC_ISR_SERVICE_MIDI_OUT) */
 918:Generated_Source\PSoC4/USBTMC_episr.c ****                 }
 919:Generated_Source\PSoC4/USBTMC_episr.c ****             #endif /* (CY_PSOC4 && USBTMC_EP_MANAGEMENT_DMA_AUTO) */
 920:Generated_Source\PSoC4/USBTMC_episr.c **** 
 921:Generated_Source\PSoC4/USBTMC_episr.c **** 
 922:Generated_Source\PSoC4/USBTMC_episr.c ****                 /* `#START ARB_USER_CODE` Place your code here for handle Buffer Underflow/Overflow
 923:Generated_Source\PSoC4/USBTMC_episr.c **** 
 924:Generated_Source\PSoC4/USBTMC_episr.c ****                 /* `#END` */
 925:Generated_Source\PSoC4/USBTMC_episr.c **** 
 926:Generated_Source\PSoC4/USBTMC_episr.c ****             #ifdef USBTMC_ARB_ISR_CALLBACK
 927:Generated_Source\PSoC4/USBTMC_episr.c ****                 USBTMC_ARB_ISR_Callback(ep, epStatus);
 928:Generated_Source\PSoC4/USBTMC_episr.c ****             #endif /* (USBTMC_ARB_ISR_CALLBACK) */
 929:Generated_Source\PSoC4/USBTMC_episr.c **** 
 930:Generated_Source\PSoC4/USBTMC_episr.c ****                 /* Clear serviced endpoint interrupt sources. */
 931:Generated_Source\PSoC4/USBTMC_episr.c ****                 USBTMC_ARB_EP_BASE.arbEp[ep].epSr = epStatus;
 932:Generated_Source\PSoC4/USBTMC_episr.c ****             }
 933:Generated_Source\PSoC4/USBTMC_episr.c **** 
 934:Generated_Source\PSoC4/USBTMC_episr.c ****             ++ep;
 935:Generated_Source\PSoC4/USBTMC_episr.c ****             arbIntrStatus >>= 1u;
 936:Generated_Source\PSoC4/USBTMC_episr.c ****         }
 937:Generated_Source\PSoC4/USBTMC_episr.c **** 
 938:Generated_Source\PSoC4/USBTMC_episr.c ****         /* `#START ARB_END_USER_CODE` Place your code here */
 939:Generated_Source\PSoC4/USBTMC_episr.c **** 
 940:Generated_Source\PSoC4/USBTMC_episr.c ****         /* `#END` */
ARM GAS  C:\Users\essele\AppData\Local\Temp\ccwMrTV8.s 			page 22


 941:Generated_Source\PSoC4/USBTMC_episr.c **** 
 942:Generated_Source\PSoC4/USBTMC_episr.c ****     #ifdef USBTMC_ARB_ISR_EXIT_CALLBACK
 943:Generated_Source\PSoC4/USBTMC_episr.c ****         USBTMC_ARB_ISR_ExitCallback();
 944:Generated_Source\PSoC4/USBTMC_episr.c ****     #endif /* (USBTMC_ARB_ISR_EXIT_CALLBACK) */
 945:Generated_Source\PSoC4/USBTMC_episr.c ****     }
 946:Generated_Source\PSoC4/USBTMC_episr.c **** 
 947:Generated_Source\PSoC4/USBTMC_episr.c **** #endif /*  (USBTMC_ARB_ISR_ACTIVE && USBTMC_EP_MANAGEMENT_DMA) */
 948:Generated_Source\PSoC4/USBTMC_episr.c **** 
 949:Generated_Source\PSoC4/USBTMC_episr.c **** 
 950:Generated_Source\PSoC4/USBTMC_episr.c **** #if (USBTMC_EP_MANAGEMENT_DMA_AUTO)
 951:Generated_Source\PSoC4/USBTMC_episr.c **** #if (CY_PSOC4)
 952:Generated_Source\PSoC4/USBTMC_episr.c **** 
 953:Generated_Source\PSoC4/USBTMC_episr.c ****     /******************************************************************************
 954:Generated_Source\PSoC4/USBTMC_episr.c ****     * Function Name: USBTMC_EPxDmaDone
 955:Generated_Source\PSoC4/USBTMC_episr.c ****     ***************************************************************************//**
 956:Generated_Source\PSoC4/USBTMC_episr.c ****     *
 957:Generated_Source\PSoC4/USBTMC_episr.c ****     * \internal
 958:Generated_Source\PSoC4/USBTMC_episr.c ****     *  Endpoint  DMA Done Interrupt Service Routine basic function .
 959:Generated_Source\PSoC4/USBTMC_episr.c ****     *  
 960:Generated_Source\PSoC4/USBTMC_episr.c ****     *  \param dmaCh
 961:Generated_Source\PSoC4/USBTMC_episr.c ****     *  number of DMA channel
 962:Generated_Source\PSoC4/USBTMC_episr.c ****     *  
 963:Generated_Source\PSoC4/USBTMC_episr.c ****     *  \param ep
 964:Generated_Source\PSoC4/USBTMC_episr.c ****     *  number of USB end point
 965:Generated_Source\PSoC4/USBTMC_episr.c ****     *  
 966:Generated_Source\PSoC4/USBTMC_episr.c ****     *  \param dmaDone
 967:Generated_Source\PSoC4/USBTMC_episr.c ****     *  transfer completion flag
 968:Generated_Source\PSoC4/USBTMC_episr.c ****     *  
 969:Generated_Source\PSoC4/USBTMC_episr.c ****     *  \return
 970:Generated_Source\PSoC4/USBTMC_episr.c ****     *   updated transfer completion flag
 971:Generated_Source\PSoC4/USBTMC_episr.c ****     *
 972:Generated_Source\PSoC4/USBTMC_episr.c ****     ******************************************************************************/
 973:Generated_Source\PSoC4/USBTMC_episr.c ****     CY_INLINE static void USBTMC_EPxDmaDone(uint8 dmaCh, uint8 ep)
 974:Generated_Source\PSoC4/USBTMC_episr.c ****     {
 975:Generated_Source\PSoC4/USBTMC_episr.c ****         uint32 nextAddr;
 976:Generated_Source\PSoC4/USBTMC_episr.c **** 
 977:Generated_Source\PSoC4/USBTMC_episr.c ****         /* Manage data elements which remain to transfer. */
 978:Generated_Source\PSoC4/USBTMC_episr.c ****         if (0u != USBTMC_DmaEpBurstCnt[ep])
 979:Generated_Source\PSoC4/USBTMC_episr.c ****         {
 980:Generated_Source\PSoC4/USBTMC_episr.c ****             if(USBTMC_DmaEpBurstCnt[ep] <= 2u)
 981:Generated_Source\PSoC4/USBTMC_episr.c ****             {
 982:Generated_Source\PSoC4/USBTMC_episr.c ****                 /* Adjust length of last burst. */
 983:Generated_Source\PSoC4/USBTMC_episr.c ****                 USBTMC_CyDmaSetNumDataElements(dmaCh,
 984:Generated_Source\PSoC4/USBTMC_episr.c ****                                                     ((uint32) USBTMC_DmaEpLastBurstEl[ep] >> USBTMC
 985:Generated_Source\PSoC4/USBTMC_episr.c ****                                                     ((uint32) USBTMC_DmaEpLastBurstEl[ep] &  USBTMC
 986:Generated_Source\PSoC4/USBTMC_episr.c ****             }
 987:Generated_Source\PSoC4/USBTMC_episr.c ****             
 988:Generated_Source\PSoC4/USBTMC_episr.c **** 
 989:Generated_Source\PSoC4/USBTMC_episr.c ****             /* Advance source for input endpoint or destination for output endpoint. */
 990:Generated_Source\PSoC4/USBTMC_episr.c ****             if (0u != (USBTMC_EP[ep].addr & USBTMC_DIR_IN))
 991:Generated_Source\PSoC4/USBTMC_episr.c ****             {
 992:Generated_Source\PSoC4/USBTMC_episr.c ****                 /* Change source for descriptor 0. */
 993:Generated_Source\PSoC4/USBTMC_episr.c ****                 nextAddr = (uint32) USBTMC_CyDmaGetSrcAddress(dmaCh, USBTMC_DMA_DESCR0);
 994:Generated_Source\PSoC4/USBTMC_episr.c ****                 nextAddr += (2u * USBTMC_DMA_BYTES_PER_BURST);
 995:Generated_Source\PSoC4/USBTMC_episr.c ****                 USBTMC_CyDmaSetSrcAddress(dmaCh, USBTMC_DMA_DESCR0, (void *) nextAddr);
 996:Generated_Source\PSoC4/USBTMC_episr.c **** 
 997:Generated_Source\PSoC4/USBTMC_episr.c ****                 /* Change source for descriptor 1. */
ARM GAS  C:\Users\essele\AppData\Local\Temp\ccwMrTV8.s 			page 23


 998:Generated_Source\PSoC4/USBTMC_episr.c ****                 nextAddr += USBTMC_DMA_BYTES_PER_BURST;
 999:Generated_Source\PSoC4/USBTMC_episr.c ****                 USBTMC_CyDmaSetSrcAddress(dmaCh, USBTMC_DMA_DESCR1, (void *) nextAddr);
1000:Generated_Source\PSoC4/USBTMC_episr.c ****             }
1001:Generated_Source\PSoC4/USBTMC_episr.c ****             else
1002:Generated_Source\PSoC4/USBTMC_episr.c ****             {
1003:Generated_Source\PSoC4/USBTMC_episr.c ****                 /* Change destination for descriptor 0. */
1004:Generated_Source\PSoC4/USBTMC_episr.c ****                 nextAddr  = (uint32) USBTMC_CyDmaGetDstAddress(dmaCh, USBTMC_DMA_DESCR0);
1005:Generated_Source\PSoC4/USBTMC_episr.c ****                 nextAddr += (2u * USBTMC_DMA_BYTES_PER_BURST);
1006:Generated_Source\PSoC4/USBTMC_episr.c ****                 USBTMC_CyDmaSetDstAddress(dmaCh, USBTMC_DMA_DESCR0, (void *) nextAddr);
1007:Generated_Source\PSoC4/USBTMC_episr.c **** 
1008:Generated_Source\PSoC4/USBTMC_episr.c ****                 /* Change destination for descriptor 1. */
1009:Generated_Source\PSoC4/USBTMC_episr.c ****                 nextAddr += USBTMC_DMA_BYTES_PER_BURST;
1010:Generated_Source\PSoC4/USBTMC_episr.c ****                 USBTMC_CyDmaSetDstAddress(dmaCh, USBTMC_DMA_DESCR1, (void *) nextAddr);
1011:Generated_Source\PSoC4/USBTMC_episr.c ****             }
1012:Generated_Source\PSoC4/USBTMC_episr.c **** 
1013:Generated_Source\PSoC4/USBTMC_episr.c ****             /* Enable DMA to execute transfer as it was disabled because there were no valid descri
1014:Generated_Source\PSoC4/USBTMC_episr.c ****             USBTMC_CyDmaValidateDescriptor(dmaCh, USBTMC_DMA_DESCR0);
1015:Generated_Source\PSoC4/USBTMC_episr.c ****             
1016:Generated_Source\PSoC4/USBTMC_episr.c ****             --USBTMC_DmaEpBurstCnt[ep];
1017:Generated_Source\PSoC4/USBTMC_episr.c ****             if (0u != USBTMC_DmaEpBurstCnt[ep])
1018:Generated_Source\PSoC4/USBTMC_episr.c ****             {
1019:Generated_Source\PSoC4/USBTMC_episr.c ****                 USBTMC_CyDmaValidateDescriptor(dmaCh, USBTMC_DMA_DESCR1);
1020:Generated_Source\PSoC4/USBTMC_episr.c ****                 --USBTMC_DmaEpBurstCnt[ep];
1021:Generated_Source\PSoC4/USBTMC_episr.c ****             }
1022:Generated_Source\PSoC4/USBTMC_episr.c ****             
1023:Generated_Source\PSoC4/USBTMC_episr.c ****             USBTMC_CyDmaChEnable (dmaCh);
1024:Generated_Source\PSoC4/USBTMC_episr.c ****             USBTMC_CyDmaTriggerIn(USBTMC_DmaReqOut[ep]);
1025:Generated_Source\PSoC4/USBTMC_episr.c ****         }
1026:Generated_Source\PSoC4/USBTMC_episr.c ****         else
1027:Generated_Source\PSoC4/USBTMC_episr.c ****         {
1028:Generated_Source\PSoC4/USBTMC_episr.c ****             /* No data to transfer. False DMA trig. Ignore.  */
1029:Generated_Source\PSoC4/USBTMC_episr.c ****         }
1030:Generated_Source\PSoC4/USBTMC_episr.c **** 
1031:Generated_Source\PSoC4/USBTMC_episr.c ****     }
1032:Generated_Source\PSoC4/USBTMC_episr.c **** 
1033:Generated_Source\PSoC4/USBTMC_episr.c ****     #if (USBTMC_DMA1_ACTIVE)
1034:Generated_Source\PSoC4/USBTMC_episr.c ****         /******************************************************************************
1035:Generated_Source\PSoC4/USBTMC_episr.c ****         * Function Name: USBTMC_EP1_DMA_DONE_ISR
1036:Generated_Source\PSoC4/USBTMC_episr.c ****         ***************************************************************************//**
1037:Generated_Source\PSoC4/USBTMC_episr.c ****         *
1038:Generated_Source\PSoC4/USBTMC_episr.c ****         *  Endpoint 1 DMA Done Interrupt Service Routine.
1039:Generated_Source\PSoC4/USBTMC_episr.c ****         *
1040:Generated_Source\PSoC4/USBTMC_episr.c ****         *
1041:Generated_Source\PSoC4/USBTMC_episr.c ****         ******************************************************************************/
1042:Generated_Source\PSoC4/USBTMC_episr.c ****         void USBTMC_EP1_DMA_DONE_ISR(void)
1043:Generated_Source\PSoC4/USBTMC_episr.c ****         {
1044:Generated_Source\PSoC4/USBTMC_episr.c **** 
1045:Generated_Source\PSoC4/USBTMC_episr.c ****             USBTMC_EPxDmaDone((uint8)USBTMC_EP1_DMA_CH,
1046:Generated_Source\PSoC4/USBTMC_episr.c ****                                                   USBTMC_EP1);
1047:Generated_Source\PSoC4/USBTMC_episr.c ****                 
1048:Generated_Source\PSoC4/USBTMC_episr.c ****         }
1049:Generated_Source\PSoC4/USBTMC_episr.c ****     #endif /* (USBTMC_DMA1_ACTIVE) */
1050:Generated_Source\PSoC4/USBTMC_episr.c **** 
1051:Generated_Source\PSoC4/USBTMC_episr.c **** 
1052:Generated_Source\PSoC4/USBTMC_episr.c ****     #if (USBTMC_DMA2_ACTIVE)
1053:Generated_Source\PSoC4/USBTMC_episr.c ****         /******************************************************************************
1054:Generated_Source\PSoC4/USBTMC_episr.c ****         * Function Name: USBTMC_EP2_DMA_DONE_ISR
ARM GAS  C:\Users\essele\AppData\Local\Temp\ccwMrTV8.s 			page 24


1055:Generated_Source\PSoC4/USBTMC_episr.c ****         ***************************************************************************//**
1056:Generated_Source\PSoC4/USBTMC_episr.c ****         *
1057:Generated_Source\PSoC4/USBTMC_episr.c ****         *  Endpoint 2 DMA Done Interrupt Service Routine.
1058:Generated_Source\PSoC4/USBTMC_episr.c ****         *
1059:Generated_Source\PSoC4/USBTMC_episr.c ****         *
1060:Generated_Source\PSoC4/USBTMC_episr.c ****         ******************************************************************************/
1061:Generated_Source\PSoC4/USBTMC_episr.c ****         void USBTMC_EP2_DMA_DONE_ISR(void)
1062:Generated_Source\PSoC4/USBTMC_episr.c ****         {
1063:Generated_Source\PSoC4/USBTMC_episr.c **** 
1064:Generated_Source\PSoC4/USBTMC_episr.c ****             USBTMC_EPxDmaDone((uint8)USBTMC_EP2_DMA_CH,
1065:Generated_Source\PSoC4/USBTMC_episr.c ****                                                   USBTMC_EP2);
1066:Generated_Source\PSoC4/USBTMC_episr.c ****         }
1067:Generated_Source\PSoC4/USBTMC_episr.c ****     #endif /* (USBTMC_DMA2_ACTIVE) */
1068:Generated_Source\PSoC4/USBTMC_episr.c **** 
1069:Generated_Source\PSoC4/USBTMC_episr.c **** 
1070:Generated_Source\PSoC4/USBTMC_episr.c ****     #if (USBTMC_DMA3_ACTIVE)
1071:Generated_Source\PSoC4/USBTMC_episr.c ****         /******************************************************************************
1072:Generated_Source\PSoC4/USBTMC_episr.c ****         * Function Name: USBTMC_EP3_DMA_DONE_ISR
1073:Generated_Source\PSoC4/USBTMC_episr.c ****         ***************************************************************************//**
1074:Generated_Source\PSoC4/USBTMC_episr.c ****         *
1075:Generated_Source\PSoC4/USBTMC_episr.c ****         *  Endpoint 3 DMA Done Interrupt Service Routine.
1076:Generated_Source\PSoC4/USBTMC_episr.c ****         *
1077:Generated_Source\PSoC4/USBTMC_episr.c ****         *
1078:Generated_Source\PSoC4/USBTMC_episr.c ****         ******************************************************************************/
1079:Generated_Source\PSoC4/USBTMC_episr.c ****         void USBTMC_EP3_DMA_DONE_ISR(void)
1080:Generated_Source\PSoC4/USBTMC_episr.c ****         {
1081:Generated_Source\PSoC4/USBTMC_episr.c **** 
1082:Generated_Source\PSoC4/USBTMC_episr.c ****             USBTMC_EPxDmaDone((uint8)USBTMC_EP3_DMA_CH,
1083:Generated_Source\PSoC4/USBTMC_episr.c ****                                                   USBTMC_EP3);
1084:Generated_Source\PSoC4/USBTMC_episr.c ****         }
1085:Generated_Source\PSoC4/USBTMC_episr.c ****     #endif /* (USBTMC_DMA3_ACTIVE) */
1086:Generated_Source\PSoC4/USBTMC_episr.c **** 
1087:Generated_Source\PSoC4/USBTMC_episr.c **** 
1088:Generated_Source\PSoC4/USBTMC_episr.c ****     #if (USBTMC_DMA4_ACTIVE)
1089:Generated_Source\PSoC4/USBTMC_episr.c ****         /******************************************************************************
1090:Generated_Source\PSoC4/USBTMC_episr.c ****         * Function Name: USBTMC_EP4_DMA_DONE_ISR
1091:Generated_Source\PSoC4/USBTMC_episr.c ****         ***************************************************************************//**
1092:Generated_Source\PSoC4/USBTMC_episr.c ****         *
1093:Generated_Source\PSoC4/USBTMC_episr.c ****         *  Endpoint 4 DMA Done Interrupt Service Routine.
1094:Generated_Source\PSoC4/USBTMC_episr.c ****         *
1095:Generated_Source\PSoC4/USBTMC_episr.c ****         *
1096:Generated_Source\PSoC4/USBTMC_episr.c ****         ******************************************************************************/
1097:Generated_Source\PSoC4/USBTMC_episr.c ****         void USBTMC_EP4_DMA_DONE_ISR(void)
1098:Generated_Source\PSoC4/USBTMC_episr.c ****         {
1099:Generated_Source\PSoC4/USBTMC_episr.c **** 
1100:Generated_Source\PSoC4/USBTMC_episr.c ****             USBTMC_EPxDmaDone((uint8)USBTMC_EP4_DMA_CH,
1101:Generated_Source\PSoC4/USBTMC_episr.c ****                                                   USBTMC_EP4);
1102:Generated_Source\PSoC4/USBTMC_episr.c ****         }
1103:Generated_Source\PSoC4/USBTMC_episr.c ****     #endif /* (USBTMC_DMA4_ACTIVE) */
1104:Generated_Source\PSoC4/USBTMC_episr.c **** 
1105:Generated_Source\PSoC4/USBTMC_episr.c **** 
1106:Generated_Source\PSoC4/USBTMC_episr.c ****     #if (USBTMC_DMA5_ACTIVE)
1107:Generated_Source\PSoC4/USBTMC_episr.c ****         /******************************************************************************
1108:Generated_Source\PSoC4/USBTMC_episr.c ****         * Function Name: USBTMC_EP5_DMA_DONE_ISR
1109:Generated_Source\PSoC4/USBTMC_episr.c ****         ***************************************************************************//**
1110:Generated_Source\PSoC4/USBTMC_episr.c ****         *
1111:Generated_Source\PSoC4/USBTMC_episr.c ****         *  Endpoint 5 DMA Done Interrupt Service Routine.
ARM GAS  C:\Users\essele\AppData\Local\Temp\ccwMrTV8.s 			page 25


1112:Generated_Source\PSoC4/USBTMC_episr.c ****         *
1113:Generated_Source\PSoC4/USBTMC_episr.c ****         *
1114:Generated_Source\PSoC4/USBTMC_episr.c ****         ******************************************************************************/
1115:Generated_Source\PSoC4/USBTMC_episr.c ****         void USBTMC_EP5_DMA_DONE_ISR(void)
1116:Generated_Source\PSoC4/USBTMC_episr.c ****         {
1117:Generated_Source\PSoC4/USBTMC_episr.c **** 
1118:Generated_Source\PSoC4/USBTMC_episr.c ****             USBTMC_EPxDmaDone((uint8)USBTMC_EP5_DMA_CH,
1119:Generated_Source\PSoC4/USBTMC_episr.c ****                                                   USBTMC_EP5);
1120:Generated_Source\PSoC4/USBTMC_episr.c ****         }
1121:Generated_Source\PSoC4/USBTMC_episr.c ****     #endif /* (USBTMC_DMA5_ACTIVE) */
1122:Generated_Source\PSoC4/USBTMC_episr.c **** 
1123:Generated_Source\PSoC4/USBTMC_episr.c **** 
1124:Generated_Source\PSoC4/USBTMC_episr.c ****     #if (USBTMC_DMA6_ACTIVE)
1125:Generated_Source\PSoC4/USBTMC_episr.c ****         /******************************************************************************
1126:Generated_Source\PSoC4/USBTMC_episr.c ****         * Function Name: USBTMC_EP6_DMA_DONE_ISR
1127:Generated_Source\PSoC4/USBTMC_episr.c ****         ***************************************************************************//**
1128:Generated_Source\PSoC4/USBTMC_episr.c ****         *
1129:Generated_Source\PSoC4/USBTMC_episr.c ****         *  Endpoint 6 DMA Done Interrupt Service Routine.
1130:Generated_Source\PSoC4/USBTMC_episr.c ****         *
1131:Generated_Source\PSoC4/USBTMC_episr.c ****         *
1132:Generated_Source\PSoC4/USBTMC_episr.c ****         ******************************************************************************/
1133:Generated_Source\PSoC4/USBTMC_episr.c ****         void USBTMC_EP6_DMA_DONE_ISR(void)
1134:Generated_Source\PSoC4/USBTMC_episr.c ****         {
1135:Generated_Source\PSoC4/USBTMC_episr.c **** 
1136:Generated_Source\PSoC4/USBTMC_episr.c ****             USBTMC_EPxDmaDone((uint8)USBTMC_EP6_DMA_CH,
1137:Generated_Source\PSoC4/USBTMC_episr.c ****                                                   USBTMC_EP6);
1138:Generated_Source\PSoC4/USBTMC_episr.c ****         }
1139:Generated_Source\PSoC4/USBTMC_episr.c ****     #endif /* (USBTMC_DMA6_ACTIVE) */
1140:Generated_Source\PSoC4/USBTMC_episr.c **** 
1141:Generated_Source\PSoC4/USBTMC_episr.c **** 
1142:Generated_Source\PSoC4/USBTMC_episr.c ****     #if (USBTMC_DMA7_ACTIVE)
1143:Generated_Source\PSoC4/USBTMC_episr.c ****         /******************************************************************************
1144:Generated_Source\PSoC4/USBTMC_episr.c ****         * Function Name: USBTMC_EP7_DMA_DONE_ISR
1145:Generated_Source\PSoC4/USBTMC_episr.c ****         ***************************************************************************//**
1146:Generated_Source\PSoC4/USBTMC_episr.c ****         *
1147:Generated_Source\PSoC4/USBTMC_episr.c ****         *  Endpoint 7 DMA Done Interrupt Service Routine.
1148:Generated_Source\PSoC4/USBTMC_episr.c ****         *
1149:Generated_Source\PSoC4/USBTMC_episr.c ****         *
1150:Generated_Source\PSoC4/USBTMC_episr.c ****         ******************************************************************************/
1151:Generated_Source\PSoC4/USBTMC_episr.c ****         void USBTMC_EP7_DMA_DONE_ISR(void)
1152:Generated_Source\PSoC4/USBTMC_episr.c ****         {
1153:Generated_Source\PSoC4/USBTMC_episr.c **** 
1154:Generated_Source\PSoC4/USBTMC_episr.c ****             USBTMC_EPxDmaDone((uint8)USBTMC_EP7_DMA_CH,
1155:Generated_Source\PSoC4/USBTMC_episr.c ****                                                   USBTMC_EP7);
1156:Generated_Source\PSoC4/USBTMC_episr.c ****         }
1157:Generated_Source\PSoC4/USBTMC_episr.c ****     #endif /* (USBTMC_DMA7_ACTIVE) */
1158:Generated_Source\PSoC4/USBTMC_episr.c **** 
1159:Generated_Source\PSoC4/USBTMC_episr.c **** 
1160:Generated_Source\PSoC4/USBTMC_episr.c ****     #if (USBTMC_DMA8_ACTIVE)
1161:Generated_Source\PSoC4/USBTMC_episr.c ****         /******************************************************************************
1162:Generated_Source\PSoC4/USBTMC_episr.c ****         * Function Name: USBTMC_EP8_DMA_DONE_ISR
1163:Generated_Source\PSoC4/USBTMC_episr.c ****         ***************************************************************************//**
1164:Generated_Source\PSoC4/USBTMC_episr.c ****         *
1165:Generated_Source\PSoC4/USBTMC_episr.c ****         *  Endpoint 8 DMA Done Interrupt Service Routine.
1166:Generated_Source\PSoC4/USBTMC_episr.c ****         *
1167:Generated_Source\PSoC4/USBTMC_episr.c ****         *
1168:Generated_Source\PSoC4/USBTMC_episr.c ****         ******************************************************************************/
ARM GAS  C:\Users\essele\AppData\Local\Temp\ccwMrTV8.s 			page 26


1169:Generated_Source\PSoC4/USBTMC_episr.c ****         void USBTMC_EP8_DMA_DONE_ISR(void)
1170:Generated_Source\PSoC4/USBTMC_episr.c ****         {
1171:Generated_Source\PSoC4/USBTMC_episr.c **** 
1172:Generated_Source\PSoC4/USBTMC_episr.c ****             USBTMC_EPxDmaDone((uint8)USBTMC_EP8_DMA_CH,
1173:Generated_Source\PSoC4/USBTMC_episr.c ****                                                   USBTMC_EP8);
1174:Generated_Source\PSoC4/USBTMC_episr.c ****         }
1175:Generated_Source\PSoC4/USBTMC_episr.c ****     #endif /* (USBTMC_DMA8_ACTIVE) */
1176:Generated_Source\PSoC4/USBTMC_episr.c **** 
1177:Generated_Source\PSoC4/USBTMC_episr.c **** 
1178:Generated_Source\PSoC4/USBTMC_episr.c **** #else
1179:Generated_Source\PSoC4/USBTMC_episr.c ****     #if (USBTMC_EP_DMA_AUTO_OPT == 0u)
1180:Generated_Source\PSoC4/USBTMC_episr.c ****         /******************************************************************************
1181:Generated_Source\PSoC4/USBTMC_episr.c ****         * Function Name: USBTMC_EP_DMA_DONE_ISR
1182:Generated_Source\PSoC4/USBTMC_episr.c ****         ***************************************************************************//**
1183:Generated_Source\PSoC4/USBTMC_episr.c ****         *
1184:Generated_Source\PSoC4/USBTMC_episr.c ****         *  DMA Done Interrupt Service Routine.
1185:Generated_Source\PSoC4/USBTMC_episr.c ****         *
1186:Generated_Source\PSoC4/USBTMC_episr.c ****         *
1187:Generated_Source\PSoC4/USBTMC_episr.c ****         ******************************************************************************/
1188:Generated_Source\PSoC4/USBTMC_episr.c ****         CY_ISR(USBTMC_EP_DMA_DONE_ISR)
1189:Generated_Source\PSoC4/USBTMC_episr.c ****         {
1190:Generated_Source\PSoC4/USBTMC_episr.c ****             uint8 int8Status;
1191:Generated_Source\PSoC4/USBTMC_episr.c ****             uint8 int17Status;
1192:Generated_Source\PSoC4/USBTMC_episr.c ****             uint8 ep_status;
1193:Generated_Source\PSoC4/USBTMC_episr.c ****             uint8 ep = USBTMC_EP1;
1194:Generated_Source\PSoC4/USBTMC_episr.c **** 
1195:Generated_Source\PSoC4/USBTMC_episr.c ****         #ifdef USBTMC_EP_DMA_DONE_ISR_ENTRY_CALLBACK
1196:Generated_Source\PSoC4/USBTMC_episr.c ****             USBTMC_EP_DMA_DONE_ISR_EntryCallback();
1197:Generated_Source\PSoC4/USBTMC_episr.c ****         #endif /* (USBTMC_EP_DMA_DONE_ISR_ENTRY_CALLBACK) */
1198:Generated_Source\PSoC4/USBTMC_episr.c **** 
1199:Generated_Source\PSoC4/USBTMC_episr.c ****             /* `#START EP_DMA_DONE_BEGIN_USER_CODE` Place your code here */
1200:Generated_Source\PSoC4/USBTMC_episr.c **** 
1201:Generated_Source\PSoC4/USBTMC_episr.c ****             /* `#END` */
1202:Generated_Source\PSoC4/USBTMC_episr.c **** 
1203:Generated_Source\PSoC4/USBTMC_episr.c ****             /* Read clear on read status register with EP source of interrupt. */
1204:Generated_Source\PSoC4/USBTMC_episr.c ****             int17Status = USBTMC_EP17_DMA_Done_SR_Read() & USBTMC_EP17_SR_MASK;
1205:Generated_Source\PSoC4/USBTMC_episr.c ****             int8Status  = USBTMC_EP8_DMA_Done_SR_Read()  & USBTMC_EP8_SR_MASK;
1206:Generated_Source\PSoC4/USBTMC_episr.c **** 
1207:Generated_Source\PSoC4/USBTMC_episr.c ****             while (int8Status != 0u)
1208:Generated_Source\PSoC4/USBTMC_episr.c ****             {
1209:Generated_Source\PSoC4/USBTMC_episr.c ****                 while (int17Status != 0u)
1210:Generated_Source\PSoC4/USBTMC_episr.c ****                 {
1211:Generated_Source\PSoC4/USBTMC_episr.c ****                     if ((int17Status & 1u) != 0u)  /* If EpX interrupt present. */
1212:Generated_Source\PSoC4/USBTMC_episr.c ****                     {
1213:Generated_Source\PSoC4/USBTMC_episr.c ****                         /* Read Endpoint Status Register. */
1214:Generated_Source\PSoC4/USBTMC_episr.c ****                         ep_status = USBTMC_ARB_EP_BASE.arbEp[ep].epSr;
1215:Generated_Source\PSoC4/USBTMC_episr.c **** 
1216:Generated_Source\PSoC4/USBTMC_episr.c ****                         if ((0u == (ep_status & USBTMC_ARB_EPX_SR_IN_BUF_FULL)) &&
1217:Generated_Source\PSoC4/USBTMC_episr.c ****                             (0u ==USBTMC_inBufFull[ep]))
1218:Generated_Source\PSoC4/USBTMC_episr.c ****                         {
1219:Generated_Source\PSoC4/USBTMC_episr.c ****                             /* `#START EP_DMA_DONE_USER_CODE` Place your code here */
1220:Generated_Source\PSoC4/USBTMC_episr.c **** 
1221:Generated_Source\PSoC4/USBTMC_episr.c ****                             /* `#END` */
1222:Generated_Source\PSoC4/USBTMC_episr.c **** 
1223:Generated_Source\PSoC4/USBTMC_episr.c ****                         #ifdef USBTMC_EP_DMA_DONE_ISR_CALLBACK
1224:Generated_Source\PSoC4/USBTMC_episr.c ****                             USBTMC_EP_DMA_DONE_ISR_Callback();
1225:Generated_Source\PSoC4/USBTMC_episr.c ****                         #endif /* (USBTMC_EP_DMA_DONE_ISR_CALLBACK) */
ARM GAS  C:\Users\essele\AppData\Local\Temp\ccwMrTV8.s 			page 27


1226:Generated_Source\PSoC4/USBTMC_episr.c **** 
1227:Generated_Source\PSoC4/USBTMC_episr.c ****                             /* Transfer again 2 last bytes into pre-fetch endpoint area. */
1228:Generated_Source\PSoC4/USBTMC_episr.c ****                             USBTMC_ARB_EP_BASE.arbEp[ep].rwWaMsb = 0u;
1229:Generated_Source\PSoC4/USBTMC_episr.c ****                             USBTMC_ARB_EP_BASE.arbEp[ep].rwWa = (USBTMC_DMA_BYTES_PER_BURST * ep) -
1230:Generated_Source\PSoC4/USBTMC_episr.c ****                             USBTMC_LoadNextInEP(ep, 1u);
1231:Generated_Source\PSoC4/USBTMC_episr.c **** 
1232:Generated_Source\PSoC4/USBTMC_episr.c ****                             /* Set Data ready status to generate DMA request. */
1233:Generated_Source\PSoC4/USBTMC_episr.c ****                             USBTMC_ARB_EP_BASE.arbEp[ep].epCfg |= USBTMC_ARB_EPX_CFG_IN_DATA_RDY;
1234:Generated_Source\PSoC4/USBTMC_episr.c ****                         }
1235:Generated_Source\PSoC4/USBTMC_episr.c ****                     }
1236:Generated_Source\PSoC4/USBTMC_episr.c **** 
1237:Generated_Source\PSoC4/USBTMC_episr.c ****                     ep++;
1238:Generated_Source\PSoC4/USBTMC_episr.c ****                     int17Status >>= 1u;
1239:Generated_Source\PSoC4/USBTMC_episr.c ****                 }
1240:Generated_Source\PSoC4/USBTMC_episr.c **** 
1241:Generated_Source\PSoC4/USBTMC_episr.c ****                 int8Status >>= 1u;
1242:Generated_Source\PSoC4/USBTMC_episr.c **** 
1243:Generated_Source\PSoC4/USBTMC_episr.c ****                 if (int8Status != 0u)
1244:Generated_Source\PSoC4/USBTMC_episr.c ****                 {
1245:Generated_Source\PSoC4/USBTMC_episr.c ****                     /* Prepare pointer for EP8. */
1246:Generated_Source\PSoC4/USBTMC_episr.c ****                     ep = USBTMC_EP8;
1247:Generated_Source\PSoC4/USBTMC_episr.c ****                     int17Status = int8Status & 0x01u;
1248:Generated_Source\PSoC4/USBTMC_episr.c ****                 }
1249:Generated_Source\PSoC4/USBTMC_episr.c ****             }
1250:Generated_Source\PSoC4/USBTMC_episr.c **** 
1251:Generated_Source\PSoC4/USBTMC_episr.c ****             /* `#START EP_DMA_DONE_END_USER_CODE` Place your code here */
1252:Generated_Source\PSoC4/USBTMC_episr.c **** 
1253:Generated_Source\PSoC4/USBTMC_episr.c ****             /* `#END` */
1254:Generated_Source\PSoC4/USBTMC_episr.c **** 
1255:Generated_Source\PSoC4/USBTMC_episr.c ****     #ifdef USBTMC_EP_DMA_DONE_ISR_EXIT_CALLBACK
1256:Generated_Source\PSoC4/USBTMC_episr.c ****         USBTMC_EP_DMA_DONE_ISR_ExitCallback();
1257:Generated_Source\PSoC4/USBTMC_episr.c ****     #endif /* (USBTMC_EP_DMA_DONE_ISR_EXIT_CALLBACK) */
1258:Generated_Source\PSoC4/USBTMC_episr.c ****         }
1259:Generated_Source\PSoC4/USBTMC_episr.c ****     #endif /* (USBTMC_EP_DMA_AUTO_OPT == 0u) */
1260:Generated_Source\PSoC4/USBTMC_episr.c **** #endif /* (CY_PSOC4) */
1261:Generated_Source\PSoC4/USBTMC_episr.c **** #endif /* (USBTMC_EP_MANAGEMENT_DMA_AUTO) */
1262:Generated_Source\PSoC4/USBTMC_episr.c **** 
1263:Generated_Source\PSoC4/USBTMC_episr.c **** 
1264:Generated_Source\PSoC4/USBTMC_episr.c **** #if (CY_PSOC4)
1265:Generated_Source\PSoC4/USBTMC_episr.c ****     /***************************************************************************
1266:Generated_Source\PSoC4/USBTMC_episr.c ****     * Function Name: USBTMC_IntrHandler
1267:Generated_Source\PSoC4/USBTMC_episr.c ****     ************************************************************************//**
1268:Generated_Source\PSoC4/USBTMC_episr.c ****     *
1269:Generated_Source\PSoC4/USBTMC_episr.c ****     *   Interrupt handler for Hi/Mid/Low ISRs.
1270:Generated_Source\PSoC4/USBTMC_episr.c ****     *
1271:Generated_Source\PSoC4/USBTMC_episr.c ****     *  regCause - The cause register of interrupt. One of the three variants:
1272:Generated_Source\PSoC4/USBTMC_episr.c ****     *       USBTMC_INTR_CAUSE_LO_REG - Low interrupts.
1273:Generated_Source\PSoC4/USBTMC_episr.c ****     *       USBTMC_INTR_CAUSE_MED_REG - Med interrupts.
1274:Generated_Source\PSoC4/USBTMC_episr.c ****     *       USBTMC_INTR_CAUSE_HI_REG - - High interrupts.
1275:Generated_Source\PSoC4/USBTMC_episr.c ****     *
1276:Generated_Source\PSoC4/USBTMC_episr.c ****     *
1277:Generated_Source\PSoC4/USBTMC_episr.c ****     ***************************************************************************/
1278:Generated_Source\PSoC4/USBTMC_episr.c ****     CY_INLINE static void USBTMC_IntrHandler(uint32 intrCause)
1279:Generated_Source\PSoC4/USBTMC_episr.c ****     {
 258              		.loc 1 1279 0
 259              		.cfi_startproc
 260              		@ args = 0, pretend = 0, frame = 16
ARM GAS  C:\Users\essele\AppData\Local\Temp\ccwMrTV8.s 			page 28


 261              		@ frame_needed = 1, uses_anonymous_args = 0
 262 0000 80B5     		push	{r7, lr}
 263              		.cfi_def_cfa_offset 8
 264              		.cfi_offset 7, -8
 265              		.cfi_offset 14, -4
 266 0002 84B0     		sub	sp, sp, #16
 267              		.cfi_def_cfa_offset 24
 268 0004 00AF     		add	r7, sp, #0
 269              		.cfi_def_cfa_register 7
 270 0006 7860     		str	r0, [r7, #4]
1280:Generated_Source\PSoC4/USBTMC_episr.c ****         /* Array of pointers to component interrupt handlers. */
1281:Generated_Source\PSoC4/USBTMC_episr.c ****         static const cyisraddress USBTMC_isrCallbacks[] =
1282:Generated_Source\PSoC4/USBTMC_episr.c ****         {
1283:Generated_Source\PSoC4/USBTMC_episr.c ****             NULL,
1284:Generated_Source\PSoC4/USBTMC_episr.c ****             &USBTMC_BUS_RESET_ISR,
1285:Generated_Source\PSoC4/USBTMC_episr.c ****             &USBTMC_EP_0_ISR,
1286:Generated_Source\PSoC4/USBTMC_episr.c ****             NULL,
1287:Generated_Source\PSoC4/USBTMC_episr.c ****             NULL,
1288:Generated_Source\PSoC4/USBTMC_episr.c ****             &USBTMC_EP_1_ISR,
1289:Generated_Source\PSoC4/USBTMC_episr.c ****             &USBTMC_EP_2_ISR,
1290:Generated_Source\PSoC4/USBTMC_episr.c ****             &USBTMC_EP_3_ISR,
1291:Generated_Source\PSoC4/USBTMC_episr.c ****             NULL,
1292:Generated_Source\PSoC4/USBTMC_episr.c ****             NULL,
1293:Generated_Source\PSoC4/USBTMC_episr.c ****             NULL,
1294:Generated_Source\PSoC4/USBTMC_episr.c ****             NULL,
1295:Generated_Source\PSoC4/USBTMC_episr.c ****             NULL,
1296:Generated_Source\PSoC4/USBTMC_episr.c ****         };
1297:Generated_Source\PSoC4/USBTMC_episr.c **** 
1298:Generated_Source\PSoC4/USBTMC_episr.c ****         uint32 cbIdx = 0u;
 271              		.loc 1 1298 0
 272 0008 0023     		movs	r3, #0
 273 000a FB60     		str	r3, [r7, #12]
1299:Generated_Source\PSoC4/USBTMC_episr.c **** 
1300:Generated_Source\PSoC4/USBTMC_episr.c ****         /* Check arbiter interrupt source first. */
1301:Generated_Source\PSoC4/USBTMC_episr.c ****         if (0u != (intrCause & USBTMC_INTR_CAUSE_ARB_INTR))
 274              		.loc 1 1301 0
 275 000c 7B68     		ldr	r3, [r7, #4]
 276 000e 8022     		movs	r2, #128
 277 0010 1340     		ands	r3, r2
 278 0012 02D0     		beq	.L17
1302:Generated_Source\PSoC4/USBTMC_episr.c ****         {
1303:Generated_Source\PSoC4/USBTMC_episr.c ****             USBTMC_isrCallbacks[USBTMC_ARB_EP_INTR_NUM]();
 279              		.loc 1 1303 0
 280 0014 114B     		ldr	r3, .L21
 281 0016 1B69     		ldr	r3, [r3, #16]
 282 0018 9847     		blx	r3
 283              	.L17:
1304:Generated_Source\PSoC4/USBTMC_episr.c ****         }
1305:Generated_Source\PSoC4/USBTMC_episr.c **** 
1306:Generated_Source\PSoC4/USBTMC_episr.c ****         /* Check all other interrupt sources (except arbiter and resume). */
1307:Generated_Source\PSoC4/USBTMC_episr.c ****         intrCause = (intrCause  & USBTMC_INTR_CAUSE_CTRL_INTR_MASK) |
 284              		.loc 1 1307 0
 285 001a 7B68     		ldr	r3, [r7, #4]
 286 001c 0F22     		movs	r2, #15
 287 001e 1A40     		ands	r2, r3
1308:Generated_Source\PSoC4/USBTMC_episr.c ****                     ((intrCause & USBTMC_INTR_CAUSE_EP1_8_INTR_MASK) >>
 288              		.loc 1 1308 0
ARM GAS  C:\Users\essele\AppData\Local\Temp\ccwMrTV8.s 			page 29


 289 0020 7B68     		ldr	r3, [r7, #4]
 290 0022 D908     		lsrs	r1, r3, #3
 291 0024 FF23     		movs	r3, #255
 292 0026 5B01     		lsls	r3, r3, #5
 293 0028 0B40     		ands	r3, r1
1307:Generated_Source\PSoC4/USBTMC_episr.c ****                     ((intrCause & USBTMC_INTR_CAUSE_EP1_8_INTR_MASK) >>
 294              		.loc 1 1307 0
 295 002a 1343     		orrs	r3, r2
 296 002c 7B60     		str	r3, [r7, #4]
1309:Generated_Source\PSoC4/USBTMC_episr.c ****                                   USBTMC_INTR_CAUSE_EP_INTR_SHIFT);
1310:Generated_Source\PSoC4/USBTMC_episr.c **** 
1311:Generated_Source\PSoC4/USBTMC_episr.c ****         /* Call interrupt handlers for active interrupt sources. */
1312:Generated_Source\PSoC4/USBTMC_episr.c ****         while (0u != intrCause)
 297              		.loc 1 1312 0
 298 002e 0EE0     		b	.L18
 299              	.L20:
1313:Generated_Source\PSoC4/USBTMC_episr.c ****         {
1314:Generated_Source\PSoC4/USBTMC_episr.c ****             if (0u != (intrCause & 0x1u))
 300              		.loc 1 1314 0
 301 0030 7B68     		ldr	r3, [r7, #4]
 302 0032 0122     		movs	r2, #1
 303 0034 1340     		ands	r3, r2
 304 0036 04D0     		beq	.L19
1315:Generated_Source\PSoC4/USBTMC_episr.c ****             {
1316:Generated_Source\PSoC4/USBTMC_episr.c ****                  USBTMC_isrCallbacks[cbIdx]();
 305              		.loc 1 1316 0
 306 0038 084B     		ldr	r3, .L21
 307 003a FA68     		ldr	r2, [r7, #12]
 308 003c 9200     		lsls	r2, r2, #2
 309 003e D358     		ldr	r3, [r2, r3]
 310 0040 9847     		blx	r3
 311              	.L19:
1317:Generated_Source\PSoC4/USBTMC_episr.c ****             }
1318:Generated_Source\PSoC4/USBTMC_episr.c **** 
1319:Generated_Source\PSoC4/USBTMC_episr.c ****             intrCause >>= 1u;
 312              		.loc 1 1319 0
 313 0042 7B68     		ldr	r3, [r7, #4]
 314 0044 5B08     		lsrs	r3, r3, #1
 315 0046 7B60     		str	r3, [r7, #4]
1320:Generated_Source\PSoC4/USBTMC_episr.c ****             ++cbIdx;
 316              		.loc 1 1320 0
 317 0048 FB68     		ldr	r3, [r7, #12]
 318 004a 0133     		adds	r3, r3, #1
 319 004c FB60     		str	r3, [r7, #12]
 320              	.L18:
1312:Generated_Source\PSoC4/USBTMC_episr.c ****         {
 321              		.loc 1 1312 0
 322 004e 7B68     		ldr	r3, [r7, #4]
 323 0050 002B     		cmp	r3, #0
 324 0052 EDD1     		bne	.L20
1321:Generated_Source\PSoC4/USBTMC_episr.c ****         }
1322:Generated_Source\PSoC4/USBTMC_episr.c ****     }
 325              		.loc 1 1322 0
 326 0054 C046     		nop
 327 0056 BD46     		mov	sp, r7
 328 0058 04B0     		add	sp, sp, #16
 329              		@ sp needed
ARM GAS  C:\Users\essele\AppData\Local\Temp\ccwMrTV8.s 			page 30


 330 005a 80BD     		pop	{r7, pc}
 331              	.L22:
 332              		.align	2
 333              	.L21:
 334 005c 00000000 		.word	USBTMC_isrCallbacks.5166
 335              		.cfi_endproc
 336              	.LFE5:
 337              		.size	USBTMC_IntrHandler, .-USBTMC_IntrHandler
 338              		.section	.text.USBTMC_INTR_HI_ISR,"ax",%progbits
 339              		.align	2
 340              		.global	USBTMC_INTR_HI_ISR
 341              		.code	16
 342              		.thumb_func
 343              		.type	USBTMC_INTR_HI_ISR, %function
 344              	USBTMC_INTR_HI_ISR:
 345              	.LFB6:
1323:Generated_Source\PSoC4/USBTMC_episr.c **** 
1324:Generated_Source\PSoC4/USBTMC_episr.c **** 
1325:Generated_Source\PSoC4/USBTMC_episr.c ****     /***************************************************************************
1326:Generated_Source\PSoC4/USBTMC_episr.c ****     * Function Name: USBTMC_INTR_HI_ISR
1327:Generated_Source\PSoC4/USBTMC_episr.c ****     ************************************************************************//**
1328:Generated_Source\PSoC4/USBTMC_episr.c ****     *
1329:Generated_Source\PSoC4/USBTMC_episr.c ****     *   Interrupt Service Routine for the high group of the interrupt sources.
1330:Generated_Source\PSoC4/USBTMC_episr.c ****     *
1331:Generated_Source\PSoC4/USBTMC_episr.c ****     *
1332:Generated_Source\PSoC4/USBTMC_episr.c ****     ***************************************************************************/
1333:Generated_Source\PSoC4/USBTMC_episr.c ****     CY_ISR(USBTMC_INTR_HI_ISR)
1334:Generated_Source\PSoC4/USBTMC_episr.c ****     {
 346              		.loc 1 1334 0
 347              		.cfi_startproc
 348              		@ args = 0, pretend = 0, frame = 0
 349              		@ frame_needed = 1, uses_anonymous_args = 0
 350 0000 80B5     		push	{r7, lr}
 351              		.cfi_def_cfa_offset 8
 352              		.cfi_offset 7, -8
 353              		.cfi_offset 14, -4
 354 0002 00AF     		add	r7, sp, #0
 355              		.cfi_def_cfa_register 7
1335:Generated_Source\PSoC4/USBTMC_episr.c ****         USBTMC_IntrHandler(USBTMC_INTR_CAUSE_HI_REG);
 356              		.loc 1 1335 0
 357 0004 034B     		ldr	r3, .L24
 358 0006 1B68     		ldr	r3, [r3]
 359 0008 1800     		movs	r0, r3
 360 000a FFF7FEFF 		bl	USBTMC_IntrHandler
1336:Generated_Source\PSoC4/USBTMC_episr.c ****     }
 361              		.loc 1 1336 0
 362 000e C046     		nop
 363 0010 BD46     		mov	sp, r7
 364              		@ sp needed
 365 0012 80BD     		pop	{r7, pc}
 366              	.L25:
 367              		.align	2
 368              	.L24:
 369 0014 34202C40 		.word	1076633652
 370              		.cfi_endproc
 371              	.LFE6:
 372              		.size	USBTMC_INTR_HI_ISR, .-USBTMC_INTR_HI_ISR
ARM GAS  C:\Users\essele\AppData\Local\Temp\ccwMrTV8.s 			page 31


 373              		.section	.text.USBTMC_INTR_MED_ISR,"ax",%progbits
 374              		.align	2
 375              		.global	USBTMC_INTR_MED_ISR
 376              		.code	16
 377              		.thumb_func
 378              		.type	USBTMC_INTR_MED_ISR, %function
 379              	USBTMC_INTR_MED_ISR:
 380              	.LFB7:
1337:Generated_Source\PSoC4/USBTMC_episr.c **** 
1338:Generated_Source\PSoC4/USBTMC_episr.c ****     /***************************************************************************
1339:Generated_Source\PSoC4/USBTMC_episr.c ****     * Function Name: USBTMC_INTR_MED_ISR
1340:Generated_Source\PSoC4/USBTMC_episr.c ****     ************************************************************************//**
1341:Generated_Source\PSoC4/USBTMC_episr.c ****     *
1342:Generated_Source\PSoC4/USBTMC_episr.c ****     *   Interrupt Service Routine for the medium group of the interrupt sources.
1343:Generated_Source\PSoC4/USBTMC_episr.c ****     *
1344:Generated_Source\PSoC4/USBTMC_episr.c ****     *
1345:Generated_Source\PSoC4/USBTMC_episr.c ****     ***************************************************************************/
1346:Generated_Source\PSoC4/USBTMC_episr.c ****     CY_ISR(USBTMC_INTR_MED_ISR)
1347:Generated_Source\PSoC4/USBTMC_episr.c ****     {
 381              		.loc 1 1347 0
 382              		.cfi_startproc
 383              		@ args = 0, pretend = 0, frame = 0
 384              		@ frame_needed = 1, uses_anonymous_args = 0
 385 0000 80B5     		push	{r7, lr}
 386              		.cfi_def_cfa_offset 8
 387              		.cfi_offset 7, -8
 388              		.cfi_offset 14, -4
 389 0002 00AF     		add	r7, sp, #0
 390              		.cfi_def_cfa_register 7
1348:Generated_Source\PSoC4/USBTMC_episr.c ****        USBTMC_IntrHandler(USBTMC_INTR_CAUSE_MED_REG);
 391              		.loc 1 1348 0
 392 0004 034B     		ldr	r3, .L27
 393 0006 1B68     		ldr	r3, [r3]
 394 0008 1800     		movs	r0, r3
 395 000a FFF7FEFF 		bl	USBTMC_IntrHandler
1349:Generated_Source\PSoC4/USBTMC_episr.c ****     }
 396              		.loc 1 1349 0
 397 000e C046     		nop
 398 0010 BD46     		mov	sp, r7
 399              		@ sp needed
 400 0012 80BD     		pop	{r7, pc}
 401              	.L28:
 402              		.align	2
 403              	.L27:
 404 0014 38202C40 		.word	1076633656
 405              		.cfi_endproc
 406              	.LFE7:
 407              		.size	USBTMC_INTR_MED_ISR, .-USBTMC_INTR_MED_ISR
 408              		.section	.text.USBTMC_INTR_LO_ISR,"ax",%progbits
 409              		.align	2
 410              		.global	USBTMC_INTR_LO_ISR
 411              		.code	16
 412              		.thumb_func
 413              		.type	USBTMC_INTR_LO_ISR, %function
 414              	USBTMC_INTR_LO_ISR:
 415              	.LFB8:
1350:Generated_Source\PSoC4/USBTMC_episr.c **** 
ARM GAS  C:\Users\essele\AppData\Local\Temp\ccwMrTV8.s 			page 32


1351:Generated_Source\PSoC4/USBTMC_episr.c ****     /***************************************************************************
1352:Generated_Source\PSoC4/USBTMC_episr.c ****     * Function Name: USBTMC_INTR_LO_ISR
1353:Generated_Source\PSoC4/USBTMC_episr.c ****     ************************************************************************//**
1354:Generated_Source\PSoC4/USBTMC_episr.c ****     *
1355:Generated_Source\PSoC4/USBTMC_episr.c ****     *   Interrupt Service Routine for the low group of the interrupt sources.
1356:Generated_Source\PSoC4/USBTMC_episr.c ****     *
1357:Generated_Source\PSoC4/USBTMC_episr.c ****     *
1358:Generated_Source\PSoC4/USBTMC_episr.c ****     ***************************************************************************/
1359:Generated_Source\PSoC4/USBTMC_episr.c ****     CY_ISR(USBTMC_INTR_LO_ISR)
1360:Generated_Source\PSoC4/USBTMC_episr.c ****     {
 416              		.loc 1 1360 0
 417              		.cfi_startproc
 418              		@ args = 0, pretend = 0, frame = 0
 419              		@ frame_needed = 1, uses_anonymous_args = 0
 420 0000 80B5     		push	{r7, lr}
 421              		.cfi_def_cfa_offset 8
 422              		.cfi_offset 7, -8
 423              		.cfi_offset 14, -4
 424 0002 00AF     		add	r7, sp, #0
 425              		.cfi_def_cfa_register 7
1361:Generated_Source\PSoC4/USBTMC_episr.c ****         USBTMC_IntrHandler(USBTMC_INTR_CAUSE_LO_REG);
 426              		.loc 1 1361 0
 427 0004 034B     		ldr	r3, .L30
 428 0006 1B68     		ldr	r3, [r3]
 429 0008 1800     		movs	r0, r3
 430 000a FFF7FEFF 		bl	USBTMC_IntrHandler
1362:Generated_Source\PSoC4/USBTMC_episr.c ****     }
 431              		.loc 1 1362 0
 432 000e C046     		nop
 433 0010 BD46     		mov	sp, r7
 434              		@ sp needed
 435 0012 80BD     		pop	{r7, pc}
 436              	.L31:
 437              		.align	2
 438              	.L30:
 439 0014 3C202C40 		.word	1076633660
 440              		.cfi_endproc
 441              	.LFE8:
 442              		.size	USBTMC_INTR_LO_ISR, .-USBTMC_INTR_LO_ISR
 443              		.section	.rodata
 444              		.align	2
 445              		.type	USBTMC_isrCallbacks.5166, %object
 446              		.size	USBTMC_isrCallbacks.5166, 52
 447              	USBTMC_isrCallbacks.5166:
 448 0000 00000000 		.word	0
 449 0004 00000000 		.word	USBTMC_BUS_RESET_ISR
 450 0008 00000000 		.word	USBTMC_EP_0_ISR
 451 000c 00000000 		.word	0
 452 0010 00000000 		.word	0
 453 0014 00000000 		.word	USBTMC_EP_1_ISR
 454 0018 00000000 		.word	USBTMC_EP_2_ISR
 455 001c 00000000 		.word	USBTMC_EP_3_ISR
 456 0020 00000000 		.word	0
 457 0024 00000000 		.word	0
 458 0028 00000000 		.word	0
 459 002c 00000000 		.word	0
 460 0030 00000000 		.word	0
ARM GAS  C:\Users\essele\AppData\Local\Temp\ccwMrTV8.s 			page 33


 461              		.text
 462              	.Letext0:
 463              		.file 2 "Generated_Source\\PSoC4\\cytypes.h"
 464              		.file 3 "Generated_Source\\PSoC4\\USBTMC.h"
 465              		.file 4 "Generated_Source\\PSoC4\\USBTMC_pvt.h"