ARM GAS  C:\Users\essele\AppData\Local\Temp\ccsWITKf.s 			page 1


   1              		.syntax unified
   2              		.cpu cortex-m0
   3              		.fpu softvfp
   4              		.eabi_attribute 20, 1
   5              		.eabi_attribute 21, 1
   6              		.eabi_attribute 23, 3
   7              		.eabi_attribute 24, 1
   8              		.eabi_attribute 25, 1
   9              		.eabi_attribute 26, 1
  10              		.eabi_attribute 30, 1
  11              		.eabi_attribute 34, 0
  12              		.eabi_attribute 18, 4
  13              		.thumb
  14              		.syntax unified
  15              		.file	"USBUART_msc.c"
  16              		.text
  17              	.Ltext0:
  18              		.cfi_sections	.debug_frame
  19              		.section	.text.USBUART_DispatchMSCClassRqst,"ax",%progbits
  20              		.align	2
  21              		.global	USBUART_DispatchMSCClassRqst
  22              		.code	16
  23              		.thumb_func
  24              		.type	USBUART_DispatchMSCClassRqst, %function
  25              	USBUART_DispatchMSCClassRqst:
  26              	.LFB1:
  27              		.file 1 "Generated_Source\\PSoC4\\USBUART_msc.c"
   1:Generated_Source\PSoC4/USBUART_msc.c **** /***************************************************************************//**
   2:Generated_Source\PSoC4/USBUART_msc.c **** * \file USBUART_cdc.c
   3:Generated_Source\PSoC4/USBUART_msc.c **** * \version 3.20
   4:Generated_Source\PSoC4/USBUART_msc.c **** *
   5:Generated_Source\PSoC4/USBUART_msc.c **** * \brief
   6:Generated_Source\PSoC4/USBUART_msc.c **** *  This file contains the USB MSC Class request handler and global API for MSC 
   7:Generated_Source\PSoC4/USBUART_msc.c **** *  class.
   8:Generated_Source\PSoC4/USBUART_msc.c **** *
   9:Generated_Source\PSoC4/USBUART_msc.c **** * Related Document:
  10:Generated_Source\PSoC4/USBUART_msc.c **** *  Universal Serial Bus Class Definitions for Communication Devices Version 1.1
  11:Generated_Source\PSoC4/USBUART_msc.c **** *
  12:Generated_Source\PSoC4/USBUART_msc.c **** ********************************************************************************
  13:Generated_Source\PSoC4/USBUART_msc.c **** * \copyright
  14:Generated_Source\PSoC4/USBUART_msc.c **** * Copyright 2012-2016, Cypress Semiconductor Corporation.  All rights reserved.
  15:Generated_Source\PSoC4/USBUART_msc.c **** * You may use this file only in accordance with the license, terms, conditions,
  16:Generated_Source\PSoC4/USBUART_msc.c **** * disclaimers, and limitations in the end user license agreement accompanying
  17:Generated_Source\PSoC4/USBUART_msc.c **** * the software package with which this file was provided.
  18:Generated_Source\PSoC4/USBUART_msc.c **** *******************************************************************************/
  19:Generated_Source\PSoC4/USBUART_msc.c **** 
  20:Generated_Source\PSoC4/USBUART_msc.c **** #include "USBUART_msc.h"
  21:Generated_Source\PSoC4/USBUART_msc.c **** #include "USBUART_pvt.h"
  22:Generated_Source\PSoC4/USBUART_msc.c **** #include "cyapicallbacks.h"
  23:Generated_Source\PSoC4/USBUART_msc.c **** 
  24:Generated_Source\PSoC4/USBUART_msc.c **** #if (USBUART_HANDLE_MSC_REQUESTS)
  25:Generated_Source\PSoC4/USBUART_msc.c **** 
  26:Generated_Source\PSoC4/USBUART_msc.c **** /***************************************
  27:Generated_Source\PSoC4/USBUART_msc.c **** *          Internal variables
  28:Generated_Source\PSoC4/USBUART_msc.c **** ***************************************/
  29:Generated_Source\PSoC4/USBUART_msc.c **** 
  30:Generated_Source\PSoC4/USBUART_msc.c **** static uint8 USBUART_lunCount = USBUART_MSC_LUN_NUMBER;
ARM GAS  C:\Users\essele\AppData\Local\Temp\ccsWITKf.s 			page 2


  31:Generated_Source\PSoC4/USBUART_msc.c **** 
  32:Generated_Source\PSoC4/USBUART_msc.c **** 
  33:Generated_Source\PSoC4/USBUART_msc.c **** /*******************************************************************************
  34:Generated_Source\PSoC4/USBUART_msc.c **** * Function Name: USBUART_DispatchMSCClassRqst
  35:Generated_Source\PSoC4/USBUART_msc.c **** ****************************************************************************//**
  36:Generated_Source\PSoC4/USBUART_msc.c **** *   
  37:Generated_Source\PSoC4/USBUART_msc.c **** *  \internal 
  38:Generated_Source\PSoC4/USBUART_msc.c **** *  This routine dispatches MSC class requests.
  39:Generated_Source\PSoC4/USBUART_msc.c **** *
  40:Generated_Source\PSoC4/USBUART_msc.c **** * \return
  41:Generated_Source\PSoC4/USBUART_msc.c **** *  Status of request processing: handled or not handled.
  42:Generated_Source\PSoC4/USBUART_msc.c **** *
  43:Generated_Source\PSoC4/USBUART_msc.c **** * \globalvars
  44:Generated_Source\PSoC4/USBUART_msc.c **** *  USBUART_lunCount - stores number of LUN (logical units).
  45:Generated_Source\PSoC4/USBUART_msc.c **** *
  46:Generated_Source\PSoC4/USBUART_msc.c **** * \reentrant
  47:Generated_Source\PSoC4/USBUART_msc.c **** *  No.
  48:Generated_Source\PSoC4/USBUART_msc.c **** *
  49:Generated_Source\PSoC4/USBUART_msc.c **** *******************************************************************************/
  50:Generated_Source\PSoC4/USBUART_msc.c **** uint8 USBUART_DispatchMSCClassRqst(void) 
  51:Generated_Source\PSoC4/USBUART_msc.c **** {
  28              		.loc 1 51 0
  29              		.cfi_startproc
  30              		@ args = 0, pretend = 0, frame = 0
  31              		@ frame_needed = 0, uses_anonymous_args = 0
  32 0000 70B5     		push	{r4, r5, r6, lr}
  33              		.cfi_def_cfa_offset 16
  34              		.cfi_offset 4, -16
  35              		.cfi_offset 5, -12
  36              		.cfi_offset 6, -8
  37              		.cfi_offset 14, -4
  38              	.LVL0:
  52:Generated_Source\PSoC4/USBUART_msc.c ****     uint8 requestHandled = USBUART_FALSE;
  53:Generated_Source\PSoC4/USBUART_msc.c ****     
  54:Generated_Source\PSoC4/USBUART_msc.c ****     /* Get request data. */
  55:Generated_Source\PSoC4/USBUART_msc.c ****     uint16 value  = USBUART_GET_UINT16(USBUART_wValueHiReg,  USBUART_wValueLoReg);
  39              		.loc 1 55 0
  40 0002 1B4B     		ldr	r3, .L9
  41 0004 D968     		ldr	r1, [r3, #12]
  42 0006 0902     		lsls	r1, r1, #8
  43 0008 89B2     		uxth	r1, r1
  44 000a 9A68     		ldr	r2, [r3, #8]
  45 000c FF20     		movs	r0, #255
  46 000e 0240     		ands	r2, r0
  47 0010 1143     		orrs	r1, r2
  48 0012 0D00     		movs	r5, r1
  49              	.LVL1:
  56:Generated_Source\PSoC4/USBUART_msc.c ****     uint16 dataLength = USBUART_GET_UINT16(USBUART_wLengthHiReg, USBUART_wLengthLoReg);
  50              		.loc 1 56 0
  51 0014 DA69     		ldr	r2, [r3, #28]
  52 0016 1102     		lsls	r1, r2, #8
  53 0018 8AB2     		uxth	r2, r1
  54 001a 9C69     		ldr	r4, [r3, #24]
  55 001c 2040     		ands	r0, r4
  56 001e 0243     		orrs	r2, r0
  57              	.LVL2:
  57:Generated_Source\PSoC4/USBUART_msc.c ****        
ARM GAS  C:\Users\essele\AppData\Local\Temp\ccsWITKf.s 			page 3


  58:Generated_Source\PSoC4/USBUART_msc.c ****     /* Check request direction: D2H or H2D. */
  59:Generated_Source\PSoC4/USBUART_msc.c ****     if (0u != (USBUART_bmRequestTypeReg & USBUART_RQST_DIR_D2H))
  58              		.loc 1 59 0
  59 0020 1B68     		ldr	r3, [r3]
  60 0022 1B06     		lsls	r3, r3, #24
  61 0024 0FD5     		bpl	.L2
  60:Generated_Source\PSoC4/USBUART_msc.c ****     {
  61:Generated_Source\PSoC4/USBUART_msc.c ****         /* Handle direction from device to host. */
  62:Generated_Source\PSoC4/USBUART_msc.c ****         
  63:Generated_Source\PSoC4/USBUART_msc.c ****         if (USBUART_MSC_GET_MAX_LUN == USBUART_bRequestReg)
  62              		.loc 1 63 0
  63 0026 124B     		ldr	r3, .L9
  64 0028 5B68     		ldr	r3, [r3, #4]
  65 002a FE2B     		cmp	r3, #254
  66 002c 16D1     		bne	.L4
  64:Generated_Source\PSoC4/USBUART_msc.c ****         {
  65:Generated_Source\PSoC4/USBUART_msc.c ****             /* Check request fields. */
  66:Generated_Source\PSoC4/USBUART_msc.c ****             if ((value  == USBUART_MSC_GET_MAX_LUN_WVALUE) &&
  67              		.loc 1 66 0
  68 002e 002D     		cmp	r5, #0
  69 0030 16D1     		bne	.L5
  70              		.loc 1 66 0 is_stmt 0 discriminator 1
  71 0032 012A     		cmp	r2, #1
  72 0034 16D1     		bne	.L6
  67:Generated_Source\PSoC4/USBUART_msc.c ****                 (dataLength == USBUART_MSC_GET_MAX_LUN_WLENGTH))
  68:Generated_Source\PSoC4/USBUART_msc.c ****             {
  69:Generated_Source\PSoC4/USBUART_msc.c ****                 /* Reply to Get Max LUN request: setup control read. */
  70:Generated_Source\PSoC4/USBUART_msc.c ****                 USBUART_currentTD.pData = &USBUART_lunCount;
  73              		.loc 1 70 0 is_stmt 1
  74 0036 0F4B     		ldr	r3, .L9+4
  75 0038 0F4A     		ldr	r2, .L9+8
  76              	.LVL3:
  77 003a 5A60     		str	r2, [r3, #4]
  71:Generated_Source\PSoC4/USBUART_msc.c ****                 USBUART_currentTD.count =  USBUART_MSC_GET_MAX_LUN_WLENGTH;
  78              		.loc 1 71 0
  79 003c 0122     		movs	r2, #1
  80 003e 1A80     		strh	r2, [r3]
  72:Generated_Source\PSoC4/USBUART_msc.c ****                 
  73:Generated_Source\PSoC4/USBUART_msc.c ****                 requestHandled  = USBUART_InitControlRead();
  81              		.loc 1 73 0
  82 0040 FFF7FEFF 		bl	USBUART_InitControlRead
  83              	.LVL4:
  84 0044 13E0     		b	.L3
  85              	.LVL5:
  86              	.L2:
  74:Generated_Source\PSoC4/USBUART_msc.c ****             }
  75:Generated_Source\PSoC4/USBUART_msc.c ****         }
  76:Generated_Source\PSoC4/USBUART_msc.c ****     }
  77:Generated_Source\PSoC4/USBUART_msc.c ****     else
  78:Generated_Source\PSoC4/USBUART_msc.c ****     {
  79:Generated_Source\PSoC4/USBUART_msc.c ****         /* Handle direction from host to device. */
  80:Generated_Source\PSoC4/USBUART_msc.c ****         
  81:Generated_Source\PSoC4/USBUART_msc.c ****         if (USBUART_MSC_RESET == USBUART_bRequestReg)
  87              		.loc 1 81 0
  88 0046 0A4B     		ldr	r3, .L9
  89 0048 5B68     		ldr	r3, [r3, #4]
  90 004a FF2B     		cmp	r3, #255
ARM GAS  C:\Users\essele\AppData\Local\Temp\ccsWITKf.s 			page 4


  91 004c 0CD1     		bne	.L7
  82:Generated_Source\PSoC4/USBUART_msc.c ****         {
  83:Generated_Source\PSoC4/USBUART_msc.c ****             /* Check request fields. */
  84:Generated_Source\PSoC4/USBUART_msc.c ****             if ((value  == USBUART_MSC_RESET_WVALUE) &&
  92              		.loc 1 84 0
  93 004e 2A43     		orrs	r2, r5
  94              	.LVL6:
  95 0050 0CD1     		bne	.L8
  85:Generated_Source\PSoC4/USBUART_msc.c ****                 (dataLength == USBUART_MSC_RESET_WLENGTH))
  86:Generated_Source\PSoC4/USBUART_msc.c ****             {
  87:Generated_Source\PSoC4/USBUART_msc.c ****                 /* Handle to Bulk-Only Reset request: no data control transfer. */
  88:Generated_Source\PSoC4/USBUART_msc.c ****                 USBUART_currentTD.count = USBUART_MSC_RESET_WLENGTH;
  96              		.loc 1 88 0
  97 0052 084B     		ldr	r3, .L9+4
  98 0054 1A80     		strh	r2, [r3]
  89:Generated_Source\PSoC4/USBUART_msc.c ****                 
  90:Generated_Source\PSoC4/USBUART_msc.c ****             #ifdef USBUART_DISPATCH_MSC_CLASS_MSC_RESET_RQST_CALLBACK
  91:Generated_Source\PSoC4/USBUART_msc.c ****                 USBUART_DispatchMSCClass_MSC_RESET_RQST_Callback();
  92:Generated_Source\PSoC4/USBUART_msc.c ****             #endif /* (USBUART_DISPATCH_MSC_CLASS_MSC_RESET_RQST_CALLBACK) */
  93:Generated_Source\PSoC4/USBUART_msc.c ****                 
  94:Generated_Source\PSoC4/USBUART_msc.c ****                 requestHandled = USBUART_InitNoDataControlTransfer();
  99              		.loc 1 94 0
 100 0056 FFF7FEFF 		bl	USBUART_InitNoDataControlTransfer
 101              	.LVL7:
 102 005a 08E0     		b	.L3
 103              	.LVL8:
 104              	.L4:
  52:Generated_Source\PSoC4/USBUART_msc.c ****     
 105              		.loc 1 52 0
 106 005c 0020     		movs	r0, #0
 107 005e 06E0     		b	.L3
 108              	.L5:
 109 0060 0020     		movs	r0, #0
 110 0062 04E0     		b	.L3
 111              	.L6:
 112 0064 0020     		movs	r0, #0
 113 0066 02E0     		b	.L3
 114              	.L7:
 115 0068 0020     		movs	r0, #0
 116 006a 00E0     		b	.L3
 117              	.LVL9:
 118              	.L8:
 119 006c 0020     		movs	r0, #0
 120              	.LVL10:
 121              	.L3:
  95:Generated_Source\PSoC4/USBUART_msc.c ****             }
  96:Generated_Source\PSoC4/USBUART_msc.c ****         }
  97:Generated_Source\PSoC4/USBUART_msc.c ****     }
  98:Generated_Source\PSoC4/USBUART_msc.c ****     
  99:Generated_Source\PSoC4/USBUART_msc.c ****     return (requestHandled);
 100:Generated_Source\PSoC4/USBUART_msc.c **** }
 122              		.loc 1 100 0
 123              		@ sp needed
 124              	.LVL11:
 125 006e 70BD     		pop	{r4, r5, r6, pc}
 126              	.L10:
 127              		.align	2
ARM GAS  C:\Users\essele\AppData\Local\Temp\ccsWITKf.s 			page 5


 128              	.L9:
 129 0070 00002C40 		.word	1076625408
 130 0074 00000000 		.word	USBUART_currentTD
 131 0078 00000000 		.word	.LANCHOR0
 132              		.cfi_endproc
 133              	.LFE1:
 134              		.size	USBUART_DispatchMSCClassRqst, .-USBUART_DispatchMSCClassRqst
 135              		.section	.text.USBUART_MSC_SetLunCount,"ax",%progbits
 136              		.align	2
 137              		.global	USBUART_MSC_SetLunCount
 138              		.code	16
 139              		.thumb_func
 140              		.type	USBUART_MSC_SetLunCount, %function
 141              	USBUART_MSC_SetLunCount:
 142              	.LFB2:
 101:Generated_Source\PSoC4/USBUART_msc.c **** 
 102:Generated_Source\PSoC4/USBUART_msc.c **** 
 103:Generated_Source\PSoC4/USBUART_msc.c **** /*******************************************************************************
 104:Generated_Source\PSoC4/USBUART_msc.c **** * Function Name: USBUART_MSC_SetLunCount
 105:Generated_Source\PSoC4/USBUART_msc.c **** ****************************************************************************//**
 106:Generated_Source\PSoC4/USBUART_msc.c **** *
 107:Generated_Source\PSoC4/USBUART_msc.c **** *  This function sets the number of logical units supported in the application. 
 108:Generated_Source\PSoC4/USBUART_msc.c **** *  The default number of logical units is set in the component customizer.
 109:Generated_Source\PSoC4/USBUART_msc.c **** *
 110:Generated_Source\PSoC4/USBUART_msc.c **** *  \param lunCount: Count of the logical units. Valid range is between 1 and 16.
 111:Generated_Source\PSoC4/USBUART_msc.c **** *
 112:Generated_Source\PSoC4/USBUART_msc.c **** *
 113:Generated_Source\PSoC4/USBUART_msc.c **** * \globalvars
 114:Generated_Source\PSoC4/USBUART_msc.c **** *  USBUART_lunCount - stores number of LUN (logical units).
 115:Generated_Source\PSoC4/USBUART_msc.c **** *
 116:Generated_Source\PSoC4/USBUART_msc.c **** * \reentrant
 117:Generated_Source\PSoC4/USBUART_msc.c **** *  No.
 118:Generated_Source\PSoC4/USBUART_msc.c **** *
 119:Generated_Source\PSoC4/USBUART_msc.c **** *******************************************************************************/
 120:Generated_Source\PSoC4/USBUART_msc.c **** void USBUART_MSC_SetLunCount(uint8 lunCount) 
 121:Generated_Source\PSoC4/USBUART_msc.c **** {
 143              		.loc 1 121 0
 144              		.cfi_startproc
 145              		@ args = 0, pretend = 0, frame = 0
 146              		@ frame_needed = 0, uses_anonymous_args = 0
 147              		@ link register save eliminated.
 148              	.LVL12:
 122:Generated_Source\PSoC4/USBUART_msc.c ****     USBUART_lunCount = (lunCount - 1u);
 149              		.loc 1 122 0
 150 0000 0138     		subs	r0, r0, #1
 151              	.LVL13:
 152 0002 014B     		ldr	r3, .L12
 153 0004 1870     		strb	r0, [r3]
 123:Generated_Source\PSoC4/USBUART_msc.c **** }
 154              		.loc 1 123 0
 155              		@ sp needed
 156 0006 7047     		bx	lr
 157              	.L13:
 158              		.align	2
 159              	.L12:
 160 0008 00000000 		.word	.LANCHOR0
 161              		.cfi_endproc
ARM GAS  C:\Users\essele\AppData\Local\Temp\ccsWITKf.s 			page 6


 162              	.LFE2:
 163              		.size	USBUART_MSC_SetLunCount, .-USBUART_MSC_SetLunCount
 164              		.section	.text.USBUART_MSC_GetLunCount,"ax",%progbits
 165              		.align	2
 166              		.global	USBUART_MSC_GetLunCount
 167              		.code	16
 168              		.thumb_func
 169              		.type	USBUART_MSC_GetLunCount, %function
 170              	USBUART_MSC_GetLunCount:
 171              	.LFB3:
 124:Generated_Source\PSoC4/USBUART_msc.c **** 
 125:Generated_Source\PSoC4/USBUART_msc.c **** 
 126:Generated_Source\PSoC4/USBUART_msc.c **** /*******************************************************************************
 127:Generated_Source\PSoC4/USBUART_msc.c **** * Function Name: USBUART_MSC_GetLunCount
 128:Generated_Source\PSoC4/USBUART_msc.c **** ****************************************************************************//**
 129:Generated_Source\PSoC4/USBUART_msc.c **** *
 130:Generated_Source\PSoC4/USBUART_msc.c **** *  This function returns the number of logical units.
 131:Generated_Source\PSoC4/USBUART_msc.c **** *
 132:Generated_Source\PSoC4/USBUART_msc.c **** * \return
 133:Generated_Source\PSoC4/USBUART_msc.c **** *   Number of the logical units.
 134:Generated_Source\PSoC4/USBUART_msc.c **** *
 135:Generated_Source\PSoC4/USBUART_msc.c **** * \globalvars
 136:Generated_Source\PSoC4/USBUART_msc.c **** *  USBUART_lunCount - stores number of LUN (logical units).
 137:Generated_Source\PSoC4/USBUART_msc.c **** *
 138:Generated_Source\PSoC4/USBUART_msc.c **** * \reentrant
 139:Generated_Source\PSoC4/USBUART_msc.c **** *  No.
 140:Generated_Source\PSoC4/USBUART_msc.c **** *
 141:Generated_Source\PSoC4/USBUART_msc.c **** *******************************************************************************/
 142:Generated_Source\PSoC4/USBUART_msc.c **** uint8 USBUART_MSC_GetLunCount(void) 
 143:Generated_Source\PSoC4/USBUART_msc.c **** {
 172              		.loc 1 143 0
 173              		.cfi_startproc
 174              		@ args = 0, pretend = 0, frame = 0
 175              		@ frame_needed = 0, uses_anonymous_args = 0
 176              		@ link register save eliminated.
 144:Generated_Source\PSoC4/USBUART_msc.c ****     return (USBUART_lunCount + 1u);
 177              		.loc 1 144 0
 178 0000 024B     		ldr	r3, .L15
 179 0002 1878     		ldrb	r0, [r3]
 180 0004 0130     		adds	r0, r0, #1
 181 0006 C0B2     		uxtb	r0, r0
 145:Generated_Source\PSoC4/USBUART_msc.c **** }   
 182              		.loc 1 145 0
 183              		@ sp needed
 184 0008 7047     		bx	lr
 185              	.L16:
 186 000a C046     		.align	2
 187              	.L15:
 188 000c 00000000 		.word	.LANCHOR0
 189              		.cfi_endproc
 190              	.LFE3:
 191              		.size	USBUART_MSC_GetLunCount, .-USBUART_MSC_GetLunCount
 192              		.bss
 193              		.set	.LANCHOR0,. + 0
 194              		.type	USBUART_lunCount, %object
 195              		.size	USBUART_lunCount, 1
 196              	USBUART_lunCount:
ARM GAS  C:\Users\essele\AppData\Local\Temp\ccsWITKf.s 			page 7


 197 0000 00       		.space	1
 198              		.text
 199              	.Letext0:
 200              		.file 2 "Generated_Source\\PSoC4\\cytypes.h"
 201              		.file 3 "Generated_Source\\PSoC4\\USBUART.h"
 202              		.file 4 "Generated_Source\\PSoC4\\USBUART_pvt.h"