ARM GAS  C:\Users\essele\AppData\Local\Temp\cczrtAYv.s 			page 1


   1              		.syntax unified
   2              		.cpu cortex-m0
   3              		.fpu softvfp
   4              		.eabi_attribute 20, 1
   5              		.eabi_attribute 21, 1
   6              		.eabi_attribute 23, 3
   7              		.eabi_attribute 24, 1
   8              		.eabi_attribute 25, 1
   9              		.eabi_attribute 26, 1
  10              		.eabi_attribute 30, 1
  11              		.eabi_attribute 34, 0
  12              		.eabi_attribute 18, 4
  13              		.thumb
  14              		.syntax unified
  15              		.file	"USBUART_cdc.c"
  16              		.text
  17              	.Ltext0:
  18              		.cfi_sections	.debug_frame
  19              		.section	.text.USBUART_StrLen,"ax",%progbits
  20              		.align	2
  21              		.code	16
  22              		.thumb_func
  23              		.type	USBUART_StrLen, %function
  24              	USBUART_StrLen:
  25              	.LFB5:
  26              		.file 1 "Generated_Source\\PSoC4\\USBUART_cdc.c"
   1:Generated_Source\PSoC4/USBUART_cdc.c **** /***************************************************************************//**
   2:Generated_Source\PSoC4/USBUART_cdc.c **** * \file USBUART_cdc.c
   3:Generated_Source\PSoC4/USBUART_cdc.c **** * \version 3.20
   4:Generated_Source\PSoC4/USBUART_cdc.c **** *
   5:Generated_Source\PSoC4/USBUART_cdc.c **** * \brief
   6:Generated_Source\PSoC4/USBUART_cdc.c **** *  This file contains the USB CDC class request handler.
   7:Generated_Source\PSoC4/USBUART_cdc.c **** *
   8:Generated_Source\PSoC4/USBUART_cdc.c **** * Related Document:
   9:Generated_Source\PSoC4/USBUART_cdc.c **** *  Universal Serial Bus Class Definitions for Communication Devices Version 1.1
  10:Generated_Source\PSoC4/USBUART_cdc.c **** *
  11:Generated_Source\PSoC4/USBUART_cdc.c **** ********************************************************************************
  12:Generated_Source\PSoC4/USBUART_cdc.c **** * \copyright
  13:Generated_Source\PSoC4/USBUART_cdc.c **** * Copyright 2012-2016, Cypress Semiconductor Corporation.  All rights reserved.
  14:Generated_Source\PSoC4/USBUART_cdc.c **** * You may use this file only in accordance with the license, terms, conditions,
  15:Generated_Source\PSoC4/USBUART_cdc.c **** * disclaimers, and limitations in the end user license agreement accompanying
  16:Generated_Source\PSoC4/USBUART_cdc.c **** * the software package with which this file was provided.
  17:Generated_Source\PSoC4/USBUART_cdc.c **** *******************************************************************************/
  18:Generated_Source\PSoC4/USBUART_cdc.c **** 
  19:Generated_Source\PSoC4/USBUART_cdc.c **** #include "USBUART_cdc.h"
  20:Generated_Source\PSoC4/USBUART_cdc.c **** #include "USBUART_pvt.h"
  21:Generated_Source\PSoC4/USBUART_cdc.c **** #include "cyapicallbacks.h"
  22:Generated_Source\PSoC4/USBUART_cdc.c **** 
  23:Generated_Source\PSoC4/USBUART_cdc.c **** #if defined(USBUART_ENABLE_CDC_CLASS)
  24:Generated_Source\PSoC4/USBUART_cdc.c **** 
  25:Generated_Source\PSoC4/USBUART_cdc.c **** /*******************************************************************************
  26:Generated_Source\PSoC4/USBUART_cdc.c **** *    CDC Variables
  27:Generated_Source\PSoC4/USBUART_cdc.c **** *******************************************************************************/
  28:Generated_Source\PSoC4/USBUART_cdc.c **** 
  29:Generated_Source\PSoC4/USBUART_cdc.c **** /*PUBLIC*/
  30:Generated_Source\PSoC4/USBUART_cdc.c **** /** Contains the current line coding structure. The host sets it using a
  31:Generated_Source\PSoC4/USBUART_cdc.c ****  * SET_LINE_CODING request and returns it to the user code using the
ARM GAS  C:\Users\essele\AppData\Local\Temp\cczrtAYv.s 			page 2


  32:Generated_Source\PSoC4/USBUART_cdc.c ****  * USBUART_GetDTERate(), USBUART_GetCharFormat(),
  33:Generated_Source\PSoC4/USBUART_cdc.c ****  * USBUART_GetParityType(), and USBUART_GetDataBits() APIs.
  34:Generated_Source\PSoC4/USBUART_cdc.c ****  * It is an array of 2 elements for COM port 1 and COM port 2 for MultiCOM port
  35:Generated_Source\PSoC4/USBUART_cdc.c ****  * support. In case of 1 COM port, data is in 0 element.*/
  36:Generated_Source\PSoC4/USBUART_cdc.c **** volatile uint8 USBUART_linesCoding[USBUART_MAX_MULTI_COM_NUM][USBUART_LINE_CODING_SIZE] =
  37:Generated_Source\PSoC4/USBUART_cdc.c **** {
  38:Generated_Source\PSoC4/USBUART_cdc.c ****     /*COM Port 1*/
  39:Generated_Source\PSoC4/USBUART_cdc.c ****     {
  40:Generated_Source\PSoC4/USBUART_cdc.c ****     0x00u, 0xC2u, 0x01u, 0x00u,     /* Data terminal rate 115200 */
  41:Generated_Source\PSoC4/USBUART_cdc.c ****     0x00u,                          /* 1 Stop bit */
  42:Generated_Source\PSoC4/USBUART_cdc.c ****     0x00u,                          /* None parity */
  43:Generated_Source\PSoC4/USBUART_cdc.c ****     0x08u                           /* 8 data bits */
  44:Generated_Source\PSoC4/USBUART_cdc.c ****     },
  45:Generated_Source\PSoC4/USBUART_cdc.c ****     /*COM Port 2*/
  46:Generated_Source\PSoC4/USBUART_cdc.c ****     {
  47:Generated_Source\PSoC4/USBUART_cdc.c ****     0x00u, 0xC2u, 0x01u, 0x00u,     /* Data terminal rate 115200 */
  48:Generated_Source\PSoC4/USBUART_cdc.c ****     0x00u,                          /* 1 Stop bit */
  49:Generated_Source\PSoC4/USBUART_cdc.c ****     0x00u,                          /* None parity */
  50:Generated_Source\PSoC4/USBUART_cdc.c ****     0x08u                           /* 8 data bits */
  51:Generated_Source\PSoC4/USBUART_cdc.c ****     }
  52:Generated_Source\PSoC4/USBUART_cdc.c **** };
  53:Generated_Source\PSoC4/USBUART_cdc.c **** 
  54:Generated_Source\PSoC4/USBUART_cdc.c **** /**Used as a flag for the USBUART_IsLineChanged() API, to inform it that the
  55:Generated_Source\PSoC4/USBUART_cdc.c ****  * host has been sent a request to change line coding or control bitmap. It is 
  56:Generated_Source\PSoC4/USBUART_cdc.c ****  * an array of 2 elements for COM port 1 and COM port 2 for MultiCOM port 
  57:Generated_Source\PSoC4/USBUART_cdc.c ****  * support. In case of 1 COM port, data is in 0 element.*/
  58:Generated_Source\PSoC4/USBUART_cdc.c **** volatile uint8  USBUART_linesChanged[USBUART_MAX_MULTI_COM_NUM];
  59:Generated_Source\PSoC4/USBUART_cdc.c **** /** Contains the current control-signal bitmap. The host sets it using a
  60:Generated_Source\PSoC4/USBUART_cdc.c ****  * SET_CONTROL_LINE request and returns it to the user code using the 
  61:Generated_Source\PSoC4/USBUART_cdc.c ****  * USBUART_GetLineControl() API. It is an array of 2 elements for COM 
  62:Generated_Source\PSoC4/USBUART_cdc.c ****  * port 1 and COM port 2 for MultiCOM port support. In case of 1 COM port, data 
  63:Generated_Source\PSoC4/USBUART_cdc.c ****  * is in 0 element.*/
  64:Generated_Source\PSoC4/USBUART_cdc.c **** volatile uint16 USBUART_linesControlBitmap[USBUART_MAX_MULTI_COM_NUM];
  65:Generated_Source\PSoC4/USBUART_cdc.c **** /** Contains the 16-bit serial state value that was sent using the 
  66:Generated_Source\PSoC4/USBUART_cdc.c ****  * \ref USBUART_SendSerialState() API. . It is an array of 2 elements 
  67:Generated_Source\PSoC4/USBUART_cdc.c ****  * for COM port 1 and COM port 2 for MultiCOM port support. In case of 1 COM 
  68:Generated_Source\PSoC4/USBUART_cdc.c ****  * port, data is in 0 element.*/
  69:Generated_Source\PSoC4/USBUART_cdc.c **** volatile uint16 USBUART_serialStateBitmap[USBUART_MAX_MULTI_COM_NUM];
  70:Generated_Source\PSoC4/USBUART_cdc.c **** /** Contains the data IN endpoint number. It is initialized after a 
  71:Generated_Source\PSoC4/USBUART_cdc.c ****  * SET_CONFIGURATION request based on a user descriptor. It is used in CDC APIs 
  72:Generated_Source\PSoC4/USBUART_cdc.c ****  * to send data to the PC. It is an array of 2 elements for COM port 1 and COM 
  73:Generated_Source\PSoC4/USBUART_cdc.c ****  * port 2 for MultiCOM port support. In case of 1 COM port, data is in 0 element.*/
  74:Generated_Source\PSoC4/USBUART_cdc.c **** volatile uint8  USBUART_cdcDataInEp[USBUART_MAX_MULTI_COM_NUM];
  75:Generated_Source\PSoC4/USBUART_cdc.c **** /** Contains the data OUT endpoint number. It is initialized after a 
  76:Generated_Source\PSoC4/USBUART_cdc.c ****  * SET_CONFIGURATION request based on user descriptor. It is used in CDC APIs to 
  77:Generated_Source\PSoC4/USBUART_cdc.c ****  * receive data from the PC. It is an array of 2 elements for COM port 1 and COM  
  78:Generated_Source\PSoC4/USBUART_cdc.c ****  * port 2 for MultiCOM port support. In case of 1 COM port, data is in 0 element.*/
  79:Generated_Source\PSoC4/USBUART_cdc.c **** volatile uint8  USBUART_cdcDataOutEp[USBUART_MAX_MULTI_COM_NUM];
  80:Generated_Source\PSoC4/USBUART_cdc.c **** /** Contains the data IN endpoint number for COMMUNICATION interface. It is 
  81:Generated_Source\PSoC4/USBUART_cdc.c ****  * initialized after a SET_CONFIGURATION request based on a user descriptor. It 
  82:Generated_Source\PSoC4/USBUART_cdc.c ****  * is used in CDC APIs to send data to the PC. It is an array of 2 elements for 
  83:Generated_Source\PSoC4/USBUART_cdc.c ****  * COM port 1 and COM port 2 for MultiCOM port support. In case of 1 COM port, 
  84:Generated_Source\PSoC4/USBUART_cdc.c ****  * data is in 0 element.*/
  85:Generated_Source\PSoC4/USBUART_cdc.c **** volatile uint8  USBUART_cdcCommInInterruptEp[USBUART_MAX_MULTI_COM_NUM];
  86:Generated_Source\PSoC4/USBUART_cdc.c **** 
  87:Generated_Source\PSoC4/USBUART_cdc.c **** /*PRIVATE*/
  88:Generated_Source\PSoC4/USBUART_cdc.c **** 
ARM GAS  C:\Users\essele\AppData\Local\Temp\cczrtAYv.s 			page 3


  89:Generated_Source\PSoC4/USBUART_cdc.c **** #define USBUART_CDC_IN_EP      (0u)
  90:Generated_Source\PSoC4/USBUART_cdc.c **** #define USBUART_CDC_OUT_EP     (1u)
  91:Generated_Source\PSoC4/USBUART_cdc.c **** #define USBUART_CDC_NOTE_EP    (2u)
  92:Generated_Source\PSoC4/USBUART_cdc.c **** 
  93:Generated_Source\PSoC4/USBUART_cdc.c **** #define USBUART_CDC_EP_MASK    (0x01u)
  94:Generated_Source\PSoC4/USBUART_cdc.c **** 
  95:Generated_Source\PSoC4/USBUART_cdc.c **** #define USBUART_GET_EP_COM_NUM(cdcComNums, epType) (((cdcComNums) >> (epType)) & USBUART_CDC_EP_MAS
  96:Generated_Source\PSoC4/USBUART_cdc.c **** 
  97:Generated_Source\PSoC4/USBUART_cdc.c **** 
  98:Generated_Source\PSoC4/USBUART_cdc.c **** /***************************************
  99:Generated_Source\PSoC4/USBUART_cdc.c **** *     Static Function Prototypes
 100:Generated_Source\PSoC4/USBUART_cdc.c **** ***************************************/
 101:Generated_Source\PSoC4/USBUART_cdc.c **** #if (USBUART_ENABLE_CDC_CLASS_API != 0u)
 102:Generated_Source\PSoC4/USBUART_cdc.c ****     static uint16 USBUART_StrLen(const char8 string[]) ;
 103:Generated_Source\PSoC4/USBUART_cdc.c ****     static t_USBUART_cdc_notification USBUART_serialStateNotification =
 104:Generated_Source\PSoC4/USBUART_cdc.c ****     {
 105:Generated_Source\PSoC4/USBUART_cdc.c **** 
 106:Generated_Source\PSoC4/USBUART_cdc.c ****         USBUART_SERIAL_STATE_REQUEST_TYPE, /* bRequestType    */
 107:Generated_Source\PSoC4/USBUART_cdc.c ****         USBUART_SERIAL_STATE,              /* bNotification   */
 108:Generated_Source\PSoC4/USBUART_cdc.c ****         0u,                                         /* wValue          */
 109:Generated_Source\PSoC4/USBUART_cdc.c ****         0u,                                         /* wValueMSB       */
 110:Generated_Source\PSoC4/USBUART_cdc.c ****         0u,                                         /* wIndex          */
 111:Generated_Source\PSoC4/USBUART_cdc.c ****         0u,                                         /* wIndexMSB       */
 112:Generated_Source\PSoC4/USBUART_cdc.c ****         USBUART_SERIAL_STATE_LENGTH,       /* wLength         */
 113:Generated_Source\PSoC4/USBUART_cdc.c ****         0u,                                         /* wLengthMSB      */
 114:Generated_Source\PSoC4/USBUART_cdc.c ****         0u,                                         /* wSerialState    */
 115:Generated_Source\PSoC4/USBUART_cdc.c ****         0u,                                         /* wSerialStateMSB */
 116:Generated_Source\PSoC4/USBUART_cdc.c ****     };
 117:Generated_Source\PSoC4/USBUART_cdc.c ****     static uint8 USBUART_activeCom = 0u;
 118:Generated_Source\PSoC4/USBUART_cdc.c **** #endif /* (USBUART_ENABLE_CDC_CLASS_API != 0u) */
 119:Generated_Source\PSoC4/USBUART_cdc.c **** 
 120:Generated_Source\PSoC4/USBUART_cdc.c **** 
 121:Generated_Source\PSoC4/USBUART_cdc.c **** /***************************************
 122:Generated_Source\PSoC4/USBUART_cdc.c **** * Custom Declarations
 123:Generated_Source\PSoC4/USBUART_cdc.c **** ***************************************/
 124:Generated_Source\PSoC4/USBUART_cdc.c **** 
 125:Generated_Source\PSoC4/USBUART_cdc.c **** /* `#START CDC_CUSTOM_DECLARATIONS` Place your declaration here */
 126:Generated_Source\PSoC4/USBUART_cdc.c **** 
 127:Generated_Source\PSoC4/USBUART_cdc.c **** /* `#END` */
 128:Generated_Source\PSoC4/USBUART_cdc.c **** 
 129:Generated_Source\PSoC4/USBUART_cdc.c **** 
 130:Generated_Source\PSoC4/USBUART_cdc.c **** /*******************************************************************************
 131:Generated_Source\PSoC4/USBUART_cdc.c **** * Function Name: USBUART_DispatchCDCClassRqst
 132:Generated_Source\PSoC4/USBUART_cdc.c **** ****************************************************************************//**
 133:Generated_Source\PSoC4/USBUART_cdc.c **** *
 134:Generated_Source\PSoC4/USBUART_cdc.c **** *  This routine dispatches CDC class requests.
 135:Generated_Source\PSoC4/USBUART_cdc.c **** *
 136:Generated_Source\PSoC4/USBUART_cdc.c **** * \return
 137:Generated_Source\PSoC4/USBUART_cdc.c **** *  requestHandled
 138:Generated_Source\PSoC4/USBUART_cdc.c **** *
 139:Generated_Source\PSoC4/USBUART_cdc.c **** * \globalvars
 140:Generated_Source\PSoC4/USBUART_cdc.c **** *   USBUART_linesCoding: Contains the current line coding structure.
 141:Generated_Source\PSoC4/USBUART_cdc.c **** *     It is set by the Host using SET_LINE_CODING request and returned to the
 142:Generated_Source\PSoC4/USBUART_cdc.c **** *     user code by the USBFS_GetDTERate(), USBFS_GetCharFormat(),
 143:Generated_Source\PSoC4/USBUART_cdc.c **** *     USBFS_GetParityType(), USBFS_GetDataBits() APIs.
 144:Generated_Source\PSoC4/USBUART_cdc.c **** *   USBUART_linesControlBitmap: Contains the current control signal
 145:Generated_Source\PSoC4/USBUART_cdc.c **** *     bitmap. It is set by the Host using SET_CONTROL_LINE request and returned
ARM GAS  C:\Users\essele\AppData\Local\Temp\cczrtAYv.s 			page 4


 146:Generated_Source\PSoC4/USBUART_cdc.c **** *     to the user code by the USBFS_GetLineControl() API.
 147:Generated_Source\PSoC4/USBUART_cdc.c **** *   USBUART_linesChanged: This variable is used as a flag for the
 148:Generated_Source\PSoC4/USBUART_cdc.c **** *     USBFS_IsLineChanged() API, to be aware that Host has been sent request
 149:Generated_Source\PSoC4/USBUART_cdc.c **** *     for changing Line Coding or Control Bitmap.
 150:Generated_Source\PSoC4/USBUART_cdc.c **** *
 151:Generated_Source\PSoC4/USBUART_cdc.c **** * \reentrant
 152:Generated_Source\PSoC4/USBUART_cdc.c **** *  No.
 153:Generated_Source\PSoC4/USBUART_cdc.c **** *
 154:Generated_Source\PSoC4/USBUART_cdc.c **** *******************************************************************************/
 155:Generated_Source\PSoC4/USBUART_cdc.c **** uint8 USBUART_DispatchCDCClassRqst(void) 
 156:Generated_Source\PSoC4/USBUART_cdc.c **** {
 157:Generated_Source\PSoC4/USBUART_cdc.c ****     uint8 requestHandled = USBUART_FALSE;
 158:Generated_Source\PSoC4/USBUART_cdc.c ****     uint8 comPort;
 159:Generated_Source\PSoC4/USBUART_cdc.c **** 
 160:Generated_Source\PSoC4/USBUART_cdc.c ****     comPort = USBUART_GetInterfaceComPort((uint8)USBUART_wIndexLoReg);
 161:Generated_Source\PSoC4/USBUART_cdc.c **** 
 162:Generated_Source\PSoC4/USBUART_cdc.c ****     /* Check request direction: D2H or H2D. */
 163:Generated_Source\PSoC4/USBUART_cdc.c ****     if (0u != (USBUART_bmRequestTypeReg & USBUART_RQST_DIR_D2H))
 164:Generated_Source\PSoC4/USBUART_cdc.c ****     {
 165:Generated_Source\PSoC4/USBUART_cdc.c ****         /* Handle direction from device to host. */
 166:Generated_Source\PSoC4/USBUART_cdc.c **** 
 167:Generated_Source\PSoC4/USBUART_cdc.c ****         switch (USBUART_bRequestReg)
 168:Generated_Source\PSoC4/USBUART_cdc.c ****         {
 169:Generated_Source\PSoC4/USBUART_cdc.c ****             case USBUART_CDC_GET_LINE_CODING:
 170:Generated_Source\PSoC4/USBUART_cdc.c ****                 USBUART_currentTD.count = USBUART_LINE_CODING_SIZE;
 171:Generated_Source\PSoC4/USBUART_cdc.c ****                 USBUART_currentTD.pData = USBUART_linesCoding[comPort];
 172:Generated_Source\PSoC4/USBUART_cdc.c ****                 requestHandled  = USBUART_InitControlRead();
 173:Generated_Source\PSoC4/USBUART_cdc.c ****                 break;
 174:Generated_Source\PSoC4/USBUART_cdc.c **** 
 175:Generated_Source\PSoC4/USBUART_cdc.c ****             /* `#START CDC_READ_REQUESTS` Place other request handler here */
 176:Generated_Source\PSoC4/USBUART_cdc.c **** 
 177:Generated_Source\PSoC4/USBUART_cdc.c ****             /* `#END` */
 178:Generated_Source\PSoC4/USBUART_cdc.c **** 
 179:Generated_Source\PSoC4/USBUART_cdc.c ****             default:
 180:Generated_Source\PSoC4/USBUART_cdc.c ****             /* Do not handle this request unless callback is defined. */
 181:Generated_Source\PSoC4/USBUART_cdc.c ****             #ifdef USBUART_DISPATCH_CDC_CLASS_CDC_READ_REQUESTS_CALLBACK
 182:Generated_Source\PSoC4/USBUART_cdc.c ****                 requestHandled = USBUART_DispatchCDCClass_CDC_READ_REQUESTS_Callback();
 183:Generated_Source\PSoC4/USBUART_cdc.c ****             #endif /* (USBUART_DISPATCH_CDC_CLASS_CDC_READ_REQUESTS_CALLBACK) */
 184:Generated_Source\PSoC4/USBUART_cdc.c ****                 break;
 185:Generated_Source\PSoC4/USBUART_cdc.c ****         }
 186:Generated_Source\PSoC4/USBUART_cdc.c ****     }
 187:Generated_Source\PSoC4/USBUART_cdc.c ****     else
 188:Generated_Source\PSoC4/USBUART_cdc.c ****     {
 189:Generated_Source\PSoC4/USBUART_cdc.c ****         /* Handle direction from host to device. */
 190:Generated_Source\PSoC4/USBUART_cdc.c **** 
 191:Generated_Source\PSoC4/USBUART_cdc.c ****         switch (USBUART_bRequestReg)
 192:Generated_Source\PSoC4/USBUART_cdc.c ****         {
 193:Generated_Source\PSoC4/USBUART_cdc.c ****             case USBUART_CDC_SET_LINE_CODING:
 194:Generated_Source\PSoC4/USBUART_cdc.c ****                 USBUART_currentTD.count  = USBUART_LINE_CODING_SIZE;
 195:Generated_Source\PSoC4/USBUART_cdc.c ****                 USBUART_currentTD.pData  = USBUART_linesCoding[comPort];
 196:Generated_Source\PSoC4/USBUART_cdc.c ****                 USBUART_linesChanged[comPort] |= USBUART_LINE_CODING_CHANGED;
 197:Generated_Source\PSoC4/USBUART_cdc.c **** 
 198:Generated_Source\PSoC4/USBUART_cdc.c ****                 requestHandled = USBUART_InitControlWrite();
 199:Generated_Source\PSoC4/USBUART_cdc.c ****                 break;
 200:Generated_Source\PSoC4/USBUART_cdc.c **** 
 201:Generated_Source\PSoC4/USBUART_cdc.c ****             case USBUART_CDC_SET_CONTROL_LINE_STATE:
 202:Generated_Source\PSoC4/USBUART_cdc.c ****                 USBUART_linesControlBitmap[comPort] = (uint8) USBUART_wValueLoReg;
ARM GAS  C:\Users\essele\AppData\Local\Temp\cczrtAYv.s 			page 5


 203:Generated_Source\PSoC4/USBUART_cdc.c ****                 USBUART_linesChanged[comPort]      |= USBUART_LINE_CONTROL_CHANGED;
 204:Generated_Source\PSoC4/USBUART_cdc.c **** 
 205:Generated_Source\PSoC4/USBUART_cdc.c ****                 requestHandled = USBUART_InitNoDataControlTransfer();
 206:Generated_Source\PSoC4/USBUART_cdc.c ****                 break;
 207:Generated_Source\PSoC4/USBUART_cdc.c **** 
 208:Generated_Source\PSoC4/USBUART_cdc.c ****             /* `#START CDC_WRITE_REQUESTS` Place other request handler here */
 209:Generated_Source\PSoC4/USBUART_cdc.c **** 
 210:Generated_Source\PSoC4/USBUART_cdc.c ****             /* `#END` */
 211:Generated_Source\PSoC4/USBUART_cdc.c **** 
 212:Generated_Source\PSoC4/USBUART_cdc.c ****             default:
 213:Generated_Source\PSoC4/USBUART_cdc.c ****                 /* Do not handle this request unless callback is defined. */
 214:Generated_Source\PSoC4/USBUART_cdc.c ****             #ifdef USBUART_DISPATCH_CDC_CLASS_CDC_WRITE_REQUESTS_CALLBACK
 215:Generated_Source\PSoC4/USBUART_cdc.c ****                 requestHandled = USBUART_DispatchCDCClass_CDC_WRITE_REQUESTS_Callback();
 216:Generated_Source\PSoC4/USBUART_cdc.c ****             #endif /* (USBUART_DISPATCH_CDC_CLASS_CDC_WRITE_REQUESTS_CALLBACK) */
 217:Generated_Source\PSoC4/USBUART_cdc.c ****                 break;
 218:Generated_Source\PSoC4/USBUART_cdc.c ****         }
 219:Generated_Source\PSoC4/USBUART_cdc.c ****     }
 220:Generated_Source\PSoC4/USBUART_cdc.c **** 
 221:Generated_Source\PSoC4/USBUART_cdc.c ****     return(requestHandled);
 222:Generated_Source\PSoC4/USBUART_cdc.c **** }
 223:Generated_Source\PSoC4/USBUART_cdc.c **** 
 224:Generated_Source\PSoC4/USBUART_cdc.c **** 
 225:Generated_Source\PSoC4/USBUART_cdc.c **** /***************************************************************************
 226:Generated_Source\PSoC4/USBUART_cdc.c **** * Function Name: USBUART_GetInterfaceComPort
 227:Generated_Source\PSoC4/USBUART_cdc.c **** ************************************************************************//**
 228:Generated_Source\PSoC4/USBUART_cdc.c **** *   \internal
 229:Generated_Source\PSoC4/USBUART_cdc.c **** *  Internal function which gets number of COM port by specified interface
 230:Generated_Source\PSoC4/USBUART_cdc.c **** *   number.
 231:Generated_Source\PSoC4/USBUART_cdc.c **** *
 232:Generated_Source\PSoC4/USBUART_cdc.c **** * \param uint8 interface
 233:Generated_Source\PSoC4/USBUART_cdc.c **** *  Interface number
 234:Generated_Source\PSoC4/USBUART_cdc.c **** *
 235:Generated_Source\PSoC4/USBUART_cdc.c **** * \return
 236:Generated_Source\PSoC4/USBUART_cdc.c **** *  COM port number (0 or 1) or error 0xFF
 237:Generated_Source\PSoC4/USBUART_cdc.c **** *
 238:Generated_Source\PSoC4/USBUART_cdc.c **** ***************************************************************************/
 239:Generated_Source\PSoC4/USBUART_cdc.c **** uint8 USBUART_GetInterfaceComPort(uint8 interface) 
 240:Generated_Source\PSoC4/USBUART_cdc.c **** {
 241:Generated_Source\PSoC4/USBUART_cdc.c ****     uint8 comPort = 0u;
 242:Generated_Source\PSoC4/USBUART_cdc.c ****     uint8 res = 0xFFu;
 243:Generated_Source\PSoC4/USBUART_cdc.c ****     uint8 notEp;
 244:Generated_Source\PSoC4/USBUART_cdc.c **** 
 245:Generated_Source\PSoC4/USBUART_cdc.c ****     while (comPort < USBUART_MAX_MULTI_COM_NUM)
 246:Generated_Source\PSoC4/USBUART_cdc.c ****     {
 247:Generated_Source\PSoC4/USBUART_cdc.c ****         notEp = USBUART_cdcCommInInterruptEp[comPort];
 248:Generated_Source\PSoC4/USBUART_cdc.c **** 
 249:Generated_Source\PSoC4/USBUART_cdc.c ****         if (USBUART_EP[notEp].interface == interface)
 250:Generated_Source\PSoC4/USBUART_cdc.c ****         {
 251:Generated_Source\PSoC4/USBUART_cdc.c ****             res = comPort;
 252:Generated_Source\PSoC4/USBUART_cdc.c ****             comPort = USBUART_MAX_MULTI_COM_NUM;
 253:Generated_Source\PSoC4/USBUART_cdc.c ****         }
 254:Generated_Source\PSoC4/USBUART_cdc.c **** 
 255:Generated_Source\PSoC4/USBUART_cdc.c ****         comPort++;
 256:Generated_Source\PSoC4/USBUART_cdc.c ****     }
 257:Generated_Source\PSoC4/USBUART_cdc.c ****     return (res);
 258:Generated_Source\PSoC4/USBUART_cdc.c **** }
 259:Generated_Source\PSoC4/USBUART_cdc.c **** 
ARM GAS  C:\Users\essele\AppData\Local\Temp\cczrtAYv.s 			page 6


 260:Generated_Source\PSoC4/USBUART_cdc.c **** 
 261:Generated_Source\PSoC4/USBUART_cdc.c **** /***************************************
 262:Generated_Source\PSoC4/USBUART_cdc.c **** * Optional CDC APIs
 263:Generated_Source\PSoC4/USBUART_cdc.c **** ***************************************/
 264:Generated_Source\PSoC4/USBUART_cdc.c **** #if (USBUART_ENABLE_CDC_CLASS_API != 0u)
 265:Generated_Source\PSoC4/USBUART_cdc.c **** /***************************************************************************
 266:Generated_Source\PSoC4/USBUART_cdc.c **** * Function Name: USBUART_CDC_Init
 267:Generated_Source\PSoC4/USBUART_cdc.c **** ************************************************************************//**
 268:Generated_Source\PSoC4/USBUART_cdc.c **** *
 269:Generated_Source\PSoC4/USBUART_cdc.c **** *  This function initializes the CDC interface to be ready to receive data
 270:Generated_Source\PSoC4/USBUART_cdc.c **** *  from the PC. The API set active communication port to 0 in the case of 
 271:Generated_Source\PSoC4/USBUART_cdc.c **** *  multiple communication port support.This API should be called after the 
 272:Generated_Source\PSoC4/USBUART_cdc.c **** *  device has been started and configured using USBUART_Start() API to 
 273:Generated_Source\PSoC4/USBUART_cdc.c **** *  initialize and start the USBFS component operation. Then call the 
 274:Generated_Source\PSoC4/USBUART_cdc.c **** *  USBUART_GetConfiguration() API to wait until the host has enumerated and 
 275:Generated_Source\PSoC4/USBUART_cdc.c **** *  configured the device. For example:
 276:Generated_Source\PSoC4/USBUART_cdc.c **** *
 277:Generated_Source\PSoC4/USBUART_cdc.c **** *  \snippet /USBFS_sut_02.cydsn/main.c wait for enumeration
 278:Generated_Source\PSoC4/USBUART_cdc.c **** *
 279:Generated_Source\PSoC4/USBUART_cdc.c **** * \return
 280:Generated_Source\PSoC4/USBUART_cdc.c **** *  cystatus:
 281:Generated_Source\PSoC4/USBUART_cdc.c **** *   Return Value    Description
 282:Generated_Source\PSoC4/USBUART_cdc.c **** *   USBUART_SUCCESS   CDC interface was initialized correctly
 283:Generated_Source\PSoC4/USBUART_cdc.c **** *   USBUART_FAILURE   CDC interface was not initialized
 284:Generated_Source\PSoC4/USBUART_cdc.c **** *
 285:Generated_Source\PSoC4/USBUART_cdc.c **** * \globalvars
 286:Generated_Source\PSoC4/USBUART_cdc.c **** *   USBUART_linesChanged: Initialized to zero.
 287:Generated_Source\PSoC4/USBUART_cdc.c **** *   USBUART_cdcDataOutEp: Used as an OUT endpoint number.
 288:Generated_Source\PSoC4/USBUART_cdc.c **** *
 289:Generated_Source\PSoC4/USBUART_cdc.c **** * \reentrant
 290:Generated_Source\PSoC4/USBUART_cdc.c **** *  No.
 291:Generated_Source\PSoC4/USBUART_cdc.c **** *
 292:Generated_Source\PSoC4/USBUART_cdc.c **** *******************************************************************************/
 293:Generated_Source\PSoC4/USBUART_cdc.c **** uint8 USBUART_CDC_Init(void) 
 294:Generated_Source\PSoC4/USBUART_cdc.c **** {
 295:Generated_Source\PSoC4/USBUART_cdc.c ****     uint8 comPort;
 296:Generated_Source\PSoC4/USBUART_cdc.c ****     uint8 outEp;
 297:Generated_Source\PSoC4/USBUART_cdc.c ****     uint8 ret = USBUART_SUCCESS;
 298:Generated_Source\PSoC4/USBUART_cdc.c **** 
 299:Generated_Source\PSoC4/USBUART_cdc.c ****     USBUART_activeCom = 0u;
 300:Generated_Source\PSoC4/USBUART_cdc.c ****     USBUART_linesChanged[USBUART_COM_PORT1] = 0u;
 301:Generated_Source\PSoC4/USBUART_cdc.c ****     USBUART_linesChanged[USBUART_COM_PORT2] = 0u;
 302:Generated_Source\PSoC4/USBUART_cdc.c **** 
 303:Generated_Source\PSoC4/USBUART_cdc.c ****     for(comPort = 0u; comPort<USBUART_MAX_MULTI_COM_NUM; comPort++)
 304:Generated_Source\PSoC4/USBUART_cdc.c ****     {
 305:Generated_Source\PSoC4/USBUART_cdc.c ****         outEp = USBUART_cdcDataOutEp[comPort];
 306:Generated_Source\PSoC4/USBUART_cdc.c ****         if((0u != outEp) && (USBUART_MAX_EP > outEp))
 307:Generated_Source\PSoC4/USBUART_cdc.c ****         {
 308:Generated_Source\PSoC4/USBUART_cdc.c ****             USBUART_EnableOutEP(outEp);
 309:Generated_Source\PSoC4/USBUART_cdc.c ****         }
 310:Generated_Source\PSoC4/USBUART_cdc.c **** 
 311:Generated_Source\PSoC4/USBUART_cdc.c ****     }
 312:Generated_Source\PSoC4/USBUART_cdc.c **** 
 313:Generated_Source\PSoC4/USBUART_cdc.c ****     /* COM Port 1 should be correct to proceed. */
 314:Generated_Source\PSoC4/USBUART_cdc.c ****     if ((0u == USBUART_cdcDataInEp[USBUART_COM_PORT1]) \
 315:Generated_Source\PSoC4/USBUART_cdc.c ****             || (0u == USBUART_cdcDataOutEp[USBUART_COM_PORT1]) \
 316:Generated_Source\PSoC4/USBUART_cdc.c ****             || (0u ==  USBUART_cdcCommInInterruptEp[USBUART_COM_PORT1])
ARM GAS  C:\Users\essele\AppData\Local\Temp\cczrtAYv.s 			page 7


 317:Generated_Source\PSoC4/USBUART_cdc.c ****             || (USBUART_cdcDataInEp[USBUART_COM_PORT1] >= USBUART_MAX_EP)
 318:Generated_Source\PSoC4/USBUART_cdc.c ****             || (USBUART_cdcDataOutEp[USBUART_COM_PORT1] >= USBUART_MAX_EP)
 319:Generated_Source\PSoC4/USBUART_cdc.c ****             || (USBUART_cdcCommInInterruptEp[USBUART_COM_PORT1] >= USBUART_MAX_EP))
 320:Generated_Source\PSoC4/USBUART_cdc.c ****     {
 321:Generated_Source\PSoC4/USBUART_cdc.c ****         ret = USBUART_FAILURE;
 322:Generated_Source\PSoC4/USBUART_cdc.c ****     }
 323:Generated_Source\PSoC4/USBUART_cdc.c **** 
 324:Generated_Source\PSoC4/USBUART_cdc.c ****     return (ret);
 325:Generated_Source\PSoC4/USBUART_cdc.c **** }
 326:Generated_Source\PSoC4/USBUART_cdc.c **** 
 327:Generated_Source\PSoC4/USBUART_cdc.c **** 
 328:Generated_Source\PSoC4/USBUART_cdc.c **** /*******************************************************************************
 329:Generated_Source\PSoC4/USBUART_cdc.c **** * Function Name: USBUART_PutData
 330:Generated_Source\PSoC4/USBUART_cdc.c **** ****************************************************************************//**
 331:Generated_Source\PSoC4/USBUART_cdc.c **** *
 332:Generated_Source\PSoC4/USBUART_cdc.c **** *  This function sends a specified number of bytes from the location specified
 333:Generated_Source\PSoC4/USBUART_cdc.c **** *  by a pointer to the PC. The USBUART_CDCIsReady() function should be
 334:Generated_Source\PSoC4/USBUART_cdc.c **** *  called before sending new data, to be sure that the previous data has
 335:Generated_Source\PSoC4/USBUART_cdc.c **** *  finished sending.
 336:Generated_Source\PSoC4/USBUART_cdc.c **** *  If the last sent packet is less than maximum packet size the USB transfer
 337:Generated_Source\PSoC4/USBUART_cdc.c **** *  of this short packet will identify the end of the segment. If the last sent
 338:Generated_Source\PSoC4/USBUART_cdc.c **** *  packet is exactly maximum packet size, it shall be followed by a zero-length
 339:Generated_Source\PSoC4/USBUART_cdc.c **** *  packet (which is a short packet) to assure the end of segment is properly
 340:Generated_Source\PSoC4/USBUART_cdc.c **** *  identified. To send zero-length packet, use USBUART_PutData() API
 341:Generated_Source\PSoC4/USBUART_cdc.c **** *  with length parameter set to zero.
 342:Generated_Source\PSoC4/USBUART_cdc.c **** *
 343:Generated_Source\PSoC4/USBUART_cdc.c **** *  \param pData: pointer to the buffer containing data to be sent.
 344:Generated_Source\PSoC4/USBUART_cdc.c **** *  \param length: Specifies the number of bytes to send from the pData
 345:Generated_Source\PSoC4/USBUART_cdc.c **** *  buffer. Maximum length will be limited by the maximum packet
 346:Generated_Source\PSoC4/USBUART_cdc.c **** *  size for the endpoint. Data will be lost if length is greater than Max
 347:Generated_Source\PSoC4/USBUART_cdc.c **** *  Packet Size.
 348:Generated_Source\PSoC4/USBUART_cdc.c **** *
 349:Generated_Source\PSoC4/USBUART_cdc.c **** * \globalvars
 350:Generated_Source\PSoC4/USBUART_cdc.c **** *
 351:Generated_Source\PSoC4/USBUART_cdc.c **** *   USBUART_cdcDataInEp: CDC IN endpoint number used for sending
 352:Generated_Source\PSoC4/USBUART_cdc.c **** *     data.
 353:Generated_Source\PSoC4/USBUART_cdc.c **** *
 354:Generated_Source\PSoC4/USBUART_cdc.c **** * \reentrant
 355:Generated_Source\PSoC4/USBUART_cdc.c **** *  No.
 356:Generated_Source\PSoC4/USBUART_cdc.c **** *
 357:Generated_Source\PSoC4/USBUART_cdc.c **** *******************************************************************************/
 358:Generated_Source\PSoC4/USBUART_cdc.c **** void USBUART_PutData(const uint8* pData, uint16 length) 
 359:Generated_Source\PSoC4/USBUART_cdc.c **** {
 360:Generated_Source\PSoC4/USBUART_cdc.c ****     uint8 epNumber = USBUART_cdcDataInEp[USBUART_activeCom];
 361:Generated_Source\PSoC4/USBUART_cdc.c **** 
 362:Generated_Source\PSoC4/USBUART_cdc.c ****     /* Limit length to maximum packet size for endpoint. */
 363:Generated_Source\PSoC4/USBUART_cdc.c ****     if (length > USBUART_EP[epNumber].bufferSize)
 364:Generated_Source\PSoC4/USBUART_cdc.c ****     {
 365:Generated_Source\PSoC4/USBUART_cdc.c ****         /* Caution: Data will be lost if length is greater than Max Packet Size. */
 366:Generated_Source\PSoC4/USBUART_cdc.c ****         length = USBUART_EP[epNumber].bufferSize;
 367:Generated_Source\PSoC4/USBUART_cdc.c **** 
 368:Generated_Source\PSoC4/USBUART_cdc.c ****         /* Halt CPU in debug mode */
 369:Generated_Source\PSoC4/USBUART_cdc.c ****         CYASSERT(0u != 0u);
 370:Generated_Source\PSoC4/USBUART_cdc.c ****     }
 371:Generated_Source\PSoC4/USBUART_cdc.c **** 
 372:Generated_Source\PSoC4/USBUART_cdc.c ****     USBUART_LoadInEP(epNumber, pData, length);
 373:Generated_Source\PSoC4/USBUART_cdc.c **** }
ARM GAS  C:\Users\essele\AppData\Local\Temp\cczrtAYv.s 			page 8


 374:Generated_Source\PSoC4/USBUART_cdc.c **** 
 375:Generated_Source\PSoC4/USBUART_cdc.c **** 
 376:Generated_Source\PSoC4/USBUART_cdc.c **** /*******************************************************************************
 377:Generated_Source\PSoC4/USBUART_cdc.c **** * Function Name: USBUART_StrLen
 378:Generated_Source\PSoC4/USBUART_cdc.c **** ****************************************************************************//**
 379:Generated_Source\PSoC4/USBUART_cdc.c **** *
 380:Generated_Source\PSoC4/USBUART_cdc.c **** *  Calculates length of a null terminated string.
 381:Generated_Source\PSoC4/USBUART_cdc.c **** *
 382:Generated_Source\PSoC4/USBUART_cdc.c **** *  \param string: pointer to the string.
 383:Generated_Source\PSoC4/USBUART_cdc.c **** *
 384:Generated_Source\PSoC4/USBUART_cdc.c **** * \return
 385:Generated_Source\PSoC4/USBUART_cdc.c **** *  Length of the string
 386:Generated_Source\PSoC4/USBUART_cdc.c **** *
 387:Generated_Source\PSoC4/USBUART_cdc.c **** *******************************************************************************/
 388:Generated_Source\PSoC4/USBUART_cdc.c **** static uint16 USBUART_StrLen(const char8 string[]) 
 389:Generated_Source\PSoC4/USBUART_cdc.c **** {
  27              		.loc 1 389 0
  28              		.cfi_startproc
  29              		@ args = 0, pretend = 0, frame = 0
  30              		@ frame_needed = 0, uses_anonymous_args = 0
  31              		@ link register save eliminated.
  32              	.LVL0:
  33 0000 0200     		movs	r2, r0
  34              	.LVL1:
 390:Generated_Source\PSoC4/USBUART_cdc.c ****     uint16 len = 0u;
  35              		.loc 1 390 0
  36 0002 0020     		movs	r0, #0
  37              	.LVL2:
 391:Generated_Source\PSoC4/USBUART_cdc.c **** 
 392:Generated_Source\PSoC4/USBUART_cdc.c ****     while (string[len] != (char8)0)
  38              		.loc 1 392 0
  39 0004 01E0     		b	.L2
  40              	.LVL3:
  41              	.L3:
 393:Generated_Source\PSoC4/USBUART_cdc.c ****     {
 394:Generated_Source\PSoC4/USBUART_cdc.c ****         len++;
  42              		.loc 1 394 0
  43 0006 0130     		adds	r0, r0, #1
  44              	.LVL4:
  45 0008 80B2     		uxth	r0, r0
  46              	.LVL5:
  47              	.L2:
 392:Generated_Source\PSoC4/USBUART_cdc.c ****     {
  48              		.loc 1 392 0
  49 000a 135C     		ldrb	r3, [r2, r0]
  50 000c 002B     		cmp	r3, #0
  51 000e FAD1     		bne	.L3
 395:Generated_Source\PSoC4/USBUART_cdc.c ****     }
 396:Generated_Source\PSoC4/USBUART_cdc.c **** 
 397:Generated_Source\PSoC4/USBUART_cdc.c ****     return ((uint16) len);
 398:Generated_Source\PSoC4/USBUART_cdc.c **** }
  52              		.loc 1 398 0
  53              		@ sp needed
  54 0010 7047     		bx	lr
  55              		.cfi_endproc
  56              	.LFE5:
  57              		.size	USBUART_StrLen, .-USBUART_StrLen
ARM GAS  C:\Users\essele\AppData\Local\Temp\cczrtAYv.s 			page 9


  58 0012 C046     		.section	.text.USBUART_GetInterfaceComPort,"ax",%progbits
  59              		.align	2
  60              		.global	USBUART_GetInterfaceComPort
  61              		.code	16
  62              		.thumb_func
  63              		.type	USBUART_GetInterfaceComPort, %function
  64              	USBUART_GetInterfaceComPort:
  65              	.LFB2:
 240:Generated_Source\PSoC4/USBUART_cdc.c ****     uint8 comPort = 0u;
  66              		.loc 1 240 0
  67              		.cfi_startproc
  68              		@ args = 0, pretend = 0, frame = 0
  69              		@ frame_needed = 0, uses_anonymous_args = 0
  70              	.LVL6:
  71 0000 10B5     		push	{r4, lr}
  72              		.cfi_def_cfa_offset 8
  73              		.cfi_offset 4, -8
  74              		.cfi_offset 14, -4
  75              	.LVL7:
 242:Generated_Source\PSoC4/USBUART_cdc.c ****     uint8 notEp;
  76              		.loc 1 242 0
  77 0002 FF24     		movs	r4, #255
 241:Generated_Source\PSoC4/USBUART_cdc.c ****     uint8 res = 0xFFu;
  78              		.loc 1 241 0
  79 0004 0022     		movs	r2, #0
 245:Generated_Source\PSoC4/USBUART_cdc.c ****     {
  80              		.loc 1 245 0
  81 0006 0FE0     		b	.L5
  82              	.LVL8:
  83              	.L7:
 247:Generated_Source\PSoC4/USBUART_cdc.c **** 
  84              		.loc 1 247 0
  85 0008 094B     		ldr	r3, .L9
  86 000a 9B5C     		ldrb	r3, [r3, r2]
  87 000c DBB2     		uxtb	r3, r3
  88              	.LVL9:
 249:Generated_Source\PSoC4/USBUART_cdc.c ****         {
  89              		.loc 1 249 0
  90 000e 5900     		lsls	r1, r3, #1
  91 0010 CB18     		adds	r3, r1, r3
  92              	.LVL10:
  93 0012 9900     		lsls	r1, r3, #2
  94 0014 074B     		ldr	r3, .L9+4
  95 0016 5918     		adds	r1, r3, r1
  96 0018 8B7A     		ldrb	r3, [r1, #10]
  97 001a DBB2     		uxtb	r3, r3
  98 001c 8342     		cmp	r3, r0
  99 001e 01D1     		bne	.L6
 251:Generated_Source\PSoC4/USBUART_cdc.c ****             comPort = USBUART_MAX_MULTI_COM_NUM;
 100              		.loc 1 251 0
 101 0020 1400     		movs	r4, r2
 102              	.LVL11:
 252:Generated_Source\PSoC4/USBUART_cdc.c ****         }
 103              		.loc 1 252 0
 104 0022 0222     		movs	r2, #2
 105              	.LVL12:
 106              	.L6:
ARM GAS  C:\Users\essele\AppData\Local\Temp\cczrtAYv.s 			page 10


 255:Generated_Source\PSoC4/USBUART_cdc.c ****     }
 107              		.loc 1 255 0
 108 0024 0132     		adds	r2, r2, #1
 109              	.LVL13:
 110 0026 D2B2     		uxtb	r2, r2
 111              	.LVL14:
 112              	.L5:
 245:Generated_Source\PSoC4/USBUART_cdc.c ****     {
 113              		.loc 1 245 0
 114 0028 012A     		cmp	r2, #1
 115 002a EDD9     		bls	.L7
 258:Generated_Source\PSoC4/USBUART_cdc.c **** 
 116              		.loc 1 258 0
 117 002c 2000     		movs	r0, r4
 118              	.LVL15:
 119              		@ sp needed
 120              	.LVL16:
 121 002e 10BD     		pop	{r4, pc}
 122              	.L10:
 123              		.align	2
 124              	.L9:
 125 0030 00000000 		.word	USBUART_cdcCommInInterruptEp
 126 0034 00000000 		.word	USBUART_EP
 127              		.cfi_endproc
 128              	.LFE2:
 129              		.size	USBUART_GetInterfaceComPort, .-USBUART_GetInterfaceComPort
 130              		.section	.text.USBUART_DispatchCDCClassRqst,"ax",%progbits
 131              		.align	2
 132              		.global	USBUART_DispatchCDCClassRqst
 133              		.code	16
 134              		.thumb_func
 135              		.type	USBUART_DispatchCDCClassRqst, %function
 136              	USBUART_DispatchCDCClassRqst:
 137              	.LFB1:
 156:Generated_Source\PSoC4/USBUART_cdc.c ****     uint8 requestHandled = USBUART_FALSE;
 138              		.loc 1 156 0
 139              		.cfi_startproc
 140              		@ args = 0, pretend = 0, frame = 0
 141              		@ frame_needed = 0, uses_anonymous_args = 0
 142 0000 10B5     		push	{r4, lr}
 143              		.cfi_def_cfa_offset 8
 144              		.cfi_offset 4, -8
 145              		.cfi_offset 14, -4
 146              	.LVL17:
 160:Generated_Source\PSoC4/USBUART_cdc.c **** 
 147              		.loc 1 160 0
 148 0002 204C     		ldr	r4, .L21
 149 0004 2069     		ldr	r0, [r4, #16]
 150 0006 C0B2     		uxtb	r0, r0
 151 0008 FFF7FEFF 		bl	USBUART_GetInterfaceComPort
 152              	.LVL18:
 163:Generated_Source\PSoC4/USBUART_cdc.c ****     {
 153              		.loc 1 163 0
 154 000c 2368     		ldr	r3, [r4]
 155 000e 1B06     		lsls	r3, r3, #24
 156 0010 0DD5     		bpl	.L12
 167:Generated_Source\PSoC4/USBUART_cdc.c ****         {
ARM GAS  C:\Users\essele\AppData\Local\Temp\cczrtAYv.s 			page 11


 157              		.loc 1 167 0
 158 0012 6368     		ldr	r3, [r4, #4]
 159 0014 212B     		cmp	r3, #33
 160 0016 31D1     		bne	.L19
 170:Generated_Source\PSoC4/USBUART_cdc.c ****                 USBUART_currentTD.pData = USBUART_linesCoding[comPort];
 161              		.loc 1 170 0
 162 0018 1B4A     		ldr	r2, .L21+4
 163 001a 1A3B     		subs	r3, r3, #26
 164 001c 1380     		strh	r3, [r2]
 171:Generated_Source\PSoC4/USBUART_cdc.c ****                 requestHandled  = USBUART_InitControlRead();
 165              		.loc 1 171 0
 166 001e C300     		lsls	r3, r0, #3
 167 0020 181A     		subs	r0, r3, r0
 168              	.LVL19:
 169 0022 1A4B     		ldr	r3, .L21+8
 170 0024 1818     		adds	r0, r3, r0
 171 0026 5060     		str	r0, [r2, #4]
 172:Generated_Source\PSoC4/USBUART_cdc.c ****                 break;
 172              		.loc 1 172 0
 173 0028 FFF7FEFF 		bl	USBUART_InitControlRead
 174              	.LVL20:
 173:Generated_Source\PSoC4/USBUART_cdc.c **** 
 175              		.loc 1 173 0
 176 002c 29E0     		b	.L13
 177              	.LVL21:
 178              	.L12:
 191:Generated_Source\PSoC4/USBUART_cdc.c ****         {
 179              		.loc 1 191 0
 180 002e 154B     		ldr	r3, .L21
 181 0030 5B68     		ldr	r3, [r3, #4]
 182 0032 202B     		cmp	r3, #32
 183 0034 02D0     		beq	.L15
 184 0036 222B     		cmp	r3, #34
 185 0038 11D0     		beq	.L16
 186 003a 21E0     		b	.L20
 187              	.L15:
 194:Generated_Source\PSoC4/USBUART_cdc.c ****                 USBUART_currentTD.pData  = USBUART_linesCoding[comPort];
 188              		.loc 1 194 0
 189 003c 124A     		ldr	r2, .L21+4
 190 003e 0723     		movs	r3, #7
 191 0040 1380     		strh	r3, [r2]
 195:Generated_Source\PSoC4/USBUART_cdc.c ****                 USBUART_linesChanged[comPort] |= USBUART_LINE_CODING_CHANGED;
 192              		.loc 1 195 0
 193 0042 C300     		lsls	r3, r0, #3
 194 0044 1B1A     		subs	r3, r3, r0
 195 0046 1149     		ldr	r1, .L21+8
 196 0048 CB18     		adds	r3, r1, r3
 197 004a 5360     		str	r3, [r2, #4]
 196:Generated_Source\PSoC4/USBUART_cdc.c **** 
 198              		.loc 1 196 0
 199 004c 104A     		ldr	r2, .L21+12
 200 004e 115C     		ldrb	r1, [r2, r0]
 201 0050 0123     		movs	r3, #1
 202 0052 0B43     		orrs	r3, r1
 203 0054 DBB2     		uxtb	r3, r3
 204 0056 1354     		strb	r3, [r2, r0]
 198:Generated_Source\PSoC4/USBUART_cdc.c ****                 break;
ARM GAS  C:\Users\essele\AppData\Local\Temp\cczrtAYv.s 			page 12


 205              		.loc 1 198 0
 206 0058 FFF7FEFF 		bl	USBUART_InitControlWrite
 207              	.LVL22:
 199:Generated_Source\PSoC4/USBUART_cdc.c **** 
 208              		.loc 1 199 0
 209 005c 11E0     		b	.L13
 210              	.LVL23:
 211              	.L16:
 202:Generated_Source\PSoC4/USBUART_cdc.c ****                 USBUART_linesChanged[comPort]      |= USBUART_LINE_CONTROL_CHANGED;
 212              		.loc 1 202 0
 213 005e 094B     		ldr	r3, .L21
 214 0060 9B68     		ldr	r3, [r3, #8]
 215 0062 DBB2     		uxtb	r3, r3
 216 0064 4100     		lsls	r1, r0, #1
 217 0066 0B4A     		ldr	r2, .L21+16
 218 0068 8B52     		strh	r3, [r1, r2]
 203:Generated_Source\PSoC4/USBUART_cdc.c **** 
 219              		.loc 1 203 0
 220 006a 094A     		ldr	r2, .L21+12
 221 006c 115C     		ldrb	r1, [r2, r0]
 222 006e 0223     		movs	r3, #2
 223 0070 0B43     		orrs	r3, r1
 224 0072 DBB2     		uxtb	r3, r3
 225 0074 1354     		strb	r3, [r2, r0]
 205:Generated_Source\PSoC4/USBUART_cdc.c ****                 break;
 226              		.loc 1 205 0
 227 0076 FFF7FEFF 		bl	USBUART_InitNoDataControlTransfer
 228              	.LVL24:
 206:Generated_Source\PSoC4/USBUART_cdc.c **** 
 229              		.loc 1 206 0
 230 007a 02E0     		b	.L13
 231              	.LVL25:
 232              	.L19:
 157:Generated_Source\PSoC4/USBUART_cdc.c ****     uint8 comPort;
 233              		.loc 1 157 0
 234 007c 0020     		movs	r0, #0
 235              	.LVL26:
 236 007e 00E0     		b	.L13
 237              	.LVL27:
 238              	.L20:
 239 0080 0020     		movs	r0, #0
 240              	.LVL28:
 241              	.L13:
 222:Generated_Source\PSoC4/USBUART_cdc.c **** 
 242              		.loc 1 222 0
 243              		@ sp needed
 244 0082 10BD     		pop	{r4, pc}
 245              	.L22:
 246              		.align	2
 247              	.L21:
 248 0084 00002C40 		.word	1076625408
 249 0088 00000000 		.word	USBUART_currentTD
 250 008c 00000000 		.word	.LANCHOR0
 251 0090 00000000 		.word	USBUART_linesChanged
 252 0094 00000000 		.word	USBUART_linesControlBitmap
 253              		.cfi_endproc
 254              	.LFE1:
ARM GAS  C:\Users\essele\AppData\Local\Temp\cczrtAYv.s 			page 13


 255              		.size	USBUART_DispatchCDCClassRqst, .-USBUART_DispatchCDCClassRqst
 256              		.section	.text.USBUART_CDC_Init,"ax",%progbits
 257              		.align	2
 258              		.global	USBUART_CDC_Init
 259              		.code	16
 260              		.thumb_func
 261              		.type	USBUART_CDC_Init, %function
 262              	USBUART_CDC_Init:
 263              	.LFB3:
 294:Generated_Source\PSoC4/USBUART_cdc.c ****     uint8 comPort;
 264              		.loc 1 294 0
 265              		.cfi_startproc
 266              		@ args = 0, pretend = 0, frame = 0
 267              		@ frame_needed = 0, uses_anonymous_args = 0
 268 0000 10B5     		push	{r4, lr}
 269              		.cfi_def_cfa_offset 8
 270              		.cfi_offset 4, -8
 271              		.cfi_offset 14, -4
 272              	.LVL29:
 299:Generated_Source\PSoC4/USBUART_cdc.c ****     USBUART_linesChanged[USBUART_COM_PORT1] = 0u;
 273              		.loc 1 299 0
 274 0002 0023     		movs	r3, #0
 275 0004 1E4A     		ldr	r2, .L34
 276 0006 1370     		strb	r3, [r2]
 300:Generated_Source\PSoC4/USBUART_cdc.c ****     USBUART_linesChanged[USBUART_COM_PORT2] = 0u;
 277              		.loc 1 300 0
 278 0008 1E4A     		ldr	r2, .L34+4
 279 000a 1370     		strb	r3, [r2]
 301:Generated_Source\PSoC4/USBUART_cdc.c **** 
 280              		.loc 1 301 0
 281 000c 5370     		strb	r3, [r2, #1]
 282              	.LVL30:
 303:Generated_Source\PSoC4/USBUART_cdc.c ****     {
 283              		.loc 1 303 0
 284 000e 0024     		movs	r4, #0
 285 0010 0AE0     		b	.L24
 286              	.LVL31:
 287              	.L26:
 305:Generated_Source\PSoC4/USBUART_cdc.c ****         if((0u != outEp) && (USBUART_MAX_EP > outEp))
 288              		.loc 1 305 0
 289 0012 1D4B     		ldr	r3, .L34+8
 290 0014 185D     		ldrb	r0, [r3, r4]
 291 0016 C0B2     		uxtb	r0, r0
 292              	.LVL32:
 306:Generated_Source\PSoC4/USBUART_cdc.c ****         {
 293              		.loc 1 306 0
 294 0018 431E     		subs	r3, r0, #1
 295 001a DBB2     		uxtb	r3, r3
 296 001c 072B     		cmp	r3, #7
 297 001e 01D8     		bhi	.L25
 308:Generated_Source\PSoC4/USBUART_cdc.c ****         }
 298              		.loc 1 308 0
 299 0020 FFF7FEFF 		bl	USBUART_EnableOutEP
 300              	.LVL33:
 301              	.L25:
 303:Generated_Source\PSoC4/USBUART_cdc.c ****     {
 302              		.loc 1 303 0 discriminator 2
ARM GAS  C:\Users\essele\AppData\Local\Temp\cczrtAYv.s 			page 14


 303 0024 0134     		adds	r4, r4, #1
 304              	.LVL34:
 305 0026 E4B2     		uxtb	r4, r4
 306              	.LVL35:
 307              	.L24:
 303:Generated_Source\PSoC4/USBUART_cdc.c ****     {
 308              		.loc 1 303 0 is_stmt 0 discriminator 1
 309 0028 012C     		cmp	r4, #1
 310 002a F2D9     		bls	.L26
 314:Generated_Source\PSoC4/USBUART_cdc.c ****             || (0u == USBUART_cdcDataOutEp[USBUART_COM_PORT1]) \
 311              		.loc 1 314 0 is_stmt 1
 312 002c 174B     		ldr	r3, .L34+12
 313 002e 1B78     		ldrb	r3, [r3]
 314 0030 002B     		cmp	r3, #0
 315 0032 18D0     		beq	.L28
 315:Generated_Source\PSoC4/USBUART_cdc.c ****             || (0u ==  USBUART_cdcCommInInterruptEp[USBUART_COM_PORT1])
 316              		.loc 1 315 0
 317 0034 144B     		ldr	r3, .L34+8
 318 0036 1B78     		ldrb	r3, [r3]
 319 0038 002B     		cmp	r3, #0
 320 003a 16D0     		beq	.L29
 316:Generated_Source\PSoC4/USBUART_cdc.c ****             || (USBUART_cdcDataInEp[USBUART_COM_PORT1] >= USBUART_MAX_EP)
 321              		.loc 1 316 0
 322 003c 144B     		ldr	r3, .L34+16
 323 003e 1B78     		ldrb	r3, [r3]
 324 0040 002B     		cmp	r3, #0
 325 0042 14D0     		beq	.L30
 317:Generated_Source\PSoC4/USBUART_cdc.c ****             || (USBUART_cdcDataOutEp[USBUART_COM_PORT1] >= USBUART_MAX_EP)
 326              		.loc 1 317 0
 327 0044 114B     		ldr	r3, .L34+12
 328 0046 1B78     		ldrb	r3, [r3]
 329 0048 DBB2     		uxtb	r3, r3
 330 004a 082B     		cmp	r3, #8
 331 004c 11D8     		bhi	.L31
 318:Generated_Source\PSoC4/USBUART_cdc.c ****             || (USBUART_cdcCommInInterruptEp[USBUART_COM_PORT1] >= USBUART_MAX_EP))
 332              		.loc 1 318 0
 333 004e 0E4B     		ldr	r3, .L34+8
 334 0050 1B78     		ldrb	r3, [r3]
 335 0052 DBB2     		uxtb	r3, r3
 336 0054 082B     		cmp	r3, #8
 337 0056 0ED8     		bhi	.L32
 319:Generated_Source\PSoC4/USBUART_cdc.c ****     {
 338              		.loc 1 319 0
 339 0058 0D4B     		ldr	r3, .L34+16
 340 005a 1B78     		ldrb	r3, [r3]
 341 005c DBB2     		uxtb	r3, r3
 342 005e 082B     		cmp	r3, #8
 343 0060 0BD8     		bhi	.L33
 297:Generated_Source\PSoC4/USBUART_cdc.c **** 
 344              		.loc 1 297 0
 345 0062 0020     		movs	r0, #0
 346 0064 0AE0     		b	.L27
 347              	.L28:
 321:Generated_Source\PSoC4/USBUART_cdc.c ****     }
 348              		.loc 1 321 0
 349 0066 0120     		movs	r0, #1
 350 0068 08E0     		b	.L27
ARM GAS  C:\Users\essele\AppData\Local\Temp\cczrtAYv.s 			page 15


 351              	.L29:
 352 006a 0120     		movs	r0, #1
 353 006c 06E0     		b	.L27
 354              	.L30:
 355 006e 0120     		movs	r0, #1
 356 0070 04E0     		b	.L27
 357              	.L31:
 358 0072 0120     		movs	r0, #1
 359 0074 02E0     		b	.L27
 360              	.L32:
 361 0076 0120     		movs	r0, #1
 362 0078 00E0     		b	.L27
 363              	.L33:
 364 007a 0120     		movs	r0, #1
 365              	.L27:
 366              	.LVL36:
 325:Generated_Source\PSoC4/USBUART_cdc.c **** 
 367              		.loc 1 325 0
 368              		@ sp needed
 369              	.LVL37:
 370 007c 10BD     		pop	{r4, pc}
 371              	.L35:
 372 007e C046     		.align	2
 373              	.L34:
 374 0080 00000000 		.word	.LANCHOR1
 375 0084 00000000 		.word	USBUART_linesChanged
 376 0088 00000000 		.word	USBUART_cdcDataOutEp
 377 008c 00000000 		.word	USBUART_cdcDataInEp
 378 0090 00000000 		.word	USBUART_cdcCommInInterruptEp
 379              		.cfi_endproc
 380              	.LFE3:
 381              		.size	USBUART_CDC_Init, .-USBUART_CDC_Init
 382              		.section	.text.USBUART_PutData,"ax",%progbits
 383              		.align	2
 384              		.global	USBUART_PutData
 385              		.code	16
 386              		.thumb_func
 387              		.type	USBUART_PutData, %function
 388              	USBUART_PutData:
 389              	.LFB4:
 359:Generated_Source\PSoC4/USBUART_cdc.c ****     uint8 epNumber = USBUART_cdcDataInEp[USBUART_activeCom];
 390              		.loc 1 359 0
 391              		.cfi_startproc
 392              		@ args = 0, pretend = 0, frame = 0
 393              		@ frame_needed = 0, uses_anonymous_args = 0
 394              	.LVL38:
 395 0000 70B5     		push	{r4, r5, r6, lr}
 396              		.cfi_def_cfa_offset 16
 397              		.cfi_offset 4, -16
 398              		.cfi_offset 5, -12
 399              		.cfi_offset 6, -8
 400              		.cfi_offset 14, -4
 401 0002 0600     		movs	r6, r0
 402 0004 0D00     		movs	r5, r1
 360:Generated_Source\PSoC4/USBUART_cdc.c **** 
 403              		.loc 1 360 0
 404 0006 0F4B     		ldr	r3, .L38
ARM GAS  C:\Users\essele\AppData\Local\Temp\cczrtAYv.s 			page 16


 405 0008 1B78     		ldrb	r3, [r3]
 406 000a 0F4A     		ldr	r2, .L38+4
 407 000c D45C     		ldrb	r4, [r2, r3]
 408 000e E4B2     		uxtb	r4, r4
 409              	.LVL39:
 363:Generated_Source\PSoC4/USBUART_cdc.c ****     {
 410              		.loc 1 363 0
 411 0010 6200     		lsls	r2, r4, #1
 412 0012 1219     		adds	r2, r2, r4
 413 0014 9300     		lsls	r3, r2, #2
 414 0016 0D4A     		ldr	r2, .L38+8
 415 0018 D318     		adds	r3, r2, r3
 416 001a 1B89     		ldrh	r3, [r3, #8]
 417 001c 9BB2     		uxth	r3, r3
 418 001e 8B42     		cmp	r3, r1
 419 0020 09D2     		bcs	.L37
 366:Generated_Source\PSoC4/USBUART_cdc.c **** 
 420              		.loc 1 366 0
 421 0022 6200     		lsls	r2, r4, #1
 422 0024 1219     		adds	r2, r2, r4
 423 0026 9300     		lsls	r3, r2, #2
 424 0028 084A     		ldr	r2, .L38+8
 425 002a D318     		adds	r3, r2, r3
 426 002c 1D89     		ldrh	r5, [r3, #8]
 427 002e ADB2     		uxth	r5, r5
 428              	.LVL40:
 369:Generated_Source\PSoC4/USBUART_cdc.c ****     }
 429              		.loc 1 369 0
 430 0030 0020     		movs	r0, #0
 431              	.LVL41:
 432 0032 FFF7FEFF 		bl	CyHalt
 433              	.LVL42:
 434              	.L37:
 372:Generated_Source\PSoC4/USBUART_cdc.c **** }
 435              		.loc 1 372 0
 436 0036 2A00     		movs	r2, r5
 437 0038 3100     		movs	r1, r6
 438 003a 2000     		movs	r0, r4
 439 003c FFF7FEFF 		bl	USBUART_LoadInEP
 440              	.LVL43:
 373:Generated_Source\PSoC4/USBUART_cdc.c **** 
 441              		.loc 1 373 0
 442              		@ sp needed
 443              	.LVL44:
 444              	.LVL45:
 445              	.LVL46:
 446 0040 70BD     		pop	{r4, r5, r6, pc}
 447              	.L39:
 448 0042 C046     		.align	2
 449              	.L38:
 450 0044 00000000 		.word	.LANCHOR1
 451 0048 00000000 		.word	USBUART_cdcDataInEp
 452 004c 00000000 		.word	USBUART_EP
 453              		.cfi_endproc
 454              	.LFE4:
 455              		.size	USBUART_PutData, .-USBUART_PutData
 456              		.section	.text.USBUART_PutString,"ax",%progbits
ARM GAS  C:\Users\essele\AppData\Local\Temp\cczrtAYv.s 			page 17


 457              		.align	2
 458              		.global	USBUART_PutString
 459              		.code	16
 460              		.thumb_func
 461              		.type	USBUART_PutString, %function
 462              	USBUART_PutString:
 463              	.LFB6:
 399:Generated_Source\PSoC4/USBUART_cdc.c **** 
 400:Generated_Source\PSoC4/USBUART_cdc.c **** 
 401:Generated_Source\PSoC4/USBUART_cdc.c **** /***************************************************************************
 402:Generated_Source\PSoC4/USBUART_cdc.c **** * Function Name: USBUART_PutString
 403:Generated_Source\PSoC4/USBUART_cdc.c **** ************************************************************************//**
 404:Generated_Source\PSoC4/USBUART_cdc.c **** *
 405:Generated_Source\PSoC4/USBUART_cdc.c **** *  This function sends a null terminated string to the PC. This function will
 406:Generated_Source\PSoC4/USBUART_cdc.c **** *  block if there is not enough memory to place the whole string. It will block
 407:Generated_Source\PSoC4/USBUART_cdc.c **** *  until the entire string has been written to the transmit buffer.
 408:Generated_Source\PSoC4/USBUART_cdc.c **** *  The USBUART_CDCIsReady() function should be called before
 409:Generated_Source\PSoC4/USBUART_cdc.c **** *  sending data with a new call to USBUART_PutString(), to be sure
 410:Generated_Source\PSoC4/USBUART_cdc.c **** *  that the previous data has finished sending. This function sends
 411:Generated_Source\PSoC4/USBUART_cdc.c **** *  zero-length packet automatically, if the length of the last packet, sent
 412:Generated_Source\PSoC4/USBUART_cdc.c **** *  by this API, is equal to Max Packet Size
 413:Generated_Source\PSoC4/USBUART_cdc.c **** *
 414:Generated_Source\PSoC4/USBUART_cdc.c **** *  \param string: pointer to the string to be sent to the PC.
 415:Generated_Source\PSoC4/USBUART_cdc.c **** *
 416:Generated_Source\PSoC4/USBUART_cdc.c **** * \globalvars
 417:Generated_Source\PSoC4/USBUART_cdc.c **** *
 418:Generated_Source\PSoC4/USBUART_cdc.c **** *   USBUART_cdcDataInEp: CDC IN endpoint number used for sending
 419:Generated_Source\PSoC4/USBUART_cdc.c **** *     data.
 420:Generated_Source\PSoC4/USBUART_cdc.c **** *
 421:Generated_Source\PSoC4/USBUART_cdc.c **** * \reentrant
 422:Generated_Source\PSoC4/USBUART_cdc.c **** *  No.
 423:Generated_Source\PSoC4/USBUART_cdc.c **** *
 424:Generated_Source\PSoC4/USBUART_cdc.c **** ***************************************************************************/
 425:Generated_Source\PSoC4/USBUART_cdc.c **** void USBUART_PutString(const char8 string[]) 
 426:Generated_Source\PSoC4/USBUART_cdc.c **** {
 464              		.loc 1 426 0
 465              		.cfi_startproc
 466              		@ args = 0, pretend = 0, frame = 0
 467              		@ frame_needed = 0, uses_anonymous_args = 0
 468              	.LVL47:
 469 0000 F8B5     		push	{r3, r4, r5, r6, r7, lr}
 470              		.cfi_def_cfa_offset 24
 471              		.cfi_offset 3, -24
 472              		.cfi_offset 4, -20
 473              		.cfi_offset 5, -16
 474              		.cfi_offset 6, -12
 475              		.cfi_offset 7, -8
 476              		.cfi_offset 14, -4
 477 0002 4F46     		mov	r7, r9
 478 0004 4646     		mov	r6, r8
 479 0006 C0B4     		push	{r6, r7}
 480              		.cfi_def_cfa_offset 32
 481              		.cfi_offset 8, -32
 482              		.cfi_offset 9, -28
 483 0008 8046     		mov	r8, r0
 484              	.LVL48:
 427:Generated_Source\PSoC4/USBUART_cdc.c ****     uint16 strLength;
ARM GAS  C:\Users\essele\AppData\Local\Temp\cczrtAYv.s 			page 18


 428:Generated_Source\PSoC4/USBUART_cdc.c ****     uint16 sendLength;
 429:Generated_Source\PSoC4/USBUART_cdc.c ****     uint16 bufIndex = 0u;
 430:Generated_Source\PSoC4/USBUART_cdc.c **** 
 431:Generated_Source\PSoC4/USBUART_cdc.c ****     uint8  epNumber = USBUART_cdcDataInEp[USBUART_activeCom];
 485              		.loc 1 431 0
 486 000a 244B     		ldr	r3, .L47
 487 000c 1B78     		ldrb	r3, [r3]
 488 000e 244A     		ldr	r2, .L47+4
 489 0010 D65C     		ldrb	r6, [r2, r3]
 490 0012 F6B2     		uxtb	r6, r6
 491              	.LVL49:
 432:Generated_Source\PSoC4/USBUART_cdc.c **** 
 433:Generated_Source\PSoC4/USBUART_cdc.c ****     /* Get length string length (it is terminated with zero). */
 434:Generated_Source\PSoC4/USBUART_cdc.c ****     strLength = USBUART_StrLen(string);
 492              		.loc 1 434 0
 493 0014 FFF7FEFF 		bl	USBUART_StrLen
 494              	.LVL50:
 495 0018 0500     		movs	r5, r0
 496              	.LVL51:
 429:Generated_Source\PSoC4/USBUART_cdc.c **** 
 497              		.loc 1 429 0
 498 001a 0027     		movs	r7, #0
 499              	.LVL52:
 500              	.L45:
 435:Generated_Source\PSoC4/USBUART_cdc.c **** 
 436:Generated_Source\PSoC4/USBUART_cdc.c ****     do
 437:Generated_Source\PSoC4/USBUART_cdc.c ****     {
 438:Generated_Source\PSoC4/USBUART_cdc.c ****         /* Limit length to maximum packet size of endpoint. */
 439:Generated_Source\PSoC4/USBUART_cdc.c ****         sendLength = (strLength > USBUART_EP[epNumber].bufferSize) ?
 501              		.loc 1 439 0
 502 001c 3400     		movs	r4, r6
 503 001e 7200     		lsls	r2, r6, #1
 504 0020 9219     		adds	r2, r2, r6
 505 0022 9300     		lsls	r3, r2, #2
 506 0024 1F4A     		ldr	r2, .L47+8
 507 0026 D318     		adds	r3, r2, r3
 508 0028 1B89     		ldrh	r3, [r3, #8]
 509 002a 9BB2     		uxth	r3, r3
 510 002c 9D42     		cmp	r5, r3
 511 002e 08D9     		bls	.L46
 512              		.loc 1 439 0 is_stmt 0 discriminator 1
 513 0030 7200     		lsls	r2, r6, #1
 514 0032 9219     		adds	r2, r2, r6
 515 0034 9300     		lsls	r3, r2, #2
 516 0036 1B4A     		ldr	r2, .L47+8
 517 0038 D318     		adds	r3, r2, r3
 518 003a 1B89     		ldrh	r3, [r3, #8]
 519 003c 9BB2     		uxth	r3, r3
 520 003e 9946     		mov	r9, r3
 521 0040 00E0     		b	.L41
 522              	.L46:
 523              		.loc 1 439 0
 524 0042 A946     		mov	r9, r5
 525              	.L41:
 526              	.LVL53:
 440:Generated_Source\PSoC4/USBUART_cdc.c ****                                   USBUART_EP[epNumber].bufferSize : strLength;
 441:Generated_Source\PSoC4/USBUART_cdc.c **** 
ARM GAS  C:\Users\essele\AppData\Local\Temp\cczrtAYv.s 			page 19


 442:Generated_Source\PSoC4/USBUART_cdc.c ****         /* Load IN endpoint and expose it to host. */
 443:Generated_Source\PSoC4/USBUART_cdc.c ****         USBUART_LoadInEP(epNumber, (const uint8 *)&string[bufIndex], sendLength);
 527              		.loc 1 443 0 is_stmt 1 discriminator 4
 528 0044 4346     		mov	r3, r8
 529 0046 D919     		adds	r1, r3, r7
 530 0048 4A46     		mov	r2, r9
 531 004a 3000     		movs	r0, r6
 532 004c FFF7FEFF 		bl	USBUART_LoadInEP
 533              	.LVL54:
 444:Generated_Source\PSoC4/USBUART_cdc.c ****         strLength -= sendLength;
 534              		.loc 1 444 0 discriminator 4
 535 0050 4B46     		mov	r3, r9
 536 0052 ED1A     		subs	r5, r5, r3
 537              	.LVL55:
 538 0054 ADB2     		uxth	r5, r5
 539              	.LVL56:
 445:Generated_Source\PSoC4/USBUART_cdc.c **** 
 446:Generated_Source\PSoC4/USBUART_cdc.c ****         /* If more data are present to send or full packet was sent */
 447:Generated_Source\PSoC4/USBUART_cdc.c ****         if ((strLength > 0u) || (sendLength == USBUART_EP[epNumber].bufferSize))
 540              		.loc 1 447 0 discriminator 4
 541 0056 002D     		cmp	r5, #0
 542 0058 08D1     		bne	.L42
 543              		.loc 1 447 0 is_stmt 0 discriminator 1
 544 005a 7200     		lsls	r2, r6, #1
 545 005c 9219     		adds	r2, r2, r6
 546 005e 9300     		lsls	r3, r2, #2
 547 0060 104A     		ldr	r2, .L47+8
 548 0062 D318     		adds	r3, r2, r3
 549 0064 1B89     		ldrh	r3, [r3, #8]
 550 0066 9BB2     		uxth	r3, r3
 551 0068 9945     		cmp	r9, r3
 552 006a 10D1     		bne	.L43
 553              	.L42:
 448:Generated_Source\PSoC4/USBUART_cdc.c ****         {
 449:Generated_Source\PSoC4/USBUART_cdc.c ****             bufIndex += sendLength;
 554              		.loc 1 449 0 is_stmt 1
 555 006c 4F44     		add	r7, r7, r9
 556              	.LVL57:
 557 006e BFB2     		uxth	r7, r7
 558              	.LVL58:
 559              	.L44:
 450:Generated_Source\PSoC4/USBUART_cdc.c **** 
 451:Generated_Source\PSoC4/USBUART_cdc.c ****             /* Wait until host read data from IN endpoint buffer. */
 452:Generated_Source\PSoC4/USBUART_cdc.c ****             while (USBUART_IN_BUFFER_FULL == USBUART_EP[epNumber].apiEpState)
 560              		.loc 1 452 0 discriminator 1
 561 0070 6100     		lsls	r1, r4, #1
 562 0072 0919     		adds	r1, r1, r4
 563 0074 8B00     		lsls	r3, r1, #2
 564 0076 0B4A     		ldr	r2, .L47+8
 565 0078 D318     		adds	r3, r2, r3
 566 007a 5B78     		ldrb	r3, [r3, #1]
 567 007c 002B     		cmp	r3, #0
 568 007e F7D0     		beq	.L44
 453:Generated_Source\PSoC4/USBUART_cdc.c ****             {
 454:Generated_Source\PSoC4/USBUART_cdc.c ****             }
 455:Generated_Source\PSoC4/USBUART_cdc.c **** 
 456:Generated_Source\PSoC4/USBUART_cdc.c ****             /* If last packet is exactly maximum packet size, it shall be followed
ARM GAS  C:\Users\essele\AppData\Local\Temp\cczrtAYv.s 			page 20


 457:Generated_Source\PSoC4/USBUART_cdc.c ****             * by a zero-length packet to assure the end of segment is properly
 458:Generated_Source\PSoC4/USBUART_cdc.c ****             * identified by the terminal.
 459:Generated_Source\PSoC4/USBUART_cdc.c ****             */
 460:Generated_Source\PSoC4/USBUART_cdc.c ****             if (0u == strLength)
 569              		.loc 1 460 0
 570 0080 002D     		cmp	r5, #0
 571 0082 04D1     		bne	.L43
 461:Generated_Source\PSoC4/USBUART_cdc.c ****             {
 462:Generated_Source\PSoC4/USBUART_cdc.c ****                 USBUART_LoadInEP(epNumber, NULL, 0u);
 572              		.loc 1 462 0
 573 0084 0022     		movs	r2, #0
 574 0086 0021     		movs	r1, #0
 575 0088 3000     		movs	r0, r6
 576 008a FFF7FEFF 		bl	USBUART_LoadInEP
 577              	.LVL59:
 578              	.L43:
 463:Generated_Source\PSoC4/USBUART_cdc.c ****             }
 464:Generated_Source\PSoC4/USBUART_cdc.c ****         }
 465:Generated_Source\PSoC4/USBUART_cdc.c ****     }
 466:Generated_Source\PSoC4/USBUART_cdc.c ****     while (strLength > 0u);
 579              		.loc 1 466 0
 580 008e 002D     		cmp	r5, #0
 581 0090 C4D1     		bne	.L45
 467:Generated_Source\PSoC4/USBUART_cdc.c **** }
 582              		.loc 1 467 0
 583              		@ sp needed
 584              	.LVL60:
 585              	.LVL61:
 586              	.LVL62:
 587              	.LVL63:
 588              	.LVL64:
 589 0092 0CBC     		pop	{r2, r3}
 590 0094 9046     		mov	r8, r2
 591 0096 9946     		mov	r9, r3
 592 0098 F8BD     		pop	{r3, r4, r5, r6, r7, pc}
 593              	.L48:
 594 009a C046     		.align	2
 595              	.L47:
 596 009c 00000000 		.word	.LANCHOR1
 597 00a0 00000000 		.word	USBUART_cdcDataInEp
 598 00a4 00000000 		.word	USBUART_EP
 599              		.cfi_endproc
 600              	.LFE6:
 601              		.size	USBUART_PutString, .-USBUART_PutString
 602              		.section	.text.USBUART_PutChar,"ax",%progbits
 603              		.align	2
 604              		.global	USBUART_PutChar
 605              		.code	16
 606              		.thumb_func
 607              		.type	USBUART_PutChar, %function
 608              	USBUART_PutChar:
 609              	.LFB7:
 468:Generated_Source\PSoC4/USBUART_cdc.c **** 
 469:Generated_Source\PSoC4/USBUART_cdc.c **** 
 470:Generated_Source\PSoC4/USBUART_cdc.c **** /***************************************************************************
 471:Generated_Source\PSoC4/USBUART_cdc.c **** * Function Name: USBUART_PutChar
 472:Generated_Source\PSoC4/USBUART_cdc.c **** ************************************************************************//**
ARM GAS  C:\Users\essele\AppData\Local\Temp\cczrtAYv.s 			page 21


 473:Generated_Source\PSoC4/USBUART_cdc.c **** *
 474:Generated_Source\PSoC4/USBUART_cdc.c **** *  This function writes a single character to the PC at a time. This is an
 475:Generated_Source\PSoC4/USBUART_cdc.c **** *  inefficient way to send large amounts of data.
 476:Generated_Source\PSoC4/USBUART_cdc.c **** *
 477:Generated_Source\PSoC4/USBUART_cdc.c **** *  \param txDataByte: Character to be sent to the PC.
 478:Generated_Source\PSoC4/USBUART_cdc.c **** *
 479:Generated_Source\PSoC4/USBUART_cdc.c **** *  \globalvars
 480:Generated_Source\PSoC4/USBUART_cdc.c **** *
 481:Generated_Source\PSoC4/USBUART_cdc.c **** *   USBUART_cdcDataInEp: CDC IN endpoint number used for sending
 482:Generated_Source\PSoC4/USBUART_cdc.c **** *     data.
 483:Generated_Source\PSoC4/USBUART_cdc.c **** *
 484:Generated_Source\PSoC4/USBUART_cdc.c **** *  \reentrant
 485:Generated_Source\PSoC4/USBUART_cdc.c **** *  No.
 486:Generated_Source\PSoC4/USBUART_cdc.c **** *
 487:Generated_Source\PSoC4/USBUART_cdc.c **** ***************************************************************************/
 488:Generated_Source\PSoC4/USBUART_cdc.c **** void USBUART_PutChar(char8 txDataByte) 
 489:Generated_Source\PSoC4/USBUART_cdc.c **** {
 610              		.loc 1 489 0
 611              		.cfi_startproc
 612              		@ args = 0, pretend = 0, frame = 8
 613              		@ frame_needed = 0, uses_anonymous_args = 0
 614              	.LVL65:
 615 0000 00B5     		push	{lr}
 616              		.cfi_def_cfa_offset 4
 617              		.cfi_offset 14, -4
 618 0002 83B0     		sub	sp, sp, #12
 619              		.cfi_def_cfa_offset 16
 490:Generated_Source\PSoC4/USBUART_cdc.c ****     uint8 dataByte;
 491:Generated_Source\PSoC4/USBUART_cdc.c ****     dataByte = (uint8) txDataByte;
 620              		.loc 1 491 0
 621 0004 6B46     		mov	r3, sp
 622 0006 D91D     		adds	r1, r3, #7
 623 0008 0870     		strb	r0, [r1]
 492:Generated_Source\PSoC4/USBUART_cdc.c **** 
 493:Generated_Source\PSoC4/USBUART_cdc.c ****     USBUART_LoadInEP(USBUART_cdcDataInEp[USBUART_activeCom], &dataByte, 1u);
 624              		.loc 1 493 0
 625 000a 054B     		ldr	r3, .L50
 626 000c 1B78     		ldrb	r3, [r3]
 627 000e 054A     		ldr	r2, .L50+4
 628 0010 D05C     		ldrb	r0, [r2, r3]
 629              	.LVL66:
 630 0012 C0B2     		uxtb	r0, r0
 631 0014 0122     		movs	r2, #1
 632 0016 FFF7FEFF 		bl	USBUART_LoadInEP
 633              	.LVL67:
 494:Generated_Source\PSoC4/USBUART_cdc.c **** }
 634              		.loc 1 494 0
 635 001a 03B0     		add	sp, sp, #12
 636              		@ sp needed
 637 001c 00BD     		pop	{pc}
 638              	.L51:
 639 001e C046     		.align	2
 640              	.L50:
 641 0020 00000000 		.word	.LANCHOR1
 642 0024 00000000 		.word	USBUART_cdcDataInEp
 643              		.cfi_endproc
 644              	.LFE7:
ARM GAS  C:\Users\essele\AppData\Local\Temp\cczrtAYv.s 			page 22


 645              		.size	USBUART_PutChar, .-USBUART_PutChar
 646              		.section	.text.USBUART_PutCRLF,"ax",%progbits
 647              		.align	2
 648              		.global	USBUART_PutCRLF
 649              		.code	16
 650              		.thumb_func
 651              		.type	USBUART_PutCRLF, %function
 652              	USBUART_PutCRLF:
 653              	.LFB8:
 495:Generated_Source\PSoC4/USBUART_cdc.c **** 
 496:Generated_Source\PSoC4/USBUART_cdc.c **** 
 497:Generated_Source\PSoC4/USBUART_cdc.c **** /*******************************************************************************
 498:Generated_Source\PSoC4/USBUART_cdc.c **** * Function Name: USBUART_PutCRLF
 499:Generated_Source\PSoC4/USBUART_cdc.c **** ****************************************************************************//**
 500:Generated_Source\PSoC4/USBUART_cdc.c **** *
 501:Generated_Source\PSoC4/USBUART_cdc.c **** *  This function sends a carriage return (0x0D) and line feed (0x0A) to the
 502:Generated_Source\PSoC4/USBUART_cdc.c **** *  PC. This APIis provided to mimic API provided by our other UART components
 503:Generated_Source\PSoC4/USBUART_cdc.c **** *
 504:Generated_Source\PSoC4/USBUART_cdc.c **** * \globalvars
 505:Generated_Source\PSoC4/USBUART_cdc.c **** *
 506:Generated_Source\PSoC4/USBUART_cdc.c **** *   USBUART_cdcDataInEp: CDC IN endpoint number used for sending
 507:Generated_Source\PSoC4/USBUART_cdc.c **** *     data.
 508:Generated_Source\PSoC4/USBUART_cdc.c **** *
 509:Generated_Source\PSoC4/USBUART_cdc.c **** * \reentrant
 510:Generated_Source\PSoC4/USBUART_cdc.c **** *  No.
 511:Generated_Source\PSoC4/USBUART_cdc.c **** *
 512:Generated_Source\PSoC4/USBUART_cdc.c **** *******************************************************************************/
 513:Generated_Source\PSoC4/USBUART_cdc.c **** void USBUART_PutCRLF(void) 
 514:Generated_Source\PSoC4/USBUART_cdc.c **** {
 654              		.loc 1 514 0
 655              		.cfi_startproc
 656              		@ args = 0, pretend = 0, frame = 8
 657              		@ frame_needed = 0, uses_anonymous_args = 0
 658 0000 00B5     		push	{lr}
 659              		.cfi_def_cfa_offset 4
 660              		.cfi_offset 14, -4
 661 0002 83B0     		sub	sp, sp, #12
 662              		.cfi_def_cfa_offset 16
 515:Generated_Source\PSoC4/USBUART_cdc.c ****     const uint8 CYCODE txData[] = {0x0Du, 0x0Au};
 663              		.loc 1 515 0
 664 0004 0222     		movs	r2, #2
 665 0006 0749     		ldr	r1, .L53
 666 0008 01A8     		add	r0, sp, #4
 667 000a FFF7FEFF 		bl	memcpy
 668              	.LVL68:
 516:Generated_Source\PSoC4/USBUART_cdc.c **** 
 517:Generated_Source\PSoC4/USBUART_cdc.c ****     USBUART_LoadInEP(USBUART_cdcDataInEp[USBUART_activeCom], (const uint8 *)txData, 2u);
 669              		.loc 1 517 0
 670 000e 064B     		ldr	r3, .L53+4
 671 0010 1B78     		ldrb	r3, [r3]
 672 0012 064A     		ldr	r2, .L53+8
 673 0014 D05C     		ldrb	r0, [r2, r3]
 674 0016 C0B2     		uxtb	r0, r0
 675 0018 0222     		movs	r2, #2
 676 001a 01A9     		add	r1, sp, #4
 677 001c FFF7FEFF 		bl	USBUART_LoadInEP
 678              	.LVL69:
ARM GAS  C:\Users\essele\AppData\Local\Temp\cczrtAYv.s 			page 23


 518:Generated_Source\PSoC4/USBUART_cdc.c **** }
 679              		.loc 1 518 0
 680 0020 03B0     		add	sp, sp, #12
 681              		@ sp needed
 682 0022 00BD     		pop	{pc}
 683              	.L54:
 684              		.align	2
 685              	.L53:
 686 0024 00000000 		.word	.LANCHOR2
 687 0028 00000000 		.word	.LANCHOR1
 688 002c 00000000 		.word	USBUART_cdcDataInEp
 689              		.cfi_endproc
 690              	.LFE8:
 691              		.size	USBUART_PutCRLF, .-USBUART_PutCRLF
 692              		.section	.text.USBUART_GetCount,"ax",%progbits
 693              		.align	2
 694              		.global	USBUART_GetCount
 695              		.code	16
 696              		.thumb_func
 697              		.type	USBUART_GetCount, %function
 698              	USBUART_GetCount:
 699              	.LFB9:
 519:Generated_Source\PSoC4/USBUART_cdc.c **** 
 520:Generated_Source\PSoC4/USBUART_cdc.c **** 
 521:Generated_Source\PSoC4/USBUART_cdc.c **** /*******************************************************************************
 522:Generated_Source\PSoC4/USBUART_cdc.c **** * Function Name: USBUART_GetCount
 523:Generated_Source\PSoC4/USBUART_cdc.c **** ****************************************************************************//**
 524:Generated_Source\PSoC4/USBUART_cdc.c **** *
 525:Generated_Source\PSoC4/USBUART_cdc.c **** *  This function returns the number of bytes that were received from the PC.
 526:Generated_Source\PSoC4/USBUART_cdc.c **** *  The returned length value should be passed to USBUART_GetData() as
 527:Generated_Source\PSoC4/USBUART_cdc.c **** *  a parameter to read all received data. If all of the received data is not
 528:Generated_Source\PSoC4/USBUART_cdc.c **** *  read at one time by the USBUART_GetData() API, the unread data will
 529:Generated_Source\PSoC4/USBUART_cdc.c **** *  be lost.
 530:Generated_Source\PSoC4/USBUART_cdc.c **** *
 531:Generated_Source\PSoC4/USBUART_cdc.c **** * \return
 532:Generated_Source\PSoC4/USBUART_cdc.c **** *  Returns the number of received bytes. The maximum amount of received data at
 533:Generated_Source\PSoC4/USBUART_cdc.c **** *  a time is limited by the maximum packet size for the endpoint.
 534:Generated_Source\PSoC4/USBUART_cdc.c **** *
 535:Generated_Source\PSoC4/USBUART_cdc.c **** * \globalvars
 536:Generated_Source\PSoC4/USBUART_cdc.c **** *   USBUART_cdcDataOutEp: CDC OUT endpoint number used.
 537:Generated_Source\PSoC4/USBUART_cdc.c **** *
 538:Generated_Source\PSoC4/USBUART_cdc.c **** *******************************************************************************/
 539:Generated_Source\PSoC4/USBUART_cdc.c **** uint16 USBUART_GetCount(void) 
 540:Generated_Source\PSoC4/USBUART_cdc.c **** {
 700              		.loc 1 540 0
 701              		.cfi_startproc
 702              		@ args = 0, pretend = 0, frame = 0
 703              		@ frame_needed = 0, uses_anonymous_args = 0
 704 0000 10B5     		push	{r4, lr}
 705              		.cfi_def_cfa_offset 8
 706              		.cfi_offset 4, -8
 707              		.cfi_offset 14, -4
 541:Generated_Source\PSoC4/USBUART_cdc.c ****     uint16 bytesCount;
 542:Generated_Source\PSoC4/USBUART_cdc.c **** 
 543:Generated_Source\PSoC4/USBUART_cdc.c ****     uint8  epNumber = USBUART_cdcDataOutEp[USBUART_activeCom];
 708              		.loc 1 543 0
 709 0002 094B     		ldr	r3, .L58
ARM GAS  C:\Users\essele\AppData\Local\Temp\cczrtAYv.s 			page 24


 710 0004 1B78     		ldrb	r3, [r3]
 711 0006 094A     		ldr	r2, .L58+4
 712 0008 D05C     		ldrb	r0, [r2, r3]
 713 000a C0B2     		uxtb	r0, r0
 714              	.LVL70:
 544:Generated_Source\PSoC4/USBUART_cdc.c **** 
 545:Generated_Source\PSoC4/USBUART_cdc.c ****     if (USBUART_OUT_BUFFER_FULL == USBUART_EP[epNumber].apiEpState)
 715              		.loc 1 545 0
 716 000c 4200     		lsls	r2, r0, #1
 717 000e 1218     		adds	r2, r2, r0
 718 0010 9300     		lsls	r3, r2, #2
 719 0012 074A     		ldr	r2, .L58+8
 720 0014 D318     		adds	r3, r2, r3
 721 0016 5B78     		ldrb	r3, [r3, #1]
 722 0018 012B     		cmp	r3, #1
 723 001a 02D1     		bne	.L57
 546:Generated_Source\PSoC4/USBUART_cdc.c ****     {
 547:Generated_Source\PSoC4/USBUART_cdc.c ****         bytesCount = USBUART_GetEPCount(epNumber);
 724              		.loc 1 547 0
 725 001c FFF7FEFF 		bl	USBUART_GetEPCount
 726              	.LVL71:
 727 0020 00E0     		b	.L56
 728              	.LVL72:
 729              	.L57:
 548:Generated_Source\PSoC4/USBUART_cdc.c ****     }
 549:Generated_Source\PSoC4/USBUART_cdc.c ****     else
 550:Generated_Source\PSoC4/USBUART_cdc.c ****     {
 551:Generated_Source\PSoC4/USBUART_cdc.c ****         bytesCount = 0u;
 730              		.loc 1 551 0
 731 0022 0020     		movs	r0, #0
 732              	.LVL73:
 733              	.L56:
 552:Generated_Source\PSoC4/USBUART_cdc.c ****     }
 553:Generated_Source\PSoC4/USBUART_cdc.c **** 
 554:Generated_Source\PSoC4/USBUART_cdc.c ****     return (bytesCount);
 555:Generated_Source\PSoC4/USBUART_cdc.c **** }
 734              		.loc 1 555 0
 735              		@ sp needed
 736 0024 10BD     		pop	{r4, pc}
 737              	.L59:
 738 0026 C046     		.align	2
 739              	.L58:
 740 0028 00000000 		.word	.LANCHOR1
 741 002c 00000000 		.word	USBUART_cdcDataOutEp
 742 0030 00000000 		.word	USBUART_EP
 743              		.cfi_endproc
 744              	.LFE9:
 745              		.size	USBUART_GetCount, .-USBUART_GetCount
 746              		.section	.text.USBUART_DataIsReady,"ax",%progbits
 747              		.align	2
 748              		.global	USBUART_DataIsReady
 749              		.code	16
 750              		.thumb_func
 751              		.type	USBUART_DataIsReady, %function
 752              	USBUART_DataIsReady:
 753              	.LFB10:
 556:Generated_Source\PSoC4/USBUART_cdc.c **** 
ARM GAS  C:\Users\essele\AppData\Local\Temp\cczrtAYv.s 			page 25


 557:Generated_Source\PSoC4/USBUART_cdc.c **** 
 558:Generated_Source\PSoC4/USBUART_cdc.c **** /*******************************************************************************
 559:Generated_Source\PSoC4/USBUART_cdc.c **** * Function Name: USBUART_DataIsReady
 560:Generated_Source\PSoC4/USBUART_cdc.c **** ****************************************************************************//**
 561:Generated_Source\PSoC4/USBUART_cdc.c **** *
 562:Generated_Source\PSoC4/USBUART_cdc.c **** *  This function returns a non-zero value if the component received data or
 563:Generated_Source\PSoC4/USBUART_cdc.c **** *  received zero-length packet. The USBUART_GetAll() or
 564:Generated_Source\PSoC4/USBUART_cdc.c **** *  USBUART_GetData() API should be called to read data from the buffer
 565:Generated_Source\PSoC4/USBUART_cdc.c **** *  and reinitialize the OUT endpoint even when a zero-length packet is
 566:Generated_Source\PSoC4/USBUART_cdc.c **** *  received. These APIs will return zero value when zero-length packet is
 567:Generated_Source\PSoC4/USBUART_cdc.c **** *  received.
 568:Generated_Source\PSoC4/USBUART_cdc.c **** *
 569:Generated_Source\PSoC4/USBUART_cdc.c **** * \return
 570:Generated_Source\PSoC4/USBUART_cdc.c **** *  If the OUT packet is received, this function returns a non-zero value.
 571:Generated_Source\PSoC4/USBUART_cdc.c **** *  Otherwise, it returns zero.
 572:Generated_Source\PSoC4/USBUART_cdc.c **** *
 573:Generated_Source\PSoC4/USBUART_cdc.c **** * \globalvars
 574:Generated_Source\PSoC4/USBUART_cdc.c **** *   USBUART_cdcDataOutEp: CDC OUT endpoint number used.
 575:Generated_Source\PSoC4/USBUART_cdc.c **** *
 576:Generated_Source\PSoC4/USBUART_cdc.c **** *******************************************************************************/
 577:Generated_Source\PSoC4/USBUART_cdc.c **** uint8 USBUART_DataIsReady(void) 
 578:Generated_Source\PSoC4/USBUART_cdc.c **** {
 754              		.loc 1 578 0
 755              		.cfi_startproc
 756              		@ args = 0, pretend = 0, frame = 0
 757              		@ frame_needed = 0, uses_anonymous_args = 0
 758 0000 10B5     		push	{r4, lr}
 759              		.cfi_def_cfa_offset 8
 760              		.cfi_offset 4, -8
 761              		.cfi_offset 14, -4
 579:Generated_Source\PSoC4/USBUART_cdc.c ****     return (USBUART_GetEPState(USBUART_cdcDataOutEp[USBUART_activeCom]));
 762              		.loc 1 579 0
 763 0002 044B     		ldr	r3, .L61
 764 0004 1B78     		ldrb	r3, [r3]
 765 0006 044A     		ldr	r2, .L61+4
 766 0008 D05C     		ldrb	r0, [r2, r3]
 767 000a C0B2     		uxtb	r0, r0
 768 000c FFF7FEFF 		bl	USBUART_GetEPState
 769              	.LVL74:
 580:Generated_Source\PSoC4/USBUART_cdc.c **** }
 770              		.loc 1 580 0
 771              		@ sp needed
 772 0010 10BD     		pop	{r4, pc}
 773              	.L62:
 774 0012 C046     		.align	2
 775              	.L61:
 776 0014 00000000 		.word	.LANCHOR1
 777 0018 00000000 		.word	USBUART_cdcDataOutEp
 778              		.cfi_endproc
 779              	.LFE10:
 780              		.size	USBUART_DataIsReady, .-USBUART_DataIsReady
 781              		.section	.text.USBUART_CDCIsReady,"ax",%progbits
 782              		.align	2
 783              		.global	USBUART_CDCIsReady
 784              		.code	16
 785              		.thumb_func
 786              		.type	USBUART_CDCIsReady, %function
ARM GAS  C:\Users\essele\AppData\Local\Temp\cczrtAYv.s 			page 26


 787              	USBUART_CDCIsReady:
 788              	.LFB11:
 581:Generated_Source\PSoC4/USBUART_cdc.c **** 
 582:Generated_Source\PSoC4/USBUART_cdc.c **** 
 583:Generated_Source\PSoC4/USBUART_cdc.c **** /*******************************************************************************
 584:Generated_Source\PSoC4/USBUART_cdc.c **** * Function Name: USBUART_CDCIsReady
 585:Generated_Source\PSoC4/USBUART_cdc.c **** ****************************************************************************//**
 586:Generated_Source\PSoC4/USBUART_cdc.c **** *
 587:Generated_Source\PSoC4/USBUART_cdc.c **** *  This function returns a non-zero value if the component is ready to send more
 588:Generated_Source\PSoC4/USBUART_cdc.c **** *  data to the PC; otherwise, it returns zero. The function should be called
 589:Generated_Source\PSoC4/USBUART_cdc.c **** *  before sending new data when using any of the following APIs:
 590:Generated_Source\PSoC4/USBUART_cdc.c **** *  USBUART_PutData(),USBUART_PutString(),
 591:Generated_Source\PSoC4/USBUART_cdc.c **** *  USBUART_PutChar or USBUART_PutCRLF(),
 592:Generated_Source\PSoC4/USBUART_cdc.c **** *  to be sure that the previous data has finished sending.
 593:Generated_Source\PSoC4/USBUART_cdc.c **** *
 594:Generated_Source\PSoC4/USBUART_cdc.c **** * \return
 595:Generated_Source\PSoC4/USBUART_cdc.c **** *  If the buffer can accept new data, this function returns a non-zero value.
 596:Generated_Source\PSoC4/USBUART_cdc.c **** *  Otherwise, it returns zero.
 597:Generated_Source\PSoC4/USBUART_cdc.c **** *
 598:Generated_Source\PSoC4/USBUART_cdc.c **** * \globalvars
 599:Generated_Source\PSoC4/USBUART_cdc.c **** *   USBUART_cdcDataInEp: CDC IN endpoint number used.
 600:Generated_Source\PSoC4/USBUART_cdc.c **** *
 601:Generated_Source\PSoC4/USBUART_cdc.c **** *******************************************************************************/
 602:Generated_Source\PSoC4/USBUART_cdc.c **** uint8 USBUART_CDCIsReady(void) 
 603:Generated_Source\PSoC4/USBUART_cdc.c **** {
 789              		.loc 1 603 0
 790              		.cfi_startproc
 791              		@ args = 0, pretend = 0, frame = 0
 792              		@ frame_needed = 0, uses_anonymous_args = 0
 793 0000 10B5     		push	{r4, lr}
 794              		.cfi_def_cfa_offset 8
 795              		.cfi_offset 4, -8
 796              		.cfi_offset 14, -4
 604:Generated_Source\PSoC4/USBUART_cdc.c ****     return (USBUART_GetEPState(USBUART_cdcDataInEp[USBUART_activeCom]));
 797              		.loc 1 604 0
 798 0002 044B     		ldr	r3, .L64
 799 0004 1B78     		ldrb	r3, [r3]
 800 0006 044A     		ldr	r2, .L64+4
 801 0008 D05C     		ldrb	r0, [r2, r3]
 802 000a C0B2     		uxtb	r0, r0
 803 000c FFF7FEFF 		bl	USBUART_GetEPState
 804              	.LVL75:
 605:Generated_Source\PSoC4/USBUART_cdc.c **** }
 805              		.loc 1 605 0
 806              		@ sp needed
 807 0010 10BD     		pop	{r4, pc}
 808              	.L65:
 809 0012 C046     		.align	2
 810              	.L64:
 811 0014 00000000 		.word	.LANCHOR1
 812 0018 00000000 		.word	USBUART_cdcDataInEp
 813              		.cfi_endproc
 814              	.LFE11:
 815              		.size	USBUART_CDCIsReady, .-USBUART_CDCIsReady
 816              		.section	.text.USBUART_GetData,"ax",%progbits
 817              		.align	2
 818              		.global	USBUART_GetData
ARM GAS  C:\Users\essele\AppData\Local\Temp\cczrtAYv.s 			page 27


 819              		.code	16
 820              		.thumb_func
 821              		.type	USBUART_GetData, %function
 822              	USBUART_GetData:
 823              	.LFB12:
 606:Generated_Source\PSoC4/USBUART_cdc.c **** 
 607:Generated_Source\PSoC4/USBUART_cdc.c **** 
 608:Generated_Source\PSoC4/USBUART_cdc.c **** /***************************************************************************
 609:Generated_Source\PSoC4/USBUART_cdc.c **** * Function Name: USBUART_GetData
 610:Generated_Source\PSoC4/USBUART_cdc.c **** ************************************************************************//**
 611:Generated_Source\PSoC4/USBUART_cdc.c **** *
 612:Generated_Source\PSoC4/USBUART_cdc.c **** *  This function gets a specified number of bytes from the input buffer and
 613:Generated_Source\PSoC4/USBUART_cdc.c **** *  places them in a data array specified by the passed pointer.
 614:Generated_Source\PSoC4/USBUART_cdc.c **** *  The USBUART_DataIsReady() API should be called first, to be sure
 615:Generated_Source\PSoC4/USBUART_cdc.c **** *  that data is received from the host. If all received data will not be read at
 616:Generated_Source\PSoC4/USBUART_cdc.c **** *  once, the unread data will be lost. The USBUART_GetData() API should
 617:Generated_Source\PSoC4/USBUART_cdc.c **** *  be called to get the number of bytes that were received.
 618:Generated_Source\PSoC4/USBUART_cdc.c **** *
 619:Generated_Source\PSoC4/USBUART_cdc.c **** *  \param pData: Pointer to the data array where data will be placed.
 620:Generated_Source\PSoC4/USBUART_cdc.c **** *  \param Length: Number of bytes to read into the data array from the RX buffer.
 621:Generated_Source\PSoC4/USBUART_cdc.c **** *          Maximum length is limited by the the number of received bytes
 622:Generated_Source\PSoC4/USBUART_cdc.c **** *          or 64 bytes.
 623:Generated_Source\PSoC4/USBUART_cdc.c **** *
 624:Generated_Source\PSoC4/USBUART_cdc.c **** * \return
 625:Generated_Source\PSoC4/USBUART_cdc.c **** *         Number of bytes which function moves from endpoint RAM into the
 626:Generated_Source\PSoC4/USBUART_cdc.c **** *         data array. The function moves fewer than the requested number
 627:Generated_Source\PSoC4/USBUART_cdc.c **** *         of bytes if the host sends fewer bytes than requested or sends
 628:Generated_Source\PSoC4/USBUART_cdc.c **** *         zero-length packet.
 629:Generated_Source\PSoC4/USBUART_cdc.c **** *
 630:Generated_Source\PSoC4/USBUART_cdc.c **** * \globalvars
 631:Generated_Source\PSoC4/USBUART_cdc.c **** *   USBUART_cdcDataOutEp: CDC OUT endpoint number used.
 632:Generated_Source\PSoC4/USBUART_cdc.c **** *
 633:Generated_Source\PSoC4/USBUART_cdc.c **** * \reentrant
 634:Generated_Source\PSoC4/USBUART_cdc.c **** *  No.
 635:Generated_Source\PSoC4/USBUART_cdc.c **** *
 636:Generated_Source\PSoC4/USBUART_cdc.c **** ***************************************************************************/
 637:Generated_Source\PSoC4/USBUART_cdc.c **** uint16 USBUART_GetData(uint8* pData, uint16 length) 
 638:Generated_Source\PSoC4/USBUART_cdc.c **** {
 824              		.loc 1 638 0
 825              		.cfi_startproc
 826              		@ args = 0, pretend = 0, frame = 0
 827              		@ frame_needed = 0, uses_anonymous_args = 0
 828              	.LVL76:
 829 0000 10B5     		push	{r4, lr}
 830              		.cfi_def_cfa_offset 8
 831              		.cfi_offset 4, -8
 832              		.cfi_offset 14, -4
 833 0002 0400     		movs	r4, r0
 834 0004 0A00     		movs	r2, r1
 639:Generated_Source\PSoC4/USBUART_cdc.c ****     uint8 epNumber = USBUART_cdcDataOutEp[USBUART_activeCom];
 835              		.loc 1 639 0
 836 0006 044B     		ldr	r3, .L67
 837 0008 1B78     		ldrb	r3, [r3]
 838 000a 0449     		ldr	r1, .L67+4
 839              	.LVL77:
 840 000c CB5C     		ldrb	r3, [r1, r3]
 841 000e D8B2     		uxtb	r0, r3
ARM GAS  C:\Users\essele\AppData\Local\Temp\cczrtAYv.s 			page 28


 842              	.LVL78:
 640:Generated_Source\PSoC4/USBUART_cdc.c **** 
 641:Generated_Source\PSoC4/USBUART_cdc.c ****     /* Read data from OUT endpoint buffer. */
 642:Generated_Source\PSoC4/USBUART_cdc.c ****     length = USBUART_ReadOutEP(epNumber, pData, length);
 843              		.loc 1 642 0
 844 0010 2100     		movs	r1, r4
 845 0012 FFF7FEFF 		bl	USBUART_ReadOutEP
 846              	.LVL79:
 643:Generated_Source\PSoC4/USBUART_cdc.c **** 
 644:Generated_Source\PSoC4/USBUART_cdc.c **** #if (USBUART_EP_MANAGEMENT_DMA_MANUAL)
 645:Generated_Source\PSoC4/USBUART_cdc.c ****     /* Wait until DMA complete transferring data from OUT endpoint buffer. */
 646:Generated_Source\PSoC4/USBUART_cdc.c ****     while (USBUART_OUT_BUFFER_FULL == USBUART_GetEPState(epNumber))
 647:Generated_Source\PSoC4/USBUART_cdc.c ****     {
 648:Generated_Source\PSoC4/USBUART_cdc.c ****     }
 649:Generated_Source\PSoC4/USBUART_cdc.c **** 
 650:Generated_Source\PSoC4/USBUART_cdc.c ****     /* Enable OUT endpoint to communicate with host. */
 651:Generated_Source\PSoC4/USBUART_cdc.c ****     USBUART_EnableOutEP(epNumber);
 652:Generated_Source\PSoC4/USBUART_cdc.c **** #endif /* (USBUART_EP_MANAGEMENT_DMA_MANUAL) */
 653:Generated_Source\PSoC4/USBUART_cdc.c **** 
 654:Generated_Source\PSoC4/USBUART_cdc.c ****     return (length);
 655:Generated_Source\PSoC4/USBUART_cdc.c **** }
 847              		.loc 1 655 0
 848              		@ sp needed
 849              	.LVL80:
 850 0016 10BD     		pop	{r4, pc}
 851              	.L68:
 852              		.align	2
 853              	.L67:
 854 0018 00000000 		.word	.LANCHOR1
 855 001c 00000000 		.word	USBUART_cdcDataOutEp
 856              		.cfi_endproc
 857              	.LFE12:
 858              		.size	USBUART_GetData, .-USBUART_GetData
 859              		.section	.text.USBUART_GetAll,"ax",%progbits
 860              		.align	2
 861              		.global	USBUART_GetAll
 862              		.code	16
 863              		.thumb_func
 864              		.type	USBUART_GetAll, %function
 865              	USBUART_GetAll:
 866              	.LFB13:
 656:Generated_Source\PSoC4/USBUART_cdc.c **** 
 657:Generated_Source\PSoC4/USBUART_cdc.c **** 
 658:Generated_Source\PSoC4/USBUART_cdc.c **** /*******************************************************************************
 659:Generated_Source\PSoC4/USBUART_cdc.c **** * Function Name: USBUART_GetAll
 660:Generated_Source\PSoC4/USBUART_cdc.c **** ****************************************************************************//**
 661:Generated_Source\PSoC4/USBUART_cdc.c **** *
 662:Generated_Source\PSoC4/USBUART_cdc.c **** *  This function gets all bytes of received data from the input buffer and
 663:Generated_Source\PSoC4/USBUART_cdc.c **** *  places them into a specified data array. The
 664:Generated_Source\PSoC4/USBUART_cdc.c **** *  USBUART_DataIsReady() API should be called first, to be sure
 665:Generated_Source\PSoC4/USBUART_cdc.c **** *  that data is received from the host.
 666:Generated_Source\PSoC4/USBUART_cdc.c **** *
 667:Generated_Source\PSoC4/USBUART_cdc.c **** *  \param pData: Pointer to the data array where data will be placed.
 668:Generated_Source\PSoC4/USBUART_cdc.c **** *
 669:Generated_Source\PSoC4/USBUART_cdc.c **** * \return
 670:Generated_Source\PSoC4/USBUART_cdc.c **** *  Number of bytes received. The maximum amount of the received at a time
 671:Generated_Source\PSoC4/USBUART_cdc.c **** *  data is 64 bytes.
ARM GAS  C:\Users\essele\AppData\Local\Temp\cczrtAYv.s 			page 29


 672:Generated_Source\PSoC4/USBUART_cdc.c **** *
 673:Generated_Source\PSoC4/USBUART_cdc.c **** * \globalvars
 674:Generated_Source\PSoC4/USBUART_cdc.c **** *   - \ref USBUART_cdcDataOutEp: CDC OUT endpoint number used.
 675:Generated_Source\PSoC4/USBUART_cdc.c **** *   - \ref USBUART_EP[].bufferSize: EP max packet size is used as a
 676:Generated_Source\PSoC4/USBUART_cdc.c **** *     length to read all data from the EP buffer.
 677:Generated_Source\PSoC4/USBUART_cdc.c **** *
 678:Generated_Source\PSoC4/USBUART_cdc.c **** * \reentrant
 679:Generated_Source\PSoC4/USBUART_cdc.c **** *  No.
 680:Generated_Source\PSoC4/USBUART_cdc.c **** *
 681:Generated_Source\PSoC4/USBUART_cdc.c **** *******************************************************************************/
 682:Generated_Source\PSoC4/USBUART_cdc.c **** uint16 USBUART_GetAll(uint8* pData) 
 683:Generated_Source\PSoC4/USBUART_cdc.c **** {
 867              		.loc 1 683 0
 868              		.cfi_startproc
 869              		@ args = 0, pretend = 0, frame = 0
 870              		@ frame_needed = 0, uses_anonymous_args = 0
 871              	.LVL81:
 872 0000 10B5     		push	{r4, lr}
 873              		.cfi_def_cfa_offset 8
 874              		.cfi_offset 4, -8
 875              		.cfi_offset 14, -4
 876 0002 0100     		movs	r1, r0
 684:Generated_Source\PSoC4/USBUART_cdc.c ****     uint8 epNumber = USBUART_cdcDataOutEp[USBUART_activeCom];
 877              		.loc 1 684 0
 878 0004 074B     		ldr	r3, .L70
 879 0006 1B78     		ldrb	r3, [r3]
 880 0008 074A     		ldr	r2, .L70+4
 881 000a D35C     		ldrb	r3, [r2, r3]
 882 000c D8B2     		uxtb	r0, r3
 883              	.LVL82:
 685:Generated_Source\PSoC4/USBUART_cdc.c ****     uint16 dataLength;
 686:Generated_Source\PSoC4/USBUART_cdc.c **** 
 687:Generated_Source\PSoC4/USBUART_cdc.c ****     /* Read data from OUT endpoint buffer. */
 688:Generated_Source\PSoC4/USBUART_cdc.c ****     dataLength = USBUART_ReadOutEP(epNumber, pData, USBUART_EP[epNumber].bufferSize);
 884              		.loc 1 688 0
 885 000e 4200     		lsls	r2, r0, #1
 886 0010 1218     		adds	r2, r2, r0
 887 0012 9300     		lsls	r3, r2, #2
 888 0014 054A     		ldr	r2, .L70+8
 889 0016 D318     		adds	r3, r2, r3
 890 0018 1A89     		ldrh	r2, [r3, #8]
 891 001a 92B2     		uxth	r2, r2
 892 001c FFF7FEFF 		bl	USBUART_ReadOutEP
 893              	.LVL83:
 689:Generated_Source\PSoC4/USBUART_cdc.c **** 
 690:Generated_Source\PSoC4/USBUART_cdc.c **** #if (USBUART_EP_MANAGEMENT_DMA_MANUAL)
 691:Generated_Source\PSoC4/USBUART_cdc.c ****     /* Wait until DMA complete transferring data from OUT endpoint buffer. */
 692:Generated_Source\PSoC4/USBUART_cdc.c ****     while (USBUART_OUT_BUFFER_FULL == USBUART_GetEPState(epNumber))
 693:Generated_Source\PSoC4/USBUART_cdc.c ****     {
 694:Generated_Source\PSoC4/USBUART_cdc.c ****     }
 695:Generated_Source\PSoC4/USBUART_cdc.c **** 
 696:Generated_Source\PSoC4/USBUART_cdc.c ****     /* Enable OUT endpoint to communicate with host. */
 697:Generated_Source\PSoC4/USBUART_cdc.c ****     USBUART_EnableOutEP(epNumber);
 698:Generated_Source\PSoC4/USBUART_cdc.c **** #endif /* (USBUART_EP_MANAGEMENT_DMA_MANUAL) */
 699:Generated_Source\PSoC4/USBUART_cdc.c **** 
 700:Generated_Source\PSoC4/USBUART_cdc.c ****     return (dataLength);
 701:Generated_Source\PSoC4/USBUART_cdc.c **** }
ARM GAS  C:\Users\essele\AppData\Local\Temp\cczrtAYv.s 			page 30


 894              		.loc 1 701 0
 895              		@ sp needed
 896 0020 10BD     		pop	{r4, pc}
 897              	.L71:
 898 0022 C046     		.align	2
 899              	.L70:
 900 0024 00000000 		.word	.LANCHOR1
 901 0028 00000000 		.word	USBUART_cdcDataOutEp
 902 002c 00000000 		.word	USBUART_EP
 903              		.cfi_endproc
 904              	.LFE13:
 905              		.size	USBUART_GetAll, .-USBUART_GetAll
 906              		.section	.text.USBUART_GetChar,"ax",%progbits
 907              		.align	2
 908              		.global	USBUART_GetChar
 909              		.code	16
 910              		.thumb_func
 911              		.type	USBUART_GetChar, %function
 912              	USBUART_GetChar:
 913              	.LFB14:
 702:Generated_Source\PSoC4/USBUART_cdc.c **** 
 703:Generated_Source\PSoC4/USBUART_cdc.c **** 
 704:Generated_Source\PSoC4/USBUART_cdc.c **** /***************************************************************************
 705:Generated_Source\PSoC4/USBUART_cdc.c **** * Function Name: USBUART_GetChar
 706:Generated_Source\PSoC4/USBUART_cdc.c **** ************************************************************************//**
 707:Generated_Source\PSoC4/USBUART_cdc.c **** *
 708:Generated_Source\PSoC4/USBUART_cdc.c **** *  This function reads one byte of received data from the buffer. If more than
 709:Generated_Source\PSoC4/USBUART_cdc.c **** *  one byte has been received from the host, the rest of the data will be lost.
 710:Generated_Source\PSoC4/USBUART_cdc.c **** *
 711:Generated_Source\PSoC4/USBUART_cdc.c **** * \return
 712:Generated_Source\PSoC4/USBUART_cdc.c **** *  Received one character.
 713:Generated_Source\PSoC4/USBUART_cdc.c **** *
 714:Generated_Source\PSoC4/USBUART_cdc.c **** * \globalvars
 715:Generated_Source\PSoC4/USBUART_cdc.c **** *   USBUART_cdcDataOutEp: CDC OUT endpoint number used.
 716:Generated_Source\PSoC4/USBUART_cdc.c **** *
 717:Generated_Source\PSoC4/USBUART_cdc.c **** * \reentrant
 718:Generated_Source\PSoC4/USBUART_cdc.c **** *  No.
 719:Generated_Source\PSoC4/USBUART_cdc.c **** *
 720:Generated_Source\PSoC4/USBUART_cdc.c **** ***************************************************************************/
 721:Generated_Source\PSoC4/USBUART_cdc.c **** uint8 USBUART_GetChar(void) 
 722:Generated_Source\PSoC4/USBUART_cdc.c **** {
 914              		.loc 1 722 0
 915              		.cfi_startproc
 916              		@ args = 0, pretend = 0, frame = 8
 917              		@ frame_needed = 0, uses_anonymous_args = 0
 918 0000 10B5     		push	{r4, lr}
 919              		.cfi_def_cfa_offset 8
 920              		.cfi_offset 4, -8
 921              		.cfi_offset 14, -4
 922 0002 82B0     		sub	sp, sp, #8
 923              		.cfi_def_cfa_offset 16
 723:Generated_Source\PSoC4/USBUART_cdc.c ****      uint8 rxData;
 724:Generated_Source\PSoC4/USBUART_cdc.c ****      uint8 epNumber = USBUART_cdcDataOutEp[USBUART_activeCom];
 924              		.loc 1 724 0
 925 0004 064B     		ldr	r3, .L73
 926 0006 1B78     		ldrb	r3, [r3]
 927 0008 064A     		ldr	r2, .L73+4
ARM GAS  C:\Users\essele\AppData\Local\Temp\cczrtAYv.s 			page 31


 928 000a D05C     		ldrb	r0, [r2, r3]
 929 000c C0B2     		uxtb	r0, r0
 930              	.LVL84:
 725:Generated_Source\PSoC4/USBUART_cdc.c **** 
 726:Generated_Source\PSoC4/USBUART_cdc.c ****     (void) USBUART_ReadOutEP(epNumber, &rxData, 1u);
 931              		.loc 1 726 0
 932 000e 6B46     		mov	r3, sp
 933 0010 DC1D     		adds	r4, r3, #7
 934 0012 0122     		movs	r2, #1
 935 0014 2100     		movs	r1, r4
 936 0016 FFF7FEFF 		bl	USBUART_ReadOutEP
 937              	.LVL85:
 727:Generated_Source\PSoC4/USBUART_cdc.c **** 
 728:Generated_Source\PSoC4/USBUART_cdc.c **** #if (USBUART_EP_MANAGEMENT_DMA_MANUAL)
 729:Generated_Source\PSoC4/USBUART_cdc.c ****     /* Wait until DMA complete transferring data from OUT endpoint buffer. */
 730:Generated_Source\PSoC4/USBUART_cdc.c ****     while (USBUART_OUT_BUFFER_FULL == USBUART_GetEPState(epNumber))
 731:Generated_Source\PSoC4/USBUART_cdc.c ****     {
 732:Generated_Source\PSoC4/USBUART_cdc.c ****     }
 733:Generated_Source\PSoC4/USBUART_cdc.c **** 
 734:Generated_Source\PSoC4/USBUART_cdc.c ****     /* Enable OUT endpoint to communicate with host. */
 735:Generated_Source\PSoC4/USBUART_cdc.c ****     USBUART_EnableOutEP(epNumber);
 736:Generated_Source\PSoC4/USBUART_cdc.c **** #endif /* (USBUART_EP_MANAGEMENT_DMA_MANUAL) */
 737:Generated_Source\PSoC4/USBUART_cdc.c **** 
 738:Generated_Source\PSoC4/USBUART_cdc.c ****     return (rxData);
 938              		.loc 1 738 0
 939 001a 2078     		ldrb	r0, [r4]
 739:Generated_Source\PSoC4/USBUART_cdc.c **** }
 940              		.loc 1 739 0
 941 001c 02B0     		add	sp, sp, #8
 942              		@ sp needed
 943 001e 10BD     		pop	{r4, pc}
 944              	.L74:
 945              		.align	2
 946              	.L73:
 947 0020 00000000 		.word	.LANCHOR1
 948 0024 00000000 		.word	USBUART_cdcDataOutEp
 949              		.cfi_endproc
 950              	.LFE14:
 951              		.size	USBUART_GetChar, .-USBUART_GetChar
 952              		.section	.text.USBUART_IsLineChanged,"ax",%progbits
 953              		.align	2
 954              		.global	USBUART_IsLineChanged
 955              		.code	16
 956              		.thumb_func
 957              		.type	USBUART_IsLineChanged, %function
 958              	USBUART_IsLineChanged:
 959              	.LFB15:
 740:Generated_Source\PSoC4/USBUART_cdc.c **** 
 741:Generated_Source\PSoC4/USBUART_cdc.c **** 
 742:Generated_Source\PSoC4/USBUART_cdc.c **** /*******************************************************************************
 743:Generated_Source\PSoC4/USBUART_cdc.c **** * Function Name: USBUART_IsLineChanged
 744:Generated_Source\PSoC4/USBUART_cdc.c **** ****************************************************************************//**
 745:Generated_Source\PSoC4/USBUART_cdc.c **** *
 746:Generated_Source\PSoC4/USBUART_cdc.c **** *  This function returns clear on read status of the line. It returns not zero
 747:Generated_Source\PSoC4/USBUART_cdc.c **** *  value when the host sends updated coding or control information to the
 748:Generated_Source\PSoC4/USBUART_cdc.c **** *  device. The USBUART_GetDTERate(), USBUART_GetCharFormat()
 749:Generated_Source\PSoC4/USBUART_cdc.c **** *  or USBUART_GetParityType() or USBUART_GetDataBits() API
ARM GAS  C:\Users\essele\AppData\Local\Temp\cczrtAYv.s 			page 32


 750:Generated_Source\PSoC4/USBUART_cdc.c **** *  should be called to read data coding information.
 751:Generated_Source\PSoC4/USBUART_cdc.c **** *  The USBUART_GetLineControl() API should be called to read line
 752:Generated_Source\PSoC4/USBUART_cdc.c **** *  control information.
 753:Generated_Source\PSoC4/USBUART_cdc.c **** *
 754:Generated_Source\PSoC4/USBUART_cdc.c **** * \return
 755:Generated_Source\PSoC4/USBUART_cdc.c **** *  If SET_LINE_CODING or CDC_SET_CONTROL_LINE_STATE requests are received, it
 756:Generated_Source\PSoC4/USBUART_cdc.c **** *  returns a non-zero value. Otherwise, it returns zero.
 757:Generated_Source\PSoC4/USBUART_cdc.c **** *  Return Value                 | Description
 758:Generated_Source\PSoC4/USBUART_cdc.c **** *  -----------------------------|--------------------------
 759:Generated_Source\PSoC4/USBUART_cdc.c **** *  USBUART_LINE_CODING_CHANGED  | Line coding changed
 760:Generated_Source\PSoC4/USBUART_cdc.c **** *  USBUART_LINE_CONTROL_CHANGED |   Line control changed
 761:Generated_Source\PSoC4/USBUART_cdc.c **** *
 762:Generated_Source\PSoC4/USBUART_cdc.c **** * \globalvars
 763:Generated_Source\PSoC4/USBUART_cdc.c **** *  - \ref USBUART_transferState: it is checked to be sure then OUT
 764:Generated_Source\PSoC4/USBUART_cdc.c **** *    data phase has been complete, and data written to the lineCoding or
 765:Generated_Source\PSoC4/USBUART_cdc.c **** *    Control Bitmap buffer.
 766:Generated_Source\PSoC4/USBUART_cdc.c **** *  - \ref USBUART_linesChanged: used as a flag to be aware that
 767:Generated_Source\PSoC4/USBUART_cdc.c **** *    Host has been sent request for changing Line Coding or Control Bitmap.
 768:Generated_Source\PSoC4/USBUART_cdc.c **** *
 769:Generated_Source\PSoC4/USBUART_cdc.c **** *******************************************************************************/
 770:Generated_Source\PSoC4/USBUART_cdc.c **** uint8 USBUART_IsLineChanged(void) 
 771:Generated_Source\PSoC4/USBUART_cdc.c **** {
 960              		.loc 1 771 0
 961              		.cfi_startproc
 962              		@ args = 0, pretend = 0, frame = 0
 963              		@ frame_needed = 0, uses_anonymous_args = 0
 964              		@ link register save eliminated.
 965              	.LVL86:
 772:Generated_Source\PSoC4/USBUART_cdc.c ****     uint8 state = 0u;
 773:Generated_Source\PSoC4/USBUART_cdc.c **** 
 774:Generated_Source\PSoC4/USBUART_cdc.c ****     /* transferState is checked to be sure then OUT data phase has been complete */
 775:Generated_Source\PSoC4/USBUART_cdc.c ****     if (USBUART_transferState == USBUART_TRANS_STATE_IDLE)
 966              		.loc 1 775 0
 967 0000 094B     		ldr	r3, .L79
 968 0002 1B78     		ldrb	r3, [r3]
 969 0004 002B     		cmp	r3, #0
 970 0006 0BD1     		bne	.L77
 776:Generated_Source\PSoC4/USBUART_cdc.c ****     {
 777:Generated_Source\PSoC4/USBUART_cdc.c ****         if (USBUART_linesChanged[USBUART_activeCom] != 0u)
 971              		.loc 1 777 0
 972 0008 084B     		ldr	r3, .L79+4
 973 000a 1B78     		ldrb	r3, [r3]
 974 000c 084A     		ldr	r2, .L79+8
 975 000e D25C     		ldrb	r2, [r2, r3]
 976 0010 002A     		cmp	r2, #0
 977 0012 07D0     		beq	.L78
 778:Generated_Source\PSoC4/USBUART_cdc.c ****         {
 779:Generated_Source\PSoC4/USBUART_cdc.c ****             state = USBUART_linesChanged[USBUART_activeCom];
 978              		.loc 1 779 0
 979 0014 064A     		ldr	r2, .L79+8
 980 0016 D05C     		ldrb	r0, [r2, r3]
 981 0018 C0B2     		uxtb	r0, r0
 982              	.LVL87:
 780:Generated_Source\PSoC4/USBUART_cdc.c ****             USBUART_linesChanged[USBUART_activeCom] = 0u;
 983              		.loc 1 780 0
 984 001a 0021     		movs	r1, #0
 985 001c D154     		strb	r1, [r2, r3]
ARM GAS  C:\Users\essele\AppData\Local\Temp\cczrtAYv.s 			page 33


 986 001e 02E0     		b	.L76
 987              	.LVL88:
 988              	.L77:
 772:Generated_Source\PSoC4/USBUART_cdc.c **** 
 989              		.loc 1 772 0
 990 0020 0020     		movs	r0, #0
 991 0022 00E0     		b	.L76
 992              	.L78:
 993 0024 0020     		movs	r0, #0
 994              	.LVL89:
 995              	.L76:
 781:Generated_Source\PSoC4/USBUART_cdc.c ****         }
 782:Generated_Source\PSoC4/USBUART_cdc.c ****     }
 783:Generated_Source\PSoC4/USBUART_cdc.c **** 
 784:Generated_Source\PSoC4/USBUART_cdc.c ****     return (state);
 785:Generated_Source\PSoC4/USBUART_cdc.c **** }
 996              		.loc 1 785 0
 997              		@ sp needed
 998 0026 7047     		bx	lr
 999              	.L80:
 1000              		.align	2
 1001              	.L79:
 1002 0028 00000000 		.word	USBUART_transferState
 1003 002c 00000000 		.word	.LANCHOR1
 1004 0030 00000000 		.word	USBUART_linesChanged
 1005              		.cfi_endproc
 1006              	.LFE15:
 1007              		.size	USBUART_IsLineChanged, .-USBUART_IsLineChanged
 1008              		.section	.text.USBUART_GetDTERate,"ax",%progbits
 1009              		.align	2
 1010              		.global	USBUART_GetDTERate
 1011              		.code	16
 1012              		.thumb_func
 1013              		.type	USBUART_GetDTERate, %function
 1014              	USBUART_GetDTERate:
 1015              	.LFB16:
 786:Generated_Source\PSoC4/USBUART_cdc.c **** 
 787:Generated_Source\PSoC4/USBUART_cdc.c **** 
 788:Generated_Source\PSoC4/USBUART_cdc.c **** /***************************************************************************
 789:Generated_Source\PSoC4/USBUART_cdc.c **** * Function Name: USBUART_GetDTERate
 790:Generated_Source\PSoC4/USBUART_cdc.c **** ************************************************************************//**
 791:Generated_Source\PSoC4/USBUART_cdc.c **** *
 792:Generated_Source\PSoC4/USBUART_cdc.c **** *  This function returns the data terminal rate set for this port in bits
 793:Generated_Source\PSoC4/USBUART_cdc.c **** *  per second.
 794:Generated_Source\PSoC4/USBUART_cdc.c **** *
 795:Generated_Source\PSoC4/USBUART_cdc.c **** * \return
 796:Generated_Source\PSoC4/USBUART_cdc.c **** *  Returns a uint32 value of the data rate in bits per second.
 797:Generated_Source\PSoC4/USBUART_cdc.c **** *
 798:Generated_Source\PSoC4/USBUART_cdc.c **** * \globalvars
 799:Generated_Source\PSoC4/USBUART_cdc.c **** *  USBUART_linesCoding: First four bytes converted to uint32
 800:Generated_Source\PSoC4/USBUART_cdc.c **** *    depend on compiler, and returned as a data rate.
 801:Generated_Source\PSoC4/USBUART_cdc.c **** *
 802:Generated_Source\PSoC4/USBUART_cdc.c **** *******************************************************************************/
 803:Generated_Source\PSoC4/USBUART_cdc.c **** uint32 USBUART_GetDTERate(void) 
 804:Generated_Source\PSoC4/USBUART_cdc.c **** {
 1016              		.loc 1 804 0
 1017              		.cfi_startproc
ARM GAS  C:\Users\essele\AppData\Local\Temp\cczrtAYv.s 			page 34


 1018              		@ args = 0, pretend = 0, frame = 0
 1019              		@ frame_needed = 0, uses_anonymous_args = 0
 1020 0000 10B5     		push	{r4, lr}
 1021              		.cfi_def_cfa_offset 8
 1022              		.cfi_offset 4, -8
 1023              		.cfi_offset 14, -4
 805:Generated_Source\PSoC4/USBUART_cdc.c ****     uint32 rate;
 806:Generated_Source\PSoC4/USBUART_cdc.c **** 
 807:Generated_Source\PSoC4/USBUART_cdc.c ****     rate = USBUART_linesCoding[USBUART_activeCom][USBUART_LINE_CODING_RATE + 3u];
 1024              		.loc 1 807 0
 1025 0002 084B     		ldr	r3, .L82
 1026 0004 1A78     		ldrb	r2, [r3]
 1027 0006 0849     		ldr	r1, .L82+4
 1028 0008 D300     		lsls	r3, r2, #3
 1029 000a 9B1A     		subs	r3, r3, r2
 1030 000c CA18     		adds	r2, r1, r3
 1031 000e D078     		ldrb	r0, [r2, #3]
 1032              	.LVL90:
 808:Generated_Source\PSoC4/USBUART_cdc.c ****     rate = (rate << 8u) | USBUART_linesCoding[USBUART_activeCom][USBUART_LINE_CODING_RATE + 2u];
 1033              		.loc 1 808 0
 1034 0010 0002     		lsls	r0, r0, #8
 1035              	.LVL91:
 1036 0012 9478     		ldrb	r4, [r2, #2]
 1037 0014 2043     		orrs	r0, r4
 1038              	.LVL92:
 809:Generated_Source\PSoC4/USBUART_cdc.c ****     rate = (rate << 8u) | USBUART_linesCoding[USBUART_activeCom][USBUART_LINE_CODING_RATE + 1u];
 1039              		.loc 1 809 0
 1040 0016 0002     		lsls	r0, r0, #8
 1041              	.LVL93:
 1042 0018 5278     		ldrb	r2, [r2, #1]
 1043 001a 1043     		orrs	r0, r2
 1044              	.LVL94:
 810:Generated_Source\PSoC4/USBUART_cdc.c ****     rate = (rate << 8u) | USBUART_linesCoding[USBUART_activeCom][USBUART_LINE_CODING_RATE];
 1045              		.loc 1 810 0
 1046 001c 0002     		lsls	r0, r0, #8
 1047              	.LVL95:
 1048 001e 5B5C     		ldrb	r3, [r3, r1]
 1049 0020 1843     		orrs	r0, r3
 1050              	.LVL96:
 811:Generated_Source\PSoC4/USBUART_cdc.c **** 
 812:Generated_Source\PSoC4/USBUART_cdc.c ****     return (rate);
 813:Generated_Source\PSoC4/USBUART_cdc.c **** }
 1051              		.loc 1 813 0
 1052              		@ sp needed
 1053 0022 10BD     		pop	{r4, pc}
 1054              	.L83:
 1055              		.align	2
 1056              	.L82:
 1057 0024 00000000 		.word	.LANCHOR1
 1058 0028 00000000 		.word	.LANCHOR0
 1059              		.cfi_endproc
 1060              	.LFE16:
 1061              		.size	USBUART_GetDTERate, .-USBUART_GetDTERate
 1062              		.section	.text.USBUART_GetCharFormat,"ax",%progbits
 1063              		.align	2
 1064              		.global	USBUART_GetCharFormat
 1065              		.code	16
ARM GAS  C:\Users\essele\AppData\Local\Temp\cczrtAYv.s 			page 35


 1066              		.thumb_func
 1067              		.type	USBUART_GetCharFormat, %function
 1068              	USBUART_GetCharFormat:
 1069              	.LFB17:
 814:Generated_Source\PSoC4/USBUART_cdc.c **** 
 815:Generated_Source\PSoC4/USBUART_cdc.c **** 
 816:Generated_Source\PSoC4/USBUART_cdc.c **** /*******************************************************************************
 817:Generated_Source\PSoC4/USBUART_cdc.c **** * Function Name: USBUART_GetCharFormat
 818:Generated_Source\PSoC4/USBUART_cdc.c **** ****************************************************************************//**
 819:Generated_Source\PSoC4/USBUART_cdc.c **** *
 820:Generated_Source\PSoC4/USBUART_cdc.c **** *  Returns the number of stop bits.
 821:Generated_Source\PSoC4/USBUART_cdc.c **** *
 822:Generated_Source\PSoC4/USBUART_cdc.c **** * \return
 823:Generated_Source\PSoC4/USBUART_cdc.c **** *  Returns the number of stop bits.
 824:Generated_Source\PSoC4/USBUART_cdc.c **** *  Return               |Value Description
 825:Generated_Source\PSoC4/USBUART_cdc.c **** *  ---------------------|-------------------
 826:Generated_Source\PSoC4/USBUART_cdc.c **** *  USBUART_1_STOPBIT    | 1 stop bit
 827:Generated_Source\PSoC4/USBUART_cdc.c **** *  USBUART_1_5_STOPBITS | 1,5 stop bits
 828:Generated_Source\PSoC4/USBUART_cdc.c **** *  USBUART_2_STOPBITS   | 2 stop bits
 829:Generated_Source\PSoC4/USBUART_cdc.c **** *
 830:Generated_Source\PSoC4/USBUART_cdc.c **** *
 831:Generated_Source\PSoC4/USBUART_cdc.c **** * \globalvars
 832:Generated_Source\PSoC4/USBUART_cdc.c **** *  USBUART_linesCoding: used to get a parameter.
 833:Generated_Source\PSoC4/USBUART_cdc.c **** *
 834:Generated_Source\PSoC4/USBUART_cdc.c **** *******************************************************************************/
 835:Generated_Source\PSoC4/USBUART_cdc.c **** uint8 USBUART_GetCharFormat(void) 
 836:Generated_Source\PSoC4/USBUART_cdc.c **** {
 1070              		.loc 1 836 0
 1071              		.cfi_startproc
 1072              		@ args = 0, pretend = 0, frame = 0
 1073              		@ frame_needed = 0, uses_anonymous_args = 0
 1074              		@ link register save eliminated.
 837:Generated_Source\PSoC4/USBUART_cdc.c ****     return (USBUART_linesCoding[USBUART_activeCom][USBUART_LINE_CODING_STOP_BITS]);
 1075              		.loc 1 837 0
 1076 0000 044B     		ldr	r3, .L85
 1077 0002 1A78     		ldrb	r2, [r3]
 1078 0004 D300     		lsls	r3, r2, #3
 1079 0006 9B1A     		subs	r3, r3, r2
 1080 0008 034A     		ldr	r2, .L85+4
 1081 000a D318     		adds	r3, r2, r3
 1082 000c 1879     		ldrb	r0, [r3, #4]
 1083 000e C0B2     		uxtb	r0, r0
 838:Generated_Source\PSoC4/USBUART_cdc.c **** }
 1084              		.loc 1 838 0
 1085              		@ sp needed
 1086 0010 7047     		bx	lr
 1087              	.L86:
 1088 0012 C046     		.align	2
 1089              	.L85:
 1090 0014 00000000 		.word	.LANCHOR1
 1091 0018 00000000 		.word	.LANCHOR0
 1092              		.cfi_endproc
 1093              	.LFE17:
 1094              		.size	USBUART_GetCharFormat, .-USBUART_GetCharFormat
 1095              		.section	.text.USBUART_GetParityType,"ax",%progbits
 1096              		.align	2
 1097              		.global	USBUART_GetParityType
ARM GAS  C:\Users\essele\AppData\Local\Temp\cczrtAYv.s 			page 36


 1098              		.code	16
 1099              		.thumb_func
 1100              		.type	USBUART_GetParityType, %function
 1101              	USBUART_GetParityType:
 1102              	.LFB18:
 839:Generated_Source\PSoC4/USBUART_cdc.c **** 
 840:Generated_Source\PSoC4/USBUART_cdc.c **** 
 841:Generated_Source\PSoC4/USBUART_cdc.c **** /*******************************************************************************
 842:Generated_Source\PSoC4/USBUART_cdc.c **** * Function Name: USBUART_GetParityType
 843:Generated_Source\PSoC4/USBUART_cdc.c **** ****************************************************************************//**
 844:Generated_Source\PSoC4/USBUART_cdc.c **** *
 845:Generated_Source\PSoC4/USBUART_cdc.c **** *  This function returns the parity type for the CDC port.
 846:Generated_Source\PSoC4/USBUART_cdc.c **** *
 847:Generated_Source\PSoC4/USBUART_cdc.c **** * \return
 848:Generated_Source\PSoC4/USBUART_cdc.c **** *  Returns the parity type.
 849:Generated_Source\PSoC4/USBUART_cdc.c **** *   Return               | Value Description
 850:Generated_Source\PSoC4/USBUART_cdc.c **** *  ----------------------|-------------------
 851:Generated_Source\PSoC4/USBUART_cdc.c **** *  USBUART_PARITY_NONE   | 1 stop bit
 852:Generated_Source\PSoC4/USBUART_cdc.c **** *  USBUART_PARITY_ODD    | 1,5 stop bits
 853:Generated_Source\PSoC4/USBUART_cdc.c **** *  USBUART_PARITY_EVEN   | 2 stop bits
 854:Generated_Source\PSoC4/USBUART_cdc.c **** *  USBUART_PARITY_MARK   | Mark
 855:Generated_Source\PSoC4/USBUART_cdc.c **** *  USBUART_PARITY_SPACE  | Space
 856:Generated_Source\PSoC4/USBUART_cdc.c **** *
 857:Generated_Source\PSoC4/USBUART_cdc.c **** * \globalvars
 858:Generated_Source\PSoC4/USBUART_cdc.c **** *  USBUART_linesCoding: used to get a parameter.
 859:Generated_Source\PSoC4/USBUART_cdc.c **** *
 860:Generated_Source\PSoC4/USBUART_cdc.c **** *******************************************************************************/
 861:Generated_Source\PSoC4/USBUART_cdc.c **** uint8 USBUART_GetParityType(void) 
 862:Generated_Source\PSoC4/USBUART_cdc.c **** {
 1103              		.loc 1 862 0
 1104              		.cfi_startproc
 1105              		@ args = 0, pretend = 0, frame = 0
 1106              		@ frame_needed = 0, uses_anonymous_args = 0
 1107              		@ link register save eliminated.
 863:Generated_Source\PSoC4/USBUART_cdc.c ****     return (USBUART_linesCoding[USBUART_activeCom][USBUART_LINE_CODING_PARITY]);
 1108              		.loc 1 863 0
 1109 0000 044B     		ldr	r3, .L88
 1110 0002 1A78     		ldrb	r2, [r3]
 1111 0004 D300     		lsls	r3, r2, #3
 1112 0006 9B1A     		subs	r3, r3, r2
 1113 0008 034A     		ldr	r2, .L88+4
 1114 000a D318     		adds	r3, r2, r3
 1115 000c 5879     		ldrb	r0, [r3, #5]
 1116 000e C0B2     		uxtb	r0, r0
 864:Generated_Source\PSoC4/USBUART_cdc.c **** }
 1117              		.loc 1 864 0
 1118              		@ sp needed
 1119 0010 7047     		bx	lr
 1120              	.L89:
 1121 0012 C046     		.align	2
 1122              	.L88:
 1123 0014 00000000 		.word	.LANCHOR1
 1124 0018 00000000 		.word	.LANCHOR0
 1125              		.cfi_endproc
 1126              	.LFE18:
 1127              		.size	USBUART_GetParityType, .-USBUART_GetParityType
 1128              		.section	.text.USBUART_GetDataBits,"ax",%progbits
ARM GAS  C:\Users\essele\AppData\Local\Temp\cczrtAYv.s 			page 37


 1129              		.align	2
 1130              		.global	USBUART_GetDataBits
 1131              		.code	16
 1132              		.thumb_func
 1133              		.type	USBUART_GetDataBits, %function
 1134              	USBUART_GetDataBits:
 1135              	.LFB19:
 865:Generated_Source\PSoC4/USBUART_cdc.c **** 
 866:Generated_Source\PSoC4/USBUART_cdc.c **** 
 867:Generated_Source\PSoC4/USBUART_cdc.c **** /***************************************************************************
 868:Generated_Source\PSoC4/USBUART_cdc.c **** * Function Name: USBUART_GetDataBits
 869:Generated_Source\PSoC4/USBUART_cdc.c **** ************************************************************************//**
 870:Generated_Source\PSoC4/USBUART_cdc.c **** *
 871:Generated_Source\PSoC4/USBUART_cdc.c **** *  This function returns the number of data bits for the CDC port.
 872:Generated_Source\PSoC4/USBUART_cdc.c **** *
 873:Generated_Source\PSoC4/USBUART_cdc.c **** * \return
 874:Generated_Source\PSoC4/USBUART_cdc.c **** *  Returns the number of data bits.
 875:Generated_Source\PSoC4/USBUART_cdc.c **** *  The number of data bits can be 5, 6, 7, 8 or 16.
 876:Generated_Source\PSoC4/USBUART_cdc.c **** *
 877:Generated_Source\PSoC4/USBUART_cdc.c **** * \globalvars
 878:Generated_Source\PSoC4/USBUART_cdc.c **** *  USBUART_linesCoding: used to get a parameter.
 879:Generated_Source\PSoC4/USBUART_cdc.c **** *
 880:Generated_Source\PSoC4/USBUART_cdc.c **** *******************************************************************************/
 881:Generated_Source\PSoC4/USBUART_cdc.c **** uint8 USBUART_GetDataBits(void) 
 882:Generated_Source\PSoC4/USBUART_cdc.c **** {
 1136              		.loc 1 882 0
 1137              		.cfi_startproc
 1138              		@ args = 0, pretend = 0, frame = 0
 1139              		@ frame_needed = 0, uses_anonymous_args = 0
 1140              		@ link register save eliminated.
 883:Generated_Source\PSoC4/USBUART_cdc.c ****     return (USBUART_linesCoding[USBUART_activeCom][USBUART_LINE_CODING_DATA_BITS]);
 1141              		.loc 1 883 0
 1142 0000 044B     		ldr	r3, .L91
 1143 0002 1A78     		ldrb	r2, [r3]
 1144 0004 D300     		lsls	r3, r2, #3
 1145 0006 9B1A     		subs	r3, r3, r2
 1146 0008 034A     		ldr	r2, .L91+4
 1147 000a D318     		adds	r3, r2, r3
 1148 000c 9879     		ldrb	r0, [r3, #6]
 1149 000e C0B2     		uxtb	r0, r0
 884:Generated_Source\PSoC4/USBUART_cdc.c **** }
 1150              		.loc 1 884 0
 1151              		@ sp needed
 1152 0010 7047     		bx	lr
 1153              	.L92:
 1154 0012 C046     		.align	2
 1155              	.L91:
 1156 0014 00000000 		.word	.LANCHOR1
 1157 0018 00000000 		.word	.LANCHOR0
 1158              		.cfi_endproc
 1159              	.LFE19:
 1160              		.size	USBUART_GetDataBits, .-USBUART_GetDataBits
 1161              		.section	.text.USBUART_GetLineControl,"ax",%progbits
 1162              		.align	2
 1163              		.global	USBUART_GetLineControl
 1164              		.code	16
 1165              		.thumb_func
ARM GAS  C:\Users\essele\AppData\Local\Temp\cczrtAYv.s 			page 38


 1166              		.type	USBUART_GetLineControl, %function
 1167              	USBUART_GetLineControl:
 1168              	.LFB20:
 885:Generated_Source\PSoC4/USBUART_cdc.c **** 
 886:Generated_Source\PSoC4/USBUART_cdc.c **** 
 887:Generated_Source\PSoC4/USBUART_cdc.c **** /***************************************************************************
 888:Generated_Source\PSoC4/USBUART_cdc.c **** * Function Name: USBUART_GetLineControl
 889:Generated_Source\PSoC4/USBUART_cdc.c **** ************************************************************************//**
 890:Generated_Source\PSoC4/USBUART_cdc.c **** *
 891:Generated_Source\PSoC4/USBUART_cdc.c **** *  This function returns Line control bitmap that the host sends to the
 892:Generated_Source\PSoC4/USBUART_cdc.c **** *  device.
 893:Generated_Source\PSoC4/USBUART_cdc.c **** *
 894:Generated_Source\PSoC4/USBUART_cdc.c **** * \return
 895:Generated_Source\PSoC4/USBUART_cdc.c **** *  Returns Line control bitmap.
 896:Generated_Source\PSoC4/USBUART_cdc.c **** *  Return                   |Value Notes
 897:Generated_Source\PSoC4/USBUART_cdc.c **** *  -------------------------|-----------------------------------------------
 898:Generated_Source\PSoC4/USBUART_cdc.c **** *  USBUART_LINE_CONTROL_DTR |Indicates that a DTR signal is present. This signal corresponds to V.2
 899:Generated_Source\PSoC4/USBUART_cdc.c **** *  USBUART_LINE_CONTROL_RTS |Carrier control for half-duplex modems. This signal corresponds to V.2
 900:Generated_Source\PSoC4/USBUART_cdc.c **** *  RESERVED                 |The rest of the bits are reserved.
 901:Generated_Source\PSoC4/USBUART_cdc.c **** *
 902:Generated_Source\PSoC4/USBUART_cdc.c **** *  *Note* Some terminal emulation programs do not properly handle these
 903:Generated_Source\PSoC4/USBUART_cdc.c **** *  control signals. They update information about DTR and RTS state only
 904:Generated_Source\PSoC4/USBUART_cdc.c **** *  when the RTS signal changes the state.
 905:Generated_Source\PSoC4/USBUART_cdc.c **** *
 906:Generated_Source\PSoC4/USBUART_cdc.c **** * \globalvars
 907:Generated_Source\PSoC4/USBUART_cdc.c **** *  USBUART_linesControlBitmap: used to get a parameter.
 908:Generated_Source\PSoC4/USBUART_cdc.c **** *
 909:Generated_Source\PSoC4/USBUART_cdc.c **** *******************************************************************************/
 910:Generated_Source\PSoC4/USBUART_cdc.c **** uint16 USBUART_GetLineControl(void) 
 911:Generated_Source\PSoC4/USBUART_cdc.c **** {
 1169              		.loc 1 911 0
 1170              		.cfi_startproc
 1171              		@ args = 0, pretend = 0, frame = 0
 1172              		@ frame_needed = 0, uses_anonymous_args = 0
 1173              		@ link register save eliminated.
 912:Generated_Source\PSoC4/USBUART_cdc.c ****     return (USBUART_linesControlBitmap[USBUART_activeCom]);
 1174              		.loc 1 912 0
 1175 0000 034B     		ldr	r3, .L94
 1176 0002 1B78     		ldrb	r3, [r3]
 1177 0004 5B00     		lsls	r3, r3, #1
 1178 0006 034A     		ldr	r2, .L94+4
 1179 0008 985A     		ldrh	r0, [r3, r2]
 1180 000a 80B2     		uxth	r0, r0
 913:Generated_Source\PSoC4/USBUART_cdc.c **** }
 1181              		.loc 1 913 0
 1182              		@ sp needed
 1183 000c 7047     		bx	lr
 1184              	.L95:
 1185 000e C046     		.align	2
 1186              	.L94:
 1187 0010 00000000 		.word	.LANCHOR1
 1188 0014 00000000 		.word	USBUART_linesControlBitmap
 1189              		.cfi_endproc
 1190              	.LFE20:
 1191              		.size	USBUART_GetLineControl, .-USBUART_GetLineControl
 1192              		.section	.text.USBUART_SendSerialState,"ax",%progbits
 1193              		.align	2
ARM GAS  C:\Users\essele\AppData\Local\Temp\cczrtAYv.s 			page 39


 1194              		.global	USBUART_SendSerialState
 1195              		.code	16
 1196              		.thumb_func
 1197              		.type	USBUART_SendSerialState, %function
 1198              	USBUART_SendSerialState:
 1199              	.LFB21:
 914:Generated_Source\PSoC4/USBUART_cdc.c **** 
 915:Generated_Source\PSoC4/USBUART_cdc.c **** 
 916:Generated_Source\PSoC4/USBUART_cdc.c **** /*******************************************************************************
 917:Generated_Source\PSoC4/USBUART_cdc.c **** * Function Name: USBUART_SendSerialState
 918:Generated_Source\PSoC4/USBUART_cdc.c **** ****************************************************************************//**
 919:Generated_Source\PSoC4/USBUART_cdc.c **** *
 920:Generated_Source\PSoC4/USBUART_cdc.c **** *  Sends the serial state notification to the host using the interrupt
 921:Generated_Source\PSoC4/USBUART_cdc.c **** *  endpoint for the COM port selected using the API SetComPort().The
 922:Generated_Source\PSoC4/USBUART_cdc.c **** *  USBUART_NotificationIsReady() API must be called to check if the
 923:Generated_Source\PSoC4/USBUART_cdc.c **** *  Component is ready to send more serial state to the host. The API will
 924:Generated_Source\PSoC4/USBUART_cdc.c **** *  not send the notification data if the interrupt endpoint Max Packet Size
 925:Generated_Source\PSoC4/USBUART_cdc.c **** *  is less than the required 10 bytes.
 926:Generated_Source\PSoC4/USBUART_cdc.c **** *
 927:Generated_Source\PSoC4/USBUART_cdc.c **** * \param uint16 serialState
 928:Generated_Source\PSoC4/USBUART_cdc.c **** *  16-bit value that will be sent from the device to the
 929:Generated_Source\PSoC4/USBUART_cdc.c **** *  host as SERIAL_STATE notification using the IN interrupt endpoint. Refer
 930:Generated_Source\PSoC4/USBUART_cdc.c **** *  to revision 1.2 of the CDC PSTN Subclass specification for bit field
 931:Generated_Source\PSoC4/USBUART_cdc.c **** *  definitions of the 16-bit serial state value.
 932:Generated_Source\PSoC4/USBUART_cdc.c **** *
 933:Generated_Source\PSoC4/USBUART_cdc.c **** *******************************************************************************/
 934:Generated_Source\PSoC4/USBUART_cdc.c **** void USBUART_SendSerialState (uint16 serialState) 
 935:Generated_Source\PSoC4/USBUART_cdc.c **** {
 1200              		.loc 1 935 0
 1201              		.cfi_startproc
 1202              		@ args = 0, pretend = 0, frame = 0
 1203              		@ frame_needed = 0, uses_anonymous_args = 0
 1204              	.LVL97:
 1205 0000 70B5     		push	{r4, r5, r6, lr}
 1206              		.cfi_def_cfa_offset 16
 1207              		.cfi_offset 4, -16
 1208              		.cfi_offset 5, -12
 1209              		.cfi_offset 6, -8
 1210              		.cfi_offset 14, -4
 936:Generated_Source\PSoC4/USBUART_cdc.c ****     uint8 epNumber = USBUART_cdcCommInInterruptEp[USBUART_activeCom];
 1211              		.loc 1 936 0
 1212 0002 124B     		ldr	r3, .L98
 1213 0004 1C78     		ldrb	r4, [r3]
 1214 0006 124B     		ldr	r3, .L98+4
 1215 0008 1B5D     		ldrb	r3, [r3, r4]
 1216 000a DBB2     		uxtb	r3, r3
 1217              	.LVL98:
 937:Generated_Source\PSoC4/USBUART_cdc.c **** 
 938:Generated_Source\PSoC4/USBUART_cdc.c ****     if(USBUART_SERIAL_STATE_SIZE <= USBUART_EP[epNumber].bufferSize)
 1218              		.loc 1 938 0
 1219 000c 5900     		lsls	r1, r3, #1
 1220 000e C918     		adds	r1, r1, r3
 1221 0010 8A00     		lsls	r2, r1, #2
 1222 0012 1049     		ldr	r1, .L98+8
 1223 0014 8A18     		adds	r2, r1, r2
 1224 0016 1289     		ldrh	r2, [r2, #8]
 1225 0018 92B2     		uxth	r2, r2
ARM GAS  C:\Users\essele\AppData\Local\Temp\cczrtAYv.s 			page 40


 1226 001a 092A     		cmp	r2, #9
 1227 001c 14D9     		bls	.L96
 939:Generated_Source\PSoC4/USBUART_cdc.c ****     {
 940:Generated_Source\PSoC4/USBUART_cdc.c ****         /* Save current SERIAL_STATE bitmap. */
 941:Generated_Source\PSoC4/USBUART_cdc.c ****         USBUART_serialStateBitmap[USBUART_activeCom] = serialState;
 1228              		.loc 1 941 0
 1229 001e 0E4D     		ldr	r5, .L98+12
 1230 0020 6400     		lsls	r4, r4, #1
 1231 0022 6053     		strh	r0, [r4, r5]
 942:Generated_Source\PSoC4/USBUART_cdc.c **** 
 943:Generated_Source\PSoC4/USBUART_cdc.c ****         /* Add interface number */
 944:Generated_Source\PSoC4/USBUART_cdc.c ****         USBUART_serialStateNotification.wIndex = USBUART_EP[epNumber].interface;
 1232              		.loc 1 944 0
 1233 0024 5900     		lsls	r1, r3, #1
 1234 0026 C918     		adds	r1, r1, r3
 1235 0028 8A00     		lsls	r2, r1, #2
 1236 002a 0A49     		ldr	r1, .L98+8
 1237 002c 8A18     		adds	r2, r1, r2
 1238 002e 927A     		ldrb	r2, [r2, #10]
 1239 0030 0A49     		ldr	r1, .L98+16
 1240 0032 0A75     		strb	r2, [r1, #20]
 945:Generated_Source\PSoC4/USBUART_cdc.c **** 
 946:Generated_Source\PSoC4/USBUART_cdc.c ****         /*Form SERIAL_STATE data*/
 947:Generated_Source\PSoC4/USBUART_cdc.c ****         USBUART_serialStateNotification.wSerialState =    LO8(USBUART_serialStateBitmap[USBUART_act
 1241              		.loc 1 947 0
 1242 0034 625B     		ldrh	r2, [r4, r5]
 1243 0036 0A76     		strb	r2, [r1, #24]
 948:Generated_Source\PSoC4/USBUART_cdc.c ****         USBUART_serialStateNotification.wSerialStateMSB = HI8(USBUART_serialStateBitmap[USBUART_act
 1244              		.loc 1 948 0
 1245 0038 625B     		ldrh	r2, [r4, r5]
 1246 003a 120A     		lsrs	r2, r2, #8
 1247 003c 4A76     		strb	r2, [r1, #25]
 949:Generated_Source\PSoC4/USBUART_cdc.c **** 
 950:Generated_Source\PSoC4/USBUART_cdc.c ****         USBUART_LoadInEP(epNumber, (uint8 *) &USBUART_serialStateNotification, sizeof(USBUART_seria
 1248              		.loc 1 950 0
 1249 003e 1031     		adds	r1, r1, #16
 1250 0040 0A22     		movs	r2, #10
 1251 0042 1800     		movs	r0, r3
 1252              	.LVL99:
 1253 0044 FFF7FEFF 		bl	USBUART_LoadInEP
 1254              	.LVL100:
 1255              	.L96:
 951:Generated_Source\PSoC4/USBUART_cdc.c ****     }
 952:Generated_Source\PSoC4/USBUART_cdc.c **** }
 1256              		.loc 1 952 0
 1257              		@ sp needed
 1258 0048 70BD     		pop	{r4, r5, r6, pc}
 1259              	.L99:
 1260 004a C046     		.align	2
 1261              	.L98:
 1262 004c 00000000 		.word	.LANCHOR1
 1263 0050 00000000 		.word	USBUART_cdcCommInInterruptEp
 1264 0054 00000000 		.word	USBUART_EP
 1265 0058 00000000 		.word	USBUART_serialStateBitmap
 1266 005c 00000000 		.word	.LANCHOR0
 1267              		.cfi_endproc
 1268              	.LFE21:
ARM GAS  C:\Users\essele\AppData\Local\Temp\cczrtAYv.s 			page 41


 1269              		.size	USBUART_SendSerialState, .-USBUART_SendSerialState
 1270              		.section	.text.USBUART_GetSerialState,"ax",%progbits
 1271              		.align	2
 1272              		.global	USBUART_GetSerialState
 1273              		.code	16
 1274              		.thumb_func
 1275              		.type	USBUART_GetSerialState, %function
 1276              	USBUART_GetSerialState:
 1277              	.LFB22:
 953:Generated_Source\PSoC4/USBUART_cdc.c **** 
 954:Generated_Source\PSoC4/USBUART_cdc.c **** 
 955:Generated_Source\PSoC4/USBUART_cdc.c **** /*******************************************************************************
 956:Generated_Source\PSoC4/USBUART_cdc.c **** * Function Name: USBUART_GetSerialState
 957:Generated_Source\PSoC4/USBUART_cdc.c **** ****************************************************************************//**
 958:Generated_Source\PSoC4/USBUART_cdc.c **** *
 959:Generated_Source\PSoC4/USBUART_cdc.c **** *  This function returns the current serial state value for the COM port
 960:Generated_Source\PSoC4/USBUART_cdc.c **** *  selected using the API SetComPort().
 961:Generated_Source\PSoC4/USBUART_cdc.c **** *
 962:Generated_Source\PSoC4/USBUART_cdc.c **** * \return
 963:Generated_Source\PSoC4/USBUART_cdc.c **** *  16-bit serial state value. Refer to revision 1.2 of the CDC PSTN Subclass
 964:Generated_Source\PSoC4/USBUART_cdc.c **** *  specification for bit field definitions of the 16-bit serial state value.
 965:Generated_Source\PSoC4/USBUART_cdc.c **** *
 966:Generated_Source\PSoC4/USBUART_cdc.c **** *******************************************************************************/
 967:Generated_Source\PSoC4/USBUART_cdc.c **** uint16 USBUART_GetSerialState(void) 
 968:Generated_Source\PSoC4/USBUART_cdc.c **** {
 1278              		.loc 1 968 0
 1279              		.cfi_startproc
 1280              		@ args = 0, pretend = 0, frame = 0
 1281              		@ frame_needed = 0, uses_anonymous_args = 0
 1282              		@ link register save eliminated.
 969:Generated_Source\PSoC4/USBUART_cdc.c ****     return USBUART_serialStateBitmap[USBUART_activeCom];
 1283              		.loc 1 969 0
 1284 0000 034B     		ldr	r3, .L101
 1285 0002 1B78     		ldrb	r3, [r3]
 1286 0004 5B00     		lsls	r3, r3, #1
 1287 0006 034A     		ldr	r2, .L101+4
 1288 0008 985A     		ldrh	r0, [r3, r2]
 1289 000a 80B2     		uxth	r0, r0
 970:Generated_Source\PSoC4/USBUART_cdc.c **** }
 1290              		.loc 1 970 0
 1291              		@ sp needed
 1292 000c 7047     		bx	lr
 1293              	.L102:
 1294 000e C046     		.align	2
 1295              	.L101:
 1296 0010 00000000 		.word	.LANCHOR1
 1297 0014 00000000 		.word	USBUART_serialStateBitmap
 1298              		.cfi_endproc
 1299              	.LFE22:
 1300              		.size	USBUART_GetSerialState, .-USBUART_GetSerialState
 1301              		.section	.text.USBUART_NotificationIsReady,"ax",%progbits
 1302              		.align	2
 1303              		.global	USBUART_NotificationIsReady
 1304              		.code	16
 1305              		.thumb_func
 1306              		.type	USBUART_NotificationIsReady, %function
 1307              	USBUART_NotificationIsReady:
ARM GAS  C:\Users\essele\AppData\Local\Temp\cczrtAYv.s 			page 42


 1308              	.LFB23:
 971:Generated_Source\PSoC4/USBUART_cdc.c **** 
 972:Generated_Source\PSoC4/USBUART_cdc.c **** 
 973:Generated_Source\PSoC4/USBUART_cdc.c **** /*******************************************************************************
 974:Generated_Source\PSoC4/USBUART_cdc.c **** * Function Name: USBUART_NotificationIsReady
 975:Generated_Source\PSoC4/USBUART_cdc.c **** ****************************************************************************//**
 976:Generated_Source\PSoC4/USBUART_cdc.c **** *
 977:Generated_Source\PSoC4/USBUART_cdc.c **** *  This function returns a non-zero value if the Component is ready to send
 978:Generated_Source\PSoC4/USBUART_cdc.c **** *  more notifications to the host; otherwise, it returns zero. The function
 979:Generated_Source\PSoC4/USBUART_cdc.c **** *  should be called before sending new notifications when using
 980:Generated_Source\PSoC4/USBUART_cdc.c **** *  USBUART_SendSerialState() to ensure that any previous
 981:Generated_Source\PSoC4/USBUART_cdc.c **** *  notification data has been already sent to the host.
 982:Generated_Source\PSoC4/USBUART_cdc.c **** *
 983:Generated_Source\PSoC4/USBUART_cdc.c **** * \return
 984:Generated_Source\PSoC4/USBUART_cdc.c **** *  If the buffer can accept new data(endpoint buffer not full), this
 985:Generated_Source\PSoC4/USBUART_cdc.c **** *  function returns a non-zero value. Otherwise, it returns zero.
 986:Generated_Source\PSoC4/USBUART_cdc.c **** *
 987:Generated_Source\PSoC4/USBUART_cdc.c **** * \globalvars
 988:Generated_Source\PSoC4/USBUART_cdc.c **** *   USBUART_cdcDataInEp: CDC IN endpoint number used.
 989:Generated_Source\PSoC4/USBUART_cdc.c **** *
 990:Generated_Source\PSoC4/USBUART_cdc.c **** *******************************************************************************/
 991:Generated_Source\PSoC4/USBUART_cdc.c **** uint8 USBUART_NotificationIsReady(void) 
 992:Generated_Source\PSoC4/USBUART_cdc.c **** {
 1309              		.loc 1 992 0
 1310              		.cfi_startproc
 1311              		@ args = 0, pretend = 0, frame = 0
 1312              		@ frame_needed = 0, uses_anonymous_args = 0
 1313              		@ link register save eliminated.
 993:Generated_Source\PSoC4/USBUART_cdc.c ****     return (USBUART_EP[USBUART_cdcCommInInterruptEp[USBUART_activeCom]].apiEpState);
 1314              		.loc 1 993 0
 1315 0000 064B     		ldr	r3, .L104
 1316 0002 1B78     		ldrb	r3, [r3]
 1317 0004 064A     		ldr	r2, .L104+4
 1318 0006 D35C     		ldrb	r3, [r2, r3]
 1319 0008 DBB2     		uxtb	r3, r3
 1320 000a 5A00     		lsls	r2, r3, #1
 1321 000c D318     		adds	r3, r2, r3
 1322 000e 9A00     		lsls	r2, r3, #2
 1323 0010 044B     		ldr	r3, .L104+8
 1324 0012 9A18     		adds	r2, r3, r2
 1325 0014 5078     		ldrb	r0, [r2, #1]
 1326 0016 C0B2     		uxtb	r0, r0
 994:Generated_Source\PSoC4/USBUART_cdc.c **** }
 1327              		.loc 1 994 0
 1328              		@ sp needed
 1329 0018 7047     		bx	lr
 1330              	.L105:
 1331 001a C046     		.align	2
 1332              	.L104:
 1333 001c 00000000 		.word	.LANCHOR1
 1334 0020 00000000 		.word	USBUART_cdcCommInInterruptEp
 1335 0024 00000000 		.word	USBUART_EP
 1336              		.cfi_endproc
 1337              	.LFE23:
 1338              		.size	USBUART_NotificationIsReady, .-USBUART_NotificationIsReady
 1339              		.section	.text.USBUART_SetComPort,"ax",%progbits
 1340              		.align	2
ARM GAS  C:\Users\essele\AppData\Local\Temp\cczrtAYv.s 			page 43


 1341              		.global	USBUART_SetComPort
 1342              		.code	16
 1343              		.thumb_func
 1344              		.type	USBUART_SetComPort, %function
 1345              	USBUART_SetComPort:
 1346              	.LFB24:
 995:Generated_Source\PSoC4/USBUART_cdc.c **** 
 996:Generated_Source\PSoC4/USBUART_cdc.c **** 
 997:Generated_Source\PSoC4/USBUART_cdc.c **** /*******************************************************************************
 998:Generated_Source\PSoC4/USBUART_cdc.c **** * Function Name: USBUART_SetComPort
 999:Generated_Source\PSoC4/USBUART_cdc.c **** ****************************************************************************//**
1000:Generated_Source\PSoC4/USBUART_cdc.c **** *
1001:Generated_Source\PSoC4/USBUART_cdc.c **** *  This function allows the user to select from one of the two COM ports
1002:Generated_Source\PSoC4/USBUART_cdc.c **** *  they wish to address in the instance of having multiple COM ports
1003:Generated_Source\PSoC4/USBUART_cdc.c **** *  instantiated though the use of a composite device. Once set, all future
1004:Generated_Source\PSoC4/USBUART_cdc.c **** *  function calls related to the USBUART will be affected. This addressed
1005:Generated_Source\PSoC4/USBUART_cdc.c **** *  COM port can be changed during run time.
1006:Generated_Source\PSoC4/USBUART_cdc.c **** *
1007:Generated_Source\PSoC4/USBUART_cdc.c **** * \param comNumber
1008:Generated_Source\PSoC4/USBUART_cdc.c **** *  Contains the COM interface the user wishes to address. Value can either
1009:Generated_Source\PSoC4/USBUART_cdc.c **** *  be 0 or 1 since a maximum of only 2 COM ports can be supported. Note that
1010:Generated_Source\PSoC4/USBUART_cdc.c **** *  this COM port number is not the COM port number assigned on the PC side
1011:Generated_Source\PSoC4/USBUART_cdc.c **** *  for the UART communication. If a value greater than 1 is passed, the
1012:Generated_Source\PSoC4/USBUART_cdc.c **** *  function returns without performing any action.
1013:Generated_Source\PSoC4/USBUART_cdc.c **** *
1014:Generated_Source\PSoC4/USBUART_cdc.c **** *******************************************************************************/
1015:Generated_Source\PSoC4/USBUART_cdc.c **** void USBUART_SetComPort(uint8 comNumber) 
1016:Generated_Source\PSoC4/USBUART_cdc.c **** {
 1347              		.loc 1 1016 0
 1348              		.cfi_startproc
 1349              		@ args = 0, pretend = 0, frame = 0
 1350              		@ frame_needed = 0, uses_anonymous_args = 0
 1351              		@ link register save eliminated.
 1352              	.LVL101:
1017:Generated_Source\PSoC4/USBUART_cdc.c ****     if ((USBUART_activeCom != comNumber) && \
 1353              		.loc 1 1017 0
 1354 0000 044B     		ldr	r3, .L108
 1355 0002 1B78     		ldrb	r3, [r3]
 1356 0004 8342     		cmp	r3, r0
 1357 0006 03D0     		beq	.L106
 1358              		.loc 1 1017 0 is_stmt 0 discriminator 1
 1359 0008 0128     		cmp	r0, #1
 1360 000a 01D8     		bhi	.L106
1018:Generated_Source\PSoC4/USBUART_cdc.c ****             (comNumber < USBUART_MAX_MULTI_COM_NUM ))
1019:Generated_Source\PSoC4/USBUART_cdc.c ****     {
1020:Generated_Source\PSoC4/USBUART_cdc.c ****         USBUART_activeCom = comNumber;
 1361              		.loc 1 1020 0 is_stmt 1
 1362 000c 014B     		ldr	r3, .L108
 1363 000e 1870     		strb	r0, [r3]
 1364              	.L106:
1021:Generated_Source\PSoC4/USBUART_cdc.c ****     }
1022:Generated_Source\PSoC4/USBUART_cdc.c **** }
 1365              		.loc 1 1022 0
 1366              		@ sp needed
 1367 0010 7047     		bx	lr
 1368              	.L109:
 1369 0012 C046     		.align	2
ARM GAS  C:\Users\essele\AppData\Local\Temp\cczrtAYv.s 			page 44


 1370              	.L108:
 1371 0014 00000000 		.word	.LANCHOR1
 1372              		.cfi_endproc
 1373              	.LFE24:
 1374              		.size	USBUART_SetComPort, .-USBUART_SetComPort
 1375              		.section	.text.USBUART_GetComPort,"ax",%progbits
 1376              		.align	2
 1377              		.global	USBUART_GetComPort
 1378              		.code	16
 1379              		.thumb_func
 1380              		.type	USBUART_GetComPort, %function
 1381              	USBUART_GetComPort:
 1382              	.LFB25:
1023:Generated_Source\PSoC4/USBUART_cdc.c **** 
1024:Generated_Source\PSoC4/USBUART_cdc.c **** 
1025:Generated_Source\PSoC4/USBUART_cdc.c **** /*******************************************************************************
1026:Generated_Source\PSoC4/USBUART_cdc.c **** * Function Name: USBUART_GetComPort
1027:Generated_Source\PSoC4/USBUART_cdc.c **** ****************************************************************************//**
1028:Generated_Source\PSoC4/USBUART_cdc.c **** *
1029:Generated_Source\PSoC4/USBUART_cdc.c **** *  This function returns the current selected COM port that the user is
1030:Generated_Source\PSoC4/USBUART_cdc.c **** *  currently addressing in the instance of having multiple COM ports
1031:Generated_Source\PSoC4/USBUART_cdc.c **** *  instantiated though the use of a composite device.
1032:Generated_Source\PSoC4/USBUART_cdc.c **** *
1033:Generated_Source\PSoC4/USBUART_cdc.c **** * \return
1034:Generated_Source\PSoC4/USBUART_cdc.c **** *  Returns the currently selected COM port. Value can either be 0 or 1 since
1035:Generated_Source\PSoC4/USBUART_cdc.c **** *  a maximum of only 2 COM ports can be supported. . Note that this COM port
1036:Generated_Source\PSoC4/USBUART_cdc.c **** *  number is not the COM port number assigned on the PC side for the UART
1037:Generated_Source\PSoC4/USBUART_cdc.c **** *  communication.
1038:Generated_Source\PSoC4/USBUART_cdc.c **** *
1039:Generated_Source\PSoC4/USBUART_cdc.c **** *******************************************************************************/
1040:Generated_Source\PSoC4/USBUART_cdc.c **** uint8 USBUART_GetComPort(void) 
1041:Generated_Source\PSoC4/USBUART_cdc.c **** {
 1383              		.loc 1 1041 0
 1384              		.cfi_startproc
 1385              		@ args = 0, pretend = 0, frame = 0
 1386              		@ frame_needed = 0, uses_anonymous_args = 0
 1387              		@ link register save eliminated.
1042:Generated_Source\PSoC4/USBUART_cdc.c ****     return (USBUART_activeCom);
 1388              		.loc 1 1042 0
 1389 0000 014B     		ldr	r3, .L111
 1390 0002 1878     		ldrb	r0, [r3]
1043:Generated_Source\PSoC4/USBUART_cdc.c **** }
 1391              		.loc 1 1043 0
 1392              		@ sp needed
 1393 0004 7047     		bx	lr
 1394              	.L112:
 1395 0006 C046     		.align	2
 1396              	.L111:
 1397 0008 00000000 		.word	.LANCHOR1
 1398              		.cfi_endproc
 1399              	.LFE25:
 1400              		.size	USBUART_GetComPort, .-USBUART_GetComPort
 1401              		.section	.text.USBUART_Cdc_EpInit,"ax",%progbits
 1402              		.align	2
 1403              		.global	USBUART_Cdc_EpInit
 1404              		.code	16
 1405              		.thumb_func
ARM GAS  C:\Users\essele\AppData\Local\Temp\cczrtAYv.s 			page 45


 1406              		.type	USBUART_Cdc_EpInit, %function
 1407              	USBUART_Cdc_EpInit:
 1408              	.LFB26:
1044:Generated_Source\PSoC4/USBUART_cdc.c **** 
1045:Generated_Source\PSoC4/USBUART_cdc.c **** 
1046:Generated_Source\PSoC4/USBUART_cdc.c **** #endif  /* (USBUART_ENABLE_CDC_CLASS_API) */
1047:Generated_Source\PSoC4/USBUART_cdc.c **** 
1048:Generated_Source\PSoC4/USBUART_cdc.c **** 
1049:Generated_Source\PSoC4/USBUART_cdc.c **** /***************************************************************************
1050:Generated_Source\PSoC4/USBUART_cdc.c **** * Function Name: USBUART_Cdc_EpInit
1051:Generated_Source\PSoC4/USBUART_cdc.c **** ************************************************************************//**
1052:Generated_Source\PSoC4/USBUART_cdc.c **** *
1053:Generated_Source\PSoC4/USBUART_cdc.c **** *  \internal
1054:Generated_Source\PSoC4/USBUART_cdc.c **** *  This routine decide type of endpoint (IN, OUT, Notification) and same to
1055:Generated_Source\PSoC4/USBUART_cdc.c **** *   appropriate global variables  according to COM port number.
1056:Generated_Source\PSoC4/USBUART_cdc.c **** *   USBUART_cdcDataInEp[], USBUART_cdcCommInInterruptEp[],
1057:Generated_Source\PSoC4/USBUART_cdc.c **** *   USBUART_cdcDataOutEp[]
1058:Generated_Source\PSoC4/USBUART_cdc.c **** *
1059:Generated_Source\PSoC4/USBUART_cdc.c **** * \param pEP: Pointer to structure with current EP description.
1060:Generated_Source\PSoC4/USBUART_cdc.c **** * \param epNum: EP number
1061:Generated_Source\PSoC4/USBUART_cdc.c **** * \param cdcComNums: Bit array of current COM ports for CDC IN, OUT,
1062:Generated_Source\PSoC4/USBUART_cdc.c **** *        and notification EPs(0 - COM port 1, 1- COM port 2)
1063:Generated_Source\PSoC4/USBUART_cdc.c **** *
1064:Generated_Source\PSoC4/USBUART_cdc.c **** * \return
1065:Generated_Source\PSoC4/USBUART_cdc.c **** *  Updated cdcComNums
1066:Generated_Source\PSoC4/USBUART_cdc.c **** *
1067:Generated_Source\PSoC4/USBUART_cdc.c **** * \reentrant
1068:Generated_Source\PSoC4/USBUART_cdc.c **** *  No.
1069:Generated_Source\PSoC4/USBUART_cdc.c **** *
1070:Generated_Source\PSoC4/USBUART_cdc.c **** ***************************************************************************/
1071:Generated_Source\PSoC4/USBUART_cdc.c **** uint8 USBUART_Cdc_EpInit(const T_USBUART_EP_SETTINGS_BLOCK CYCODE *pEP, uint8 epNum, uint8 cdcComNu
1072:Generated_Source\PSoC4/USBUART_cdc.c **** {
 1409              		.loc 1 1072 0
 1410              		.cfi_startproc
 1411              		@ args = 0, pretend = 0, frame = 0
 1412              		@ frame_needed = 0, uses_anonymous_args = 0
 1413              	.LVL102:
 1414 0000 10B5     		push	{r4, lr}
 1415              		.cfi_def_cfa_offset 8
 1416              		.cfi_offset 4, -8
 1417              		.cfi_offset 14, -4
1073:Generated_Source\PSoC4/USBUART_cdc.c ****     uint8 epType;
1074:Generated_Source\PSoC4/USBUART_cdc.c **** 
1075:Generated_Source\PSoC4/USBUART_cdc.c ****     epType = pEP->attributes & USBUART_EP_TYPE_MASK;
 1418              		.loc 1 1075 0
 1419 0002 C378     		ldrb	r3, [r0, #3]
 1420 0004 0324     		movs	r4, #3
 1421 0006 2340     		ands	r3, r4
 1422              	.LVL103:
1076:Generated_Source\PSoC4/USBUART_cdc.c **** 
1077:Generated_Source\PSoC4/USBUART_cdc.c ****     if (0u != (pEP->addr & USBUART_DIR_IN))
 1423              		.loc 1 1077 0
 1424 0008 8078     		ldrb	r0, [r0, #2]
 1425              	.LVL104:
 1426 000a 40B2     		sxtb	r0, r0
 1427 000c 0028     		cmp	r0, #0
 1428 000e 12DA     		bge	.L114
ARM GAS  C:\Users\essele\AppData\Local\Temp\cczrtAYv.s 			page 46


1078:Generated_Source\PSoC4/USBUART_cdc.c ****     {
1079:Generated_Source\PSoC4/USBUART_cdc.c ****         if (epType != USBUART_EP_TYPE_INT)
 1429              		.loc 1 1079 0
 1430 0010 032B     		cmp	r3, #3
 1431 0012 07D0     		beq	.L115
1080:Generated_Source\PSoC4/USBUART_cdc.c ****         {
1081:Generated_Source\PSoC4/USBUART_cdc.c ****             USBUART_cdcDataInEp[USBUART_GET_EP_COM_NUM(cdcComNums, USBUART_CDC_IN_EP)] = epNum;
 1432              		.loc 1 1081 0
 1433 0014 0123     		movs	r3, #1
 1434              	.LVL105:
 1435 0016 1340     		ands	r3, r2
 1436 0018 0D48     		ldr	r0, .L117
 1437 001a C154     		strb	r1, [r0, r3]
 1438              	.LVL106:
1082:Generated_Source\PSoC4/USBUART_cdc.c ****             cdcComNums |= (uint8)(USBUART_COM_PORT2 << USBUART_CDC_IN_EP);
 1439              		.loc 1 1082 0
 1440 001c 0120     		movs	r0, #1
 1441 001e 0243     		orrs	r2, r0
 1442              	.LVL107:
 1443 0020 D2B2     		uxtb	r2, r2
 1444              	.LVL108:
 1445 0022 12E0     		b	.L116
 1446              	.LVL109:
 1447              	.L115:
1083:Generated_Source\PSoC4/USBUART_cdc.c ****         }
1084:Generated_Source\PSoC4/USBUART_cdc.c ****         else
1085:Generated_Source\PSoC4/USBUART_cdc.c ****         {
1086:Generated_Source\PSoC4/USBUART_cdc.c **** 
1087:Generated_Source\PSoC4/USBUART_cdc.c ****             USBUART_cdcCommInInterruptEp[USBUART_GET_EP_COM_NUM(cdcComNums, USBUART_CDC_NOTE_EP)] =
 1448              		.loc 1 1087 0
 1449 0024 9308     		lsrs	r3, r2, #2
 1450              	.LVL110:
 1451 0026 0120     		movs	r0, #1
 1452 0028 0340     		ands	r3, r0
 1453 002a 0A48     		ldr	r0, .L117+4
 1454 002c C154     		strb	r1, [r0, r3]
 1455              	.LVL111:
1088:Generated_Source\PSoC4/USBUART_cdc.c ****             cdcComNums |= (uint8)(USBUART_COM_PORT2 << USBUART_CDC_NOTE_EP);
 1456              		.loc 1 1088 0
 1457 002e 0420     		movs	r0, #4
 1458 0030 0243     		orrs	r2, r0
 1459              	.LVL112:
 1460 0032 D2B2     		uxtb	r2, r2
 1461              	.LVL113:
 1462 0034 09E0     		b	.L116
 1463              	.LVL114:
 1464              	.L114:
1089:Generated_Source\PSoC4/USBUART_cdc.c ****         }
1090:Generated_Source\PSoC4/USBUART_cdc.c ****     }
1091:Generated_Source\PSoC4/USBUART_cdc.c ****     else
1092:Generated_Source\PSoC4/USBUART_cdc.c ****     {
1093:Generated_Source\PSoC4/USBUART_cdc.c ****         if (epType != USBUART_EP_TYPE_INT)
 1465              		.loc 1 1093 0
 1466 0036 032B     		cmp	r3, #3
 1467 0038 07D0     		beq	.L116
1094:Generated_Source\PSoC4/USBUART_cdc.c ****         {
1095:Generated_Source\PSoC4/USBUART_cdc.c ****             USBUART_cdcDataOutEp[USBUART_GET_EP_COM_NUM(cdcComNums, USBUART_CDC_OUT_EP)] = epNum;
ARM GAS  C:\Users\essele\AppData\Local\Temp\cczrtAYv.s 			page 47


 1468              		.loc 1 1095 0
 1469 003a 5308     		lsrs	r3, r2, #1
 1470              	.LVL115:
 1471 003c 0120     		movs	r0, #1
 1472 003e 0340     		ands	r3, r0
 1473 0040 0548     		ldr	r0, .L117+8
 1474 0042 C154     		strb	r1, [r0, r3]
 1475              	.LVL116:
1096:Generated_Source\PSoC4/USBUART_cdc.c ****             cdcComNums |= (uint8)(USBUART_COM_PORT2 << USBUART_CDC_OUT_EP);
 1476              		.loc 1 1096 0
 1477 0044 0220     		movs	r0, #2
 1478 0046 0243     		orrs	r2, r0
 1479              	.LVL117:
 1480 0048 D2B2     		uxtb	r2, r2
 1481              	.LVL118:
 1482              	.L116:
1097:Generated_Source\PSoC4/USBUART_cdc.c ****         }
1098:Generated_Source\PSoC4/USBUART_cdc.c ****     }
1099:Generated_Source\PSoC4/USBUART_cdc.c ****     return (cdcComNums);
1100:Generated_Source\PSoC4/USBUART_cdc.c **** }
 1483              		.loc 1 1100 0
 1484 004a 1000     		movs	r0, r2
 1485              		@ sp needed
 1486 004c 10BD     		pop	{r4, pc}
 1487              	.L118:
 1488 004e C046     		.align	2
 1489              	.L117:
 1490 0050 00000000 		.word	USBUART_cdcDataInEp
 1491 0054 00000000 		.word	USBUART_cdcCommInInterruptEp
 1492 0058 00000000 		.word	USBUART_cdcDataOutEp
 1493              		.cfi_endproc
 1494              	.LFE26:
 1495              		.size	USBUART_Cdc_EpInit, .-USBUART_Cdc_EpInit
 1496              		.comm	USBUART_cdcCommInInterruptEp,2,4
 1497              		.comm	USBUART_cdcDataOutEp,2,4
 1498              		.comm	USBUART_cdcDataInEp,2,4
 1499              		.comm	USBUART_serialStateBitmap,4,4
 1500              		.comm	USBUART_linesControlBitmap,4,4
 1501              		.comm	USBUART_linesChanged,2,4
 1502              		.global	USBUART_linesCoding
 1503              		.section	.rodata
 1504              		.align	2
 1505              		.set	.LANCHOR2,. + 0
 1506              	.LC0:
 1507 0000 0D       		.byte	13
 1508 0001 0A       		.byte	10
 1509              		.data
 1510              		.align	2
 1511              		.set	.LANCHOR0,. + 0
 1512              		.type	USBUART_linesCoding, %object
 1513              		.size	USBUART_linesCoding, 14
 1514              	USBUART_linesCoding:
 1515 0000 00       		.byte	0
 1516 0001 C2       		.byte	-62
 1517 0002 01       		.byte	1
 1518 0003 00       		.byte	0
 1519 0004 00       		.byte	0
ARM GAS  C:\Users\essele\AppData\Local\Temp\cczrtAYv.s 			page 48


 1520 0005 00       		.byte	0
 1521 0006 08       		.byte	8
 1522 0007 00       		.byte	0
 1523 0008 C2       		.byte	-62
 1524 0009 01       		.byte	1
 1525 000a 00       		.byte	0
 1526 000b 00       		.byte	0
 1527 000c 00       		.byte	0
 1528 000d 08       		.byte	8
 1529 000e 0000     		.space	2
 1530              		.type	USBUART_serialStateNotification, %object
 1531              		.size	USBUART_serialStateNotification, 10
 1532              	USBUART_serialStateNotification:
 1533 0010 A1       		.byte	-95
 1534 0011 20       		.byte	32
 1535 0012 00       		.byte	0
 1536 0013 00       		.byte	0
 1537 0014 00       		.byte	0
 1538 0015 00       		.byte	0
 1539 0016 02       		.byte	2
 1540 0017 00       		.byte	0
 1541 0018 00       		.byte	0
 1542 0019 00       		.byte	0
 1543              		.bss
 1544              		.set	.LANCHOR1,. + 0
 1545              		.type	USBUART_activeCom, %object
 1546              		.size	USBUART_activeCom, 1
 1547              	USBUART_activeCom:
 1548 0000 00       		.space	1
 1549              		.text
 1550              	.Letext0:
 1551              		.file 2 "Generated_Source\\PSoC4\\cytypes.h"
 1552              		.file 3 "Generated_Source\\PSoC4\\USBUART.h"
 1553              		.file 4 "Generated_Source\\PSoC4\\USBUART_pvt.h"
 1554              		.file 5 "Generated_Source\\PSoC4\\CyLib.h"
 1555              		.section	.debug_info,"",%progbits
 1556              	.Ldebug_info0:
 1557 0000 1D0B0000 		.4byte	0xb1d
 1558 0004 0400     		.2byte	0x4
 1559 0006 00000000 		.4byte	.Ldebug_abbrev0
 1560 000a 04       		.byte	0x4
 1561 000b 01       		.uleb128 0x1
 1562 000c 2D020000 		.4byte	.LASF119
 1563 0010 0C       		.byte	0xc
 1564 0011 D3050000 		.4byte	.LASF120
 1565 0015 CC020000 		.4byte	.LASF121
 1566 0019 00000000 		.4byte	.Ldebug_ranges0+0
 1567 001d 00000000 		.4byte	0
 1568 0021 00000000 		.4byte	.Ldebug_line0
 1569 0025 02       		.uleb128 0x2
 1570 0026 01       		.byte	0x1
 1571 0027 06       		.byte	0x6
 1572 0028 F7060000 		.4byte	.LASF0
 1573 002c 02       		.uleb128 0x2
 1574 002d 01       		.byte	0x1
 1575 002e 08       		.byte	0x8
 1576 002f 85060000 		.4byte	.LASF1
ARM GAS  C:\Users\essele\AppData\Local\Temp\cczrtAYv.s 			page 49


 1577 0033 02       		.uleb128 0x2
 1578 0034 02       		.byte	0x2
 1579 0035 05       		.byte	0x5
 1580 0036 A7050000 		.4byte	.LASF2
 1581 003a 02       		.uleb128 0x2
 1582 003b 02       		.byte	0x2
 1583 003c 07       		.byte	0x7
 1584 003d 16070000 		.4byte	.LASF3
 1585 0041 02       		.uleb128 0x2
 1586 0042 04       		.byte	0x4
 1587 0043 05       		.byte	0x5
 1588 0044 B8050000 		.4byte	.LASF4
 1589 0048 02       		.uleb128 0x2
 1590 0049 04       		.byte	0x4
 1591 004a 07       		.byte	0x7
 1592 004b 49060000 		.4byte	.LASF5
 1593 004f 02       		.uleb128 0x2
 1594 0050 08       		.byte	0x8
 1595 0051 05       		.byte	0x5
 1596 0052 93040000 		.4byte	.LASF6
 1597 0056 02       		.uleb128 0x2
 1598 0057 08       		.byte	0x8
 1599 0058 07       		.byte	0x7
 1600 0059 CD010000 		.4byte	.LASF7
 1601 005d 03       		.uleb128 0x3
 1602 005e 04       		.byte	0x4
 1603 005f 05       		.byte	0x5
 1604 0060 696E7400 		.ascii	"int\000"
 1605 0064 02       		.uleb128 0x2
 1606 0065 04       		.byte	0x4
 1607 0066 07       		.byte	0x7
 1608 0067 59000000 		.4byte	.LASF8
 1609 006b 04       		.uleb128 0x4
 1610 006c 52070000 		.4byte	.LASF9
 1611 0070 02       		.byte	0x2
 1612 0071 E401     		.2byte	0x1e4
 1613 0073 2C000000 		.4byte	0x2c
 1614 0077 04       		.uleb128 0x4
 1615 0078 05040000 		.4byte	.LASF10
 1616 007c 02       		.byte	0x2
 1617 007d E501     		.2byte	0x1e5
 1618 007f 3A000000 		.4byte	0x3a
 1619 0083 04       		.uleb128 0x4
 1620 0084 43050000 		.4byte	.LASF11
 1621 0088 02       		.byte	0x2
 1622 0089 E601     		.2byte	0x1e6
 1623 008b 48000000 		.4byte	0x48
 1624 008f 02       		.uleb128 0x2
 1625 0090 04       		.byte	0x4
 1626 0091 04       		.byte	0x4
 1627 0092 A1010000 		.4byte	.LASF12
 1628 0096 02       		.uleb128 0x2
 1629 0097 08       		.byte	0x8
 1630 0098 04       		.byte	0x4
 1631 0099 58070000 		.4byte	.LASF13
 1632 009d 04       		.uleb128 0x4
 1633 009e 43040000 		.4byte	.LASF14
ARM GAS  C:\Users\essele\AppData\Local\Temp\cczrtAYv.s 			page 50


 1634 00a2 02       		.byte	0x2
 1635 00a3 F501     		.2byte	0x1f5
 1636 00a5 A9000000 		.4byte	0xa9
 1637 00a9 02       		.uleb128 0x2
 1638 00aa 01       		.byte	0x1
 1639 00ab 08       		.byte	0x8
 1640 00ac DF030000 		.4byte	.LASF15
 1641 00b0 05       		.uleb128 0x5
 1642 00b1 6B000000 		.4byte	0x6b
 1643 00b5 05       		.uleb128 0x5
 1644 00b6 77000000 		.4byte	0x77
 1645 00ba 02       		.uleb128 0x2
 1646 00bb 08       		.byte	0x8
 1647 00bc 04       		.byte	0x4
 1648 00bd 76050000 		.4byte	.LASF16
 1649 00c1 02       		.uleb128 0x2
 1650 00c2 04       		.byte	0x4
 1651 00c3 07       		.byte	0x7
 1652 00c4 40060000 		.4byte	.LASF17
 1653 00c8 06       		.uleb128 0x6
 1654 00c9 0C       		.byte	0xc
 1655 00ca 03       		.byte	0x3
 1656 00cb 8E       		.byte	0x8e
 1657 00cc 3D010000 		.4byte	0x13d
 1658 00d0 07       		.uleb128 0x7
 1659 00d1 93070000 		.4byte	.LASF18
 1660 00d5 03       		.byte	0x3
 1661 00d6 90       		.byte	0x90
 1662 00d7 6B000000 		.4byte	0x6b
 1663 00db 00       		.byte	0
 1664 00dc 07       		.uleb128 0x7
 1665 00dd AD070000 		.4byte	.LASF19
 1666 00e1 03       		.byte	0x3
 1667 00e2 91       		.byte	0x91
 1668 00e3 6B000000 		.4byte	0x6b
 1669 00e7 01       		.byte	0x1
 1670 00e8 07       		.uleb128 0x7
 1671 00e9 19050000 		.4byte	.LASF20
 1672 00ed 03       		.byte	0x3
 1673 00ee 92       		.byte	0x92
 1674 00ef 6B000000 		.4byte	0x6b
 1675 00f3 02       		.byte	0x2
 1676 00f4 07       		.uleb128 0x7
 1677 00f5 67010000 		.4byte	.LASF21
 1678 00f9 03       		.byte	0x3
 1679 00fa 93       		.byte	0x93
 1680 00fb 6B000000 		.4byte	0x6b
 1681 00ff 03       		.byte	0x3
 1682 0100 07       		.uleb128 0x7
 1683 0101 CD060000 		.4byte	.LASF22
 1684 0105 03       		.byte	0x3
 1685 0106 94       		.byte	0x94
 1686 0107 6B000000 		.4byte	0x6b
 1687 010b 04       		.byte	0x4
 1688 010c 07       		.uleb128 0x7
 1689 010d B1050000 		.4byte	.LASF23
 1690 0111 03       		.byte	0x3
ARM GAS  C:\Users\essele\AppData\Local\Temp\cczrtAYv.s 			page 51


 1691 0112 95       		.byte	0x95
 1692 0113 6B000000 		.4byte	0x6b
 1693 0117 05       		.byte	0x5
 1694 0118 07       		.uleb128 0x7
 1695 0119 49040000 		.4byte	.LASF24
 1696 011d 03       		.byte	0x3
 1697 011e 96       		.byte	0x96
 1698 011f 77000000 		.4byte	0x77
 1699 0123 06       		.byte	0x6
 1700 0124 07       		.uleb128 0x7
 1701 0125 07000000 		.4byte	.LASF25
 1702 0129 03       		.byte	0x3
 1703 012a 97       		.byte	0x97
 1704 012b 77000000 		.4byte	0x77
 1705 012f 08       		.byte	0x8
 1706 0130 07       		.uleb128 0x7
 1707 0131 35000000 		.4byte	.LASF26
 1708 0135 03       		.byte	0x3
 1709 0136 98       		.byte	0x98
 1710 0137 6B000000 		.4byte	0x6b
 1711 013b 0A       		.byte	0xa
 1712 013c 00       		.byte	0
 1713 013d 08       		.uleb128 0x8
 1714 013e 6E060000 		.4byte	.LASF27
 1715 0142 03       		.byte	0x3
 1716 0143 99       		.byte	0x99
 1717 0144 C8000000 		.4byte	0xc8
 1718 0148 06       		.uleb128 0x6
 1719 0149 08       		.byte	0x8
 1720 014a 03       		.byte	0x3
 1721 014b 9B       		.byte	0x9b
 1722 014c 99010000 		.4byte	0x199
 1723 0150 07       		.uleb128 0x7
 1724 0151 35000000 		.4byte	.LASF26
 1725 0155 03       		.byte	0x3
 1726 0156 9D       		.byte	0x9d
 1727 0157 6B000000 		.4byte	0x6b
 1728 015b 00       		.byte	0
 1729 015c 07       		.uleb128 0x7
 1730 015d 4A010000 		.4byte	.LASF28
 1731 0161 03       		.byte	0x3
 1732 0162 9E       		.byte	0x9e
 1733 0163 6B000000 		.4byte	0x6b
 1734 0167 01       		.byte	0x1
 1735 0168 07       		.uleb128 0x7
 1736 0169 CD060000 		.4byte	.LASF22
 1737 016d 03       		.byte	0x3
 1738 016e 9F       		.byte	0x9f
 1739 016f 6B000000 		.4byte	0x6b
 1740 0173 02       		.byte	0x2
 1741 0174 07       		.uleb128 0x7
 1742 0175 C2060000 		.4byte	.LASF29
 1743 0179 03       		.byte	0x3
 1744 017a A0       		.byte	0xa0
 1745 017b 6B000000 		.4byte	0x6b
 1746 017f 03       		.byte	0x3
 1747 0180 07       		.uleb128 0x7
ARM GAS  C:\Users\essele\AppData\Local\Temp\cczrtAYv.s 			page 52


 1748 0181 07000000 		.4byte	.LASF25
 1749 0185 03       		.byte	0x3
 1750 0186 A1       		.byte	0xa1
 1751 0187 77000000 		.4byte	0x77
 1752 018b 04       		.byte	0x4
 1753 018c 07       		.uleb128 0x7
 1754 018d B1040000 		.4byte	.LASF30
 1755 0191 03       		.byte	0x3
 1756 0192 A2       		.byte	0xa2
 1757 0193 6B000000 		.4byte	0x6b
 1758 0197 06       		.byte	0x6
 1759 0198 00       		.byte	0
 1760 0199 08       		.uleb128 0x8
 1761 019a 10030000 		.4byte	.LASF31
 1762 019e 03       		.byte	0x3
 1763 019f A3       		.byte	0xa3
 1764 01a0 48010000 		.4byte	0x148
 1765 01a4 06       		.uleb128 0x6
 1766 01a5 04       		.byte	0x4
 1767 01a6 03       		.byte	0x3
 1768 01a7 A5       		.byte	0xa5
 1769 01a8 C5010000 		.4byte	0x1c5
 1770 01ac 07       		.uleb128 0x7
 1771 01ad 3C040000 		.4byte	.LASF32
 1772 01b1 03       		.byte	0x3
 1773 01b2 A7       		.byte	0xa7
 1774 01b3 6B000000 		.4byte	0x6b
 1775 01b7 00       		.byte	0
 1776 01b8 07       		.uleb128 0x7
 1777 01b9 CC050000 		.4byte	.LASF33
 1778 01bd 03       		.byte	0x3
 1779 01be A8       		.byte	0xa8
 1780 01bf 77000000 		.4byte	0x77
 1781 01c3 02       		.byte	0x2
 1782 01c4 00       		.byte	0
 1783 01c5 08       		.uleb128 0x8
 1784 01c6 E0040000 		.4byte	.LASF34
 1785 01ca 03       		.byte	0x3
 1786 01cb A9       		.byte	0xa9
 1787 01cc A4010000 		.4byte	0x1a4
 1788 01d0 06       		.uleb128 0x6
 1789 01d1 0C       		.byte	0xc
 1790 01d2 03       		.byte	0x3
 1791 01d3 AB       		.byte	0xab
 1792 01d4 FD010000 		.4byte	0x1fd
 1793 01d8 07       		.uleb128 0x7
 1794 01d9 A7010000 		.4byte	.LASF35
 1795 01dd 03       		.byte	0x3
 1796 01de AD       		.byte	0xad
 1797 01df 77000000 		.4byte	0x77
 1798 01e3 00       		.byte	0
 1799 01e4 07       		.uleb128 0x7
 1800 01e5 3E030000 		.4byte	.LASF36
 1801 01e9 03       		.byte	0x3
 1802 01ea AE       		.byte	0xae
 1803 01eb FD010000 		.4byte	0x1fd
 1804 01ef 04       		.byte	0x4
ARM GAS  C:\Users\essele\AppData\Local\Temp\cczrtAYv.s 			page 53


 1805 01f0 07       		.uleb128 0x7
 1806 01f1 A6030000 		.4byte	.LASF37
 1807 01f5 03       		.byte	0x3
 1808 01f6 AF       		.byte	0xaf
 1809 01f7 03020000 		.4byte	0x203
 1810 01fb 08       		.byte	0x8
 1811 01fc 00       		.byte	0
 1812 01fd 09       		.uleb128 0x9
 1813 01fe 04       		.byte	0x4
 1814 01ff B0000000 		.4byte	0xb0
 1815 0203 09       		.uleb128 0x9
 1816 0204 04       		.byte	0x4
 1817 0205 C5010000 		.4byte	0x1c5
 1818 0209 08       		.uleb128 0x8
 1819 020a 1B000000 		.4byte	.LASF38
 1820 020e 03       		.byte	0x3
 1821 020f B0       		.byte	0xb0
 1822 0210 D0010000 		.4byte	0x1d0
 1823 0214 06       		.uleb128 0x6
 1824 0215 20       		.byte	0x20
 1825 0216 03       		.byte	0x3
 1826 0217 C6       		.byte	0xc6
 1827 0218 29020000 		.4byte	0x229
 1828 021c 07       		.uleb128 0x7
 1829 021d D3070000 		.4byte	.LASF39
 1830 0221 03       		.byte	0x3
 1831 0222 C8       		.byte	0xc8
 1832 0223 29020000 		.4byte	0x229
 1833 0227 00       		.byte	0
 1834 0228 00       		.byte	0
 1835 0229 0A       		.uleb128 0xa
 1836 022a 83000000 		.4byte	0x83
 1837 022e 39020000 		.4byte	0x239
 1838 0232 0B       		.uleb128 0xb
 1839 0233 C1000000 		.4byte	0xc1
 1840 0237 07       		.byte	0x7
 1841 0238 00       		.byte	0
 1842 0239 08       		.uleb128 0x8
 1843 023a 02060000 		.4byte	.LASF40
 1844 023e 03       		.byte	0x3
 1845 023f C9       		.byte	0xc9
 1846 0240 14020000 		.4byte	0x214
 1847 0244 0C       		.uleb128 0xc
 1848 0245 0A       		.byte	0xa
 1849 0246 04       		.byte	0x4
 1850 0247 6D01     		.2byte	0x16d
 1851 0249 D0020000 		.4byte	0x2d0
 1852 024d 0D       		.uleb128 0xd
 1853 024e 9A050000 		.4byte	.LASF41
 1854 0252 04       		.byte	0x4
 1855 0253 6F01     		.2byte	0x16f
 1856 0255 6B000000 		.4byte	0x6b
 1857 0259 00       		.byte	0
 1858 025a 0D       		.uleb128 0xd
 1859 025b 0E020000 		.4byte	.LASF42
 1860 025f 04       		.byte	0x4
 1861 0260 7001     		.2byte	0x170
ARM GAS  C:\Users\essele\AppData\Local\Temp\cczrtAYv.s 			page 54


 1862 0262 6B000000 		.4byte	0x6b
 1863 0266 01       		.byte	0x1
 1864 0267 0D       		.uleb128 0xd
 1865 0268 29010000 		.4byte	.LASF43
 1866 026c 04       		.byte	0x4
 1867 026d 7101     		.2byte	0x171
 1868 026f 6B000000 		.4byte	0x6b
 1869 0273 02       		.byte	0x2
 1870 0274 0D       		.uleb128 0xd
 1871 0275 C9030000 		.4byte	.LASF44
 1872 0279 04       		.byte	0x4
 1873 027a 7201     		.2byte	0x172
 1874 027c 6B000000 		.4byte	0x6b
 1875 0280 03       		.byte	0x3
 1876 0281 0D       		.uleb128 0xd
 1877 0282 00000000 		.4byte	.LASF45
 1878 0286 04       		.byte	0x4
 1879 0287 7301     		.2byte	0x173
 1880 0289 6B000000 		.4byte	0x6b
 1881 028d 04       		.byte	0x4
 1882 028e 0D       		.uleb128 0xd
 1883 028f F8050000 		.4byte	.LASF46
 1884 0293 04       		.byte	0x4
 1885 0294 7401     		.2byte	0x174
 1886 0296 6B000000 		.4byte	0x6b
 1887 029a 05       		.byte	0x5
 1888 029b 0D       		.uleb128 0xd
 1889 029c CC050000 		.4byte	.LASF33
 1890 02a0 04       		.byte	0x4
 1891 02a1 7501     		.2byte	0x175
 1892 02a3 6B000000 		.4byte	0x6b
 1893 02a7 06       		.byte	0x6
 1894 02a8 0D       		.uleb128 0xd
 1895 02a9 1C020000 		.4byte	.LASF47
 1896 02ad 04       		.byte	0x4
 1897 02ae 7601     		.2byte	0x176
 1898 02b0 6B000000 		.4byte	0x6b
 1899 02b4 07       		.byte	0x7
 1900 02b5 0D       		.uleb128 0xd
 1901 02b6 28000000 		.4byte	.LASF48
 1902 02ba 04       		.byte	0x4
 1903 02bb 7701     		.2byte	0x177
 1904 02bd 6B000000 		.4byte	0x6b
 1905 02c1 08       		.byte	0x8
 1906 02c2 0D       		.uleb128 0xd
 1907 02c3 82050000 		.4byte	.LASF49
 1908 02c7 04       		.byte	0x4
 1909 02c8 7801     		.2byte	0x178
 1910 02ca 6B000000 		.4byte	0x6b
 1911 02ce 09       		.byte	0x9
 1912 02cf 00       		.byte	0
 1913 02d0 04       		.uleb128 0x4
 1914 02d1 0E010000 		.4byte	.LASF50
 1915 02d5 04       		.byte	0x4
 1916 02d6 7901     		.2byte	0x179
 1917 02d8 44020000 		.4byte	0x244
 1918 02dc 0E       		.uleb128 0xe
ARM GAS  C:\Users\essele\AppData\Local\Temp\cczrtAYv.s 			page 55


 1919 02dd 30010000 		.4byte	.LASF122
 1920 02e1 01       		.byte	0x1
 1921 02e2 8401     		.2byte	0x184
 1922 02e4 77000000 		.4byte	0x77
 1923 02e8 00000000 		.4byte	.LFB5
 1924 02ec 12000000 		.4byte	.LFE5-.LFB5
 1925 02f0 01       		.uleb128 0x1
 1926 02f1 9C       		.byte	0x9c
 1927 02f2 17030000 		.4byte	0x317
 1928 02f6 0F       		.uleb128 0xf
 1929 02f7 FE030000 		.4byte	.LASF51
 1930 02fb 01       		.byte	0x1
 1931 02fc 8401     		.2byte	0x184
 1932 02fe 17030000 		.4byte	0x317
 1933 0302 00000000 		.4byte	.LLST0
 1934 0306 10       		.uleb128 0x10
 1935 0307 6C656E00 		.ascii	"len\000"
 1936 030b 01       		.byte	0x1
 1937 030c 8601     		.2byte	0x186
 1938 030e 77000000 		.4byte	0x77
 1939 0312 1E000000 		.4byte	.LLST1
 1940 0316 00       		.byte	0
 1941 0317 09       		.uleb128 0x9
 1942 0318 04       		.byte	0x4
 1943 0319 1D030000 		.4byte	0x31d
 1944 031d 11       		.uleb128 0x11
 1945 031e 9D000000 		.4byte	0x9d
 1946 0322 12       		.uleb128 0x12
 1947 0323 20040000 		.4byte	.LASF54
 1948 0327 01       		.byte	0x1
 1949 0328 EF       		.byte	0xef
 1950 0329 6B000000 		.4byte	0x6b
 1951 032d 00000000 		.4byte	.LFB2
 1952 0331 38000000 		.4byte	.LFE2-.LFB2
 1953 0335 01       		.uleb128 0x1
 1954 0336 9C       		.byte	0x9c
 1955 0337 78030000 		.4byte	0x378
 1956 033b 13       		.uleb128 0x13
 1957 033c 35000000 		.4byte	.LASF26
 1958 0340 01       		.byte	0x1
 1959 0341 EF       		.byte	0xef
 1960 0342 6B000000 		.4byte	0x6b
 1961 0346 48000000 		.4byte	.LLST2
 1962 034a 14       		.uleb128 0x14
 1963 034b 92050000 		.4byte	.LASF52
 1964 034f 01       		.byte	0x1
 1965 0350 F1       		.byte	0xf1
 1966 0351 6B000000 		.4byte	0x6b
 1967 0355 69000000 		.4byte	.LLST3
 1968 0359 15       		.uleb128 0x15
 1969 035a 72657300 		.ascii	"res\000"
 1970 035e 01       		.byte	0x1
 1971 035f F2       		.byte	0xf2
 1972 0360 6B000000 		.4byte	0x6b
 1973 0364 93000000 		.4byte	.LLST4
 1974 0368 14       		.uleb128 0x14
 1975 0369 27020000 		.4byte	.LASF53
ARM GAS  C:\Users\essele\AppData\Local\Temp\cczrtAYv.s 			page 56


 1976 036d 01       		.byte	0x1
 1977 036e F3       		.byte	0xf3
 1978 036f 6B000000 		.4byte	0x6b
 1979 0373 BE000000 		.4byte	.LLST5
 1980 0377 00       		.byte	0
 1981 0378 12       		.uleb128 0x12
 1982 0379 83000000 		.4byte	.LASF55
 1983 037d 01       		.byte	0x1
 1984 037e 9B       		.byte	0x9b
 1985 037f 6B000000 		.4byte	0x6b
 1986 0383 00000000 		.4byte	.LFB1
 1987 0387 98000000 		.4byte	.LFE1-.LFB1
 1988 038b 01       		.uleb128 0x1
 1989 038c 9C       		.byte	0x9c
 1990 038d D4030000 		.4byte	0x3d4
 1991 0391 14       		.uleb128 0x14
 1992 0392 6B040000 		.4byte	.LASF56
 1993 0396 01       		.byte	0x1
 1994 0397 9D       		.byte	0x9d
 1995 0398 6B000000 		.4byte	0x6b
 1996 039c D1000000 		.4byte	.LLST6
 1997 03a0 14       		.uleb128 0x14
 1998 03a1 92050000 		.4byte	.LASF52
 1999 03a5 01       		.byte	0x1
 2000 03a6 9E       		.byte	0x9e
 2001 03a7 6B000000 		.4byte	0x6b
 2002 03ab 35010000 		.4byte	.LLST7
 2003 03af 16       		.uleb128 0x16
 2004 03b0 0C000000 		.4byte	.LVL18
 2005 03b4 22030000 		.4byte	0x322
 2006 03b8 16       		.uleb128 0x16
 2007 03b9 2C000000 		.4byte	.LVL20
 2008 03bd AF0A0000 		.4byte	0xaaf
 2009 03c1 16       		.uleb128 0x16
 2010 03c2 5C000000 		.4byte	.LVL22
 2011 03c6 BA0A0000 		.4byte	0xaba
 2012 03ca 16       		.uleb128 0x16
 2013 03cb 7A000000 		.4byte	.LVL24
 2014 03cf C50A0000 		.4byte	0xac5
 2015 03d3 00       		.byte	0
 2016 03d4 17       		.uleb128 0x17
 2017 03d5 BB020000 		.4byte	.LASF57
 2018 03d9 01       		.byte	0x1
 2019 03da 2501     		.2byte	0x125
 2020 03dc 6B000000 		.4byte	0x6b
 2021 03e0 00000000 		.4byte	.LFB3
 2022 03e4 94000000 		.4byte	.LFE3-.LFB3
 2023 03e8 01       		.uleb128 0x1
 2024 03e9 9C       		.byte	0x9c
 2025 03ea 28040000 		.4byte	0x428
 2026 03ee 18       		.uleb128 0x18
 2027 03ef 92050000 		.4byte	.LASF52
 2028 03f3 01       		.byte	0x1
 2029 03f4 2701     		.2byte	0x127
 2030 03f6 6B000000 		.4byte	0x6b
 2031 03fa 74010000 		.4byte	.LLST8
 2032 03fe 18       		.uleb128 0x18
ARM GAS  C:\Users\essele\AppData\Local\Temp\cczrtAYv.s 			page 57


 2033 03ff E4030000 		.4byte	.LASF58
 2034 0403 01       		.byte	0x1
 2035 0404 2801     		.2byte	0x128
 2036 0406 6B000000 		.4byte	0x6b
 2037 040a 9E010000 		.4byte	.LLST9
 2038 040e 10       		.uleb128 0x10
 2039 040f 72657400 		.ascii	"ret\000"
 2040 0413 01       		.byte	0x1
 2041 0414 2901     		.2byte	0x129
 2042 0416 6B000000 		.4byte	0x6b
 2043 041a B1010000 		.4byte	.LLST10
 2044 041e 16       		.uleb128 0x16
 2045 041f 24000000 		.4byte	.LVL33
 2046 0423 D00A0000 		.4byte	0xad0
 2047 0427 00       		.byte	0
 2048 0428 19       		.uleb128 0x19
 2049 0429 E0000000 		.4byte	.LASF60
 2050 042d 01       		.byte	0x1
 2051 042e 6601     		.2byte	0x166
 2052 0430 00000000 		.4byte	.LFB4
 2053 0434 50000000 		.4byte	.LFE4-.LFB4
 2054 0438 01       		.uleb128 0x1
 2055 0439 9C       		.byte	0x9c
 2056 043a 9E040000 		.4byte	0x49e
 2057 043e 0F       		.uleb128 0xf
 2058 043f 3E030000 		.4byte	.LASF36
 2059 0443 01       		.byte	0x1
 2060 0444 6601     		.2byte	0x166
 2061 0446 9E040000 		.4byte	0x49e
 2062 044a D0010000 		.4byte	.LLST11
 2063 044e 0F       		.uleb128 0xf
 2064 044f CC050000 		.4byte	.LASF33
 2065 0453 01       		.byte	0x1
 2066 0454 6601     		.2byte	0x166
 2067 0456 77000000 		.4byte	0x77
 2068 045a FC010000 		.4byte	.LLST12
 2069 045e 18       		.uleb128 0x18
 2070 045f C0040000 		.4byte	.LASF59
 2071 0463 01       		.byte	0x1
 2072 0464 6801     		.2byte	0x168
 2073 0466 6B000000 		.4byte	0x6b
 2074 046a 1A020000 		.4byte	.LLST13
 2075 046e 1A       		.uleb128 0x1a
 2076 046f 36000000 		.4byte	.LVL42
 2077 0473 DC0A0000 		.4byte	0xadc
 2078 0477 81040000 		.4byte	0x481
 2079 047b 1B       		.uleb128 0x1b
 2080 047c 01       		.uleb128 0x1
 2081 047d 50       		.byte	0x50
 2082 047e 01       		.uleb128 0x1
 2083 047f 30       		.byte	0x30
 2084 0480 00       		.byte	0
 2085 0481 1C       		.uleb128 0x1c
 2086 0482 40000000 		.4byte	.LVL43
 2087 0486 E70A0000 		.4byte	0xae7
 2088 048a 1B       		.uleb128 0x1b
 2089 048b 01       		.uleb128 0x1
ARM GAS  C:\Users\essele\AppData\Local\Temp\cczrtAYv.s 			page 58


 2090 048c 50       		.byte	0x50
 2091 048d 02       		.uleb128 0x2
 2092 048e 74       		.byte	0x74
 2093 048f 00       		.sleb128 0
 2094 0490 1B       		.uleb128 0x1b
 2095 0491 01       		.uleb128 0x1
 2096 0492 51       		.byte	0x51
 2097 0493 02       		.uleb128 0x2
 2098 0494 76       		.byte	0x76
 2099 0495 00       		.sleb128 0
 2100 0496 1B       		.uleb128 0x1b
 2101 0497 01       		.uleb128 0x1
 2102 0498 52       		.byte	0x52
 2103 0499 02       		.uleb128 0x2
 2104 049a 75       		.byte	0x75
 2105 049b 00       		.sleb128 0
 2106 049c 00       		.byte	0
 2107 049d 00       		.byte	0
 2108 049e 09       		.uleb128 0x9
 2109 049f 04       		.byte	0x4
 2110 04a0 A4040000 		.4byte	0x4a4
 2111 04a4 11       		.uleb128 0x11
 2112 04a5 6B000000 		.4byte	0x6b
 2113 04a9 19       		.uleb128 0x19
 2114 04aa 1A060000 		.4byte	.LASF61
 2115 04ae 01       		.byte	0x1
 2116 04af A901     		.2byte	0x1a9
 2117 04b1 00000000 		.4byte	.LFB6
 2118 04b5 A8000000 		.4byte	.LFE6-.LFB6
 2119 04b9 01       		.uleb128 0x1
 2120 04ba 9C       		.byte	0x9c
 2121 04bb 61050000 		.4byte	0x561
 2122 04bf 0F       		.uleb128 0xf
 2123 04c0 FE030000 		.4byte	.LASF51
 2124 04c4 01       		.byte	0x1
 2125 04c5 A901     		.2byte	0x1a9
 2126 04c7 17030000 		.4byte	0x317
 2127 04cb 2D020000 		.4byte	.LLST14
 2128 04cf 18       		.uleb128 0x18
 2129 04d0 4A050000 		.4byte	.LASF62
 2130 04d4 01       		.byte	0x1
 2131 04d5 AB01     		.2byte	0x1ab
 2132 04d7 77000000 		.4byte	0x77
 2133 04db 59020000 		.4byte	.LLST15
 2134 04df 18       		.uleb128 0x18
 2135 04e0 B8070000 		.4byte	.LASF63
 2136 04e4 01       		.byte	0x1
 2137 04e5 AC01     		.2byte	0x1ac
 2138 04e7 77000000 		.4byte	0x77
 2139 04eb 82020000 		.4byte	.LLST16
 2140 04ef 18       		.uleb128 0x18
 2141 04f0 B7040000 		.4byte	.LASF64
 2142 04f4 01       		.byte	0x1
 2143 04f5 AD01     		.2byte	0x1ad
 2144 04f7 77000000 		.4byte	0x77
 2145 04fb 95020000 		.4byte	.LLST17
 2146 04ff 18       		.uleb128 0x18
ARM GAS  C:\Users\essele\AppData\Local\Temp\cczrtAYv.s 			page 59


 2147 0500 C0040000 		.4byte	.LASF59
 2148 0504 01       		.byte	0x1
 2149 0505 AF01     		.2byte	0x1af
 2150 0507 6B000000 		.4byte	0x6b
 2151 050b BF020000 		.4byte	.LLST18
 2152 050f 1A       		.uleb128 0x1a
 2153 0510 18000000 		.4byte	.LVL50
 2154 0514 DC020000 		.4byte	0x2dc
 2155 0518 23050000 		.4byte	0x523
 2156 051c 1B       		.uleb128 0x1b
 2157 051d 01       		.uleb128 0x1
 2158 051e 50       		.byte	0x50
 2159 051f 02       		.uleb128 0x2
 2160 0520 78       		.byte	0x78
 2161 0521 00       		.sleb128 0
 2162 0522 00       		.byte	0
 2163 0523 1A       		.uleb128 0x1a
 2164 0524 50000000 		.4byte	.LVL54
 2165 0528 E70A0000 		.4byte	0xae7
 2166 052c 46050000 		.4byte	0x546
 2167 0530 1B       		.uleb128 0x1b
 2168 0531 01       		.uleb128 0x1
 2169 0532 50       		.byte	0x50
 2170 0533 02       		.uleb128 0x2
 2171 0534 74       		.byte	0x74
 2172 0535 00       		.sleb128 0
 2173 0536 1B       		.uleb128 0x1b
 2174 0537 01       		.uleb128 0x1
 2175 0538 51       		.byte	0x51
 2176 0539 05       		.uleb128 0x5
 2177 053a 78       		.byte	0x78
 2178 053b 00       		.sleb128 0
 2179 053c 77       		.byte	0x77
 2180 053d 00       		.sleb128 0
 2181 053e 22       		.byte	0x22
 2182 053f 1B       		.uleb128 0x1b
 2183 0540 01       		.uleb128 0x1
 2184 0541 52       		.byte	0x52
 2185 0542 02       		.uleb128 0x2
 2186 0543 79       		.byte	0x79
 2187 0544 00       		.sleb128 0
 2188 0545 00       		.byte	0
 2189 0546 1C       		.uleb128 0x1c
 2190 0547 8E000000 		.4byte	.LVL59
 2191 054b E70A0000 		.4byte	0xae7
 2192 054f 1B       		.uleb128 0x1b
 2193 0550 01       		.uleb128 0x1
 2194 0551 50       		.byte	0x50
 2195 0552 02       		.uleb128 0x2
 2196 0553 74       		.byte	0x74
 2197 0554 00       		.sleb128 0
 2198 0555 1B       		.uleb128 0x1b
 2199 0556 01       		.uleb128 0x1
 2200 0557 51       		.byte	0x51
 2201 0558 01       		.uleb128 0x1
 2202 0559 30       		.byte	0x30
 2203 055a 1B       		.uleb128 0x1b
ARM GAS  C:\Users\essele\AppData\Local\Temp\cczrtAYv.s 			page 60


 2204 055b 01       		.uleb128 0x1
 2205 055c 52       		.byte	0x52
 2206 055d 01       		.uleb128 0x1
 2207 055e 30       		.byte	0x30
 2208 055f 00       		.byte	0
 2209 0560 00       		.byte	0
 2210 0561 19       		.uleb128 0x19
 2211 0562 73000000 		.4byte	.LASF65
 2212 0566 01       		.byte	0x1
 2213 0567 E801     		.2byte	0x1e8
 2214 0569 00000000 		.4byte	.LFB7
 2215 056d 28000000 		.4byte	.LFE7-.LFB7
 2216 0571 01       		.uleb128 0x1
 2217 0572 9C       		.byte	0x9c
 2218 0573 AC050000 		.4byte	0x5ac
 2219 0577 0F       		.uleb128 0xf
 2220 0578 F0000000 		.4byte	.LASF66
 2221 057c 01       		.byte	0x1
 2222 057d E801     		.2byte	0x1e8
 2223 057f 9D000000 		.4byte	0x9d
 2224 0583 D2020000 		.4byte	.LLST19
 2225 0587 1D       		.uleb128 0x1d
 2226 0588 12000000 		.4byte	.LASF67
 2227 058c 01       		.byte	0x1
 2228 058d EA01     		.2byte	0x1ea
 2229 058f 6B000000 		.4byte	0x6b
 2230 0593 02       		.uleb128 0x2
 2231 0594 91       		.byte	0x91
 2232 0595 77       		.sleb128 -9
 2233 0596 1C       		.uleb128 0x1c
 2234 0597 1A000000 		.4byte	.LVL67
 2235 059b E70A0000 		.4byte	0xae7
 2236 059f 1B       		.uleb128 0x1b
 2237 05a0 01       		.uleb128 0x1
 2238 05a1 51       		.byte	0x51
 2239 05a2 02       		.uleb128 0x2
 2240 05a3 7D       		.byte	0x7d
 2241 05a4 07       		.sleb128 7
 2242 05a5 1B       		.uleb128 0x1b
 2243 05a6 01       		.uleb128 0x1
 2244 05a7 52       		.byte	0x52
 2245 05a8 01       		.uleb128 0x1
 2246 05a9 31       		.byte	0x31
 2247 05aa 00       		.byte	0
 2248 05ab 00       		.byte	0
 2249 05ac 19       		.uleb128 0x19
 2250 05ad C3070000 		.4byte	.LASF68
 2251 05b1 01       		.byte	0x1
 2252 05b2 0102     		.2byte	0x201
 2253 05b4 00000000 		.4byte	.LFB8
 2254 05b8 30000000 		.4byte	.LFE8-.LFB8
 2255 05bc 01       		.uleb128 0x1
 2256 05bd 9C       		.byte	0x9c
 2257 05be 09060000 		.4byte	0x609
 2258 05c2 1D       		.uleb128 0x1d
 2259 05c3 5F030000 		.4byte	.LASF69
 2260 05c7 01       		.byte	0x1
ARM GAS  C:\Users\essele\AppData\Local\Temp\cczrtAYv.s 			page 61


 2261 05c8 0302     		.2byte	0x203
 2262 05ca 19060000 		.4byte	0x619
 2263 05ce 02       		.uleb128 0x2
 2264 05cf 91       		.byte	0x91
 2265 05d0 74       		.sleb128 -12
 2266 05d1 1A       		.uleb128 0x1a
 2267 05d2 0E000000 		.4byte	.LVL68
 2268 05d6 F30A0000 		.4byte	0xaf3
 2269 05da F3050000 		.4byte	0x5f3
 2270 05de 1B       		.uleb128 0x1b
 2271 05df 01       		.uleb128 0x1
 2272 05e0 50       		.byte	0x50
 2273 05e1 02       		.uleb128 0x2
 2274 05e2 91       		.byte	0x91
 2275 05e3 74       		.sleb128 -12
 2276 05e4 1B       		.uleb128 0x1b
 2277 05e5 01       		.uleb128 0x1
 2278 05e6 51       		.byte	0x51
 2279 05e7 05       		.uleb128 0x5
 2280 05e8 03       		.byte	0x3
 2281 05e9 00000000 		.4byte	.LANCHOR2
 2282 05ed 1B       		.uleb128 0x1b
 2283 05ee 01       		.uleb128 0x1
 2284 05ef 52       		.byte	0x52
 2285 05f0 01       		.uleb128 0x1
 2286 05f1 32       		.byte	0x32
 2287 05f2 00       		.byte	0
 2288 05f3 1C       		.uleb128 0x1c
 2289 05f4 20000000 		.4byte	.LVL69
 2290 05f8 E70A0000 		.4byte	0xae7
 2291 05fc 1B       		.uleb128 0x1b
 2292 05fd 01       		.uleb128 0x1
 2293 05fe 51       		.byte	0x51
 2294 05ff 02       		.uleb128 0x2
 2295 0600 91       		.byte	0x91
 2296 0601 74       		.sleb128 -12
 2297 0602 1B       		.uleb128 0x1b
 2298 0603 01       		.uleb128 0x1
 2299 0604 52       		.byte	0x52
 2300 0605 01       		.uleb128 0x1
 2301 0606 32       		.byte	0x32
 2302 0607 00       		.byte	0
 2303 0608 00       		.byte	0
 2304 0609 0A       		.uleb128 0xa
 2305 060a A4040000 		.4byte	0x4a4
 2306 060e 19060000 		.4byte	0x619
 2307 0612 0B       		.uleb128 0xb
 2308 0613 C1000000 		.4byte	0xc1
 2309 0617 01       		.byte	0x1
 2310 0618 00       		.byte	0
 2311 0619 11       		.uleb128 0x11
 2312 061a 09060000 		.4byte	0x609
 2313 061e 17       		.uleb128 0x17
 2314 061f 65050000 		.4byte	.LASF70
 2315 0623 01       		.byte	0x1
 2316 0624 1B02     		.2byte	0x21b
 2317 0626 77000000 		.4byte	0x77
ARM GAS  C:\Users\essele\AppData\Local\Temp\cczrtAYv.s 			page 62


 2318 062a 00000000 		.4byte	.LFB9
 2319 062e 34000000 		.4byte	.LFE9-.LFB9
 2320 0632 01       		.uleb128 0x1
 2321 0633 9C       		.byte	0x9c
 2322 0634 62060000 		.4byte	0x662
 2323 0638 18       		.uleb128 0x18
 2324 0639 C1050000 		.4byte	.LASF71
 2325 063d 01       		.byte	0x1
 2326 063e 1D02     		.2byte	0x21d
 2327 0640 77000000 		.4byte	0x77
 2328 0644 FF020000 		.4byte	.LLST20
 2329 0648 18       		.uleb128 0x18
 2330 0649 C0040000 		.4byte	.LASF59
 2331 064d 01       		.byte	0x1
 2332 064e 1F02     		.2byte	0x21f
 2333 0650 6B000000 		.4byte	0x6b
 2334 0654 1D030000 		.4byte	.LLST21
 2335 0658 16       		.uleb128 0x16
 2336 0659 20000000 		.4byte	.LVL71
 2337 065d FC0A0000 		.4byte	0xafc
 2338 0661 00       		.byte	0
 2339 0662 17       		.uleb128 0x17
 2340 0663 2C060000 		.4byte	.LASF72
 2341 0667 01       		.byte	0x1
 2342 0668 4102     		.2byte	0x241
 2343 066a 6B000000 		.4byte	0x6b
 2344 066e 00000000 		.4byte	.LFB10
 2345 0672 1C000000 		.4byte	.LFE10-.LFB10
 2346 0676 01       		.uleb128 0x1
 2347 0677 9C       		.byte	0x9c
 2348 0678 86060000 		.4byte	0x686
 2349 067c 16       		.uleb128 0x16
 2350 067d 10000000 		.4byte	.LVL74
 2351 0681 080B0000 		.4byte	0xb08
 2352 0685 00       		.byte	0
 2353 0686 17       		.uleb128 0x17
 2354 0687 5B060000 		.4byte	.LASF73
 2355 068b 01       		.byte	0x1
 2356 068c 5A02     		.2byte	0x25a
 2357 068e 6B000000 		.4byte	0x6b
 2358 0692 00000000 		.4byte	.LFB11
 2359 0696 1C000000 		.4byte	.LFE11-.LFB11
 2360 069a 01       		.uleb128 0x1
 2361 069b 9C       		.byte	0x9c
 2362 069c AA060000 		.4byte	0x6aa
 2363 06a0 16       		.uleb128 0x16
 2364 06a1 10000000 		.4byte	.LVL75
 2365 06a5 080B0000 		.4byte	0xb08
 2366 06a9 00       		.byte	0
 2367 06aa 17       		.uleb128 0x17
 2368 06ab A1040000 		.4byte	.LASF74
 2369 06af 01       		.byte	0x1
 2370 06b0 7D02     		.2byte	0x27d
 2371 06b2 77000000 		.4byte	0x77
 2372 06b6 00000000 		.4byte	.LFB12
 2373 06ba 20000000 		.4byte	.LFE12-.LFB12
 2374 06be 01       		.uleb128 0x1
ARM GAS  C:\Users\essele\AppData\Local\Temp\cczrtAYv.s 			page 63


 2375 06bf 9C       		.byte	0x9c
 2376 06c0 05070000 		.4byte	0x705
 2377 06c4 0F       		.uleb128 0xf
 2378 06c5 3E030000 		.4byte	.LASF36
 2379 06c9 01       		.byte	0x1
 2380 06ca 7D02     		.2byte	0x27d
 2381 06cc 05070000 		.4byte	0x705
 2382 06d0 3B030000 		.4byte	.LLST22
 2383 06d4 0F       		.uleb128 0xf
 2384 06d5 CC050000 		.4byte	.LASF33
 2385 06d9 01       		.byte	0x1
 2386 06da 7D02     		.2byte	0x27d
 2387 06dc 77000000 		.4byte	0x77
 2388 06e0 67030000 		.4byte	.LLST23
 2389 06e4 18       		.uleb128 0x18
 2390 06e5 C0040000 		.4byte	.LASF59
 2391 06e9 01       		.byte	0x1
 2392 06ea 7F02     		.2byte	0x27f
 2393 06ec 6B000000 		.4byte	0x6b
 2394 06f0 93030000 		.4byte	.LLST24
 2395 06f4 1C       		.uleb128 0x1c
 2396 06f5 16000000 		.4byte	.LVL79
 2397 06f9 140B0000 		.4byte	0xb14
 2398 06fd 1B       		.uleb128 0x1b
 2399 06fe 01       		.uleb128 0x1
 2400 06ff 51       		.byte	0x51
 2401 0700 02       		.uleb128 0x2
 2402 0701 74       		.byte	0x74
 2403 0702 00       		.sleb128 0
 2404 0703 00       		.byte	0
 2405 0704 00       		.byte	0
 2406 0705 09       		.uleb128 0x9
 2407 0706 04       		.byte	0x4
 2408 0707 6B000000 		.4byte	0x6b
 2409 070b 17       		.uleb128 0x17
 2410 070c EF030000 		.4byte	.LASF75
 2411 0710 01       		.byte	0x1
 2412 0711 AA02     		.2byte	0x2aa
 2413 0713 77000000 		.4byte	0x77
 2414 0717 00000000 		.4byte	.LFB13
 2415 071b 30000000 		.4byte	.LFE13-.LFB13
 2416 071f 01       		.uleb128 0x1
 2417 0720 9C       		.byte	0x9c
 2418 0721 65070000 		.4byte	0x765
 2419 0725 0F       		.uleb128 0xf
 2420 0726 3E030000 		.4byte	.LASF36
 2421 072a 01       		.byte	0x1
 2422 072b AA02     		.2byte	0x2aa
 2423 072d 05070000 		.4byte	0x705
 2424 0731 A6030000 		.4byte	.LLST25
 2425 0735 18       		.uleb128 0x18
 2426 0736 C0040000 		.4byte	.LASF59
 2427 073a 01       		.byte	0x1
 2428 073b AC02     		.2byte	0x2ac
 2429 073d 6B000000 		.4byte	0x6b
 2430 0741 D2030000 		.4byte	.LLST26
 2431 0745 1D       		.uleb128 0x1d
ARM GAS  C:\Users\essele\AppData\Local\Temp\cczrtAYv.s 			page 64


 2432 0746 D2060000 		.4byte	.LASF76
 2433 074a 01       		.byte	0x1
 2434 074b AD02     		.2byte	0x2ad
 2435 074d 77000000 		.4byte	0x77
 2436 0751 01       		.uleb128 0x1
 2437 0752 50       		.byte	0x50
 2438 0753 1C       		.uleb128 0x1c
 2439 0754 20000000 		.4byte	.LVL83
 2440 0758 140B0000 		.4byte	0xb14
 2441 075c 1B       		.uleb128 0x1b
 2442 075d 01       		.uleb128 0x1
 2443 075e 51       		.byte	0x51
 2444 075f 03       		.uleb128 0x3
 2445 0760 F3       		.byte	0xf3
 2446 0761 01       		.uleb128 0x1
 2447 0762 50       		.byte	0x50
 2448 0763 00       		.byte	0
 2449 0764 00       		.byte	0
 2450 0765 17       		.uleb128 0x17
 2451 0766 54040000 		.4byte	.LASF77
 2452 076a 01       		.byte	0x1
 2453 076b D102     		.2byte	0x2d1
 2454 076d 6B000000 		.4byte	0x6b
 2455 0771 00000000 		.4byte	.LFB14
 2456 0775 28000000 		.4byte	.LFE14-.LFB14
 2457 0779 01       		.uleb128 0x1
 2458 077a 9C       		.byte	0x9c
 2459 077b B4070000 		.4byte	0x7b4
 2460 077f 1D       		.uleb128 0x1d
 2461 0780 52000000 		.4byte	.LASF78
 2462 0784 01       		.byte	0x1
 2463 0785 D302     		.2byte	0x2d3
 2464 0787 6B000000 		.4byte	0x6b
 2465 078b 02       		.uleb128 0x2
 2466 078c 91       		.byte	0x91
 2467 078d 77       		.sleb128 -9
 2468 078e 18       		.uleb128 0x18
 2469 078f C0040000 		.4byte	.LASF59
 2470 0793 01       		.byte	0x1
 2471 0794 D402     		.2byte	0x2d4
 2472 0796 6B000000 		.4byte	0x6b
 2473 079a E5030000 		.4byte	.LLST27
 2474 079e 1C       		.uleb128 0x1c
 2475 079f 1A000000 		.4byte	.LVL85
 2476 07a3 140B0000 		.4byte	0xb14
 2477 07a7 1B       		.uleb128 0x1b
 2478 07a8 01       		.uleb128 0x1
 2479 07a9 51       		.byte	0x51
 2480 07aa 02       		.uleb128 0x2
 2481 07ab 74       		.byte	0x74
 2482 07ac 00       		.sleb128 0
 2483 07ad 1B       		.uleb128 0x1b
 2484 07ae 01       		.uleb128 0x1
 2485 07af 52       		.byte	0x52
 2486 07b0 01       		.uleb128 0x1
 2487 07b1 31       		.byte	0x31
 2488 07b2 00       		.byte	0
ARM GAS  C:\Users\essele\AppData\Local\Temp\cczrtAYv.s 			page 65


 2489 07b3 00       		.byte	0
 2490 07b4 17       		.uleb128 0x17
 2491 07b5 F8010000 		.4byte	.LASF79
 2492 07b9 01       		.byte	0x1
 2493 07ba 0203     		.2byte	0x302
 2494 07bc 6B000000 		.4byte	0x6b
 2495 07c0 00000000 		.4byte	.LFB15
 2496 07c4 34000000 		.4byte	.LFE15-.LFB15
 2497 07c8 01       		.uleb128 0x1
 2498 07c9 9C       		.byte	0x9c
 2499 07ca DF070000 		.4byte	0x7df
 2500 07ce 18       		.uleb128 0x18
 2501 07cf DD060000 		.4byte	.LASF80
 2502 07d3 01       		.byte	0x1
 2503 07d4 0403     		.2byte	0x304
 2504 07d6 6B000000 		.4byte	0x6b
 2505 07da F8030000 		.4byte	.LLST28
 2506 07de 00       		.byte	0
 2507 07df 17       		.uleb128 0x17
 2508 07e0 3F000000 		.4byte	.LASF81
 2509 07e4 01       		.byte	0x1
 2510 07e5 2303     		.2byte	0x323
 2511 07e7 83000000 		.4byte	0x83
 2512 07eb 00000000 		.4byte	.LFB16
 2513 07ef 2C000000 		.4byte	.LFE16-.LFB16
 2514 07f3 01       		.uleb128 0x1
 2515 07f4 9C       		.byte	0x9c
 2516 07f5 0A080000 		.4byte	0x80a
 2517 07f9 18       		.uleb128 0x18
 2518 07fa EA030000 		.4byte	.LASF82
 2519 07fe 01       		.byte	0x1
 2520 07ff 2503     		.2byte	0x325
 2521 0801 83000000 		.4byte	0x83
 2522 0805 2E040000 		.4byte	.LLST29
 2523 0809 00       		.byte	0
 2524 080a 1E       		.uleb128 0x1e
 2525 080b B3030000 		.4byte	.LASF83
 2526 080f 01       		.byte	0x1
 2527 0810 4303     		.2byte	0x343
 2528 0812 6B000000 		.4byte	0x6b
 2529 0816 00000000 		.4byte	.LFB17
 2530 081a 1C000000 		.4byte	.LFE17-.LFB17
 2531 081e 01       		.uleb128 0x1
 2532 081f 9C       		.byte	0x9c
 2533 0820 1E       		.uleb128 0x1e
 2534 0821 7C030000 		.4byte	.LASF84
 2535 0825 01       		.byte	0x1
 2536 0826 5D03     		.2byte	0x35d
 2537 0828 6B000000 		.4byte	0x6b
 2538 082c 00000000 		.4byte	.LFB18
 2539 0830 1C000000 		.4byte	.LFE18-.LFB18
 2540 0834 01       		.uleb128 0x1
 2541 0835 9C       		.byte	0x9c
 2542 0836 1E       		.uleb128 0x1e
 2543 0837 0C040000 		.4byte	.LASF85
 2544 083b 01       		.byte	0x1
 2545 083c 7103     		.2byte	0x371
ARM GAS  C:\Users\essele\AppData\Local\Temp\cczrtAYv.s 			page 66


 2546 083e 6B000000 		.4byte	0x6b
 2547 0842 00000000 		.4byte	.LFB19
 2548 0846 1C000000 		.4byte	.LFE19-.LFB19
 2549 084a 01       		.uleb128 0x1
 2550 084b 9C       		.byte	0x9c
 2551 084c 1E       		.uleb128 0x1e
 2552 084d 70010000 		.4byte	.LASF86
 2553 0851 01       		.byte	0x1
 2554 0852 8E03     		.2byte	0x38e
 2555 0854 77000000 		.4byte	0x77
 2556 0858 00000000 		.4byte	.LFB20
 2557 085c 18000000 		.4byte	.LFE20-.LFB20
 2558 0860 01       		.uleb128 0x1
 2559 0861 9C       		.byte	0x9c
 2560 0862 19       		.uleb128 0x19
 2561 0863 C8000000 		.4byte	.LASF87
 2562 0867 01       		.byte	0x1
 2563 0868 A603     		.2byte	0x3a6
 2564 086a 00000000 		.4byte	.LFB21
 2565 086e 60000000 		.4byte	.LFE21-.LFB21
 2566 0872 01       		.uleb128 0x1
 2567 0873 9C       		.byte	0x9c
 2568 0874 B1080000 		.4byte	0x8b1
 2569 0878 0F       		.uleb128 0xf
 2570 0879 D3030000 		.4byte	.LASF88
 2571 087d 01       		.byte	0x1
 2572 087e A603     		.2byte	0x3a6
 2573 0880 77000000 		.4byte	0x77
 2574 0884 67040000 		.4byte	.LLST30
 2575 0888 18       		.uleb128 0x18
 2576 0889 C0040000 		.4byte	.LASF59
 2577 088d 01       		.byte	0x1
 2578 088e A803     		.2byte	0x3a8
 2579 0890 6B000000 		.4byte	0x6b
 2580 0894 97040000 		.4byte	.LLST31
 2581 0898 1C       		.uleb128 0x1c
 2582 0899 48000000 		.4byte	.LVL100
 2583 089d E70A0000 		.4byte	0xae7
 2584 08a1 1B       		.uleb128 0x1b
 2585 08a2 01       		.uleb128 0x1
 2586 08a3 51       		.byte	0x51
 2587 08a4 05       		.uleb128 0x5
 2588 08a5 03       		.byte	0x3
 2589 08a6 10000000 		.4byte	.LANCHOR0+16
 2590 08aa 1B       		.uleb128 0x1b
 2591 08ab 01       		.uleb128 0x1
 2592 08ac 52       		.byte	0x52
 2593 08ad 01       		.uleb128 0x1
 2594 08ae 3A       		.byte	0x3a
 2595 08af 00       		.byte	0
 2596 08b0 00       		.byte	0
 2597 08b1 1E       		.uleb128 0x1e
 2598 08b2 C9040000 		.4byte	.LASF89
 2599 08b6 01       		.byte	0x1
 2600 08b7 C703     		.2byte	0x3c7
 2601 08b9 77000000 		.4byte	0x77
 2602 08bd 00000000 		.4byte	.LFB22
ARM GAS  C:\Users\essele\AppData\Local\Temp\cczrtAYv.s 			page 67


 2603 08c1 18000000 		.4byte	.LFE22-.LFB22
 2604 08c5 01       		.uleb128 0x1
 2605 08c6 9C       		.byte	0x9c
 2606 08c7 1E       		.uleb128 0x1e
 2607 08c8 A6060000 		.4byte	.LASF90
 2608 08cc 01       		.byte	0x1
 2609 08cd DF03     		.2byte	0x3df
 2610 08cf 6B000000 		.4byte	0x6b
 2611 08d3 00000000 		.4byte	.LFB23
 2612 08d7 28000000 		.4byte	.LFE23-.LFB23
 2613 08db 01       		.uleb128 0x1
 2614 08dc 9C       		.byte	0x9c
 2615 08dd 19       		.uleb128 0x19
 2616 08de 9A070000 		.4byte	.LASF91
 2617 08e2 01       		.byte	0x1
 2618 08e3 F703     		.2byte	0x3f7
 2619 08e5 00000000 		.4byte	.LFB24
 2620 08e9 18000000 		.4byte	.LFE24-.LFB24
 2621 08ed 01       		.uleb128 0x1
 2622 08ee 9C       		.byte	0x9c
 2623 08ef 02090000 		.4byte	0x902
 2624 08f3 1F       		.uleb128 0x1f
 2625 08f4 77070000 		.4byte	.LASF92
 2626 08f8 01       		.byte	0x1
 2627 08f9 F703     		.2byte	0x3f7
 2628 08fb 6B000000 		.4byte	0x6b
 2629 08ff 01       		.uleb128 0x1
 2630 0900 50       		.byte	0x50
 2631 0901 00       		.byte	0
 2632 0902 1E       		.uleb128 0x1e
 2633 0903 A0000000 		.4byte	.LASF93
 2634 0907 01       		.byte	0x1
 2635 0908 1004     		.2byte	0x410
 2636 090a 6B000000 		.4byte	0x6b
 2637 090e 00000000 		.4byte	.LFB25
 2638 0912 0C000000 		.4byte	.LFE25-.LFB25
 2639 0916 01       		.uleb128 0x1
 2640 0917 9C       		.byte	0x9c
 2641 0918 17       		.uleb128 0x17
 2642 0919 93060000 		.4byte	.LASF94
 2643 091d 01       		.byte	0x1
 2644 091e 2F04     		.2byte	0x42f
 2645 0920 6B000000 		.4byte	0x6b
 2646 0924 00000000 		.4byte	.LFB26
 2647 0928 5C000000 		.4byte	.LFE26-.LFB26
 2648 092c 01       		.uleb128 0x1
 2649 092d 9C       		.byte	0x9c
 2650 092e 71090000 		.4byte	0x971
 2651 0932 20       		.uleb128 0x20
 2652 0933 70455000 		.ascii	"pEP\000"
 2653 0937 01       		.byte	0x1
 2654 0938 2F04     		.2byte	0x42f
 2655 093a 71090000 		.4byte	0x971
 2656 093e AA040000 		.4byte	.LLST32
 2657 0942 1F       		.uleb128 0x1f
 2658 0943 66000000 		.4byte	.LASF95
 2659 0947 01       		.byte	0x1
ARM GAS  C:\Users\essele\AppData\Local\Temp\cczrtAYv.s 			page 68


 2660 0948 2F04     		.2byte	0x42f
 2661 094a 6B000000 		.4byte	0x6b
 2662 094e 01       		.uleb128 0x1
 2663 094f 51       		.byte	0x51
 2664 0950 0F       		.uleb128 0xf
 2665 0951 38050000 		.4byte	.LASF96
 2666 0955 01       		.byte	0x1
 2667 0956 2F04     		.2byte	0x42f
 2668 0958 6B000000 		.4byte	0x6b
 2669 095c CB040000 		.4byte	.LLST33
 2670 0960 18       		.uleb128 0x18
 2671 0961 64040000 		.4byte	.LASF97
 2672 0965 01       		.byte	0x1
 2673 0966 3104     		.2byte	0x431
 2674 0968 6B000000 		.4byte	0x6b
 2675 096c 29050000 		.4byte	.LLST34
 2676 0970 00       		.byte	0
 2677 0971 09       		.uleb128 0x9
 2678 0972 04       		.byte	0x4
 2679 0973 77090000 		.4byte	0x977
 2680 0977 11       		.uleb128 0x11
 2681 0978 99010000 		.4byte	0x199
 2682 097c 21       		.uleb128 0x21
 2683 097d AD010000 		.4byte	.LASF98
 2684 0981 01       		.byte	0x1
 2685 0982 67       		.byte	0x67
 2686 0983 D0020000 		.4byte	0x2d0
 2687 0987 05       		.uleb128 0x5
 2688 0988 03       		.byte	0x3
 2689 0989 10000000 		.4byte	USBUART_serialStateNotification
 2690 098d 21       		.uleb128 0x21
 2691 098e 55010000 		.4byte	.LASF99
 2692 0992 01       		.byte	0x1
 2693 0993 75       		.byte	0x75
 2694 0994 6B000000 		.4byte	0x6b
 2695 0998 05       		.uleb128 0x5
 2696 0999 03       		.byte	0x3
 2697 099a 00000000 		.4byte	USBUART_activeCom
 2698 099e 22       		.uleb128 0x22
 2699 099f 66030000 		.4byte	.LASF100
 2700 09a3 03       		.byte	0x3
 2701 09a4 D402     		.2byte	0x2d4
 2702 09a6 B0000000 		.4byte	0xb0
 2703 09aa 0A       		.uleb128 0xa
 2704 09ab B0000000 		.4byte	0xb0
 2705 09af C0090000 		.4byte	0x9c0
 2706 09b3 0B       		.uleb128 0xb
 2707 09b4 C1000000 		.4byte	0xc1
 2708 09b8 01       		.byte	0x1
 2709 09b9 0B       		.uleb128 0xb
 2710 09ba C1000000 		.4byte	0xc1
 2711 09be 06       		.byte	0x6
 2712 09bf 00       		.byte	0
 2713 09c0 23       		.uleb128 0x23
 2714 09c1 E3060000 		.4byte	.LASF101
 2715 09c5 01       		.byte	0x1
 2716 09c6 24       		.byte	0x24
ARM GAS  C:\Users\essele\AppData\Local\Temp\cczrtAYv.s 			page 69


 2717 09c7 D1090000 		.4byte	0x9d1
 2718 09cb 05       		.uleb128 0x5
 2719 09cc 03       		.byte	0x3
 2720 09cd 00000000 		.4byte	USBUART_linesCoding
 2721 09d1 05       		.uleb128 0x5
 2722 09d2 AA090000 		.4byte	0x9aa
 2723 09d6 0A       		.uleb128 0xa
 2724 09d7 B0000000 		.4byte	0xb0
 2725 09db E6090000 		.4byte	0x9e6
 2726 09df 0B       		.uleb128 0xb
 2727 09e0 C1000000 		.4byte	0xc1
 2728 09e4 01       		.byte	0x1
 2729 09e5 00       		.byte	0
 2730 09e6 23       		.uleb128 0x23
 2731 09e7 23050000 		.4byte	.LASF102
 2732 09eb 01       		.byte	0x1
 2733 09ec 3A       		.byte	0x3a
 2734 09ed F7090000 		.4byte	0x9f7
 2735 09f1 05       		.uleb128 0x5
 2736 09f2 03       		.byte	0x3
 2737 09f3 00000000 		.4byte	USBUART_linesChanged
 2738 09f7 05       		.uleb128 0x5
 2739 09f8 D6090000 		.4byte	0x9d6
 2740 09fc 0A       		.uleb128 0xa
 2741 09fd B5000000 		.4byte	0xb5
 2742 0a01 0C0A0000 		.4byte	0xa0c
 2743 0a05 0B       		.uleb128 0xb
 2744 0a06 C1000000 		.4byte	0xc1
 2745 0a0a 01       		.byte	0x1
 2746 0a0b 00       		.byte	0
 2747 0a0c 23       		.uleb128 0x23
 2748 0a0d 44030000 		.4byte	.LASF103
 2749 0a11 01       		.byte	0x1
 2750 0a12 40       		.byte	0x40
 2751 0a13 1D0A0000 		.4byte	0xa1d
 2752 0a17 05       		.uleb128 0x5
 2753 0a18 03       		.byte	0x3
 2754 0a19 00000000 		.4byte	USBUART_linesControlBitmap
 2755 0a1d 05       		.uleb128 0x5
 2756 0a1e FC090000 		.4byte	0x9fc
 2757 0a22 23       		.uleb128 0x23
 2758 0a23 87010000 		.4byte	.LASF104
 2759 0a27 01       		.byte	0x1
 2760 0a28 45       		.byte	0x45
 2761 0a29 330A0000 		.4byte	0xa33
 2762 0a2d 05       		.uleb128 0x5
 2763 0a2e 03       		.byte	0x3
 2764 0a2f 00000000 		.4byte	USBUART_serialStateBitmap
 2765 0a33 05       		.uleb128 0x5
 2766 0a34 FC090000 		.4byte	0x9fc
 2767 0a38 23       		.uleb128 0x23
 2768 0a39 92030000 		.4byte	.LASF105
 2769 0a3d 01       		.byte	0x1
 2770 0a3e 4A       		.byte	0x4a
 2771 0a3f 490A0000 		.4byte	0xa49
 2772 0a43 05       		.uleb128 0x5
 2773 0a44 03       		.byte	0x3
ARM GAS  C:\Users\essele\AppData\Local\Temp\cczrtAYv.s 			page 70


 2774 0a45 00000000 		.4byte	USBUART_cdcDataInEp
 2775 0a49 05       		.uleb128 0x5
 2776 0a4a D6090000 		.4byte	0x9d6
 2777 0a4e 23       		.uleb128 0x23
 2778 0a4f B3000000 		.4byte	.LASF106
 2779 0a53 01       		.byte	0x1
 2780 0a54 4F       		.byte	0x4f
 2781 0a55 5F0A0000 		.4byte	0xa5f
 2782 0a59 05       		.uleb128 0x5
 2783 0a5a 03       		.byte	0x3
 2784 0a5b 00000000 		.4byte	USBUART_cdcDataOutEp
 2785 0a5f 05       		.uleb128 0x5
 2786 0a60 D6090000 		.4byte	0x9d6
 2787 0a64 23       		.uleb128 0x23
 2788 0a65 FC040000 		.4byte	.LASF107
 2789 0a69 01       		.byte	0x1
 2790 0a6a 55       		.byte	0x55
 2791 0a6b 750A0000 		.4byte	0xa75
 2792 0a6f 05       		.uleb128 0x5
 2793 0a70 03       		.byte	0x3
 2794 0a71 00000000 		.4byte	USBUART_cdcCommInInterruptEp
 2795 0a75 05       		.uleb128 0x5
 2796 0a76 D6090000 		.4byte	0x9d6
 2797 0a7a 0A       		.uleb128 0xa
 2798 0a7b 8A0A0000 		.4byte	0xa8a
 2799 0a7f 8A0A0000 		.4byte	0xa8a
 2800 0a83 0B       		.uleb128 0xb
 2801 0a84 C1000000 		.4byte	0xc1
 2802 0a88 08       		.byte	0x8
 2803 0a89 00       		.byte	0
 2804 0a8a 05       		.uleb128 0x5
 2805 0a8b 3D010000 		.4byte	0x13d
 2806 0a8f 24       		.uleb128 0x24
 2807 0a90 3F010000 		.4byte	.LASF108
 2808 0a94 04       		.byte	0x4
 2809 0a95 79       		.byte	0x79
 2810 0a96 9A0A0000 		.4byte	0xa9a
 2811 0a9a 05       		.uleb128 0x5
 2812 0a9b 7A0A0000 		.4byte	0xa7a
 2813 0a9f 24       		.uleb128 0x24
 2814 0aa0 81070000 		.4byte	.LASF109
 2815 0aa4 04       		.byte	0x4
 2816 0aa5 7A       		.byte	0x7a
 2817 0aa6 AA0A0000 		.4byte	0xaaa
 2818 0aaa 05       		.uleb128 0x5
 2819 0aab 09020000 		.4byte	0x209
 2820 0aaf 25       		.uleb128 0x25
 2821 0ab0 5F070000 		.4byte	.LASF110
 2822 0ab4 5F070000 		.4byte	.LASF110
 2823 0ab8 04       		.byte	0x4
 2824 0ab9 A9       		.byte	0xa9
 2825 0aba 25       		.uleb128 0x25
 2826 0abb 7A040000 		.4byte	.LASF111
 2827 0abf 7A040000 		.4byte	.LASF111
 2828 0ac3 04       		.byte	0x4
 2829 0ac4 AE       		.byte	0xae
 2830 0ac5 25       		.uleb128 0x25
ARM GAS  C:\Users\essele\AppData\Local\Temp\cczrtAYv.s 			page 71


 2831 0ac6 30070000 		.4byte	.LASF112
 2832 0aca 30070000 		.4byte	.LASF112
 2833 0ace 04       		.byte	0x4
 2834 0acf B3       		.byte	0xb3
 2835 0ad0 26       		.uleb128 0x26
 2836 0ad1 E4010000 		.4byte	.LASF113
 2837 0ad5 E4010000 		.4byte	.LASF113
 2838 0ad9 03       		.byte	0x3
 2839 0ada 3701     		.2byte	0x137
 2840 0adc 25       		.uleb128 0x25
 2841 0add 6C000000 		.4byte	.LASF114
 2842 0ae1 6C000000 		.4byte	.LASF114
 2843 0ae5 05       		.byte	0x5
 2844 0ae6 E7       		.byte	0xe7
 2845 0ae7 26       		.uleb128 0x26
 2846 0ae8 54050000 		.4byte	.LASF115
 2847 0aec 54050000 		.4byte	.LASF115
 2848 0af0 03       		.byte	0x3
 2849 0af1 3301     		.2byte	0x133
 2850 0af3 27       		.uleb128 0x27
 2851 0af4 29070000 		.4byte	.LASF123
 2852 0af8 29070000 		.4byte	.LASF123
 2853 0afc 26       		.uleb128 0x26
 2854 0afd FB000000 		.4byte	.LASF116
 2855 0b01 FB000000 		.4byte	.LASF116
 2856 0b05 03       		.byte	0x3
 2857 0b06 3201     		.2byte	0x132
 2858 0b08 26       		.uleb128 0x26
 2859 0b09 03070000 		.4byte	.LASF117
 2860 0b0d 03070000 		.4byte	.LASF117
 2861 0b11 03       		.byte	0x3
 2862 0b12 3101     		.2byte	0x131
 2863 0b14 26       		.uleb128 0x26
 2864 0b15 2C030000 		.4byte	.LASF118
 2865 0b19 2C030000 		.4byte	.LASF118
 2866 0b1d 03       		.byte	0x3
 2867 0b1e 3501     		.2byte	0x135
 2868 0b20 00       		.byte	0
 2869              		.section	.debug_abbrev,"",%progbits
 2870              	.Ldebug_abbrev0:
 2871 0000 01       		.uleb128 0x1
 2872 0001 11       		.uleb128 0x11
 2873 0002 01       		.byte	0x1
 2874 0003 25       		.uleb128 0x25
 2875 0004 0E       		.uleb128 0xe
 2876 0005 13       		.uleb128 0x13
 2877 0006 0B       		.uleb128 0xb
 2878 0007 03       		.uleb128 0x3
 2879 0008 0E       		.uleb128 0xe
 2880 0009 1B       		.uleb128 0x1b
 2881 000a 0E       		.uleb128 0xe
 2882 000b 55       		.uleb128 0x55
 2883 000c 17       		.uleb128 0x17
 2884 000d 11       		.uleb128 0x11
 2885 000e 01       		.uleb128 0x1
 2886 000f 10       		.uleb128 0x10
 2887 0010 17       		.uleb128 0x17
ARM GAS  C:\Users\essele\AppData\Local\Temp\cczrtAYv.s 			page 72


 2888 0011 00       		.byte	0
 2889 0012 00       		.byte	0
 2890 0013 02       		.uleb128 0x2
 2891 0014 24       		.uleb128 0x24
 2892 0015 00       		.byte	0
 2893 0016 0B       		.uleb128 0xb
 2894 0017 0B       		.uleb128 0xb
 2895 0018 3E       		.uleb128 0x3e
 2896 0019 0B       		.uleb128 0xb
 2897 001a 03       		.uleb128 0x3
 2898 001b 0E       		.uleb128 0xe
 2899 001c 00       		.byte	0
 2900 001d 00       		.byte	0
 2901 001e 03       		.uleb128 0x3
 2902 001f 24       		.uleb128 0x24
 2903 0020 00       		.byte	0
 2904 0021 0B       		.uleb128 0xb
 2905 0022 0B       		.uleb128 0xb
 2906 0023 3E       		.uleb128 0x3e
 2907 0024 0B       		.uleb128 0xb
 2908 0025 03       		.uleb128 0x3
 2909 0026 08       		.uleb128 0x8
 2910 0027 00       		.byte	0
 2911 0028 00       		.byte	0
 2912 0029 04       		.uleb128 0x4
 2913 002a 16       		.uleb128 0x16
 2914 002b 00       		.byte	0
 2915 002c 03       		.uleb128 0x3
 2916 002d 0E       		.uleb128 0xe
 2917 002e 3A       		.uleb128 0x3a
 2918 002f 0B       		.uleb128 0xb
 2919 0030 3B       		.uleb128 0x3b
 2920 0031 05       		.uleb128 0x5
 2921 0032 49       		.uleb128 0x49
 2922 0033 13       		.uleb128 0x13
 2923 0034 00       		.byte	0
 2924 0035 00       		.byte	0
 2925 0036 05       		.uleb128 0x5
 2926 0037 35       		.uleb128 0x35
 2927 0038 00       		.byte	0
 2928 0039 49       		.uleb128 0x49
 2929 003a 13       		.uleb128 0x13
 2930 003b 00       		.byte	0
 2931 003c 00       		.byte	0
 2932 003d 06       		.uleb128 0x6
 2933 003e 13       		.uleb128 0x13
 2934 003f 01       		.byte	0x1
 2935 0040 0B       		.uleb128 0xb
 2936 0041 0B       		.uleb128 0xb
 2937 0042 3A       		.uleb128 0x3a
 2938 0043 0B       		.uleb128 0xb
 2939 0044 3B       		.uleb128 0x3b
 2940 0045 0B       		.uleb128 0xb
 2941 0046 01       		.uleb128 0x1
 2942 0047 13       		.uleb128 0x13
 2943 0048 00       		.byte	0
 2944 0049 00       		.byte	0
ARM GAS  C:\Users\essele\AppData\Local\Temp\cczrtAYv.s 			page 73


 2945 004a 07       		.uleb128 0x7
 2946 004b 0D       		.uleb128 0xd
 2947 004c 00       		.byte	0
 2948 004d 03       		.uleb128 0x3
 2949 004e 0E       		.uleb128 0xe
 2950 004f 3A       		.uleb128 0x3a
 2951 0050 0B       		.uleb128 0xb
 2952 0051 3B       		.uleb128 0x3b
 2953 0052 0B       		.uleb128 0xb
 2954 0053 49       		.uleb128 0x49
 2955 0054 13       		.uleb128 0x13
 2956 0055 38       		.uleb128 0x38
 2957 0056 0B       		.uleb128 0xb
 2958 0057 00       		.byte	0
 2959 0058 00       		.byte	0
 2960 0059 08       		.uleb128 0x8
 2961 005a 16       		.uleb128 0x16
 2962 005b 00       		.byte	0
 2963 005c 03       		.uleb128 0x3
 2964 005d 0E       		.uleb128 0xe
 2965 005e 3A       		.uleb128 0x3a
 2966 005f 0B       		.uleb128 0xb
 2967 0060 3B       		.uleb128 0x3b
 2968 0061 0B       		.uleb128 0xb
 2969 0062 49       		.uleb128 0x49
 2970 0063 13       		.uleb128 0x13
 2971 0064 00       		.byte	0
 2972 0065 00       		.byte	0
 2973 0066 09       		.uleb128 0x9
 2974 0067 0F       		.uleb128 0xf
 2975 0068 00       		.byte	0
 2976 0069 0B       		.uleb128 0xb
 2977 006a 0B       		.uleb128 0xb
 2978 006b 49       		.uleb128 0x49
 2979 006c 13       		.uleb128 0x13
 2980 006d 00       		.byte	0
 2981 006e 00       		.byte	0
 2982 006f 0A       		.uleb128 0xa
 2983 0070 01       		.uleb128 0x1
 2984 0071 01       		.byte	0x1
 2985 0072 49       		.uleb128 0x49
 2986 0073 13       		.uleb128 0x13
 2987 0074 01       		.uleb128 0x1
 2988 0075 13       		.uleb128 0x13
 2989 0076 00       		.byte	0
 2990 0077 00       		.byte	0
 2991 0078 0B       		.uleb128 0xb
 2992 0079 21       		.uleb128 0x21
 2993 007a 00       		.byte	0
 2994 007b 49       		.uleb128 0x49
 2995 007c 13       		.uleb128 0x13
 2996 007d 2F       		.uleb128 0x2f
 2997 007e 0B       		.uleb128 0xb
 2998 007f 00       		.byte	0
 2999 0080 00       		.byte	0
 3000 0081 0C       		.uleb128 0xc
 3001 0082 13       		.uleb128 0x13
ARM GAS  C:\Users\essele\AppData\Local\Temp\cczrtAYv.s 			page 74


 3002 0083 01       		.byte	0x1
 3003 0084 0B       		.uleb128 0xb
 3004 0085 0B       		.uleb128 0xb
 3005 0086 3A       		.uleb128 0x3a
 3006 0087 0B       		.uleb128 0xb
 3007 0088 3B       		.uleb128 0x3b
 3008 0089 05       		.uleb128 0x5
 3009 008a 01       		.uleb128 0x1
 3010 008b 13       		.uleb128 0x13
 3011 008c 00       		.byte	0
 3012 008d 00       		.byte	0
 3013 008e 0D       		.uleb128 0xd
 3014 008f 0D       		.uleb128 0xd
 3015 0090 00       		.byte	0
 3016 0091 03       		.uleb128 0x3
 3017 0092 0E       		.uleb128 0xe
 3018 0093 3A       		.uleb128 0x3a
 3019 0094 0B       		.uleb128 0xb
 3020 0095 3B       		.uleb128 0x3b
 3021 0096 05       		.uleb128 0x5
 3022 0097 49       		.uleb128 0x49
 3023 0098 13       		.uleb128 0x13
 3024 0099 38       		.uleb128 0x38
 3025 009a 0B       		.uleb128 0xb
 3026 009b 00       		.byte	0
 3027 009c 00       		.byte	0
 3028 009d 0E       		.uleb128 0xe
 3029 009e 2E       		.uleb128 0x2e
 3030 009f 01       		.byte	0x1
 3031 00a0 03       		.uleb128 0x3
 3032 00a1 0E       		.uleb128 0xe
 3033 00a2 3A       		.uleb128 0x3a
 3034 00a3 0B       		.uleb128 0xb
 3035 00a4 3B       		.uleb128 0x3b
 3036 00a5 05       		.uleb128 0x5
 3037 00a6 27       		.uleb128 0x27
 3038 00a7 19       		.uleb128 0x19
 3039 00a8 49       		.uleb128 0x49
 3040 00a9 13       		.uleb128 0x13
 3041 00aa 11       		.uleb128 0x11
 3042 00ab 01       		.uleb128 0x1
 3043 00ac 12       		.uleb128 0x12
 3044 00ad 06       		.uleb128 0x6
 3045 00ae 40       		.uleb128 0x40
 3046 00af 18       		.uleb128 0x18
 3047 00b0 9742     		.uleb128 0x2117
 3048 00b2 19       		.uleb128 0x19
 3049 00b3 01       		.uleb128 0x1
 3050 00b4 13       		.uleb128 0x13
 3051 00b5 00       		.byte	0
 3052 00b6 00       		.byte	0
 3053 00b7 0F       		.uleb128 0xf
 3054 00b8 05       		.uleb128 0x5
 3055 00b9 00       		.byte	0
 3056 00ba 03       		.uleb128 0x3
 3057 00bb 0E       		.uleb128 0xe
 3058 00bc 3A       		.uleb128 0x3a
ARM GAS  C:\Users\essele\AppData\Local\Temp\cczrtAYv.s 			page 75


 3059 00bd 0B       		.uleb128 0xb
 3060 00be 3B       		.uleb128 0x3b
 3061 00bf 05       		.uleb128 0x5
 3062 00c0 49       		.uleb128 0x49
 3063 00c1 13       		.uleb128 0x13
 3064 00c2 02       		.uleb128 0x2
 3065 00c3 17       		.uleb128 0x17
 3066 00c4 00       		.byte	0
 3067 00c5 00       		.byte	0
 3068 00c6 10       		.uleb128 0x10
 3069 00c7 34       		.uleb128 0x34
 3070 00c8 00       		.byte	0
 3071 00c9 03       		.uleb128 0x3
 3072 00ca 08       		.uleb128 0x8
 3073 00cb 3A       		.uleb128 0x3a
 3074 00cc 0B       		.uleb128 0xb
 3075 00cd 3B       		.uleb128 0x3b
 3076 00ce 05       		.uleb128 0x5
 3077 00cf 49       		.uleb128 0x49
 3078 00d0 13       		.uleb128 0x13
 3079 00d1 02       		.uleb128 0x2
 3080 00d2 17       		.uleb128 0x17
 3081 00d3 00       		.byte	0
 3082 00d4 00       		.byte	0
 3083 00d5 11       		.uleb128 0x11
 3084 00d6 26       		.uleb128 0x26
 3085 00d7 00       		.byte	0
 3086 00d8 49       		.uleb128 0x49
 3087 00d9 13       		.uleb128 0x13
 3088 00da 00       		.byte	0
 3089 00db 00       		.byte	0
 3090 00dc 12       		.uleb128 0x12
 3091 00dd 2E       		.uleb128 0x2e
 3092 00de 01       		.byte	0x1
 3093 00df 3F       		.uleb128 0x3f
 3094 00e0 19       		.uleb128 0x19
 3095 00e1 03       		.uleb128 0x3
 3096 00e2 0E       		.uleb128 0xe
 3097 00e3 3A       		.uleb128 0x3a
 3098 00e4 0B       		.uleb128 0xb
 3099 00e5 3B       		.uleb128 0x3b
 3100 00e6 0B       		.uleb128 0xb
 3101 00e7 27       		.uleb128 0x27
 3102 00e8 19       		.uleb128 0x19
 3103 00e9 49       		.uleb128 0x49
 3104 00ea 13       		.uleb128 0x13
 3105 00eb 11       		.uleb128 0x11
 3106 00ec 01       		.uleb128 0x1
 3107 00ed 12       		.uleb128 0x12
 3108 00ee 06       		.uleb128 0x6
 3109 00ef 40       		.uleb128 0x40
 3110 00f0 18       		.uleb128 0x18
 3111 00f1 9742     		.uleb128 0x2117
 3112 00f3 19       		.uleb128 0x19
 3113 00f4 01       		.uleb128 0x1
 3114 00f5 13       		.uleb128 0x13
 3115 00f6 00       		.byte	0
ARM GAS  C:\Users\essele\AppData\Local\Temp\cczrtAYv.s 			page 76


 3116 00f7 00       		.byte	0
 3117 00f8 13       		.uleb128 0x13
 3118 00f9 05       		.uleb128 0x5
 3119 00fa 00       		.byte	0
 3120 00fb 03       		.uleb128 0x3
 3121 00fc 0E       		.uleb128 0xe
 3122 00fd 3A       		.uleb128 0x3a
 3123 00fe 0B       		.uleb128 0xb
 3124 00ff 3B       		.uleb128 0x3b
 3125 0100 0B       		.uleb128 0xb
 3126 0101 49       		.uleb128 0x49
 3127 0102 13       		.uleb128 0x13
 3128 0103 02       		.uleb128 0x2
 3129 0104 17       		.uleb128 0x17
 3130 0105 00       		.byte	0
 3131 0106 00       		.byte	0
 3132 0107 14       		.uleb128 0x14
 3133 0108 34       		.uleb128 0x34
 3134 0109 00       		.byte	0
 3135 010a 03       		.uleb128 0x3
 3136 010b 0E       		.uleb128 0xe
 3137 010c 3A       		.uleb128 0x3a
 3138 010d 0B       		.uleb128 0xb
 3139 010e 3B       		.uleb128 0x3b
 3140 010f 0B       		.uleb128 0xb
 3141 0110 49       		.uleb128 0x49
 3142 0111 13       		.uleb128 0x13
 3143 0112 02       		.uleb128 0x2
 3144 0113 17       		.uleb128 0x17
 3145 0114 00       		.byte	0
 3146 0115 00       		.byte	0
 3147 0116 15       		.uleb128 0x15
 3148 0117 34       		.uleb128 0x34
 3149 0118 00       		.byte	0
 3150 0119 03       		.uleb128 0x3
 3151 011a 08       		.uleb128 0x8
 3152 011b 3A       		.uleb128 0x3a
 3153 011c 0B       		.uleb128 0xb
 3154 011d 3B       		.uleb128 0x3b
 3155 011e 0B       		.uleb128 0xb
 3156 011f 49       		.uleb128 0x49
 3157 0120 13       		.uleb128 0x13
 3158 0121 02       		.uleb128 0x2
 3159 0122 17       		.uleb128 0x17
 3160 0123 00       		.byte	0
 3161 0124 00       		.byte	0
 3162 0125 16       		.uleb128 0x16
 3163 0126 898201   		.uleb128 0x4109
 3164 0129 00       		.byte	0
 3165 012a 11       		.uleb128 0x11
 3166 012b 01       		.uleb128 0x1
 3167 012c 31       		.uleb128 0x31
 3168 012d 13       		.uleb128 0x13
 3169 012e 00       		.byte	0
 3170 012f 00       		.byte	0
 3171 0130 17       		.uleb128 0x17
 3172 0131 2E       		.uleb128 0x2e
ARM GAS  C:\Users\essele\AppData\Local\Temp\cczrtAYv.s 			page 77


 3173 0132 01       		.byte	0x1
 3174 0133 3F       		.uleb128 0x3f
 3175 0134 19       		.uleb128 0x19
 3176 0135 03       		.uleb128 0x3
 3177 0136 0E       		.uleb128 0xe
 3178 0137 3A       		.uleb128 0x3a
 3179 0138 0B       		.uleb128 0xb
 3180 0139 3B       		.uleb128 0x3b
 3181 013a 05       		.uleb128 0x5
 3182 013b 27       		.uleb128 0x27
 3183 013c 19       		.uleb128 0x19
 3184 013d 49       		.uleb128 0x49
 3185 013e 13       		.uleb128 0x13
 3186 013f 11       		.uleb128 0x11
 3187 0140 01       		.uleb128 0x1
 3188 0141 12       		.uleb128 0x12
 3189 0142 06       		.uleb128 0x6
 3190 0143 40       		.uleb128 0x40
 3191 0144 18       		.uleb128 0x18
 3192 0145 9742     		.uleb128 0x2117
 3193 0147 19       		.uleb128 0x19
 3194 0148 01       		.uleb128 0x1
 3195 0149 13       		.uleb128 0x13
 3196 014a 00       		.byte	0
 3197 014b 00       		.byte	0
 3198 014c 18       		.uleb128 0x18
 3199 014d 34       		.uleb128 0x34
 3200 014e 00       		.byte	0
 3201 014f 03       		.uleb128 0x3
 3202 0150 0E       		.uleb128 0xe
 3203 0151 3A       		.uleb128 0x3a
 3204 0152 0B       		.uleb128 0xb
 3205 0153 3B       		.uleb128 0x3b
 3206 0154 05       		.uleb128 0x5
 3207 0155 49       		.uleb128 0x49
 3208 0156 13       		.uleb128 0x13
 3209 0157 02       		.uleb128 0x2
 3210 0158 17       		.uleb128 0x17
 3211 0159 00       		.byte	0
 3212 015a 00       		.byte	0
 3213 015b 19       		.uleb128 0x19
 3214 015c 2E       		.uleb128 0x2e
 3215 015d 01       		.byte	0x1
 3216 015e 3F       		.uleb128 0x3f
 3217 015f 19       		.uleb128 0x19
 3218 0160 03       		.uleb128 0x3
 3219 0161 0E       		.uleb128 0xe
 3220 0162 3A       		.uleb128 0x3a
 3221 0163 0B       		.uleb128 0xb
 3222 0164 3B       		.uleb128 0x3b
 3223 0165 05       		.uleb128 0x5
 3224 0166 27       		.uleb128 0x27
 3225 0167 19       		.uleb128 0x19
 3226 0168 11       		.uleb128 0x11
 3227 0169 01       		.uleb128 0x1
 3228 016a 12       		.uleb128 0x12
 3229 016b 06       		.uleb128 0x6
ARM GAS  C:\Users\essele\AppData\Local\Temp\cczrtAYv.s 			page 78


 3230 016c 40       		.uleb128 0x40
 3231 016d 18       		.uleb128 0x18
 3232 016e 9742     		.uleb128 0x2117
 3233 0170 19       		.uleb128 0x19
 3234 0171 01       		.uleb128 0x1
 3235 0172 13       		.uleb128 0x13
 3236 0173 00       		.byte	0
 3237 0174 00       		.byte	0
 3238 0175 1A       		.uleb128 0x1a
 3239 0176 898201   		.uleb128 0x4109
 3240 0179 01       		.byte	0x1
 3241 017a 11       		.uleb128 0x11
 3242 017b 01       		.uleb128 0x1
 3243 017c 31       		.uleb128 0x31
 3244 017d 13       		.uleb128 0x13
 3245 017e 01       		.uleb128 0x1
 3246 017f 13       		.uleb128 0x13
 3247 0180 00       		.byte	0
 3248 0181 00       		.byte	0
 3249 0182 1B       		.uleb128 0x1b
 3250 0183 8A8201   		.uleb128 0x410a
 3251 0186 00       		.byte	0
 3252 0187 02       		.uleb128 0x2
 3253 0188 18       		.uleb128 0x18
 3254 0189 9142     		.uleb128 0x2111
 3255 018b 18       		.uleb128 0x18
 3256 018c 00       		.byte	0
 3257 018d 00       		.byte	0
 3258 018e 1C       		.uleb128 0x1c
 3259 018f 898201   		.uleb128 0x4109
 3260 0192 01       		.byte	0x1
 3261 0193 11       		.uleb128 0x11
 3262 0194 01       		.uleb128 0x1
 3263 0195 31       		.uleb128 0x31
 3264 0196 13       		.uleb128 0x13
 3265 0197 00       		.byte	0
 3266 0198 00       		.byte	0
 3267 0199 1D       		.uleb128 0x1d
 3268 019a 34       		.uleb128 0x34
 3269 019b 00       		.byte	0
 3270 019c 03       		.uleb128 0x3
 3271 019d 0E       		.uleb128 0xe
 3272 019e 3A       		.uleb128 0x3a
 3273 019f 0B       		.uleb128 0xb
 3274 01a0 3B       		.uleb128 0x3b
 3275 01a1 05       		.uleb128 0x5
 3276 01a2 49       		.uleb128 0x49
 3277 01a3 13       		.uleb128 0x13
 3278 01a4 02       		.uleb128 0x2
 3279 01a5 18       		.uleb128 0x18
 3280 01a6 00       		.byte	0
 3281 01a7 00       		.byte	0
 3282 01a8 1E       		.uleb128 0x1e
 3283 01a9 2E       		.uleb128 0x2e
 3284 01aa 00       		.byte	0
 3285 01ab 3F       		.uleb128 0x3f
 3286 01ac 19       		.uleb128 0x19
ARM GAS  C:\Users\essele\AppData\Local\Temp\cczrtAYv.s 			page 79


 3287 01ad 03       		.uleb128 0x3
 3288 01ae 0E       		.uleb128 0xe
 3289 01af 3A       		.uleb128 0x3a
 3290 01b0 0B       		.uleb128 0xb
 3291 01b1 3B       		.uleb128 0x3b
 3292 01b2 05       		.uleb128 0x5
 3293 01b3 27       		.uleb128 0x27
 3294 01b4 19       		.uleb128 0x19
 3295 01b5 49       		.uleb128 0x49
 3296 01b6 13       		.uleb128 0x13
 3297 01b7 11       		.uleb128 0x11
 3298 01b8 01       		.uleb128 0x1
 3299 01b9 12       		.uleb128 0x12
 3300 01ba 06       		.uleb128 0x6
 3301 01bb 40       		.uleb128 0x40
 3302 01bc 18       		.uleb128 0x18
 3303 01bd 9742     		.uleb128 0x2117
 3304 01bf 19       		.uleb128 0x19
 3305 01c0 00       		.byte	0
 3306 01c1 00       		.byte	0
 3307 01c2 1F       		.uleb128 0x1f
 3308 01c3 05       		.uleb128 0x5
 3309 01c4 00       		.byte	0
 3310 01c5 03       		.uleb128 0x3
 3311 01c6 0E       		.uleb128 0xe
 3312 01c7 3A       		.uleb128 0x3a
 3313 01c8 0B       		.uleb128 0xb
 3314 01c9 3B       		.uleb128 0x3b
 3315 01ca 05       		.uleb128 0x5
 3316 01cb 49       		.uleb128 0x49
 3317 01cc 13       		.uleb128 0x13
 3318 01cd 02       		.uleb128 0x2
 3319 01ce 18       		.uleb128 0x18
 3320 01cf 00       		.byte	0
 3321 01d0 00       		.byte	0
 3322 01d1 20       		.uleb128 0x20
 3323 01d2 05       		.uleb128 0x5
 3324 01d3 00       		.byte	0
 3325 01d4 03       		.uleb128 0x3
 3326 01d5 08       		.uleb128 0x8
 3327 01d6 3A       		.uleb128 0x3a
 3328 01d7 0B       		.uleb128 0xb
 3329 01d8 3B       		.uleb128 0x3b
 3330 01d9 05       		.uleb128 0x5
 3331 01da 49       		.uleb128 0x49
 3332 01db 13       		.uleb128 0x13
 3333 01dc 02       		.uleb128 0x2
 3334 01dd 17       		.uleb128 0x17
 3335 01de 00       		.byte	0
 3336 01df 00       		.byte	0
 3337 01e0 21       		.uleb128 0x21
 3338 01e1 34       		.uleb128 0x34
 3339 01e2 00       		.byte	0
 3340 01e3 03       		.uleb128 0x3
 3341 01e4 0E       		.uleb128 0xe
 3342 01e5 3A       		.uleb128 0x3a
 3343 01e6 0B       		.uleb128 0xb
ARM GAS  C:\Users\essele\AppData\Local\Temp\cczrtAYv.s 			page 80


 3344 01e7 3B       		.uleb128 0x3b
 3345 01e8 0B       		.uleb128 0xb
 3346 01e9 49       		.uleb128 0x49
 3347 01ea 13       		.uleb128 0x13
 3348 01eb 02       		.uleb128 0x2
 3349 01ec 18       		.uleb128 0x18
 3350 01ed 00       		.byte	0
 3351 01ee 00       		.byte	0
 3352 01ef 22       		.uleb128 0x22
 3353 01f0 34       		.uleb128 0x34
 3354 01f1 00       		.byte	0
 3355 01f2 03       		.uleb128 0x3
 3356 01f3 0E       		.uleb128 0xe
 3357 01f4 3A       		.uleb128 0x3a
 3358 01f5 0B       		.uleb128 0xb
 3359 01f6 3B       		.uleb128 0x3b
 3360 01f7 05       		.uleb128 0x5
 3361 01f8 49       		.uleb128 0x49
 3362 01f9 13       		.uleb128 0x13
 3363 01fa 3F       		.uleb128 0x3f
 3364 01fb 19       		.uleb128 0x19
 3365 01fc 3C       		.uleb128 0x3c
 3366 01fd 19       		.uleb128 0x19
 3367 01fe 00       		.byte	0
 3368 01ff 00       		.byte	0
 3369 0200 23       		.uleb128 0x23
 3370 0201 34       		.uleb128 0x34
 3371 0202 00       		.byte	0
 3372 0203 03       		.uleb128 0x3
 3373 0204 0E       		.uleb128 0xe
 3374 0205 3A       		.uleb128 0x3a
 3375 0206 0B       		.uleb128 0xb
 3376 0207 3B       		.uleb128 0x3b
 3377 0208 0B       		.uleb128 0xb
 3378 0209 49       		.uleb128 0x49
 3379 020a 13       		.uleb128 0x13
 3380 020b 3F       		.uleb128 0x3f
 3381 020c 19       		.uleb128 0x19
 3382 020d 02       		.uleb128 0x2
 3383 020e 18       		.uleb128 0x18
 3384 020f 00       		.byte	0
 3385 0210 00       		.byte	0
 3386 0211 24       		.uleb128 0x24
 3387 0212 34       		.uleb128 0x34
 3388 0213 00       		.byte	0
 3389 0214 03       		.uleb128 0x3
 3390 0215 0E       		.uleb128 0xe
 3391 0216 3A       		.uleb128 0x3a
 3392 0217 0B       		.uleb128 0xb
 3393 0218 3B       		.uleb128 0x3b
 3394 0219 0B       		.uleb128 0xb
 3395 021a 49       		.uleb128 0x49
 3396 021b 13       		.uleb128 0x13
 3397 021c 3F       		.uleb128 0x3f
 3398 021d 19       		.uleb128 0x19
 3399 021e 3C       		.uleb128 0x3c
 3400 021f 19       		.uleb128 0x19
ARM GAS  C:\Users\essele\AppData\Local\Temp\cczrtAYv.s 			page 81


 3401 0220 00       		.byte	0
 3402 0221 00       		.byte	0
 3403 0222 25       		.uleb128 0x25
 3404 0223 2E       		.uleb128 0x2e
 3405 0224 00       		.byte	0
 3406 0225 3F       		.uleb128 0x3f
 3407 0226 19       		.uleb128 0x19
 3408 0227 3C       		.uleb128 0x3c
 3409 0228 19       		.uleb128 0x19
 3410 0229 6E       		.uleb128 0x6e
 3411 022a 0E       		.uleb128 0xe
 3412 022b 03       		.uleb128 0x3
 3413 022c 0E       		.uleb128 0xe
 3414 022d 3A       		.uleb128 0x3a
 3415 022e 0B       		.uleb128 0xb
 3416 022f 3B       		.uleb128 0x3b
 3417 0230 0B       		.uleb128 0xb
 3418 0231 00       		.byte	0
 3419 0232 00       		.byte	0
 3420 0233 26       		.uleb128 0x26
 3421 0234 2E       		.uleb128 0x2e
 3422 0235 00       		.byte	0
 3423 0236 3F       		.uleb128 0x3f
 3424 0237 19       		.uleb128 0x19
 3425 0238 3C       		.uleb128 0x3c
 3426 0239 19       		.uleb128 0x19
 3427 023a 6E       		.uleb128 0x6e
 3428 023b 0E       		.uleb128 0xe
 3429 023c 03       		.uleb128 0x3
 3430 023d 0E       		.uleb128 0xe
 3431 023e 3A       		.uleb128 0x3a
 3432 023f 0B       		.uleb128 0xb
 3433 0240 3B       		.uleb128 0x3b
 3434 0241 05       		.uleb128 0x5
 3435 0242 00       		.byte	0
 3436 0243 00       		.byte	0
 3437 0244 27       		.uleb128 0x27
 3438 0245 2E       		.uleb128 0x2e
 3439 0246 00       		.byte	0
 3440 0247 3F       		.uleb128 0x3f
 3441 0248 19       		.uleb128 0x19
 3442 0249 3C       		.uleb128 0x3c
 3443 024a 19       		.uleb128 0x19
 3444 024b 6E       		.uleb128 0x6e
 3445 024c 0E       		.uleb128 0xe
 3446 024d 03       		.uleb128 0x3
 3447 024e 0E       		.uleb128 0xe
 3448 024f 00       		.byte	0
 3449 0250 00       		.byte	0
 3450 0251 00       		.byte	0
 3451              		.section	.debug_loc,"",%progbits
 3452              	.Ldebug_loc0:
 3453              	.LLST0:
 3454 0000 00000000 		.4byte	.LVL0
 3455 0004 04000000 		.4byte	.LVL2
 3456 0008 0100     		.2byte	0x1
 3457 000a 50       		.byte	0x50
ARM GAS  C:\Users\essele\AppData\Local\Temp\cczrtAYv.s 			page 82


 3458 000b 04000000 		.4byte	.LVL2
 3459 000f 12000000 		.4byte	.LFE5
 3460 0013 0100     		.2byte	0x1
 3461 0015 52       		.byte	0x52
 3462 0016 00000000 		.4byte	0
 3463 001a 00000000 		.4byte	0
 3464              	.LLST1:
 3465 001e 02000000 		.4byte	.LVL1
 3466 0022 06000000 		.4byte	.LVL3
 3467 0026 0200     		.2byte	0x2
 3468 0028 30       		.byte	0x30
 3469 0029 9F       		.byte	0x9f
 3470 002a 06000000 		.4byte	.LVL3
 3471 002e 08000000 		.4byte	.LVL4
 3472 0032 0100     		.2byte	0x1
 3473 0034 50       		.byte	0x50
 3474 0035 0A000000 		.4byte	.LVL5
 3475 0039 12000000 		.4byte	.LFE5
 3476 003d 0100     		.2byte	0x1
 3477 003f 50       		.byte	0x50
 3478 0040 00000000 		.4byte	0
 3479 0044 00000000 		.4byte	0
 3480              	.LLST2:
 3481 0048 00000000 		.4byte	.LVL6
 3482 004c 2E000000 		.4byte	.LVL15
 3483 0050 0100     		.2byte	0x1
 3484 0052 50       		.byte	0x50
 3485 0053 2E000000 		.4byte	.LVL15
 3486 0057 38000000 		.4byte	.LFE2
 3487 005b 0400     		.2byte	0x4
 3488 005d F3       		.byte	0xf3
 3489 005e 01       		.uleb128 0x1
 3490 005f 50       		.byte	0x50
 3491 0060 9F       		.byte	0x9f
 3492 0061 00000000 		.4byte	0
 3493 0065 00000000 		.4byte	0
 3494              	.LLST3:
 3495 0069 02000000 		.4byte	.LVL7
 3496 006d 08000000 		.4byte	.LVL8
 3497 0071 0200     		.2byte	0x2
 3498 0073 30       		.byte	0x30
 3499 0074 9F       		.byte	0x9f
 3500 0075 08000000 		.4byte	.LVL8
 3501 0079 26000000 		.4byte	.LVL13
 3502 007d 0100     		.2byte	0x1
 3503 007f 52       		.byte	0x52
 3504 0080 28000000 		.4byte	.LVL14
 3505 0084 38000000 		.4byte	.LFE2
 3506 0088 0100     		.2byte	0x1
 3507 008a 52       		.byte	0x52
 3508 008b 00000000 		.4byte	0
 3509 008f 00000000 		.4byte	0
 3510              	.LLST4:
 3511 0093 02000000 		.4byte	.LVL7
 3512 0097 08000000 		.4byte	.LVL8
 3513 009b 0300     		.2byte	0x3
 3514 009d 09       		.byte	0x9
ARM GAS  C:\Users\essele\AppData\Local\Temp\cczrtAYv.s 			page 83


 3515 009e FF       		.byte	0xff
 3516 009f 9F       		.byte	0x9f
 3517 00a0 08000000 		.4byte	.LVL8
 3518 00a4 22000000 		.4byte	.LVL11
 3519 00a8 0100     		.2byte	0x1
 3520 00aa 54       		.byte	0x54
 3521 00ab 24000000 		.4byte	.LVL12
 3522 00af 2E000000 		.4byte	.LVL16
 3523 00b3 0100     		.2byte	0x1
 3524 00b5 54       		.byte	0x54
 3525 00b6 00000000 		.4byte	0
 3526 00ba 00000000 		.4byte	0
 3527              	.LLST5:
 3528 00be 0E000000 		.4byte	.LVL9
 3529 00c2 12000000 		.4byte	.LVL10
 3530 00c6 0100     		.2byte	0x1
 3531 00c8 53       		.byte	0x53
 3532 00c9 00000000 		.4byte	0
 3533 00cd 00000000 		.4byte	0
 3534              	.LLST6:
 3535 00d1 02000000 		.4byte	.LVL17
 3536 00d5 2C000000 		.4byte	.LVL20
 3537 00d9 0200     		.2byte	0x2
 3538 00db 30       		.byte	0x30
 3539 00dc 9F       		.byte	0x9f
 3540 00dd 2C000000 		.4byte	.LVL20
 3541 00e1 2E000000 		.4byte	.LVL21
 3542 00e5 0100     		.2byte	0x1
 3543 00e7 50       		.byte	0x50
 3544 00e8 2E000000 		.4byte	.LVL21
 3545 00ec 5C000000 		.4byte	.LVL22
 3546 00f0 0200     		.2byte	0x2
 3547 00f2 30       		.byte	0x30
 3548 00f3 9F       		.byte	0x9f
 3549 00f4 5C000000 		.4byte	.LVL22
 3550 00f8 5E000000 		.4byte	.LVL23
 3551 00fc 0100     		.2byte	0x1
 3552 00fe 50       		.byte	0x50
 3553 00ff 5E000000 		.4byte	.LVL23
 3554 0103 7A000000 		.4byte	.LVL24
 3555 0107 0200     		.2byte	0x2
 3556 0109 30       		.byte	0x30
 3557 010a 9F       		.byte	0x9f
 3558 010b 7A000000 		.4byte	.LVL24
 3559 010f 7C000000 		.4byte	.LVL25
 3560 0113 0100     		.2byte	0x1
 3561 0115 50       		.byte	0x50
 3562 0116 7C000000 		.4byte	.LVL25
 3563 011a 82000000 		.4byte	.LVL28
 3564 011e 0200     		.2byte	0x2
 3565 0120 30       		.byte	0x30
 3566 0121 9F       		.byte	0x9f
 3567 0122 82000000 		.4byte	.LVL28
 3568 0126 98000000 		.4byte	.LFE1
 3569 012a 0100     		.2byte	0x1
 3570 012c 50       		.byte	0x50
 3571 012d 00000000 		.4byte	0
ARM GAS  C:\Users\essele\AppData\Local\Temp\cczrtAYv.s 			page 84


 3572 0131 00000000 		.4byte	0
 3573              	.LLST7:
 3574 0135 0C000000 		.4byte	.LVL18
 3575 0139 22000000 		.4byte	.LVL19
 3576 013d 0100     		.2byte	0x1
 3577 013f 50       		.byte	0x50
 3578 0140 2E000000 		.4byte	.LVL21
 3579 0144 5B000000 		.4byte	.LVL22-1
 3580 0148 0100     		.2byte	0x1
 3581 014a 50       		.byte	0x50
 3582 014b 5E000000 		.4byte	.LVL23
 3583 014f 79000000 		.4byte	.LVL24-1
 3584 0153 0100     		.2byte	0x1
 3585 0155 50       		.byte	0x50
 3586 0156 7C000000 		.4byte	.LVL25
 3587 015a 7E000000 		.4byte	.LVL26
 3588 015e 0100     		.2byte	0x1
 3589 0160 50       		.byte	0x50
 3590 0161 80000000 		.4byte	.LVL27
 3591 0165 82000000 		.4byte	.LVL28
 3592 0169 0100     		.2byte	0x1
 3593 016b 50       		.byte	0x50
 3594 016c 00000000 		.4byte	0
 3595 0170 00000000 		.4byte	0
 3596              	.LLST8:
 3597 0174 0E000000 		.4byte	.LVL30
 3598 0178 12000000 		.4byte	.LVL31
 3599 017c 0200     		.2byte	0x2
 3600 017e 30       		.byte	0x30
 3601 017f 9F       		.byte	0x9f
 3602 0180 12000000 		.4byte	.LVL31
 3603 0184 26000000 		.4byte	.LVL34
 3604 0188 0100     		.2byte	0x1
 3605 018a 54       		.byte	0x54
 3606 018b 28000000 		.4byte	.LVL35
 3607 018f 7C000000 		.4byte	.LVL37
 3608 0193 0100     		.2byte	0x1
 3609 0195 54       		.byte	0x54
 3610 0196 00000000 		.4byte	0
 3611 019a 00000000 		.4byte	0
 3612              	.LLST9:
 3613 019e 18000000 		.4byte	.LVL32
 3614 01a2 23000000 		.4byte	.LVL33-1
 3615 01a6 0100     		.2byte	0x1
 3616 01a8 50       		.byte	0x50
 3617 01a9 00000000 		.4byte	0
 3618 01ad 00000000 		.4byte	0
 3619              	.LLST10:
 3620 01b1 02000000 		.4byte	.LVL29
 3621 01b5 7C000000 		.4byte	.LVL36
 3622 01b9 0200     		.2byte	0x2
 3623 01bb 30       		.byte	0x30
 3624 01bc 9F       		.byte	0x9f
 3625 01bd 7C000000 		.4byte	.LVL36
 3626 01c1 94000000 		.4byte	.LFE3
 3627 01c5 0100     		.2byte	0x1
 3628 01c7 50       		.byte	0x50
ARM GAS  C:\Users\essele\AppData\Local\Temp\cczrtAYv.s 			page 85


 3629 01c8 00000000 		.4byte	0
 3630 01cc 00000000 		.4byte	0
 3631              	.LLST11:
 3632 01d0 00000000 		.4byte	.LVL38
 3633 01d4 32000000 		.4byte	.LVL41
 3634 01d8 0100     		.2byte	0x1
 3635 01da 50       		.byte	0x50
 3636 01db 32000000 		.4byte	.LVL41
 3637 01df 40000000 		.4byte	.LVL46
 3638 01e3 0100     		.2byte	0x1
 3639 01e5 56       		.byte	0x56
 3640 01e6 40000000 		.4byte	.LVL46
 3641 01ea 50000000 		.4byte	.LFE4
 3642 01ee 0400     		.2byte	0x4
 3643 01f0 F3       		.byte	0xf3
 3644 01f1 01       		.uleb128 0x1
 3645 01f2 50       		.byte	0x50
 3646 01f3 9F       		.byte	0x9f
 3647 01f4 00000000 		.4byte	0
 3648 01f8 00000000 		.4byte	0
 3649              	.LLST12:
 3650 01fc 00000000 		.4byte	.LVL38
 3651 0200 30000000 		.4byte	.LVL40
 3652 0204 0100     		.2byte	0x1
 3653 0206 51       		.byte	0x51
 3654 0207 30000000 		.4byte	.LVL40
 3655 020b 40000000 		.4byte	.LVL45
 3656 020f 0100     		.2byte	0x1
 3657 0211 55       		.byte	0x55
 3658 0212 00000000 		.4byte	0
 3659 0216 00000000 		.4byte	0
 3660              	.LLST13:
 3661 021a 10000000 		.4byte	.LVL39
 3662 021e 40000000 		.4byte	.LVL44
 3663 0222 0100     		.2byte	0x1
 3664 0224 54       		.byte	0x54
 3665 0225 00000000 		.4byte	0
 3666 0229 00000000 		.4byte	0
 3667              	.LLST14:
 3668 022d 00000000 		.4byte	.LVL47
 3669 0231 17000000 		.4byte	.LVL50-1
 3670 0235 0100     		.2byte	0x1
 3671 0237 50       		.byte	0x50
 3672 0238 17000000 		.4byte	.LVL50-1
 3673 023c 92000000 		.4byte	.LVL63
 3674 0240 0100     		.2byte	0x1
 3675 0242 58       		.byte	0x58
 3676 0243 92000000 		.4byte	.LVL63
 3677 0247 A8000000 		.4byte	.LFE6
 3678 024b 0400     		.2byte	0x4
 3679 024d F3       		.byte	0xf3
 3680 024e 01       		.uleb128 0x1
 3681 024f 50       		.byte	0x50
 3682 0250 9F       		.byte	0x9f
 3683 0251 00000000 		.4byte	0
 3684 0255 00000000 		.4byte	0
 3685              	.LLST15:
ARM GAS  C:\Users\essele\AppData\Local\Temp\cczrtAYv.s 			page 86


 3686 0259 1A000000 		.4byte	.LVL51
 3687 025d 1C000000 		.4byte	.LVL52
 3688 0261 0100     		.2byte	0x1
 3689 0263 50       		.byte	0x50
 3690 0264 1C000000 		.4byte	.LVL52
 3691 0268 54000000 		.4byte	.LVL55
 3692 026c 0100     		.2byte	0x1
 3693 026e 55       		.byte	0x55
 3694 026f 56000000 		.4byte	.LVL56
 3695 0273 92000000 		.4byte	.LVL60
 3696 0277 0100     		.2byte	0x1
 3697 0279 55       		.byte	0x55
 3698 027a 00000000 		.4byte	0
 3699 027e 00000000 		.4byte	0
 3700              	.LLST16:
 3701 0282 44000000 		.4byte	.LVL53
 3702 0286 92000000 		.4byte	.LVL64
 3703 028a 0100     		.2byte	0x1
 3704 028c 59       		.byte	0x59
 3705 028d 00000000 		.4byte	0
 3706 0291 00000000 		.4byte	0
 3707              	.LLST17:
 3708 0295 0A000000 		.4byte	.LVL48
 3709 0299 1C000000 		.4byte	.LVL52
 3710 029d 0200     		.2byte	0x2
 3711 029f 30       		.byte	0x30
 3712 02a0 9F       		.byte	0x9f
 3713 02a1 1C000000 		.4byte	.LVL52
 3714 02a5 6E000000 		.4byte	.LVL57
 3715 02a9 0100     		.2byte	0x1
 3716 02ab 57       		.byte	0x57
 3717 02ac 70000000 		.4byte	.LVL58
 3718 02b0 92000000 		.4byte	.LVL62
 3719 02b4 0100     		.2byte	0x1
 3720 02b6 57       		.byte	0x57
 3721 02b7 00000000 		.4byte	0
 3722 02bb 00000000 		.4byte	0
 3723              	.LLST18:
 3724 02bf 14000000 		.4byte	.LVL49
 3725 02c3 92000000 		.4byte	.LVL61
 3726 02c7 0100     		.2byte	0x1
 3727 02c9 56       		.byte	0x56
 3728 02ca 00000000 		.4byte	0
 3729 02ce 00000000 		.4byte	0
 3730              	.LLST19:
 3731 02d2 00000000 		.4byte	.LVL65
 3732 02d6 12000000 		.4byte	.LVL66
 3733 02da 0100     		.2byte	0x1
 3734 02dc 50       		.byte	0x50
 3735 02dd 12000000 		.4byte	.LVL66
 3736 02e1 19000000 		.4byte	.LVL67-1
 3737 02e5 0200     		.2byte	0x2
 3738 02e7 71       		.byte	0x71
 3739 02e8 00       		.sleb128 0
 3740 02e9 19000000 		.4byte	.LVL67-1
 3741 02ed 28000000 		.4byte	.LFE7
 3742 02f1 0400     		.2byte	0x4
ARM GAS  C:\Users\essele\AppData\Local\Temp\cczrtAYv.s 			page 87


 3743 02f3 F3       		.byte	0xf3
 3744 02f4 01       		.uleb128 0x1
 3745 02f5 50       		.byte	0x50
 3746 02f6 9F       		.byte	0x9f
 3747 02f7 00000000 		.4byte	0
 3748 02fb 00000000 		.4byte	0
 3749              	.LLST20:
 3750 02ff 20000000 		.4byte	.LVL71
 3751 0303 22000000 		.4byte	.LVL72
 3752 0307 0100     		.2byte	0x1
 3753 0309 50       		.byte	0x50
 3754 030a 24000000 		.4byte	.LVL73
 3755 030e 34000000 		.4byte	.LFE9
 3756 0312 0100     		.2byte	0x1
 3757 0314 50       		.byte	0x50
 3758 0315 00000000 		.4byte	0
 3759 0319 00000000 		.4byte	0
 3760              	.LLST21:
 3761 031d 0C000000 		.4byte	.LVL70
 3762 0321 1F000000 		.4byte	.LVL71-1
 3763 0325 0100     		.2byte	0x1
 3764 0327 50       		.byte	0x50
 3765 0328 22000000 		.4byte	.LVL72
 3766 032c 24000000 		.4byte	.LVL73
 3767 0330 0100     		.2byte	0x1
 3768 0332 50       		.byte	0x50
 3769 0333 00000000 		.4byte	0
 3770 0337 00000000 		.4byte	0
 3771              	.LLST22:
 3772 033b 00000000 		.4byte	.LVL76
 3773 033f 10000000 		.4byte	.LVL78
 3774 0343 0100     		.2byte	0x1
 3775 0345 50       		.byte	0x50
 3776 0346 10000000 		.4byte	.LVL78
 3777 034a 16000000 		.4byte	.LVL80
 3778 034e 0100     		.2byte	0x1
 3779 0350 54       		.byte	0x54
 3780 0351 16000000 		.4byte	.LVL80
 3781 0355 20000000 		.4byte	.LFE12
 3782 0359 0400     		.2byte	0x4
 3783 035b F3       		.byte	0xf3
 3784 035c 01       		.uleb128 0x1
 3785 035d 50       		.byte	0x50
 3786 035e 9F       		.byte	0x9f
 3787 035f 00000000 		.4byte	0
 3788 0363 00000000 		.4byte	0
 3789              	.LLST23:
 3790 0367 00000000 		.4byte	.LVL76
 3791 036b 0C000000 		.4byte	.LVL77
 3792 036f 0100     		.2byte	0x1
 3793 0371 51       		.byte	0x51
 3794 0372 0C000000 		.4byte	.LVL77
 3795 0376 16000000 		.4byte	.LVL79
 3796 037a 0400     		.2byte	0x4
 3797 037c F3       		.byte	0xf3
 3798 037d 01       		.uleb128 0x1
 3799 037e 51       		.byte	0x51
ARM GAS  C:\Users\essele\AppData\Local\Temp\cczrtAYv.s 			page 88


 3800 037f 9F       		.byte	0x9f
 3801 0380 16000000 		.4byte	.LVL79
 3802 0384 20000000 		.4byte	.LFE12
 3803 0388 0100     		.2byte	0x1
 3804 038a 50       		.byte	0x50
 3805 038b 00000000 		.4byte	0
 3806 038f 00000000 		.4byte	0
 3807              	.LLST24:
 3808 0393 10000000 		.4byte	.LVL78
 3809 0397 15000000 		.4byte	.LVL79-1
 3810 039b 0100     		.2byte	0x1
 3811 039d 50       		.byte	0x50
 3812 039e 00000000 		.4byte	0
 3813 03a2 00000000 		.4byte	0
 3814              	.LLST25:
 3815 03a6 00000000 		.4byte	.LVL81
 3816 03aa 0E000000 		.4byte	.LVL82
 3817 03ae 0100     		.2byte	0x1
 3818 03b0 50       		.byte	0x50
 3819 03b1 0E000000 		.4byte	.LVL82
 3820 03b5 1F000000 		.4byte	.LVL83-1
 3821 03b9 0100     		.2byte	0x1
 3822 03bb 51       		.byte	0x51
 3823 03bc 1F000000 		.4byte	.LVL83-1
 3824 03c0 30000000 		.4byte	.LFE13
 3825 03c4 0400     		.2byte	0x4
 3826 03c6 F3       		.byte	0xf3
 3827 03c7 01       		.uleb128 0x1
 3828 03c8 50       		.byte	0x50
 3829 03c9 9F       		.byte	0x9f
 3830 03ca 00000000 		.4byte	0
 3831 03ce 00000000 		.4byte	0
 3832              	.LLST26:
 3833 03d2 0E000000 		.4byte	.LVL82
 3834 03d6 1F000000 		.4byte	.LVL83-1
 3835 03da 0100     		.2byte	0x1
 3836 03dc 50       		.byte	0x50
 3837 03dd 00000000 		.4byte	0
 3838 03e1 00000000 		.4byte	0
 3839              	.LLST27:
 3840 03e5 0E000000 		.4byte	.LVL84
 3841 03e9 19000000 		.4byte	.LVL85-1
 3842 03ed 0100     		.2byte	0x1
 3843 03ef 50       		.byte	0x50
 3844 03f0 00000000 		.4byte	0
 3845 03f4 00000000 		.4byte	0
 3846              	.LLST28:
 3847 03f8 00000000 		.4byte	.LVL86
 3848 03fc 1A000000 		.4byte	.LVL87
 3849 0400 0200     		.2byte	0x2
 3850 0402 30       		.byte	0x30
 3851 0403 9F       		.byte	0x9f
 3852 0404 1A000000 		.4byte	.LVL87
 3853 0408 20000000 		.4byte	.LVL88
 3854 040c 0100     		.2byte	0x1
 3855 040e 50       		.byte	0x50
 3856 040f 20000000 		.4byte	.LVL88
ARM GAS  C:\Users\essele\AppData\Local\Temp\cczrtAYv.s 			page 89


 3857 0413 26000000 		.4byte	.LVL89
 3858 0417 0200     		.2byte	0x2
 3859 0419 30       		.byte	0x30
 3860 041a 9F       		.byte	0x9f
 3861 041b 26000000 		.4byte	.LVL89
 3862 041f 34000000 		.4byte	.LFE15
 3863 0423 0100     		.2byte	0x1
 3864 0425 50       		.byte	0x50
 3865 0426 00000000 		.4byte	0
 3866 042a 00000000 		.4byte	0
 3867              	.LLST29:
 3868 042e 10000000 		.4byte	.LVL90
 3869 0432 12000000 		.4byte	.LVL91
 3870 0436 0600     		.2byte	0x6
 3871 0438 70       		.byte	0x70
 3872 0439 00       		.sleb128 0
 3873 043a 08       		.byte	0x8
 3874 043b FF       		.byte	0xff
 3875 043c 1A       		.byte	0x1a
 3876 043d 9F       		.byte	0x9f
 3877 043e 16000000 		.4byte	.LVL92
 3878 0442 18000000 		.4byte	.LVL93
 3879 0446 0100     		.2byte	0x1
 3880 0448 50       		.byte	0x50
 3881 0449 1C000000 		.4byte	.LVL94
 3882 044d 1E000000 		.4byte	.LVL95
 3883 0451 0100     		.2byte	0x1
 3884 0453 50       		.byte	0x50
 3885 0454 22000000 		.4byte	.LVL96
 3886 0458 2C000000 		.4byte	.LFE16
 3887 045c 0100     		.2byte	0x1
 3888 045e 50       		.byte	0x50
 3889 045f 00000000 		.4byte	0
 3890 0463 00000000 		.4byte	0
 3891              	.LLST30:
 3892 0467 00000000 		.4byte	.LVL97
 3893 046b 44000000 		.4byte	.LVL99
 3894 046f 0100     		.2byte	0x1
 3895 0471 50       		.byte	0x50
 3896 0472 44000000 		.4byte	.LVL99
 3897 0476 47000000 		.4byte	.LVL100-1
 3898 047a 0500     		.2byte	0x5
 3899 047c 75       		.byte	0x75
 3900 047d 00       		.sleb128 0
 3901 047e 74       		.byte	0x74
 3902 047f 00       		.sleb128 0
 3903 0480 22       		.byte	0x22
 3904 0481 47000000 		.4byte	.LVL100-1
 3905 0485 60000000 		.4byte	.LFE21
 3906 0489 0400     		.2byte	0x4
 3907 048b F3       		.byte	0xf3
 3908 048c 01       		.uleb128 0x1
 3909 048d 50       		.byte	0x50
 3910 048e 9F       		.byte	0x9f
 3911 048f 00000000 		.4byte	0
 3912 0493 00000000 		.4byte	0
 3913              	.LLST31:
ARM GAS  C:\Users\essele\AppData\Local\Temp\cczrtAYv.s 			page 90


 3914 0497 0C000000 		.4byte	.LVL98
 3915 049b 47000000 		.4byte	.LVL100-1
 3916 049f 0100     		.2byte	0x1
 3917 04a1 53       		.byte	0x53
 3918 04a2 00000000 		.4byte	0
 3919 04a6 00000000 		.4byte	0
 3920              	.LLST32:
 3921 04aa 00000000 		.4byte	.LVL102
 3922 04ae 0A000000 		.4byte	.LVL104
 3923 04b2 0100     		.2byte	0x1
 3924 04b4 50       		.byte	0x50
 3925 04b5 0A000000 		.4byte	.LVL104
 3926 04b9 5C000000 		.4byte	.LFE26
 3927 04bd 0400     		.2byte	0x4
 3928 04bf F3       		.byte	0xf3
 3929 04c0 01       		.uleb128 0x1
 3930 04c1 50       		.byte	0x50
 3931 04c2 9F       		.byte	0x9f
 3932 04c3 00000000 		.4byte	0
 3933 04c7 00000000 		.4byte	0
 3934              	.LLST33:
 3935 04cb 00000000 		.4byte	.LVL102
 3936 04cf 20000000 		.4byte	.LVL107
 3937 04d3 0100     		.2byte	0x1
 3938 04d5 52       		.byte	0x52
 3939 04d6 20000000 		.4byte	.LVL107
 3940 04da 22000000 		.4byte	.LVL108
 3941 04de 0400     		.2byte	0x4
 3942 04e0 F3       		.byte	0xf3
 3943 04e1 01       		.uleb128 0x1
 3944 04e2 52       		.byte	0x52
 3945 04e3 9F       		.byte	0x9f
 3946 04e4 22000000 		.4byte	.LVL108
 3947 04e8 32000000 		.4byte	.LVL112
 3948 04ec 0100     		.2byte	0x1
 3949 04ee 52       		.byte	0x52
 3950 04ef 32000000 		.4byte	.LVL112
 3951 04f3 34000000 		.4byte	.LVL113
 3952 04f7 0400     		.2byte	0x4
 3953 04f9 F3       		.byte	0xf3
 3954 04fa 01       		.uleb128 0x1
 3955 04fb 52       		.byte	0x52
 3956 04fc 9F       		.byte	0x9f
 3957 04fd 34000000 		.4byte	.LVL113
 3958 0501 48000000 		.4byte	.LVL117
 3959 0505 0100     		.2byte	0x1
 3960 0507 52       		.byte	0x52
 3961 0508 48000000 		.4byte	.LVL117
 3962 050c 4A000000 		.4byte	.LVL118
 3963 0510 0400     		.2byte	0x4
 3964 0512 F3       		.byte	0xf3
 3965 0513 01       		.uleb128 0x1
 3966 0514 52       		.byte	0x52
 3967 0515 9F       		.byte	0x9f
 3968 0516 4A000000 		.4byte	.LVL118
 3969 051a 5C000000 		.4byte	.LFE26
 3970 051e 0100     		.2byte	0x1
ARM GAS  C:\Users\essele\AppData\Local\Temp\cczrtAYv.s 			page 91


 3971 0520 52       		.byte	0x52
 3972 0521 00000000 		.4byte	0
 3973 0525 00000000 		.4byte	0
 3974              	.LLST34:
 3975 0529 08000000 		.4byte	.LVL103
 3976 052d 16000000 		.4byte	.LVL105
 3977 0531 0100     		.2byte	0x1
 3978 0533 53       		.byte	0x53
 3979 0534 16000000 		.4byte	.LVL105
 3980 0538 1C000000 		.4byte	.LVL106
 3981 053c 0E00     		.2byte	0xe
 3982 053e F3       		.byte	0xf3
 3983 053f 01       		.uleb128 0x1
 3984 0540 50       		.byte	0x50
 3985 0541 23       		.byte	0x23
 3986 0542 03       		.uleb128 0x3
 3987 0543 94       		.byte	0x94
 3988 0544 01       		.byte	0x1
 3989 0545 08       		.byte	0x8
 3990 0546 FF       		.byte	0xff
 3991 0547 1A       		.byte	0x1a
 3992 0548 74       		.byte	0x74
 3993 0549 00       		.sleb128 0
 3994 054a 1A       		.byte	0x1a
 3995 054b 9F       		.byte	0x9f
 3996 054c 24000000 		.4byte	.LVL109
 3997 0550 26000000 		.4byte	.LVL110
 3998 0554 0100     		.2byte	0x1
 3999 0556 53       		.byte	0x53
 4000 0557 26000000 		.4byte	.LVL110
 4001 055b 2E000000 		.4byte	.LVL111
 4002 055f 0E00     		.2byte	0xe
 4003 0561 F3       		.byte	0xf3
 4004 0562 01       		.uleb128 0x1
 4005 0563 50       		.byte	0x50
 4006 0564 23       		.byte	0x23
 4007 0565 03       		.uleb128 0x3
 4008 0566 94       		.byte	0x94
 4009 0567 01       		.byte	0x1
 4010 0568 08       		.byte	0x8
 4011 0569 FF       		.byte	0xff
 4012 056a 1A       		.byte	0x1a
 4013 056b 74       		.byte	0x74
 4014 056c 00       		.sleb128 0
 4015 056d 1A       		.byte	0x1a
 4016 056e 9F       		.byte	0x9f
 4017 056f 36000000 		.4byte	.LVL114
 4018 0573 3C000000 		.4byte	.LVL115
 4019 0577 0100     		.2byte	0x1
 4020 0579 53       		.byte	0x53
 4021 057a 3C000000 		.4byte	.LVL115
 4022 057e 44000000 		.4byte	.LVL116
 4023 0582 0E00     		.2byte	0xe
 4024 0584 F3       		.byte	0xf3
 4025 0585 01       		.uleb128 0x1
 4026 0586 50       		.byte	0x50
 4027 0587 23       		.byte	0x23
ARM GAS  C:\Users\essele\AppData\Local\Temp\cczrtAYv.s 			page 92


 4028 0588 03       		.uleb128 0x3
 4029 0589 94       		.byte	0x94
 4030 058a 01       		.byte	0x1
 4031 058b 08       		.byte	0x8
 4032 058c FF       		.byte	0xff
 4033 058d 1A       		.byte	0x1a
 4034 058e 74       		.byte	0x74
 4035 058f 00       		.sleb128 0
 4036 0590 1A       		.byte	0x1a
 4037 0591 9F       		.byte	0x9f
 4038 0592 00000000 		.4byte	0
 4039 0596 00000000 		.4byte	0
 4040              		.section	.debug_aranges,"",%progbits
 4041 0000 E4000000 		.4byte	0xe4
 4042 0004 0200     		.2byte	0x2
 4043 0006 00000000 		.4byte	.Ldebug_info0
 4044 000a 04       		.byte	0x4
 4045 000b 00       		.byte	0
 4046 000c 0000     		.2byte	0
 4047 000e 0000     		.2byte	0
 4048 0010 00000000 		.4byte	.LFB5
 4049 0014 12000000 		.4byte	.LFE5-.LFB5
 4050 0018 00000000 		.4byte	.LFB2
 4051 001c 38000000 		.4byte	.LFE2-.LFB2
 4052 0020 00000000 		.4byte	.LFB1
 4053 0024 98000000 		.4byte	.LFE1-.LFB1
 4054 0028 00000000 		.4byte	.LFB3
 4055 002c 94000000 		.4byte	.LFE3-.LFB3
 4056 0030 00000000 		.4byte	.LFB4
 4057 0034 50000000 		.4byte	.LFE4-.LFB4
 4058 0038 00000000 		.4byte	.LFB6
 4059 003c A8000000 		.4byte	.LFE6-.LFB6
 4060 0040 00000000 		.4byte	.LFB7
 4061 0044 28000000 		.4byte	.LFE7-.LFB7
 4062 0048 00000000 		.4byte	.LFB8
 4063 004c 30000000 		.4byte	.LFE8-.LFB8
 4064 0050 00000000 		.4byte	.LFB9
 4065 0054 34000000 		.4byte	.LFE9-.LFB9
 4066 0058 00000000 		.4byte	.LFB10
 4067 005c 1C000000 		.4byte	.LFE10-.LFB10
 4068 0060 00000000 		.4byte	.LFB11
 4069 0064 1C000000 		.4byte	.LFE11-.LFB11
 4070 0068 00000000 		.4byte	.LFB12
 4071 006c 20000000 		.4byte	.LFE12-.LFB12
 4072 0070 00000000 		.4byte	.LFB13
 4073 0074 30000000 		.4byte	.LFE13-.LFB13
 4074 0078 00000000 		.4byte	.LFB14
 4075 007c 28000000 		.4byte	.LFE14-.LFB14
 4076 0080 00000000 		.4byte	.LFB15
 4077 0084 34000000 		.4byte	.LFE15-.LFB15
 4078 0088 00000000 		.4byte	.LFB16
 4079 008c 2C000000 		.4byte	.LFE16-.LFB16
 4080 0090 00000000 		.4byte	.LFB17
 4081 0094 1C000000 		.4byte	.LFE17-.LFB17
 4082 0098 00000000 		.4byte	.LFB18
 4083 009c 1C000000 		.4byte	.LFE18-.LFB18
 4084 00a0 00000000 		.4byte	.LFB19
ARM GAS  C:\Users\essele\AppData\Local\Temp\cczrtAYv.s 			page 93


 4085 00a4 1C000000 		.4byte	.LFE19-.LFB19
 4086 00a8 00000000 		.4byte	.LFB20
 4087 00ac 18000000 		.4byte	.LFE20-.LFB20
 4088 00b0 00000000 		.4byte	.LFB21
 4089 00b4 60000000 		.4byte	.LFE21-.LFB21
 4090 00b8 00000000 		.4byte	.LFB22
 4091 00bc 18000000 		.4byte	.LFE22-.LFB22
 4092 00c0 00000000 		.4byte	.LFB23
 4093 00c4 28000000 		.4byte	.LFE23-.LFB23
 4094 00c8 00000000 		.4byte	.LFB24
 4095 00cc 18000000 		.4byte	.LFE24-.LFB24
 4096 00d0 00000000 		.4byte	.LFB25
 4097 00d4 0C000000 		.4byte	.LFE25-.LFB25
 4098 00d8 00000000 		.4byte	.LFB26
 4099 00dc 5C000000 		.4byte	.LFE26-.LFB26
 4100 00e0 00000000 		.4byte	0
 4101 00e4 00000000 		.4byte	0
 4102              		.section	.debug_ranges,"",%progbits
 4103              	.Ldebug_ranges0:
 4104 0000 00000000 		.4byte	.LFB5
 4105 0004 12000000 		.4byte	.LFE5
 4106 0008 00000000 		.4byte	.LFB2
 4107 000c 38000000 		.4byte	.LFE2
 4108 0010 00000000 		.4byte	.LFB1
 4109 0014 98000000 		.4byte	.LFE1
 4110 0018 00000000 		.4byte	.LFB3
 4111 001c 94000000 		.4byte	.LFE3
 4112 0020 00000000 		.4byte	.LFB4
 4113 0024 50000000 		.4byte	.LFE4
 4114 0028 00000000 		.4byte	.LFB6
 4115 002c A8000000 		.4byte	.LFE6
 4116 0030 00000000 		.4byte	.LFB7
 4117 0034 28000000 		.4byte	.LFE7
 4118 0038 00000000 		.4byte	.LFB8
 4119 003c 30000000 		.4byte	.LFE8
 4120 0040 00000000 		.4byte	.LFB9
 4121 0044 34000000 		.4byte	.LFE9
 4122 0048 00000000 		.4byte	.LFB10
 4123 004c 1C000000 		.4byte	.LFE10
 4124 0050 00000000 		.4byte	.LFB11
 4125 0054 1C000000 		.4byte	.LFE11
 4126 0058 00000000 		.4byte	.LFB12
 4127 005c 20000000 		.4byte	.LFE12
 4128 0060 00000000 		.4byte	.LFB13
 4129 0064 30000000 		.4byte	.LFE13
 4130 0068 00000000 		.4byte	.LFB14
 4131 006c 28000000 		.4byte	.LFE14
 4132 0070 00000000 		.4byte	.LFB15
 4133 0074 34000000 		.4byte	.LFE15
 4134 0078 00000000 		.4byte	.LFB16
 4135 007c 2C000000 		.4byte	.LFE16
 4136 0080 00000000 		.4byte	.LFB17
 4137 0084 1C000000 		.4byte	.LFE17
 4138 0088 00000000 		.4byte	.LFB18
 4139 008c 1C000000 		.4byte	.LFE18
 4140 0090 00000000 		.4byte	.LFB19
 4141 0094 1C000000 		.4byte	.LFE19
ARM GAS  C:\Users\essele\AppData\Local\Temp\cczrtAYv.s 			page 94


 4142 0098 00000000 		.4byte	.LFB20
 4143 009c 18000000 		.4byte	.LFE20
 4144 00a0 00000000 		.4byte	.LFB21
 4145 00a4 60000000 		.4byte	.LFE21
 4146 00a8 00000000 		.4byte	.LFB22
 4147 00ac 18000000 		.4byte	.LFE22
 4148 00b0 00000000 		.4byte	.LFB23
 4149 00b4 28000000 		.4byte	.LFE23
 4150 00b8 00000000 		.4byte	.LFB24
 4151 00bc 18000000 		.4byte	.LFE24
 4152 00c0 00000000 		.4byte	.LFB25
 4153 00c4 0C000000 		.4byte	.LFE25
 4154 00c8 00000000 		.4byte	.LFB26
 4155 00cc 5C000000 		.4byte	.LFE26
 4156 00d0 00000000 		.4byte	0
 4157 00d4 00000000 		.4byte	0
 4158              		.section	.debug_line,"",%progbits
 4159              	.Ldebug_line0:
 4160 0000 F3020000 		.section	.debug_str,"MS",%progbits,1
 4160      02007100 
 4160      00000201 
 4160      FB0E0D00 
 4160      01010101 
 4161              	.LASF45:
 4162 0000 77496E64 		.ascii	"wIndex\000"
 4162      657800
 4163              	.LASF25:
 4164 0007 62756666 		.ascii	"bufferSize\000"
 4164      65725369 
 4164      7A6500
 4165              	.LASF67:
 4166 0012 64617461 		.ascii	"dataByte\000"
 4166      42797465 
 4166      00
 4167              	.LASF38:
 4168 001b 545F5553 		.ascii	"T_USBUART_TD\000"
 4168      42554152 
 4168      545F5444 
 4168      00
 4169              	.LASF48:
 4170 0028 77536572 		.ascii	"wSerialState\000"
 4170      69616C53 
 4170      74617465 
 4170      00
 4171              	.LASF26:
 4172 0035 696E7465 		.ascii	"interface\000"
 4172      72666163 
 4172      6500
 4173              	.LASF81:
 4174 003f 55534255 		.ascii	"USBUART_GetDTERate\000"
 4174      4152545F 
 4174      47657444 
 4174      54455261 
 4174      746500
 4175              	.LASF78:
 4176 0052 72784461 		.ascii	"rxData\000"
 4176      746100
ARM GAS  C:\Users\essele\AppData\Local\Temp\cczrtAYv.s 			page 95


 4177              	.LASF8:
 4178 0059 756E7369 		.ascii	"unsigned int\000"
 4178      676E6564 
 4178      20696E74 
 4178      00
 4179              	.LASF95:
 4180 0066 65704E75 		.ascii	"epNum\000"
 4180      6D00
 4181              	.LASF114:
 4182 006c 43794861 		.ascii	"CyHalt\000"
 4182      6C7400
 4183              	.LASF65:
 4184 0073 55534255 		.ascii	"USBUART_PutChar\000"
 4184      4152545F 
 4184      50757443 
 4184      68617200 
 4185              	.LASF55:
 4186 0083 55534255 		.ascii	"USBUART_DispatchCDCClassRqst\000"
 4186      4152545F 
 4186      44697370 
 4186      61746368 
 4186      43444343 
 4187              	.LASF93:
 4188 00a0 55534255 		.ascii	"USBUART_GetComPort\000"
 4188      4152545F 
 4188      47657443 
 4188      6F6D506F 
 4188      727400
 4189              	.LASF106:
 4190 00b3 55534255 		.ascii	"USBUART_cdcDataOutEp\000"
 4190      4152545F 
 4190      63646344 
 4190      6174614F 
 4190      75744570 
 4191              	.LASF87:
 4192 00c8 55534255 		.ascii	"USBUART_SendSerialState\000"
 4192      4152545F 
 4192      53656E64 
 4192      53657269 
 4192      616C5374 
 4193              	.LASF60:
 4194 00e0 55534255 		.ascii	"USBUART_PutData\000"
 4194      4152545F 
 4194      50757444 
 4194      61746100 
 4195              	.LASF66:
 4196 00f0 74784461 		.ascii	"txDataByte\000"
 4196      74614279 
 4196      746500
 4197              	.LASF116:
 4198 00fb 55534255 		.ascii	"USBUART_GetEPCount\000"
 4198      4152545F 
 4198      47657445 
 4198      50436F75 
 4198      6E7400
 4199              	.LASF50:
 4200 010e 745F5553 		.ascii	"t_USBUART_cdc_notification\000"
ARM GAS  C:\Users\essele\AppData\Local\Temp\cczrtAYv.s 			page 96


 4200      42554152 
 4200      545F6364 
 4200      635F6E6F 
 4200      74696669 
 4201              	.LASF43:
 4202 0129 7756616C 		.ascii	"wValue\000"
 4202      756500
 4203              	.LASF122:
 4204 0130 55534255 		.ascii	"USBUART_StrLen\000"
 4204      4152545F 
 4204      5374724C 
 4204      656E00
 4205              	.LASF108:
 4206 013f 55534255 		.ascii	"USBUART_EP\000"
 4206      4152545F 
 4206      455000
 4207              	.LASF28:
 4208 014a 616C7453 		.ascii	"altSetting\000"
 4208      65747469 
 4208      6E6700
 4209              	.LASF99:
 4210 0155 55534255 		.ascii	"USBUART_activeCom\000"
 4210      4152545F 
 4210      61637469 
 4210      7665436F 
 4210      6D00
 4211              	.LASF21:
 4212 0167 6570546F 		.ascii	"epToggle\000"
 4212      67676C65 
 4212      00
 4213              	.LASF86:
 4214 0170 55534255 		.ascii	"USBUART_GetLineControl\000"
 4214      4152545F 
 4214      4765744C 
 4214      696E6543 
 4214      6F6E7472 
 4215              	.LASF104:
 4216 0187 55534255 		.ascii	"USBUART_serialStateBitmap\000"
 4216      4152545F 
 4216      73657269 
 4216      616C5374 
 4216      61746542 
 4217              	.LASF12:
 4218 01a1 666C6F61 		.ascii	"float\000"
 4218      7400
 4219              	.LASF35:
 4220 01a7 636F756E 		.ascii	"count\000"
 4220      7400
 4221              	.LASF98:
 4222 01ad 55534255 		.ascii	"USBUART_serialStateNotification\000"
 4222      4152545F 
 4222      73657269 
 4222      616C5374 
 4222      6174654E 
 4223              	.LASF7:
 4224 01cd 6C6F6E67 		.ascii	"long long unsigned int\000"
 4224      206C6F6E 
ARM GAS  C:\Users\essele\AppData\Local\Temp\cczrtAYv.s 			page 97


 4224      6720756E 
 4224      7369676E 
 4224      65642069 
 4225              	.LASF113:
 4226 01e4 55534255 		.ascii	"USBUART_EnableOutEP\000"
 4226      4152545F 
 4226      456E6162 
 4226      6C654F75 
 4226      74455000 
 4227              	.LASF79:
 4228 01f8 55534255 		.ascii	"USBUART_IsLineChanged\000"
 4228      4152545F 
 4228      49734C69 
 4228      6E654368 
 4228      616E6765 
 4229              	.LASF42:
 4230 020e 624E6F74 		.ascii	"bNotification\000"
 4230      69666963 
 4230      6174696F 
 4230      6E00
 4231              	.LASF47:
 4232 021c 774C656E 		.ascii	"wLengthMSB\000"
 4232      6774684D 
 4232      534200
 4233              	.LASF53:
 4234 0227 6E6F7445 		.ascii	"notEp\000"
 4234      7000
 4235              	.LASF119:
 4236 022d 474E5520 		.ascii	"GNU C11 5.4.1 20160609 (release) [ARM/embedded-5-br"
 4236      43313120 
 4236      352E342E 
 4236      31203230 
 4236      31363036 
 4237 0260 616E6368 		.ascii	"anch revision 237715] -mcpu=cortex-m0 -mthumb -g -O"
 4237      20726576 
 4237      6973696F 
 4237      6E203233 
 4237      37373135 
 4238 0293 67202D66 		.ascii	"g -ffunction-sections -ffat-lto-objects\000"
 4238      66756E63 
 4238      74696F6E 
 4238      2D736563 
 4238      74696F6E 
 4239              	.LASF57:
 4240 02bb 55534255 		.ascii	"USBUART_CDC_Init\000"
 4240      4152545F 
 4240      4344435F 
 4240      496E6974 
 4240      00
 4241              	.LASF121:
 4242 02cc 5C5C4D61 		.ascii	"\\\\Mac\\Home\\Documents\\PSoC Creator\\GPIB USB Ad"
 4242      635C486F 
 4242      6D655C44 
 4242      6F63756D 
 4242      656E7473 
 4243 02f9 61707465 		.ascii	"apter\\GPIB USB 1.cydsn\000"
 4243      725C4750 
ARM GAS  C:\Users\essele\AppData\Local\Temp\cczrtAYv.s 			page 98


 4243      49422055 
 4243      53422031 
 4243      2E637964 
 4244              	.LASF31:
 4245 0310 545F5553 		.ascii	"T_USBUART_EP_SETTINGS_BLOCK\000"
 4245      42554152 
 4245      545F4550 
 4245      5F534554 
 4245      54494E47 
 4246              	.LASF118:
 4247 032c 55534255 		.ascii	"USBUART_ReadOutEP\000"
 4247      4152545F 
 4247      52656164 
 4247      4F757445 
 4247      5000
 4248              	.LASF36:
 4249 033e 70446174 		.ascii	"pData\000"
 4249      6100
 4250              	.LASF103:
 4251 0344 55534255 		.ascii	"USBUART_linesControlBitmap\000"
 4251      4152545F 
 4251      6C696E65 
 4251      73436F6E 
 4251      74726F6C 
 4252              	.LASF69:
 4253 035f 74784461 		.ascii	"txData\000"
 4253      746100
 4254              	.LASF100:
 4255 0366 55534255 		.ascii	"USBUART_transferState\000"
 4255      4152545F 
 4255      7472616E 
 4255      73666572 
 4255      53746174 
 4256              	.LASF84:
 4257 037c 55534255 		.ascii	"USBUART_GetParityType\000"
 4257      4152545F 
 4257      47657450 
 4257      61726974 
 4257      79547970 
 4258              	.LASF105:
 4259 0392 55534255 		.ascii	"USBUART_cdcDataInEp\000"
 4259      4152545F 
 4259      63646344 
 4259      61746149 
 4259      6E457000 
 4260              	.LASF37:
 4261 03a6 70537461 		.ascii	"pStatusBlock\000"
 4261      74757342 
 4261      6C6F636B 
 4261      00
 4262              	.LASF83:
 4263 03b3 55534255 		.ascii	"USBUART_GetCharFormat\000"
 4263      4152545F 
 4263      47657443 
 4263      68617246 
 4263      6F726D61 
 4264              	.LASF44:
ARM GAS  C:\Users\essele\AppData\Local\Temp\cczrtAYv.s 			page 99


 4265 03c9 7756616C 		.ascii	"wValueMSB\000"
 4265      75654D53 
 4265      4200
 4266              	.LASF88:
 4267 03d3 73657269 		.ascii	"serialState\000"
 4267      616C5374 
 4267      61746500 
 4268              	.LASF15:
 4269 03df 63686172 		.ascii	"char\000"
 4269      00
 4270              	.LASF58:
 4271 03e4 6F757445 		.ascii	"outEp\000"
 4271      7000
 4272              	.LASF82:
 4273 03ea 72617465 		.ascii	"rate\000"
 4273      00
 4274              	.LASF75:
 4275 03ef 55534255 		.ascii	"USBUART_GetAll\000"
 4275      4152545F 
 4275      47657441 
 4275      6C6C00
 4276              	.LASF51:
 4277 03fe 73747269 		.ascii	"string\000"
 4277      6E6700
 4278              	.LASF10:
 4279 0405 75696E74 		.ascii	"uint16\000"
 4279      313600
 4280              	.LASF85:
 4281 040c 55534255 		.ascii	"USBUART_GetDataBits\000"
 4281      4152545F 
 4281      47657444 
 4281      61746142 
 4281      69747300 
 4282              	.LASF54:
 4283 0420 55534255 		.ascii	"USBUART_GetInterfaceComPort\000"
 4283      4152545F 
 4283      47657449 
 4283      6E746572 
 4283      66616365 
 4284              	.LASF32:
 4285 043c 73746174 		.ascii	"status\000"
 4285      757300
 4286              	.LASF14:
 4287 0443 63686172 		.ascii	"char8\000"
 4287      3800
 4288              	.LASF24:
 4289 0449 62756666 		.ascii	"buffOffset\000"
 4289      4F666673 
 4289      657400
 4290              	.LASF77:
 4291 0454 55534255 		.ascii	"USBUART_GetChar\000"
 4291      4152545F 
 4291      47657443 
 4291      68617200 
 4292              	.LASF97:
 4293 0464 65705479 		.ascii	"epType\000"
 4293      706500
ARM GAS  C:\Users\essele\AppData\Local\Temp\cczrtAYv.s 			page 100


 4294              	.LASF56:
 4295 046b 72657175 		.ascii	"requestHandled\000"
 4295      65737448 
 4295      616E646C 
 4295      656400
 4296              	.LASF111:
 4297 047a 55534255 		.ascii	"USBUART_InitControlWrite\000"
 4297      4152545F 
 4297      496E6974 
 4297      436F6E74 
 4297      726F6C57 
 4298              	.LASF6:
 4299 0493 6C6F6E67 		.ascii	"long long int\000"
 4299      206C6F6E 
 4299      6720696E 
 4299      7400
 4300              	.LASF74:
 4301 04a1 55534255 		.ascii	"USBUART_GetData\000"
 4301      4152545F 
 4301      47657444 
 4301      61746100 
 4302              	.LASF30:
 4303 04b1 624D6973 		.ascii	"bMisc\000"
 4303      6300
 4304              	.LASF64:
 4305 04b7 62756649 		.ascii	"bufIndex\000"
 4305      6E646578 
 4305      00
 4306              	.LASF59:
 4307 04c0 65704E75 		.ascii	"epNumber\000"
 4307      6D626572 
 4307      00
 4308              	.LASF89:
 4309 04c9 55534255 		.ascii	"USBUART_GetSerialState\000"
 4309      4152545F 
 4309      47657453 
 4309      65726961 
 4309      6C537461 
 4310              	.LASF34:
 4311 04e0 545F5553 		.ascii	"T_USBUART_XFER_STATUS_BLOCK\000"
 4311      42554152 
 4311      545F5846 
 4311      45525F53 
 4311      54415455 
 4312              	.LASF107:
 4313 04fc 55534255 		.ascii	"USBUART_cdcCommInInterruptEp\000"
 4313      4152545F 
 4313      63646343 
 4313      6F6D6D49 
 4313      6E496E74 
 4314              	.LASF20:
 4315 0519 68774570 		.ascii	"hwEpState\000"
 4315      53746174 
 4315      6500
 4316              	.LASF102:
 4317 0523 55534255 		.ascii	"USBUART_linesChanged\000"
 4317      4152545F 
ARM GAS  C:\Users\essele\AppData\Local\Temp\cczrtAYv.s 			page 101


 4317      6C696E65 
 4317      73436861 
 4317      6E676564 
 4318              	.LASF96:
 4319 0538 63646343 		.ascii	"cdcComNums\000"
 4319      6F6D4E75 
 4319      6D7300
 4320              	.LASF11:
 4321 0543 75696E74 		.ascii	"uint32\000"
 4321      333200
 4322              	.LASF62:
 4323 054a 7374724C 		.ascii	"strLength\000"
 4323      656E6774 
 4323      6800
 4324              	.LASF115:
 4325 0554 55534255 		.ascii	"USBUART_LoadInEP\000"
 4325      4152545F 
 4325      4C6F6164 
 4325      496E4550 
 4325      00
 4326              	.LASF70:
 4327 0565 55534255 		.ascii	"USBUART_GetCount\000"
 4327      4152545F 
 4327      47657443 
 4327      6F756E74 
 4327      00
 4328              	.LASF16:
 4329 0576 6C6F6E67 		.ascii	"long double\000"
 4329      20646F75 
 4329      626C6500 
 4330              	.LASF49:
 4331 0582 77536572 		.ascii	"wSerialStateMSB\000"
 4331      69616C53 
 4331      74617465 
 4331      4D534200 
 4332              	.LASF52:
 4333 0592 636F6D50 		.ascii	"comPort\000"
 4333      6F727400 
 4334              	.LASF41:
 4335 059a 62526571 		.ascii	"bRequestType\000"
 4335      75657374 
 4335      54797065 
 4335      00
 4336              	.LASF2:
 4337 05a7 73686F72 		.ascii	"short int\000"
 4337      7420696E 
 4337      7400
 4338              	.LASF23:
 4339 05b1 65704D6F 		.ascii	"epMode\000"
 4339      646500
 4340              	.LASF4:
 4341 05b8 6C6F6E67 		.ascii	"long int\000"
 4341      20696E74 
 4341      00
 4342              	.LASF71:
 4343 05c1 62797465 		.ascii	"bytesCount\000"
 4343      73436F75 
ARM GAS  C:\Users\essele\AppData\Local\Temp\cczrtAYv.s 			page 102


 4343      6E7400
 4344              	.LASF33:
 4345 05cc 6C656E67 		.ascii	"length\000"
 4345      746800
 4346              	.LASF120:
 4347 05d3 47656E65 		.ascii	"Generated_Source\\PSoC4\\USBUART_cdc.c\000"
 4347      72617465 
 4347      645F536F 
 4347      75726365 
 4347      5C50536F 
 4348              	.LASF46:
 4349 05f8 77496E64 		.ascii	"wIndexMSB\000"
 4349      65784D53 
 4349      4200
 4350              	.LASF40:
 4351 0602 55534255 		.ascii	"USBUART_ep0_data_struct\000"
 4351      4152545F 
 4351      6570305F 
 4351      64617461 
 4351      5F737472 
 4352              	.LASF61:
 4353 061a 55534255 		.ascii	"USBUART_PutString\000"
 4353      4152545F 
 4353      50757453 
 4353      7472696E 
 4353      6700
 4354              	.LASF72:
 4355 062c 55534255 		.ascii	"USBUART_DataIsReady\000"
 4355      4152545F 
 4355      44617461 
 4355      49735265 
 4355      61647900 
 4356              	.LASF17:
 4357 0640 73697A65 		.ascii	"sizetype\000"
 4357      74797065 
 4357      00
 4358              	.LASF5:
 4359 0649 6C6F6E67 		.ascii	"long unsigned int\000"
 4359      20756E73 
 4359      69676E65 
 4359      6420696E 
 4359      7400
 4360              	.LASF73:
 4361 065b 55534255 		.ascii	"USBUART_CDCIsReady\000"
 4361      4152545F 
 4361      43444349 
 4361      73526561 
 4361      647900
 4362              	.LASF27:
 4363 066e 545F5553 		.ascii	"T_USBUART_EP_CTL_BLOCK\000"
 4363      42554152 
 4363      545F4550 
 4363      5F43544C 
 4363      5F424C4F 
 4364              	.LASF1:
 4365 0685 756E7369 		.ascii	"unsigned char\000"
 4365      676E6564 
ARM GAS  C:\Users\essele\AppData\Local\Temp\cczrtAYv.s 			page 103


 4365      20636861 
 4365      7200
 4366              	.LASF94:
 4367 0693 55534255 		.ascii	"USBUART_Cdc_EpInit\000"
 4367      4152545F 
 4367      4364635F 
 4367      4570496E 
 4367      697400
 4368              	.LASF90:
 4369 06a6 55534255 		.ascii	"USBUART_NotificationIsReady\000"
 4369      4152545F 
 4369      4E6F7469 
 4369      66696361 
 4369      74696F6E 
 4370              	.LASF29:
 4371 06c2 61747472 		.ascii	"attributes\000"
 4371      69627574 
 4371      657300
 4372              	.LASF22:
 4373 06cd 61646472 		.ascii	"addr\000"
 4373      00
 4374              	.LASF76:
 4375 06d2 64617461 		.ascii	"dataLength\000"
 4375      4C656E67 
 4375      746800
 4376              	.LASF80:
 4377 06dd 73746174 		.ascii	"state\000"
 4377      6500
 4378              	.LASF101:
 4379 06e3 55534255 		.ascii	"USBUART_linesCoding\000"
 4379      4152545F 
 4379      6C696E65 
 4379      73436F64 
 4379      696E6700 
 4380              	.LASF0:
 4381 06f7 7369676E 		.ascii	"signed char\000"
 4381      65642063 
 4381      68617200 
 4382              	.LASF117:
 4383 0703 55534255 		.ascii	"USBUART_GetEPState\000"
 4383      4152545F 
 4383      47657445 
 4383      50537461 
 4383      746500
 4384              	.LASF3:
 4385 0716 73686F72 		.ascii	"short unsigned int\000"
 4385      7420756E 
 4385      7369676E 
 4385      65642069 
 4385      6E7400
 4386              	.LASF123:
 4387 0729 6D656D63 		.ascii	"memcpy\000"
 4387      707900
 4388              	.LASF112:
 4389 0730 55534255 		.ascii	"USBUART_InitNoDataControlTransfer\000"
 4389      4152545F 
 4389      496E6974 
ARM GAS  C:\Users\essele\AppData\Local\Temp\cczrtAYv.s 			page 104


 4389      4E6F4461 
 4389      7461436F 
 4390              	.LASF9:
 4391 0752 75696E74 		.ascii	"uint8\000"
 4391      3800
 4392              	.LASF13:
 4393 0758 646F7562 		.ascii	"double\000"
 4393      6C6500
 4394              	.LASF110:
 4395 075f 55534255 		.ascii	"USBUART_InitControlRead\000"
 4395      4152545F 
 4395      496E6974 
 4395      436F6E74 
 4395      726F6C52 
 4396              	.LASF92:
 4397 0777 636F6D4E 		.ascii	"comNumber\000"
 4397      756D6265 
 4397      7200
 4398              	.LASF109:
 4399 0781 55534255 		.ascii	"USBUART_currentTD\000"
 4399      4152545F 
 4399      63757272 
 4399      656E7454 
 4399      4400
 4400              	.LASF18:
 4401 0793 61747472 		.ascii	"attrib\000"
 4401      696200
 4402              	.LASF91:
 4403 079a 55534255 		.ascii	"USBUART_SetComPort\000"
 4403      4152545F 
 4403      53657443 
 4403      6F6D506F 
 4403      727400
 4404              	.LASF19:
 4405 07ad 61706945 		.ascii	"apiEpState\000"
 4405      70537461 
 4405      746500
 4406              	.LASF63:
 4407 07b8 73656E64 		.ascii	"sendLength\000"
 4407      4C656E67 
 4407      746800
 4408              	.LASF68:
 4409 07c3 55534255 		.ascii	"USBUART_PutCRLF\000"
 4409      4152545F 
 4409      50757443 
 4409      524C4600 
 4410              	.LASF39:
 4411 07d3 65704461 		.ascii	"epData\000"
 4411      746100
 4412              		.ident	"GCC: (GNU Tools for ARM Embedded Processors) 5.4.1 20160609 (release) [ARM/embedded-5-bran
