ARM GAS  C:\Users\essele\AppData\Local\Temp\ccekzdIV.s 			page 1


   1              		.syntax unified
   2              		.cpu cortex-m0
   3              		.fpu softvfp
   4              		.eabi_attribute 20, 1
   5              		.eabi_attribute 21, 1
   6              		.eabi_attribute 23, 3
   7              		.eabi_attribute 24, 1
   8              		.eabi_attribute 25, 1
   9              		.eabi_attribute 26, 1
  10              		.eabi_attribute 30, 1
  11              		.eabi_attribute 34, 0
  12              		.eabi_attribute 18, 4
  13              		.thumb
  14              		.syntax unified
  15              		.file	"USBUART_pm.c"
  16              		.text
  17              	.Ltext0:
  18              		.cfi_sections	.debug_frame
  19              		.section	.text.USBUART_DP_ISR,"ax",%progbits
  20              		.align	2
  21              		.global	USBUART_DP_ISR
  22              		.code	16
  23              		.thumb_func
  24              		.type	USBUART_DP_ISR, %function
  25              	USBUART_DP_ISR:
  26              	.LFB1:
  27              		.file 1 "Generated_Source\\PSoC4\\USBUART_pm.c"
   1:Generated_Source\PSoC4/USBUART_pm.c **** /***************************************************************************//**
   2:Generated_Source\PSoC4/USBUART_pm.c **** * \file USBUART_pm.c
   3:Generated_Source\PSoC4/USBUART_pm.c **** * \version 3.20
   4:Generated_Source\PSoC4/USBUART_pm.c **** *
   5:Generated_Source\PSoC4/USBUART_pm.c **** * \brief
   6:Generated_Source\PSoC4/USBUART_pm.c **** *  This file provides Suspend/Resume APIs implementation.
   7:Generated_Source\PSoC4/USBUART_pm.c **** *
   8:Generated_Source\PSoC4/USBUART_pm.c **** ********************************************************************************
   9:Generated_Source\PSoC4/USBUART_pm.c **** * \copyright
  10:Generated_Source\PSoC4/USBUART_pm.c **** * Copyright 2008-2016, Cypress Semiconductor Corporation.  All rights reserved.
  11:Generated_Source\PSoC4/USBUART_pm.c **** * You may use this file only in accordance with the license, terms, conditions,
  12:Generated_Source\PSoC4/USBUART_pm.c **** * disclaimers, and limitations in the end user license agreement accompanying
  13:Generated_Source\PSoC4/USBUART_pm.c **** * the software package with which this file was provided.
  14:Generated_Source\PSoC4/USBUART_pm.c **** *******************************************************************************/
  15:Generated_Source\PSoC4/USBUART_pm.c **** 
  16:Generated_Source\PSoC4/USBUART_pm.c **** #include "USBUART_pvt.h"
  17:Generated_Source\PSoC4/USBUART_pm.c **** #include "USBUART_Dp.h"
  18:Generated_Source\PSoC4/USBUART_pm.c **** #include "cyapicallbacks.h"
  19:Generated_Source\PSoC4/USBUART_pm.c **** 
  20:Generated_Source\PSoC4/USBUART_pm.c **** /***************************************
  21:Generated_Source\PSoC4/USBUART_pm.c **** * Custom Declarations
  22:Generated_Source\PSoC4/USBUART_pm.c **** ***************************************/
  23:Generated_Source\PSoC4/USBUART_pm.c **** /* `#START PM_CUSTOM_DECLARATIONS` Place your declaration here */
  24:Generated_Source\PSoC4/USBUART_pm.c **** 
  25:Generated_Source\PSoC4/USBUART_pm.c **** /* `#END` */
  26:Generated_Source\PSoC4/USBUART_pm.c **** 
  27:Generated_Source\PSoC4/USBUART_pm.c **** 
  28:Generated_Source\PSoC4/USBUART_pm.c **** /***************************************
  29:Generated_Source\PSoC4/USBUART_pm.c **** * Local data allocation
  30:Generated_Source\PSoC4/USBUART_pm.c **** ***************************************/
ARM GAS  C:\Users\essele\AppData\Local\Temp\ccekzdIV.s 			page 2


  31:Generated_Source\PSoC4/USBUART_pm.c **** 
  32:Generated_Source\PSoC4/USBUART_pm.c **** static USBUART_BACKUP_STRUCT  USBUART_backup;
  33:Generated_Source\PSoC4/USBUART_pm.c **** 
  34:Generated_Source\PSoC4/USBUART_pm.c **** #if (USBUART_DP_ISR_ACTIVE)
  35:Generated_Source\PSoC4/USBUART_pm.c ****     /*******************************************************************************
  36:Generated_Source\PSoC4/USBUART_pm.c ****     * Function Name: USBUART_DP_ISR
  37:Generated_Source\PSoC4/USBUART_pm.c ****     ****************************************************************************//**
  38:Generated_Source\PSoC4/USBUART_pm.c ****     *
  39:Generated_Source\PSoC4/USBUART_pm.c ****     *  This Interrupt Service Routine handles DP pin changes for wake-up from
  40:Generated_Source\PSoC4/USBUART_pm.c ****     *  the sleep mode.
  41:Generated_Source\PSoC4/USBUART_pm.c ****     *
  42:Generated_Source\PSoC4/USBUART_pm.c ****     *******************************************************************************/
  43:Generated_Source\PSoC4/USBUART_pm.c ****     CY_ISR(USBUART_DP_ISR)
  44:Generated_Source\PSoC4/USBUART_pm.c ****     {
  28              		.loc 1 44 0
  29              		.cfi_startproc
  30              		@ args = 0, pretend = 0, frame = 0
  31              		@ frame_needed = 0, uses_anonymous_args = 0
  32 0000 10B5     		push	{r4, lr}
  33              		.cfi_def_cfa_offset 8
  34              		.cfi_offset 4, -8
  35              		.cfi_offset 14, -4
  45:Generated_Source\PSoC4/USBUART_pm.c ****     #ifdef USBUART_DP_ISR_ENTRY_CALLBACK
  46:Generated_Source\PSoC4/USBUART_pm.c ****         USBUART_DP_ISR_EntryCallback();
  47:Generated_Source\PSoC4/USBUART_pm.c ****     #endif /* (USBUART_DP_ISR_ENTRY_CALLBACK) */
  48:Generated_Source\PSoC4/USBUART_pm.c **** 
  49:Generated_Source\PSoC4/USBUART_pm.c ****         /* `#START DP_USER_CODE` Place your code here */
  50:Generated_Source\PSoC4/USBUART_pm.c **** 
  51:Generated_Source\PSoC4/USBUART_pm.c ****         /* `#END` */
  52:Generated_Source\PSoC4/USBUART_pm.c **** 
  53:Generated_Source\PSoC4/USBUART_pm.c ****         (void) USBUART_Dp_ClearInterrupt();
  36              		.loc 1 53 0
  37 0002 FFF7FEFF 		bl	USBUART_Dp_ClearInterrupt
  38              	.LVL0:
  54:Generated_Source\PSoC4/USBUART_pm.c **** 		
  55:Generated_Source\PSoC4/USBUART_pm.c **** 	#ifdef USBUART_DP_ISR_EXIT_CALLBACK
  56:Generated_Source\PSoC4/USBUART_pm.c ****         USBUART_DP_ISR_ExitCallback();
  57:Generated_Source\PSoC4/USBUART_pm.c ****     #endif /* (USBUART_DP_ISR_EXIT_CALLBACK) */
  58:Generated_Source\PSoC4/USBUART_pm.c ****     }
  39              		.loc 1 58 0
  40              		@ sp needed
  41 0006 10BD     		pop	{r4, pc}
  42              		.cfi_endproc
  43              	.LFE1:
  44              		.size	USBUART_DP_ISR, .-USBUART_DP_ISR
  45              		.section	.text.USBUART_SaveConfig,"ax",%progbits
  46              		.align	2
  47              		.global	USBUART_SaveConfig
  48              		.code	16
  49              		.thumb_func
  50              		.type	USBUART_SaveConfig, %function
  51              	USBUART_SaveConfig:
  52              	.LFB2:
  59:Generated_Source\PSoC4/USBUART_pm.c **** #endif /* (USBUART_DP_ISR_ACTIVE) */
  60:Generated_Source\PSoC4/USBUART_pm.c **** 
  61:Generated_Source\PSoC4/USBUART_pm.c **** 
  62:Generated_Source\PSoC4/USBUART_pm.c **** /*******************************************************************************
ARM GAS  C:\Users\essele\AppData\Local\Temp\ccekzdIV.s 			page 3


  63:Generated_Source\PSoC4/USBUART_pm.c **** * Function Name: USBUART_SaveConfig
  64:Generated_Source\PSoC4/USBUART_pm.c **** ****************************************************************************//**
  65:Generated_Source\PSoC4/USBUART_pm.c **** *
  66:Generated_Source\PSoC4/USBUART_pm.c **** *  Saves the current user configuration.
  67:Generated_Source\PSoC4/USBUART_pm.c **** *
  68:Generated_Source\PSoC4/USBUART_pm.c **** * \reentrant
  69:Generated_Source\PSoC4/USBUART_pm.c **** *  No.
  70:Generated_Source\PSoC4/USBUART_pm.c **** *
  71:Generated_Source\PSoC4/USBUART_pm.c **** *******************************************************************************/
  72:Generated_Source\PSoC4/USBUART_pm.c **** void USBUART_SaveConfig(void) 
  73:Generated_Source\PSoC4/USBUART_pm.c **** {
  53              		.loc 1 73 0
  54              		.cfi_startproc
  55              		@ args = 0, pretend = 0, frame = 0
  56              		@ frame_needed = 0, uses_anonymous_args = 0
  57              		@ link register save eliminated.
  74:Generated_Source\PSoC4/USBUART_pm.c ****     /* Empty function added for the compatibility purpose. */
  75:Generated_Source\PSoC4/USBUART_pm.c **** }
  58              		.loc 1 75 0
  59              		@ sp needed
  60 0000 7047     		bx	lr
  61              		.cfi_endproc
  62              	.LFE2:
  63              		.size	USBUART_SaveConfig, .-USBUART_SaveConfig
  64 0002 C046     		.section	.text.USBUART_RestoreConfig,"ax",%progbits
  65              		.align	2
  66              		.global	USBUART_RestoreConfig
  67              		.code	16
  68              		.thumb_func
  69              		.type	USBUART_RestoreConfig, %function
  70              	USBUART_RestoreConfig:
  71              	.LFB3:
  76:Generated_Source\PSoC4/USBUART_pm.c **** 
  77:Generated_Source\PSoC4/USBUART_pm.c **** 
  78:Generated_Source\PSoC4/USBUART_pm.c **** /*******************************************************************************
  79:Generated_Source\PSoC4/USBUART_pm.c **** * Function Name: USBUART_RestoreConfig
  80:Generated_Source\PSoC4/USBUART_pm.c **** ****************************************************************************//**
  81:Generated_Source\PSoC4/USBUART_pm.c **** *
  82:Generated_Source\PSoC4/USBUART_pm.c **** *  Restores the current user configuration.
  83:Generated_Source\PSoC4/USBUART_pm.c **** *
  84:Generated_Source\PSoC4/USBUART_pm.c **** * \reentrant
  85:Generated_Source\PSoC4/USBUART_pm.c **** *  No.
  86:Generated_Source\PSoC4/USBUART_pm.c **** *
  87:Generated_Source\PSoC4/USBUART_pm.c **** *******************************************************************************/
  88:Generated_Source\PSoC4/USBUART_pm.c **** void USBUART_RestoreConfig(void) 
  89:Generated_Source\PSoC4/USBUART_pm.c **** {
  72              		.loc 1 89 0
  73              		.cfi_startproc
  74              		@ args = 0, pretend = 0, frame = 0
  75              		@ frame_needed = 0, uses_anonymous_args = 0
  76 0000 10B5     		push	{r4, lr}
  77              		.cfi_def_cfa_offset 8
  78              		.cfi_offset 4, -8
  79              		.cfi_offset 14, -4
  90:Generated_Source\PSoC4/USBUART_pm.c ****     if (USBUART_configuration != 0u)
  80              		.loc 1 90 0
  81 0002 044B     		ldr	r3, .L5
ARM GAS  C:\Users\essele\AppData\Local\Temp\ccekzdIV.s 			page 4


  82 0004 1B78     		ldrb	r3, [r3]
  83 0006 002B     		cmp	r3, #0
  84 0008 03D0     		beq	.L3
  91:Generated_Source\PSoC4/USBUART_pm.c ****     {
  92:Generated_Source\PSoC4/USBUART_pm.c ****         USBUART_ConfigReg();
  85              		.loc 1 92 0
  86 000a FFF7FEFF 		bl	USBUART_ConfigReg
  87              	.LVL1:
  93:Generated_Source\PSoC4/USBUART_pm.c ****         USBUART_EpStateInit();
  88              		.loc 1 93 0
  89 000e FFF7FEFF 		bl	USBUART_EpStateInit
  90              	.LVL2:
  91              	.L3:
  94:Generated_Source\PSoC4/USBUART_pm.c ****     }
  95:Generated_Source\PSoC4/USBUART_pm.c **** }
  92              		.loc 1 95 0
  93              		@ sp needed
  94 0012 10BD     		pop	{r4, pc}
  95              	.L6:
  96              		.align	2
  97              	.L5:
  98 0014 00000000 		.word	USBUART_configuration
  99              		.cfi_endproc
 100              	.LFE3:
 101              		.size	USBUART_RestoreConfig, .-USBUART_RestoreConfig
 102              		.section	.text.USBUART_Suspend,"ax",%progbits
 103              		.align	2
 104              		.global	USBUART_Suspend
 105              		.code	16
 106              		.thumb_func
 107              		.type	USBUART_Suspend, %function
 108              	USBUART_Suspend:
 109              	.LFB4:
  96:Generated_Source\PSoC4/USBUART_pm.c **** 
  97:Generated_Source\PSoC4/USBUART_pm.c **** 
  98:Generated_Source\PSoC4/USBUART_pm.c **** /*******************************************************************************
  99:Generated_Source\PSoC4/USBUART_pm.c **** * Function Name: USBUART_Suspend
 100:Generated_Source\PSoC4/USBUART_pm.c **** ****************************************************************************//**
 101:Generated_Source\PSoC4/USBUART_pm.c **** *
 102:Generated_Source\PSoC4/USBUART_pm.c **** *  This function prepares the USBFS component to enter low power mode. The 
 103:Generated_Source\PSoC4/USBUART_pm.c **** *  interrupt on falling edge on Dp pin is configured to wakeup device when the 
 104:Generated_Source\PSoC4/USBUART_pm.c **** *  host drives resume condition. The pull-up is enabled on the Dp line while 
 105:Generated_Source\PSoC4/USBUART_pm.c **** *  device is in low power mode. The supported low power modes are Deep Sleep 
 106:Generated_Source\PSoC4/USBUART_pm.c **** *  (PSoC 4200L) and Sleep (PSoC 3/ PSoC 5LP).
 107:Generated_Source\PSoC4/USBUART_pm.c **** *  
 108:Generated_Source\PSoC4/USBUART_pm.c **** *  *Note* For PSoC 4200L devices, this function should not be called before 
 109:Generated_Source\PSoC4/USBUART_pm.c **** *  entering Sleep.
 110:Generated_Source\PSoC4/USBUART_pm.c **** *  
 111:Generated_Source\PSoC4/USBUART_pm.c **** *  *Note* After enter low power mode, the data which is left in the IN or OUT 
 112:Generated_Source\PSoC4/USBUART_pm.c **** *  endpoint buffers is not restored after wakeup and lost. Therefore it should 
 113:Generated_Source\PSoC4/USBUART_pm.c **** *  be stored in the SRAM for OUT endpoint or read by the host for IN endpoint 
 114:Generated_Source\PSoC4/USBUART_pm.c **** *  before enter low power mode.
 115:Generated_Source\PSoC4/USBUART_pm.c **** *
 116:Generated_Source\PSoC4/USBUART_pm.c **** * \globalvars
 117:Generated_Source\PSoC4/USBUART_pm.c **** *  USBUART_backup.enable:  modified.
 118:Generated_Source\PSoC4/USBUART_pm.c **** *
 119:Generated_Source\PSoC4/USBUART_pm.c **** * \reentrant
ARM GAS  C:\Users\essele\AppData\Local\Temp\ccekzdIV.s 			page 5


 120:Generated_Source\PSoC4/USBUART_pm.c **** *  No.
 121:Generated_Source\PSoC4/USBUART_pm.c **** *
 122:Generated_Source\PSoC4/USBUART_pm.c **** *******************************************************************************/
 123:Generated_Source\PSoC4/USBUART_pm.c **** void USBUART_Suspend(void) 
 124:Generated_Source\PSoC4/USBUART_pm.c **** {
 110              		.loc 1 124 0
 111              		.cfi_startproc
 112              		@ args = 0, pretend = 0, frame = 0
 113              		@ frame_needed = 0, uses_anonymous_args = 0
 114 0000 70B5     		push	{r4, r5, r6, lr}
 115              		.cfi_def_cfa_offset 16
 116              		.cfi_offset 4, -16
 117              		.cfi_offset 5, -12
 118              		.cfi_offset 6, -8
 119              		.cfi_offset 14, -4
 125:Generated_Source\PSoC4/USBUART_pm.c ****     uint8 enableInterrupts;
 126:Generated_Source\PSoC4/USBUART_pm.c **** 
 127:Generated_Source\PSoC4/USBUART_pm.c ****     enableInterrupts = CyEnterCriticalSection();
 120              		.loc 1 127 0
 121 0002 FFF7FEFF 		bl	CyEnterCriticalSection
 122              	.LVL3:
 128:Generated_Source\PSoC4/USBUART_pm.c **** 
 129:Generated_Source\PSoC4/USBUART_pm.c ****     if (0u != (USBUART_CR0_REG & USBUART_CR0_ENABLE))
 123              		.loc 1 129 0
 124 0006 134B     		ldr	r3, .L10
 125 0008 1B68     		ldr	r3, [r3]
 126 000a 1B06     		lsls	r3, r3, #24
 127 000c 13D5     		bpl	.L8
 130:Generated_Source\PSoC4/USBUART_pm.c ****     {
 131:Generated_Source\PSoC4/USBUART_pm.c ****         /* USB block is enabled. */
 132:Generated_Source\PSoC4/USBUART_pm.c ****         USBUART_backup.enableState = 1u;
 128              		.loc 1 132 0
 129 000e 124B     		ldr	r3, .L10+4
 130 0010 0124     		movs	r4, #1
 131 0012 1C70     		strb	r4, [r3]
 133:Generated_Source\PSoC4/USBUART_pm.c **** 
 134:Generated_Source\PSoC4/USBUART_pm.c ****     #if (USBUART_EP_MANAGEMENT_DMA)
 135:Generated_Source\PSoC4/USBUART_pm.c ****         USBUART_Stop_DMA(USBUART_MAX_EP);
 136:Generated_Source\PSoC4/USBUART_pm.c ****     #endif /* (USBUART_EP_MANAGEMENT_DMA) */
 137:Generated_Source\PSoC4/USBUART_pm.c **** 
 138:Generated_Source\PSoC4/USBUART_pm.c ****     #if (CY_PSOC4)
 139:Generated_Source\PSoC4/USBUART_pm.c ****         /* Suspend enter sequence. */
 140:Generated_Source\PSoC4/USBUART_pm.c ****         USBUART_POWER_CTRL_REG |= (USBUART_POWER_CTRL_SUSPEND |
 132              		.loc 1 140 0
 133 0014 1149     		ldr	r1, .L10+8
 134 0016 0D68     		ldr	r5, [r1]
 135 0018 0C22     		movs	r2, #12
 136 001a 2A43     		orrs	r2, r5
 137 001c 0A60     		str	r2, [r1]
 141:Generated_Source\PSoC4/USBUART_pm.c ****                                             USBUART_POWER_CTRL_SUSPEND_DEL);
 142:Generated_Source\PSoC4/USBUART_pm.c **** 
 143:Generated_Source\PSoC4/USBUART_pm.c ****         /* Store state of USB regulator and disable it. */
 144:Generated_Source\PSoC4/USBUART_pm.c ****         USBUART_backup.mode = (uint8)  (USBUART_CR1_REG & USBUART_CR1_REG_ENABLE);
 138              		.loc 1 144 0
 139 001e 104A     		ldr	r2, .L10+12
 140 0020 1168     		ldr	r1, [r2]
 141 0022 0125     		movs	r5, #1
ARM GAS  C:\Users\essele\AppData\Local\Temp\ccekzdIV.s 			page 6


 142 0024 2940     		ands	r1, r5
 143 0026 5970     		strb	r1, [r3, #1]
 145:Generated_Source\PSoC4/USBUART_pm.c ****         USBUART_CR1_REG    &= (uint32) ~USBUART_CR1_REG_ENABLE;
 144              		.loc 1 145 0
 145 0028 1168     		ldr	r1, [r2]
 146 002a A143     		bics	r1, r4
 147 002c 1160     		str	r1, [r2]
 146:Generated_Source\PSoC4/USBUART_pm.c ****         
 147:Generated_Source\PSoC4/USBUART_pm.c ****         /* Store SIE interrupt sources. Valid bits are 0 - 4. */
 148:Generated_Source\PSoC4/USBUART_pm.c ****         USBUART_backup.intrSeiMask = (uint8) USBUART_INTR_SIE_MASK_REG;
 148              		.loc 1 148 0
 149 002e 0D4A     		ldr	r2, .L10+16
 150 0030 1268     		ldr	r2, [r2]
 151 0032 9A70     		strb	r2, [r3, #2]
 152 0034 02E0     		b	.L9
 153              	.L8:
 149:Generated_Source\PSoC4/USBUART_pm.c **** 
 150:Generated_Source\PSoC4/USBUART_pm.c ****     #else
 151:Generated_Source\PSoC4/USBUART_pm.c ****         /* Ensure USB transmit enable is low (USB_USBIO_CR0.ten). - Manual Transmission - Disabled.
 152:Generated_Source\PSoC4/USBUART_pm.c ****         USBUART_USBIO_CR0_REG &= (uint8) ~USBUART_USBIO_CR0_TEN;
 153:Generated_Source\PSoC4/USBUART_pm.c ****         CyDelayUs(USBUART_WAIT_REG_STABILITY_50NS);  /*~50ns delay. */
 154:Generated_Source\PSoC4/USBUART_pm.c **** 
 155:Generated_Source\PSoC4/USBUART_pm.c ****         /* Disable the USBIO by asserting PM.USB_CR0.fsusbio_pd_n(Inverted) and pd_pullup_hv(Invert
 156:Generated_Source\PSoC4/USBUART_pm.c ****         USBUART_PM_USB_CR0_REG &= (uint8) ~(USBUART_PM_USB_CR0_PD_N |
 157:Generated_Source\PSoC4/USBUART_pm.c ****                                                      USBUART_PM_USB_CR0_PD_PULLUP_N);
 158:Generated_Source\PSoC4/USBUART_pm.c **** 
 159:Generated_Source\PSoC4/USBUART_pm.c ****         /* Disable the SIE. */
 160:Generated_Source\PSoC4/USBUART_pm.c ****         USBUART_CR0_REG &= (uint8) ~USBUART_CR0_ENABLE;
 161:Generated_Source\PSoC4/USBUART_pm.c **** 
 162:Generated_Source\PSoC4/USBUART_pm.c ****         CyDelayUs(USBUART_WAIT_REG_STABILITY_50NS);  /* ~50ns delay. */
 163:Generated_Source\PSoC4/USBUART_pm.c ****         /* Store mode and disable VRegulator. */
 164:Generated_Source\PSoC4/USBUART_pm.c ****         USBUART_backup.mode = (uint8) (USBUART_CR1_REG & USBUART_CR1_REG_ENABLE);
 165:Generated_Source\PSoC4/USBUART_pm.c ****         USBUART_CR1_REG    &= (uint8) ~USBUART_CR1_REG_ENABLE;
 166:Generated_Source\PSoC4/USBUART_pm.c **** 
 167:Generated_Source\PSoC4/USBUART_pm.c ****         CyDelayUs(USBUART_WAIT_REG_STABILITY_1US); /* min 0.5us delay required. */
 168:Generated_Source\PSoC4/USBUART_pm.c **** 
 169:Generated_Source\PSoC4/USBUART_pm.c ****         /* Disable the USBIO reference by setting PM.USB_CR0.fsusbio_ref_en.*/
 170:Generated_Source\PSoC4/USBUART_pm.c ****         USBUART_PM_USB_CR0_REG &= (uint8) ~USBUART_PM_USB_CR0_REF_EN;
 171:Generated_Source\PSoC4/USBUART_pm.c **** 
 172:Generated_Source\PSoC4/USBUART_pm.c ****         /* Switch DP and DM terminals to GPIO mode and disconnect 1.5k pull-up. */
 173:Generated_Source\PSoC4/USBUART_pm.c ****         USBUART_USBIO_CR1_REG |= USBUART_USBIO_CR1_IOMODE;
 174:Generated_Source\PSoC4/USBUART_pm.c **** 
 175:Generated_Source\PSoC4/USBUART_pm.c ****         /* Disable USBFS block. */
 176:Generated_Source\PSoC4/USBUART_pm.c ****         /* Clear power active and standby mode templates: disable USB block. */
 177:Generated_Source\PSoC4/USBUART_pm.c ****         USBUART_PM_ACT_CFG_REG  &= (uint8) ~USBUART_PM_ACT_EN_FSUSB;
 178:Generated_Source\PSoC4/USBUART_pm.c ****         USBUART_PM_STBY_CFG_REG &= (uint8) ~USBUART_PM_STBY_EN_FSUSB;
 179:Generated_Source\PSoC4/USBUART_pm.c **** 
 180:Generated_Source\PSoC4/USBUART_pm.c ****         CyDelayUs(USBUART_WAIT_REG_STABILITY_1US); /* min 0.5us delay required. */
 181:Generated_Source\PSoC4/USBUART_pm.c ****     #endif /* (CY_PSOC4) */
 182:Generated_Source\PSoC4/USBUART_pm.c ****     }
 183:Generated_Source\PSoC4/USBUART_pm.c ****     else
 184:Generated_Source\PSoC4/USBUART_pm.c ****     {
 185:Generated_Source\PSoC4/USBUART_pm.c ****         USBUART_backup.enableState = 0u;
 154              		.loc 1 185 0
 155 0036 0022     		movs	r2, #0
 156 0038 074B     		ldr	r3, .L10+4
 157 003a 1A70     		strb	r2, [r3]
ARM GAS  C:\Users\essele\AppData\Local\Temp\ccekzdIV.s 			page 7


 158              	.L9:
 186:Generated_Source\PSoC4/USBUART_pm.c ****     }
 187:Generated_Source\PSoC4/USBUART_pm.c **** 
 188:Generated_Source\PSoC4/USBUART_pm.c ****     CyExitCriticalSection(enableInterrupts);
 159              		.loc 1 188 0
 160 003c FFF7FEFF 		bl	CyExitCriticalSection
 161              	.LVL4:
 189:Generated_Source\PSoC4/USBUART_pm.c **** 
 190:Generated_Source\PSoC4/USBUART_pm.c **** #if (USBUART_DP_ISR_ACTIVE)
 191:Generated_Source\PSoC4/USBUART_pm.c ****     /* Clear active mode Dp interrupt source history. */
 192:Generated_Source\PSoC4/USBUART_pm.c ****     (void) USBUART_Dp_ClearInterrupt();
 162              		.loc 1 192 0
 163 0040 FFF7FEFF 		bl	USBUART_Dp_ClearInterrupt
 164              	.LVL5:
 193:Generated_Source\PSoC4/USBUART_pm.c ****     CyIntClearPending(USBUART_DP_INTC_VECT_NUM);
 165              		.loc 1 193 0
 166 0044 0520     		movs	r0, #5
 167 0046 FFF7FEFF 		bl	CyIntClearPending
 168              	.LVL6:
 194:Generated_Source\PSoC4/USBUART_pm.c **** 
 195:Generated_Source\PSoC4/USBUART_pm.c ****     CyIntEnable      (USBUART_DP_INTC_VECT_NUM);
 169              		.loc 1 195 0
 170 004a 0520     		movs	r0, #5
 171 004c FFF7FEFF 		bl	CyIntEnable
 172              	.LVL7:
 196:Generated_Source\PSoC4/USBUART_pm.c **** #endif /* (USBUART_DP_ISR_ACTIVE). */
 197:Generated_Source\PSoC4/USBUART_pm.c **** }
 173              		.loc 1 197 0
 174              		@ sp needed
 175 0050 70BD     		pop	{r4, r5, r6, pc}
 176              	.L11:
 177 0052 C046     		.align	2
 178              	.L10:
 179 0054 20002C40 		.word	1076625440
 180 0058 00000000 		.word	.LANCHOR0
 181 005c 00202C40 		.word	1076633600
 182 0060 24002C40 		.word	1076625444
 183 0064 28202C40 		.word	1076633640
 184              		.cfi_endproc
 185              	.LFE4:
 186              		.size	USBUART_Suspend, .-USBUART_Suspend
 187              		.section	.text.USBUART_Resume,"ax",%progbits
 188              		.align	2
 189              		.global	USBUART_Resume
 190              		.code	16
 191              		.thumb_func
 192              		.type	USBUART_Resume, %function
 193              	USBUART_Resume:
 194              	.LFB5:
 198:Generated_Source\PSoC4/USBUART_pm.c **** 
 199:Generated_Source\PSoC4/USBUART_pm.c **** 
 200:Generated_Source\PSoC4/USBUART_pm.c **** /*******************************************************************************
 201:Generated_Source\PSoC4/USBUART_pm.c **** * Function Name: USBUART_Resume
 202:Generated_Source\PSoC4/USBUART_pm.c **** ****************************************************************************//**
 203:Generated_Source\PSoC4/USBUART_pm.c **** *
 204:Generated_Source\PSoC4/USBUART_pm.c **** *  This function prepares the USBFS component for active mode operation after 
 205:Generated_Source\PSoC4/USBUART_pm.c **** *  exit low power mode. It restores the component active mode configuration such 
ARM GAS  C:\Users\essele\AppData\Local\Temp\ccekzdIV.s 			page 8


 206:Generated_Source\PSoC4/USBUART_pm.c **** *  as device address assigned previously by the host, endpoints buffer and disables 
 207:Generated_Source\PSoC4/USBUART_pm.c **** *  interrupt on Dp pin.
 208:Generated_Source\PSoC4/USBUART_pm.c **** *  The supported low power modes are Deep Sleep (PSoC 4200L) and Sleep 
 209:Generated_Source\PSoC4/USBUART_pm.c **** *  (PSoC 3/ PSoC 5LP).
 210:Generated_Source\PSoC4/USBUART_pm.c **** *  
 211:Generated_Source\PSoC4/USBUART_pm.c **** *  *Note* For PSoC 4200L devices, this function should not be called after 
 212:Generated_Source\PSoC4/USBUART_pm.c **** *  exiting Sleep.
 213:Generated_Source\PSoC4/USBUART_pm.c **** *  
 214:Generated_Source\PSoC4/USBUART_pm.c **** *  *Note* To resume communication with the host, the data endpoints must be 
 215:Generated_Source\PSoC4/USBUART_pm.c **** *  managed: the OUT endpoints must be enabled and IN endpoints must be loaded 
 216:Generated_Source\PSoC4/USBUART_pm.c **** *  with data. For DMA with Automatic Buffer Management, all endpoints buffers 
 217:Generated_Source\PSoC4/USBUART_pm.c **** *  must be initialized again before making them available to the host.
 218:Generated_Source\PSoC4/USBUART_pm.c **** *
 219:Generated_Source\PSoC4/USBUART_pm.c **** *
 220:Generated_Source\PSoC4/USBUART_pm.c **** * \globalvars
 221:Generated_Source\PSoC4/USBUART_pm.c **** *  USBUART_backup - checked.
 222:Generated_Source\PSoC4/USBUART_pm.c **** *
 223:Generated_Source\PSoC4/USBUART_pm.c **** * \reentrant
 224:Generated_Source\PSoC4/USBUART_pm.c **** *  No.
 225:Generated_Source\PSoC4/USBUART_pm.c **** *
 226:Generated_Source\PSoC4/USBUART_pm.c **** *******************************************************************************/
 227:Generated_Source\PSoC4/USBUART_pm.c **** void USBUART_Resume(void) 
 228:Generated_Source\PSoC4/USBUART_pm.c **** {
 195              		.loc 1 228 0
 196              		.cfi_startproc
 197              		@ args = 0, pretend = 0, frame = 0
 198              		@ frame_needed = 0, uses_anonymous_args = 0
 199 0000 70B5     		push	{r4, r5, r6, lr}
 200              		.cfi_def_cfa_offset 16
 201              		.cfi_offset 4, -16
 202              		.cfi_offset 5, -12
 203              		.cfi_offset 6, -8
 204              		.cfi_offset 14, -4
 229:Generated_Source\PSoC4/USBUART_pm.c ****     uint8 enableInterrupts;
 230:Generated_Source\PSoC4/USBUART_pm.c **** 
 231:Generated_Source\PSoC4/USBUART_pm.c ****     enableInterrupts = CyEnterCriticalSection();
 205              		.loc 1 231 0
 206 0002 FFF7FEFF 		bl	CyEnterCriticalSection
 207              	.LVL8:
 208 0006 0400     		movs	r4, r0
 209              	.LVL9:
 232:Generated_Source\PSoC4/USBUART_pm.c **** 
 233:Generated_Source\PSoC4/USBUART_pm.c ****     if (0u != USBUART_backup.enableState)
 210              		.loc 1 233 0
 211 0008 174B     		ldr	r3, .L14
 212 000a 1B78     		ldrb	r3, [r3]
 213 000c 002B     		cmp	r3, #0
 214 000e 26D0     		beq	.L13
 234:Generated_Source\PSoC4/USBUART_pm.c ****     {
 235:Generated_Source\PSoC4/USBUART_pm.c ****     #if (USBUART_DP_ISR_ACTIVE)
 236:Generated_Source\PSoC4/USBUART_pm.c ****         CyIntDisable(USBUART_DP_INTC_VECT_NUM);
 215              		.loc 1 236 0
 216 0010 0520     		movs	r0, #5
 217 0012 FFF7FEFF 		bl	CyIntDisable
 218              	.LVL10:
 237:Generated_Source\PSoC4/USBUART_pm.c ****     #endif /* (USBUART_DP_ISR_ACTIVE) */
 238:Generated_Source\PSoC4/USBUART_pm.c **** 
ARM GAS  C:\Users\essele\AppData\Local\Temp\ccekzdIV.s 			page 9


 239:Generated_Source\PSoC4/USBUART_pm.c ****     #if (CY_PSOC4)
 240:Generated_Source\PSoC4/USBUART_pm.c ****         /* Enable clock to USB IP. */
 241:Generated_Source\PSoC4/USBUART_pm.c ****         USBUART_USB_CLK_EN_REG |= USBUART_USB_CLK_CSR_CLK_EN;
 219              		.loc 1 241 0
 220 0016 1549     		ldr	r1, .L14+4
 221 0018 0B68     		ldr	r3, [r1]
 222 001a 0122     		movs	r2, #1
 223 001c 1343     		orrs	r3, r2
 224 001e 0B60     		str	r3, [r1]
 242:Generated_Source\PSoC4/USBUART_pm.c **** 
 243:Generated_Source\PSoC4/USBUART_pm.c ****         /* Restore arbiter configuration for DMA transfers. */
 244:Generated_Source\PSoC4/USBUART_pm.c ****         #if (USBUART_EP_MANAGEMENT_DMA)
 245:Generated_Source\PSoC4/USBUART_pm.c ****             #if (USBUART_ARB_ISR_ACTIVE)
 246:Generated_Source\PSoC4/USBUART_pm.c ****                 /* Enable ARB EP interrupt sources. */
 247:Generated_Source\PSoC4/USBUART_pm.c ****                 USBUART_ARB_INT_EN_REG = USBUART_DEFAULT_ARB_INT_EN;
 248:Generated_Source\PSoC4/USBUART_pm.c ****             #endif /* (USBUART_EP_MANAGEMENT_DMA) */
 249:Generated_Source\PSoC4/USBUART_pm.c **** 
 250:Generated_Source\PSoC4/USBUART_pm.c ****             /* Configure arbiter for Manual or Auto DMA operation and clear 
 251:Generated_Source\PSoC4/USBUART_pm.c ****             * configuration completion. 
 252:Generated_Source\PSoC4/USBUART_pm.c ****             */
 253:Generated_Source\PSoC4/USBUART_pm.c ****             USBUART_ARB_CFG_REG = USBUART_DEFAULT_ARB_CFG;
 254:Generated_Source\PSoC4/USBUART_pm.c ****         #endif /* (USBUART_EP_MANAGEMENT_DMA) */
 255:Generated_Source\PSoC4/USBUART_pm.c **** 
 256:Generated_Source\PSoC4/USBUART_pm.c ****         /* Restore level (hi, lo, med) for each interrupt source. */
 257:Generated_Source\PSoC4/USBUART_pm.c ****         USBUART_INTR_LVL_SEL_REG = USBUART_DEFAULT_INTR_LVL_SEL;
 225              		.loc 1 257 0
 226 0020 1349     		ldr	r1, .L14+8
 227 0022 144B     		ldr	r3, .L14+12
 228 0024 1960     		str	r1, [r3]
 258:Generated_Source\PSoC4/USBUART_pm.c ****         
 259:Generated_Source\PSoC4/USBUART_pm.c ****         /* Store SIE interrupt sources. */
 260:Generated_Source\PSoC4/USBUART_pm.c ****         USBUART_INTR_SIE_MASK_REG = (uint32) USBUART_backup.intrSeiMask;
 229              		.loc 1 260 0
 230 0026 104D     		ldr	r5, .L14
 231 0028 A978     		ldrb	r1, [r5, #2]
 232 002a 134B     		ldr	r3, .L14+16
 233 002c 1960     		str	r1, [r3]
 261:Generated_Source\PSoC4/USBUART_pm.c **** 
 262:Generated_Source\PSoC4/USBUART_pm.c ****         /* Set EP0.CR: ACK Setup, NAK IN/OUT. */
 263:Generated_Source\PSoC4/USBUART_pm.c ****         USBUART_EP0_CR_REG = USBUART_MODE_NAK_IN_OUT;
 234              		.loc 1 263 0
 235 002e 134B     		ldr	r3, .L14+20
 236 0030 1A60     		str	r2, [r3]
 264:Generated_Source\PSoC4/USBUART_pm.c **** 
 265:Generated_Source\PSoC4/USBUART_pm.c ****         /* Restore data EP1-8 configuration. */
 266:Generated_Source\PSoC4/USBUART_pm.c ****         USBUART_RestoreConfig();
 237              		.loc 1 266 0
 238 0032 FFF7FEFF 		bl	USBUART_RestoreConfig
 239              	.LVL11:
 267:Generated_Source\PSoC4/USBUART_pm.c **** 
 268:Generated_Source\PSoC4/USBUART_pm.c ****         /* Restore state of USB regulator and wait until it supples stable power. */
 269:Generated_Source\PSoC4/USBUART_pm.c ****         USBUART_CR1_REG |= USBUART_backup.mode;
 240              		.loc 1 269 0
 241 0036 124A     		ldr	r2, .L14+24
 242 0038 1368     		ldr	r3, [r2]
 243 003a 6978     		ldrb	r1, [r5, #1]
 244 003c 0B43     		orrs	r3, r1
ARM GAS  C:\Users\essele\AppData\Local\Temp\ccekzdIV.s 			page 10


 245 003e 1360     		str	r3, [r2]
 270:Generated_Source\PSoC4/USBUART_pm.c ****         CyDelayUs(USBUART_WAIT_VREF_STABILITY);
 246              		.loc 1 270 0
 247 0040 0020     		movs	r0, #0
 248 0042 FFF7FEFF 		bl	CyDelayUs
 249              	.LVL12:
 271:Generated_Source\PSoC4/USBUART_pm.c **** 
 272:Generated_Source\PSoC4/USBUART_pm.c ****         /* Suspend exit sequence. */
 273:Generated_Source\PSoC4/USBUART_pm.c ****         USBUART_POWER_CTRL_REG &= (uint32) ~USBUART_POWER_CTRL_SUSPEND;
 250              		.loc 1 273 0
 251 0046 0F4D     		ldr	r5, .L14+28
 252 0048 2B68     		ldr	r3, [r5]
 253 004a 0422     		movs	r2, #4
 254 004c 9343     		bics	r3, r2
 255 004e 2B60     		str	r3, [r5]
 274:Generated_Source\PSoC4/USBUART_pm.c ****         CyDelayUs(USBUART_WAIT_SUSPEND_DEL_DISABLE);
 256              		.loc 1 274 0
 257 0050 0220     		movs	r0, #2
 258 0052 FFF7FEFF 		bl	CyDelayUs
 259              	.LVL13:
 275:Generated_Source\PSoC4/USBUART_pm.c ****         USBUART_POWER_CTRL_REG &= (uint32) ~USBUART_POWER_CTRL_SUSPEND_DEL;
 260              		.loc 1 275 0
 261 0056 2B68     		ldr	r3, [r5]
 262 0058 0822     		movs	r2, #8
 263 005a 9343     		bics	r3, r2
 264 005c 2B60     		str	r3, [r5]
 265              	.L13:
 276:Generated_Source\PSoC4/USBUART_pm.c **** 
 277:Generated_Source\PSoC4/USBUART_pm.c ****     #else
 278:Generated_Source\PSoC4/USBUART_pm.c ****         /* Set power active and standby mode templates: enable USB block. */
 279:Generated_Source\PSoC4/USBUART_pm.c ****         USBUART_PM_ACT_CFG_REG  |= USBUART_PM_ACT_EN_FSUSB;
 280:Generated_Source\PSoC4/USBUART_pm.c ****         USBUART_PM_STBY_CFG_REG |= USBUART_PM_STBY_EN_FSUSB;
 281:Generated_Source\PSoC4/USBUART_pm.c **** 
 282:Generated_Source\PSoC4/USBUART_pm.c ****         /* Enable core clock. */
 283:Generated_Source\PSoC4/USBUART_pm.c ****         USBUART_USB_CLK_EN_REG |= USBUART_USB_CLK_ENABLE;
 284:Generated_Source\PSoC4/USBUART_pm.c **** 
 285:Generated_Source\PSoC4/USBUART_pm.c ****         /* Enable the USBIO reference by setting PM.USB_CR0.fsusbio_ref_en.*/
 286:Generated_Source\PSoC4/USBUART_pm.c ****         USBUART_PM_USB_CR0_REG |= USBUART_PM_USB_CR0_REF_EN;
 287:Generated_Source\PSoC4/USBUART_pm.c **** 
 288:Generated_Source\PSoC4/USBUART_pm.c ****         /* The reference is available ~40us after power restored. */
 289:Generated_Source\PSoC4/USBUART_pm.c ****         CyDelayUs(USBUART_WAIT_VREF_RESTORE);
 290:Generated_Source\PSoC4/USBUART_pm.c ****         /* Restore state of USB regulator and wait until it supples stable power. */
 291:Generated_Source\PSoC4/USBUART_pm.c ****         USBUART_CR1_REG |= USBUART_backup.mode;
 292:Generated_Source\PSoC4/USBUART_pm.c ****         CyDelayUs(USBUART_WAIT_VREF_STABILITY);   /*~50ns delay. */
 293:Generated_Source\PSoC4/USBUART_pm.c **** 
 294:Generated_Source\PSoC4/USBUART_pm.c ****         /* Enable USBIO. */
 295:Generated_Source\PSoC4/USBUART_pm.c ****         USBUART_PM_USB_CR0_REG |= USBUART_PM_USB_CR0_PD_N;
 296:Generated_Source\PSoC4/USBUART_pm.c ****         CyDelayUs(USBUART_WAIT_PD_PULLUP_N_ENABLE);
 297:Generated_Source\PSoC4/USBUART_pm.c ****         /* Set the USBIO pull-up enable. */
 298:Generated_Source\PSoC4/USBUART_pm.c ****         USBUART_PM_USB_CR0_REG |= USBUART_PM_USB_CR0_PD_PULLUP_N;
 299:Generated_Source\PSoC4/USBUART_pm.c **** 
 300:Generated_Source\PSoC4/USBUART_pm.c ****         /* Restore arbiter configuration for DMA transfers. */
 301:Generated_Source\PSoC4/USBUART_pm.c ****         #if (USBUART_EP_MANAGEMENT_DMA)
 302:Generated_Source\PSoC4/USBUART_pm.c ****             #if (USBUART_ARB_ISR_ACTIVE)
 303:Generated_Source\PSoC4/USBUART_pm.c ****                 /* Enable ARB EP interrupt sources. */
 304:Generated_Source\PSoC4/USBUART_pm.c ****                 USBUART_ARB_INT_EN_REG = USBUART_DEFAULT_ARB_INT_EN;
 305:Generated_Source\PSoC4/USBUART_pm.c ****             #endif /* (USBUART_EP_MANAGEMENT_DMA) */
ARM GAS  C:\Users\essele\AppData\Local\Temp\ccekzdIV.s 			page 11


 306:Generated_Source\PSoC4/USBUART_pm.c **** 
 307:Generated_Source\PSoC4/USBUART_pm.c ****             /* Configure arbiter for Manual or Auto DMA operation and clear 
 308:Generated_Source\PSoC4/USBUART_pm.c ****             * configuration completion. 
 309:Generated_Source\PSoC4/USBUART_pm.c ****             */
 310:Generated_Source\PSoC4/USBUART_pm.c ****             USBUART_ARB_CFG_REG = USBUART_DEFAULT_ARB_CFG;
 311:Generated_Source\PSoC4/USBUART_pm.c ****         #endif /* (USBUART_EP_MANAGEMENT_DMA) */
 312:Generated_Source\PSoC4/USBUART_pm.c **** 
 313:Generated_Source\PSoC4/USBUART_pm.c ****         /* Set EP0.CR: ACK Setup, STALL IN/OUT. */
 314:Generated_Source\PSoC4/USBUART_pm.c ****         USBUART_EP0_CR_REG = USBUART_MODE_STALL_IN_OUT;
 315:Generated_Source\PSoC4/USBUART_pm.c **** 
 316:Generated_Source\PSoC4/USBUART_pm.c ****         /* Enable the USB IP to respond to USB traffic with the last address. */
 317:Generated_Source\PSoC4/USBUART_pm.c ****         USBUART_CR0_REG |= USBUART_CR0_ENABLE;
 318:Generated_Source\PSoC4/USBUART_pm.c ****         CyDelayCycles(USBUART_WAIT_CR0_REG_STABILITY);
 319:Generated_Source\PSoC4/USBUART_pm.c **** 
 320:Generated_Source\PSoC4/USBUART_pm.c ****         /* Enable D+ pull-up and keep USB control on IO. */
 321:Generated_Source\PSoC4/USBUART_pm.c ****         USBUART_USBIO_CR1_REG = USBUART_USBIO_CR1_USBPUEN;
 322:Generated_Source\PSoC4/USBUART_pm.c **** 
 323:Generated_Source\PSoC4/USBUART_pm.c ****         /* Restore data EP1-8 configuration. */
 324:Generated_Source\PSoC4/USBUART_pm.c ****         USBUART_RestoreConfig();
 325:Generated_Source\PSoC4/USBUART_pm.c ****     #endif /* (CY_PSOC4) */
 326:Generated_Source\PSoC4/USBUART_pm.c ****     }
 327:Generated_Source\PSoC4/USBUART_pm.c **** 
 328:Generated_Source\PSoC4/USBUART_pm.c ****     CyExitCriticalSection(enableInterrupts);
 266              		.loc 1 328 0
 267 005e 2000     		movs	r0, r4
 268 0060 FFF7FEFF 		bl	CyExitCriticalSection
 269              	.LVL14:
 329:Generated_Source\PSoC4/USBUART_pm.c **** }
 270              		.loc 1 329 0
 271              		@ sp needed
 272              	.LVL15:
 273 0064 70BD     		pop	{r4, r5, r6, pc}
 274              	.L15:
 275 0066 C046     		.align	2
 276              	.L14:
 277 0068 00000000 		.word	.LANCHOR0
 278 006c 74022C40 		.word	1076626036
 279 0070 1A001500 		.word	1376282
 280 0074 30202C40 		.word	1076633648
 281 0078 28202C40 		.word	1076633640
 282 007c A0002C40 		.word	1076625568
 283 0080 24002C40 		.word	1076625444
 284 0084 00202C40 		.word	1076633600
 285              		.cfi_endproc
 286              	.LFE5:
 287              		.size	USBUART_Resume, .-USBUART_Resume
 288              		.bss
 289              		.align	2
 290              		.set	.LANCHOR0,. + 0
 291              		.type	USBUART_backup, %object
 292              		.size	USBUART_backup, 3
 293              	USBUART_backup:
 294 0000 000000   		.space	3
 295              		.text
 296              	.Letext0:
 297              		.file 2 "Generated_Source\\PSoC4\\cytypes.h"
 298              		.file 3 "Generated_Source\\PSoC4\\USBUART.h"
ARM GAS  C:\Users\essele\AppData\Local\Temp\ccekzdIV.s 			page 12


 299              		.file 4 "Generated_Source\\PSoC4\\USBUART_Dp.h"
 300              		.file 5 "Generated_Source\\PSoC4\\USBUART_pvt.h"
 301              		.file 6 "Generated_Source\\PSoC4\\CyLib.h"