ARM GAS  C:\Users\essele\AppData\Local\Temp\cczrtAYv.s 			page 1


   1              		.syntax unified
   2              		.cpu cortex-m0
   3              		.fpu softvfp
   4              		.eabi_attribute 20, 1
   5              		.eabi_attribute 21, 1
   6              		.eabi_attribute 23, 3
   7              		.eabi_attribute 24, 1
   8              		.eabi_attribute 25, 1
   9              		.eabi_attribute 26, 1
  10              		.eabi_attribute 30, 1
  11              		.eabi_attribute 34, 0
  12              		.eabi_attribute 18, 4
  13              		.thumb
  14              		.syntax unified
  15              		.file	"USBUART_cdc.c"
  16              		.text
  17              	.Ltext0:
  18              		.cfi_sections	.debug_frame
  19              		.section	.text.USBUART_StrLen,"ax",%progbits
  20              		.align	2
  21              		.code	16
  22              		.thumb_func
  23              		.type	USBUART_StrLen, %function
  24              	USBUART_StrLen:
  25              	.LFB5:
  26              		.file 1 "Generated_Source\\PSoC4\\USBUART_cdc.c"
   1:Generated_Source\PSoC4/USBUART_cdc.c **** /***************************************************************************//**
   2:Generated_Source\PSoC4/USBUART_cdc.c **** * \file USBUART_cdc.c
   3:Generated_Source\PSoC4/USBUART_cdc.c **** * \version 3.20
   4:Generated_Source\PSoC4/USBUART_cdc.c **** *
   5:Generated_Source\PSoC4/USBUART_cdc.c **** * \brief
   6:Generated_Source\PSoC4/USBUART_cdc.c **** *  This file contains the USB CDC class request handler.
   7:Generated_Source\PSoC4/USBUART_cdc.c **** *
   8:Generated_Source\PSoC4/USBUART_cdc.c **** * Related Document:
   9:Generated_Source\PSoC4/USBUART_cdc.c **** *  Universal Serial Bus Class Definitions for Communication Devices Version 1.1
  10:Generated_Source\PSoC4/USBUART_cdc.c **** *
  11:Generated_Source\PSoC4/USBUART_cdc.c **** ********************************************************************************
  12:Generated_Source\PSoC4/USBUART_cdc.c **** * \copyright
  13:Generated_Source\PSoC4/USBUART_cdc.c **** * Copyright 2012-2016, Cypress Semiconductor Corporation.  All rights reserved.
  14:Generated_Source\PSoC4/USBUART_cdc.c **** * You may use this file only in accordance with the license, terms, conditions,
  15:Generated_Source\PSoC4/USBUART_cdc.c **** * disclaimers, and limitations in the end user license agreement accompanying
  16:Generated_Source\PSoC4/USBUART_cdc.c **** * the software package with which this file was provided.
  17:Generated_Source\PSoC4/USBUART_cdc.c **** *******************************************************************************/
  18:Generated_Source\PSoC4/USBUART_cdc.c **** 
  19:Generated_Source\PSoC4/USBUART_cdc.c **** #include "USBUART_cdc.h"
  20:Generated_Source\PSoC4/USBUART_cdc.c **** #include "USBUART_pvt.h"
  21:Generated_Source\PSoC4/USBUART_cdc.c **** #include "cyapicallbacks.h"
  22:Generated_Source\PSoC4/USBUART_cdc.c **** 
  23:Generated_Source\PSoC4/USBUART_cdc.c **** #if defined(USBUART_ENABLE_CDC_CLASS)
  24:Generated_Source\PSoC4/USBUART_cdc.c **** 
  25:Generated_Source\PSoC4/USBUART_cdc.c **** /*******************************************************************************
  26:Generated_Source\PSoC4/USBUART_cdc.c **** *    CDC Variables
  27:Generated_Source\PSoC4/USBUART_cdc.c **** *******************************************************************************/
  28:Generated_Source\PSoC4/USBUART_cdc.c **** 
  29:Generated_Source\PSoC4/USBUART_cdc.c **** /*PUBLIC*/
  30:Generated_Source\PSoC4/USBUART_cdc.c **** /** Contains the current line coding structure. The host sets it using a
  31:Generated_Source\PSoC4/USBUART_cdc.c ****  * SET_LINE_CODING request and returns it to the user code using the
ARM GAS  C:\Users\essele\AppData\Local\Temp\cczrtAYv.s 			page 2


  32:Generated_Source\PSoC4/USBUART_cdc.c ****  * USBUART_GetDTERate(), USBUART_GetCharFormat(),
  33:Generated_Source\PSoC4/USBUART_cdc.c ****  * USBUART_GetParityType(), and USBUART_GetDataBits() APIs.
  34:Generated_Source\PSoC4/USBUART_cdc.c ****  * It is an array of 2 elements for COM port 1 and COM port 2 for MultiCOM port
  35:Generated_Source\PSoC4/USBUART_cdc.c ****  * support. In case of 1 COM port, data is in 0 element.*/
  36:Generated_Source\PSoC4/USBUART_cdc.c **** volatile uint8 USBUART_linesCoding[USBUART_MAX_MULTI_COM_NUM][USBUART_LINE_CODING_SIZE] =
  37:Generated_Source\PSoC4/USBUART_cdc.c **** {
  38:Generated_Source\PSoC4/USBUART_cdc.c ****     /*COM Port 1*/
  39:Generated_Source\PSoC4/USBUART_cdc.c ****     {
  40:Generated_Source\PSoC4/USBUART_cdc.c ****     0x00u, 0xC2u, 0x01u, 0x00u,     /* Data terminal rate 115200 */
  41:Generated_Source\PSoC4/USBUART_cdc.c ****     0x00u,                          /* 1 Stop bit */
  42:Generated_Source\PSoC4/USBUART_cdc.c ****     0x00u,                          /* None parity */
  43:Generated_Source\PSoC4/USBUART_cdc.c ****     0x08u                           /* 8 data bits */
  44:Generated_Source\PSoC4/USBUART_cdc.c ****     },
  45:Generated_Source\PSoC4/USBUART_cdc.c ****     /*COM Port 2*/
  46:Generated_Source\PSoC4/USBUART_cdc.c ****     {
  47:Generated_Source\PSoC4/USBUART_cdc.c ****     0x00u, 0xC2u, 0x01u, 0x00u,     /* Data terminal rate 115200 */
  48:Generated_Source\PSoC4/USBUART_cdc.c ****     0x00u,                          /* 1 Stop bit */
  49:Generated_Source\PSoC4/USBUART_cdc.c ****     0x00u,                          /* None parity */
  50:Generated_Source\PSoC4/USBUART_cdc.c ****     0x08u                           /* 8 data bits */
  51:Generated_Source\PSoC4/USBUART_cdc.c ****     }
  52:Generated_Source\PSoC4/USBUART_cdc.c **** };
  53:Generated_Source\PSoC4/USBUART_cdc.c **** 
  54:Generated_Source\PSoC4/USBUART_cdc.c **** /**Used as a flag for the USBUART_IsLineChanged() API, to inform it that the
  55:Generated_Source\PSoC4/USBUART_cdc.c ****  * host has been sent a request to change line coding or control bitmap. It is 
  56:Generated_Source\PSoC4/USBUART_cdc.c ****  * an array of 2 elements for COM port 1 and COM port 2 for MultiCOM port 
  57:Generated_Source\PSoC4/USBUART_cdc.c ****  * support. In case of 1 COM port, data is in 0 element.*/
  58:Generated_Source\PSoC4/USBUART_cdc.c **** volatile uint8  USBUART_linesChanged[USBUART_MAX_MULTI_COM_NUM];
  59:Generated_Source\PSoC4/USBUART_cdc.c **** /** Contains the current control-signal bitmap. The host sets it using a
  60:Generated_Source\PSoC4/USBUART_cdc.c ****  * SET_CONTROL_LINE request and returns it to the user code using the 
  61:Generated_Source\PSoC4/USBUART_cdc.c ****  * USBUART_GetLineControl() API. It is an array of 2 elements for COM 
  62:Generated_Source\PSoC4/USBUART_cdc.c ****  * port 1 and COM port 2 for MultiCOM port support. In case of 1 COM port, data 
  63:Generated_Source\PSoC4/USBUART_cdc.c ****  * is in 0 element.*/
  64:Generated_Source\PSoC4/USBUART_cdc.c **** volatile uint16 USBUART_linesControlBitmap[USBUART_MAX_MULTI_COM_NUM];
  65:Generated_Source\PSoC4/USBUART_cdc.c **** /** Contains the 16-bit serial state value that was sent using the 
  66:Generated_Source\PSoC4/USBUART_cdc.c ****  * \ref USBUART_SendSerialState() API. . It is an array of 2 elements 
  67:Generated_Source\PSoC4/USBUART_cdc.c ****  * for COM port 1 and COM port 2 for MultiCOM port support. In case of 1 COM 
  68:Generated_Source\PSoC4/USBUART_cdc.c ****  * port, data is in 0 element.*/
  69:Generated_Source\PSoC4/USBUART_cdc.c **** volatile uint16 USBUART_serialStateBitmap[USBUART_MAX_MULTI_COM_NUM];
  70:Generated_Source\PSoC4/USBUART_cdc.c **** /** Contains the data IN endpoint number. It is initialized after a 
  71:Generated_Source\PSoC4/USBUART_cdc.c ****  * SET_CONFIGURATION request based on a user descriptor. It is used in CDC APIs 
  72:Generated_Source\PSoC4/USBUART_cdc.c ****  * to send data to the PC. It is an array of 2 elements for COM port 1 and COM 
  73:Generated_Source\PSoC4/USBUART_cdc.c ****  * port 2 for MultiCOM port support. In case of 1 COM port, data is in 0 element.*/
  74:Generated_Source\PSoC4/USBUART_cdc.c **** volatile uint8  USBUART_cdcDataInEp[USBUART_MAX_MULTI_COM_NUM];
  75:Generated_Source\PSoC4/USBUART_cdc.c **** /** Contains the data OUT endpoint number. It is initialized after a 
  76:Generated_Source\PSoC4/USBUART_cdc.c ****  * SET_CONFIGURATION request based on user descriptor. It is used in CDC APIs to 
  77:Generated_Source\PSoC4/USBUART_cdc.c ****  * receive data from the PC. It is an array of 2 elements for COM port 1 and COM  
  78:Generated_Source\PSoC4/USBUART_cdc.c ****  * port 2 for MultiCOM port support. In case of 1 COM port, data is in 0 element.*/
  79:Generated_Source\PSoC4/USBUART_cdc.c **** volatile uint8  USBUART_cdcDataOutEp[USBUART_MAX_MULTI_COM_NUM];
  80:Generated_Source\PSoC4/USBUART_cdc.c **** /** Contains the data IN endpoint number for COMMUNICATION interface. It is 
  81:Generated_Source\PSoC4/USBUART_cdc.c ****  * initialized after a SET_CONFIGURATION request based on a user descriptor. It 
  82:Generated_Source\PSoC4/USBUART_cdc.c ****  * is used in CDC APIs to send data to the PC. It is an array of 2 elements for 
  83:Generated_Source\PSoC4/USBUART_cdc.c ****  * COM port 1 and COM port 2 for MultiCOM port support. In case of 1 COM port, 
  84:Generated_Source\PSoC4/USBUART_cdc.c ****  * data is in 0 element.*/
  85:Generated_Source\PSoC4/USBUART_cdc.c **** volatile uint8  USBUART_cdcCommInInterruptEp[USBUART_MAX_MULTI_COM_NUM];
  86:Generated_Source\PSoC4/USBUART_cdc.c **** 
  87:Generated_Source\PSoC4/USBUART_cdc.c **** /*PRIVATE*/
  88:Generated_Source\PSoC4/USBUART_cdc.c **** 
ARM GAS  C:\Users\essele\AppData\Local\Temp\cczrtAYv.s 			page 3


  89:Generated_Source\PSoC4/USBUART_cdc.c **** #define USBUART_CDC_IN_EP      (0u)
  90:Generated_Source\PSoC4/USBUART_cdc.c **** #define USBUART_CDC_OUT_EP     (1u)
  91:Generated_Source\PSoC4/USBUART_cdc.c **** #define USBUART_CDC_NOTE_EP    (2u)
  92:Generated_Source\PSoC4/USBUART_cdc.c **** 
  93:Generated_Source\PSoC4/USBUART_cdc.c **** #define USBUART_CDC_EP_MASK    (0x01u)
  94:Generated_Source\PSoC4/USBUART_cdc.c **** 
  95:Generated_Source\PSoC4/USBUART_cdc.c **** #define USBUART_GET_EP_COM_NUM(cdcComNums, epType) (((cdcComNums) >> (epType)) & USBUART_CDC_EP_MAS
  96:Generated_Source\PSoC4/USBUART_cdc.c **** 
  97:Generated_Source\PSoC4/USBUART_cdc.c **** 
  98:Generated_Source\PSoC4/USBUART_cdc.c **** /***************************************
  99:Generated_Source\PSoC4/USBUART_cdc.c **** *     Static Function Prototypes
 100:Generated_Source\PSoC4/USBUART_cdc.c **** ***************************************/
 101:Generated_Source\PSoC4/USBUART_cdc.c **** #if (USBUART_ENABLE_CDC_CLASS_API != 0u)
 102:Generated_Source\PSoC4/USBUART_cdc.c ****     static uint16 USBUART_StrLen(const char8 string[]) ;
 103:Generated_Source\PSoC4/USBUART_cdc.c ****     static t_USBUART_cdc_notification USBUART_serialStateNotification =
 104:Generated_Source\PSoC4/USBUART_cdc.c ****     {
 105:Generated_Source\PSoC4/USBUART_cdc.c **** 
 106:Generated_Source\PSoC4/USBUART_cdc.c ****         USBUART_SERIAL_STATE_REQUEST_TYPE, /* bRequestType    */
 107:Generated_Source\PSoC4/USBUART_cdc.c ****         USBUART_SERIAL_STATE,              /* bNotification   */
 108:Generated_Source\PSoC4/USBUART_cdc.c ****         0u,                                         /* wValue          */
 109:Generated_Source\PSoC4/USBUART_cdc.c ****         0u,                                         /* wValueMSB       */
 110:Generated_Source\PSoC4/USBUART_cdc.c ****         0u,                                         /* wIndex          */
 111:Generated_Source\PSoC4/USBUART_cdc.c ****         0u,                                         /* wIndexMSB       */
 112:Generated_Source\PSoC4/USBUART_cdc.c ****         USBUART_SERIAL_STATE_LENGTH,       /* wLength         */
 113:Generated_Source\PSoC4/USBUART_cdc.c ****         0u,                                         /* wLengthMSB      */
 114:Generated_Source\PSoC4/USBUART_cdc.c ****         0u,                                         /* wSerialState    */
 115:Generated_Source\PSoC4/USBUART_cdc.c ****         0u,                                         /* wSerialStateMSB */
 116:Generated_Source\PSoC4/USBUART_cdc.c ****     };
 117:Generated_Source\PSoC4/USBUART_cdc.c ****     static uint8 USBUART_activeCom = 0u;
 118:Generated_Source\PSoC4/USBUART_cdc.c **** #endif /* (USBUART_ENABLE_CDC_CLASS_API != 0u) */
 119:Generated_Source\PSoC4/USBUART_cdc.c **** 
 120:Generated_Source\PSoC4/USBUART_cdc.c **** 
 121:Generated_Source\PSoC4/USBUART_cdc.c **** /***************************************
 122:Generated_Source\PSoC4/USBUART_cdc.c **** * Custom Declarations
 123:Generated_Source\PSoC4/USBUART_cdc.c **** ***************************************/
 124:Generated_Source\PSoC4/USBUART_cdc.c **** 
 125:Generated_Source\PSoC4/USBUART_cdc.c **** /* `#START CDC_CUSTOM_DECLARATIONS` Place your declaration here */
 126:Generated_Source\PSoC4/USBUART_cdc.c **** 
 127:Generated_Source\PSoC4/USBUART_cdc.c **** /* `#END` */
 128:Generated_Source\PSoC4/USBUART_cdc.c **** 
 129:Generated_Source\PSoC4/USBUART_cdc.c **** 
 130:Generated_Source\PSoC4/USBUART_cdc.c **** /*******************************************************************************
 131:Generated_Source\PSoC4/USBUART_cdc.c **** * Function Name: USBUART_DispatchCDCClassRqst
 132:Generated_Source\PSoC4/USBUART_cdc.c **** ****************************************************************************//**
 133:Generated_Source\PSoC4/USBUART_cdc.c **** *
 134:Generated_Source\PSoC4/USBUART_cdc.c **** *  This routine dispatches CDC class requests.
 135:Generated_Source\PSoC4/USBUART_cdc.c **** *
 136:Generated_Source\PSoC4/USBUART_cdc.c **** * \return
 137:Generated_Source\PSoC4/USBUART_cdc.c **** *  requestHandled
 138:Generated_Source\PSoC4/USBUART_cdc.c **** *
 139:Generated_Source\PSoC4/USBUART_cdc.c **** * \globalvars
 140:Generated_Source\PSoC4/USBUART_cdc.c **** *   USBUART_linesCoding: Contains the current line coding structure.
 141:Generated_Source\PSoC4/USBUART_cdc.c **** *     It is set by the Host using SET_LINE_CODING request and returned to the
 142:Generated_Source\PSoC4/USBUART_cdc.c **** *     user code by the USBFS_GetDTERate(), USBFS_GetCharFormat(),
 143:Generated_Source\PSoC4/USBUART_cdc.c **** *     USBFS_GetParityType(), USBFS_GetDataBits() APIs.
 144:Generated_Source\PSoC4/USBUART_cdc.c **** *   USBUART_linesControlBitmap: Contains the current control signal
 145:Generated_Source\PSoC4/USBUART_cdc.c **** *     bitmap. It is set by the Host using SET_CONTROL_LINE request and returned
ARM GAS  C:\Users\essele\AppData\Local\Temp\cczrtAYv.s 			page 4


 146:Generated_Source\PSoC4/USBUART_cdc.c **** *     to the user code by the USBFS_GetLineControl() API.
 147:Generated_Source\PSoC4/USBUART_cdc.c **** *   USBUART_linesChanged: This variable is used as a flag for the
 148:Generated_Source\PSoC4/USBUART_cdc.c **** *     USBFS_IsLineChanged() API, to be aware that Host has been sent request
 149:Generated_Source\PSoC4/USBUART_cdc.c **** *     for changing Line Coding or Control Bitmap.
 150:Generated_Source\PSoC4/USBUART_cdc.c **** *
 151:Generated_Source\PSoC4/USBUART_cdc.c **** * \reentrant
 152:Generated_Source\PSoC4/USBUART_cdc.c **** *  No.
 153:Generated_Source\PSoC4/USBUART_cdc.c **** *
 154:Generated_Source\PSoC4/USBUART_cdc.c **** *******************************************************************************/
 155:Generated_Source\PSoC4/USBUART_cdc.c **** uint8 USBUART_DispatchCDCClassRqst(void) 
 156:Generated_Source\PSoC4/USBUART_cdc.c **** {
 157:Generated_Source\PSoC4/USBUART_cdc.c ****     uint8 requestHandled = USBUART_FALSE;
 158:Generated_Source\PSoC4/USBUART_cdc.c ****     uint8 comPort;
 159:Generated_Source\PSoC4/USBUART_cdc.c **** 
 160:Generated_Source\PSoC4/USBUART_cdc.c ****     comPort = USBUART_GetInterfaceComPort((uint8)USBUART_wIndexLoReg);
 161:Generated_Source\PSoC4/USBUART_cdc.c **** 
 162:Generated_Source\PSoC4/USBUART_cdc.c ****     /* Check request direction: D2H or H2D. */
 163:Generated_Source\PSoC4/USBUART_cdc.c ****     if (0u != (USBUART_bmRequestTypeReg & USBUART_RQST_DIR_D2H))
 164:Generated_Source\PSoC4/USBUART_cdc.c ****     {
 165:Generated_Source\PSoC4/USBUART_cdc.c ****         /* Handle direction from device to host. */
 166:Generated_Source\PSoC4/USBUART_cdc.c **** 
 167:Generated_Source\PSoC4/USBUART_cdc.c ****         switch (USBUART_bRequestReg)
 168:Generated_Source\PSoC4/USBUART_cdc.c ****         {
 169:Generated_Source\PSoC4/USBUART_cdc.c ****             case USBUART_CDC_GET_LINE_CODING:
 170:Generated_Source\PSoC4/USBUART_cdc.c ****                 USBUART_currentTD.count = USBUART_LINE_CODING_SIZE;
 171:Generated_Source\PSoC4/USBUART_cdc.c ****                 USBUART_currentTD.pData = USBUART_linesCoding[comPort];
 172:Generated_Source\PSoC4/USBUART_cdc.c ****                 requestHandled  = USBUART_InitControlRead();
 173:Generated_Source\PSoC4/USBUART_cdc.c ****                 break;
 174:Generated_Source\PSoC4/USBUART_cdc.c **** 
 175:Generated_Source\PSoC4/USBUART_cdc.c ****             /* `#START CDC_READ_REQUESTS` Place other request handler here */
 176:Generated_Source\PSoC4/USBUART_cdc.c **** 
 177:Generated_Source\PSoC4/USBUART_cdc.c ****             /* `#END` */
 178:Generated_Source\PSoC4/USBUART_cdc.c **** 
 179:Generated_Source\PSoC4/USBUART_cdc.c ****             default:
 180:Generated_Source\PSoC4/USBUART_cdc.c ****             /* Do not handle this request unless callback is defined. */
 181:Generated_Source\PSoC4/USBUART_cdc.c ****             #ifdef USBUART_DISPATCH_CDC_CLASS_CDC_READ_REQUESTS_CALLBACK
 182:Generated_Source\PSoC4/USBUART_cdc.c ****                 requestHandled = USBUART_DispatchCDCClass_CDC_READ_REQUESTS_Callback();
 183:Generated_Source\PSoC4/USBUART_cdc.c ****             #endif /* (USBUART_DISPATCH_CDC_CLASS_CDC_READ_REQUESTS_CALLBACK) */
 184:Generated_Source\PSoC4/USBUART_cdc.c ****                 break;
 185:Generated_Source\PSoC4/USBUART_cdc.c ****         }
 186:Generated_Source\PSoC4/USBUART_cdc.c ****     }
 187:Generated_Source\PSoC4/USBUART_cdc.c ****     else
 188:Generated_Source\PSoC4/USBUART_cdc.c ****     {
 189:Generated_Source\PSoC4/USBUART_cdc.c ****         /* Handle direction from host to device. */
 190:Generated_Source\PSoC4/USBUART_cdc.c **** 
 191:Generated_Source\PSoC4/USBUART_cdc.c ****         switch (USBUART_bRequestReg)
 192:Generated_Source\PSoC4/USBUART_cdc.c ****         {
 193:Generated_Source\PSoC4/USBUART_cdc.c ****             case USBUART_CDC_SET_LINE_CODING:
 194:Generated_Source\PSoC4/USBUART_cdc.c ****                 USBUART_currentTD.count  = USBUART_LINE_CODING_SIZE;
 195:Generated_Source\PSoC4/USBUART_cdc.c ****                 USBUART_currentTD.pData  = USBUART_linesCoding[comPort];
 196:Generated_Source\PSoC4/USBUART_cdc.c ****                 USBUART_linesChanged[comPort] |= USBUART_LINE_CODING_CHANGED;
 197:Generated_Source\PSoC4/USBUART_cdc.c **** 
 198:Generated_Source\PSoC4/USBUART_cdc.c ****                 requestHandled = USBUART_InitControlWrite();
 199:Generated_Source\PSoC4/USBUART_cdc.c ****                 break;
 200:Generated_Source\PSoC4/USBUART_cdc.c **** 
 201:Generated_Source\PSoC4/USBUART_cdc.c ****             case USBUART_CDC_SET_CONTROL_LINE_STATE:
 202:Generated_Source\PSoC4/USBUART_cdc.c ****                 USBUART_linesControlBitmap[comPort] = (uint8) USBUART_wValueLoReg;
ARM GAS  C:\Users\essele\AppData\Local\Temp\cczrtAYv.s 			page 5


 203:Generated_Source\PSoC4/USBUART_cdc.c ****                 USBUART_linesChanged[comPort]      |= USBUART_LINE_CONTROL_CHANGED;
 204:Generated_Source\PSoC4/USBUART_cdc.c **** 
 205:Generated_Source\PSoC4/USBUART_cdc.c ****                 requestHandled = USBUART_InitNoDataControlTransfer();
 206:Generated_Source\PSoC4/USBUART_cdc.c ****                 break;
 207:Generated_Source\PSoC4/USBUART_cdc.c **** 
 208:Generated_Source\PSoC4/USBUART_cdc.c ****             /* `#START CDC_WRITE_REQUESTS` Place other request handler here */
 209:Generated_Source\PSoC4/USBUART_cdc.c **** 
 210:Generated_Source\PSoC4/USBUART_cdc.c ****             /* `#END` */
 211:Generated_Source\PSoC4/USBUART_cdc.c **** 
 212:Generated_Source\PSoC4/USBUART_cdc.c ****             default:
 213:Generated_Source\PSoC4/USBUART_cdc.c ****                 /* Do not handle this request unless callback is defined. */
 214:Generated_Source\PSoC4/USBUART_cdc.c ****             #ifdef USBUART_DISPATCH_CDC_CLASS_CDC_WRITE_REQUESTS_CALLBACK
 215:Generated_Source\PSoC4/USBUART_cdc.c ****                 requestHandled = USBUART_DispatchCDCClass_CDC_WRITE_REQUESTS_Callback();
 216:Generated_Source\PSoC4/USBUART_cdc.c ****             #endif /* (USBUART_DISPATCH_CDC_CLASS_CDC_WRITE_REQUESTS_CALLBACK) */
 217:Generated_Source\PSoC4/USBUART_cdc.c ****                 break;
 218:Generated_Source\PSoC4/USBUART_cdc.c ****         }
 219:Generated_Source\PSoC4/USBUART_cdc.c ****     }
 220:Generated_Source\PSoC4/USBUART_cdc.c **** 
 221:Generated_Source\PSoC4/USBUART_cdc.c ****     return(requestHandled);
 222:Generated_Source\PSoC4/USBUART_cdc.c **** }
 223:Generated_Source\PSoC4/USBUART_cdc.c **** 
 224:Generated_Source\PSoC4/USBUART_cdc.c **** 
 225:Generated_Source\PSoC4/USBUART_cdc.c **** /***************************************************************************
 226:Generated_Source\PSoC4/USBUART_cdc.c **** * Function Name: USBUART_GetInterfaceComPort
 227:Generated_Source\PSoC4/USBUART_cdc.c **** ************************************************************************//**
 228:Generated_Source\PSoC4/USBUART_cdc.c **** *   \internal
 229:Generated_Source\PSoC4/USBUART_cdc.c **** *  Internal function which gets number of COM port by specified interface
 230:Generated_Source\PSoC4/USBUART_cdc.c **** *   number.
 231:Generated_Source\PSoC4/USBUART_cdc.c **** *
 232:Generated_Source\PSoC4/USBUART_cdc.c **** * \param uint8 interface
 233:Generated_Source\PSoC4/USBUART_cdc.c **** *  Interface number
 234:Generated_Source\PSoC4/USBUART_cdc.c **** *
 235:Generated_Source\PSoC4/USBUART_cdc.c **** * \return
 236:Generated_Source\PSoC4/USBUART_cdc.c **** *  COM port number (0 or 1) or error 0xFF
 237:Generated_Source\PSoC4/USBUART_cdc.c **** *
 238:Generated_Source\PSoC4/USBUART_cdc.c **** ***************************************************************************/
 239:Generated_Source\PSoC4/USBUART_cdc.c **** uint8 USBUART_GetInterfaceComPort(uint8 interface) 
 240:Generated_Source\PSoC4/USBUART_cdc.c **** {
 241:Generated_Source\PSoC4/USBUART_cdc.c ****     uint8 comPort = 0u;
 242:Generated_Source\PSoC4/USBUART_cdc.c ****     uint8 res = 0xFFu;
 243:Generated_Source\PSoC4/USBUART_cdc.c ****     uint8 notEp;
 244:Generated_Source\PSoC4/USBUART_cdc.c **** 
 245:Generated_Source\PSoC4/USBUART_cdc.c ****     while (comPort < USBUART_MAX_MULTI_COM_NUM)
 246:Generated_Source\PSoC4/USBUART_cdc.c ****     {
 247:Generated_Source\PSoC4/USBUART_cdc.c ****         notEp = USBUART_cdcCommInInterruptEp[comPort];
 248:Generated_Source\PSoC4/USBUART_cdc.c **** 
 249:Generated_Source\PSoC4/USBUART_cdc.c ****         if (USBUART_EP[notEp].interface == interface)
 250:Generated_Source\PSoC4/USBUART_cdc.c ****         {
 251:Generated_Source\PSoC4/USBUART_cdc.c ****             res = comPort;
 252:Generated_Source\PSoC4/USBUART_cdc.c ****             comPort = USBUART_MAX_MULTI_COM_NUM;
 253:Generated_Source\PSoC4/USBUART_cdc.c ****         }
 254:Generated_Source\PSoC4/USBUART_cdc.c **** 
 255:Generated_Source\PSoC4/USBUART_cdc.c ****         comPort++;
 256:Generated_Source\PSoC4/USBUART_cdc.c ****     }
 257:Generated_Source\PSoC4/USBUART_cdc.c ****     return (res);
 258:Generated_Source\PSoC4/USBUART_cdc.c **** }
 259:Generated_Source\PSoC4/USBUART_cdc.c **** 
ARM GAS  C:\Users\essele\AppData\Local\Temp\cczrtAYv.s 			page 6


 260:Generated_Source\PSoC4/USBUART_cdc.c **** 
 261:Generated_Source\PSoC4/USBUART_cdc.c **** /***************************************
 262:Generated_Source\PSoC4/USBUART_cdc.c **** * Optional CDC APIs
 263:Generated_Source\PSoC4/USBUART_cdc.c **** ***************************************/
 264:Generated_Source\PSoC4/USBUART_cdc.c **** #if (USBUART_ENABLE_CDC_CLASS_API != 0u)
 265:Generated_Source\PSoC4/USBUART_cdc.c **** /***************************************************************************
 266:Generated_Source\PSoC4/USBUART_cdc.c **** * Function Name: USBUART_CDC_Init
 267:Generated_Source\PSoC4/USBUART_cdc.c **** ************************************************************************//**
 268:Generated_Source\PSoC4/USBUART_cdc.c **** *
 269:Generated_Source\PSoC4/USBUART_cdc.c **** *  This function initializes the CDC interface to be ready to receive data
 270:Generated_Source\PSoC4/USBUART_cdc.c **** *  from the PC. The API set active communication port to 0 in the case of 
 271:Generated_Source\PSoC4/USBUART_cdc.c **** *  multiple communication port support.This API should be called after the 
 272:Generated_Source\PSoC4/USBUART_cdc.c **** *  device has been started and configured using USBUART_Start() API to 
 273:Generated_Source\PSoC4/USBUART_cdc.c **** *  initialize and start the USBFS component operation. Then call the 
 274:Generated_Source\PSoC4/USBUART_cdc.c **** *  USBUART_GetConfiguration() API to wait until the host has enumerated and 
 275:Generated_Source\PSoC4/USBUART_cdc.c **** *  configured the device. For example:
 276:Generated_Source\PSoC4/USBUART_cdc.c **** *
 277:Generated_Source\PSoC4/USBUART_cdc.c **** *  \snippet /USBFS_sut_02.cydsn/main.c wait for enumeration
 278:Generated_Source\PSoC4/USBUART_cdc.c **** *
 279:Generated_Source\PSoC4/USBUART_cdc.c **** * \return
 280:Generated_Source\PSoC4/USBUART_cdc.c **** *  cystatus:
 281:Generated_Source\PSoC4/USBUART_cdc.c **** *   Return Value    Description
 282:Generated_Source\PSoC4/USBUART_cdc.c **** *   USBUART_SUCCESS   CDC interface was initialized correctly
 283:Generated_Source\PSoC4/USBUART_cdc.c **** *   USBUART_FAILURE   CDC interface was not initialized
 284:Generated_Source\PSoC4/USBUART_cdc.c **** *
 285:Generated_Source\PSoC4/USBUART_cdc.c **** * \globalvars
 286:Generated_Source\PSoC4/USBUART_cdc.c **** *   USBUART_linesChanged: Initialized to zero.
 287:Generated_Source\PSoC4/USBUART_cdc.c **** *   USBUART_cdcDataOutEp: Used as an OUT endpoint number.
 288:Generated_Source\PSoC4/USBUART_cdc.c **** *
 289:Generated_Source\PSoC4/USBUART_cdc.c **** * \reentrant
 290:Generated_Source\PSoC4/USBUART_cdc.c **** *  No.
 291:Generated_Source\PSoC4/USBUART_cdc.c **** *
 292:Generated_Source\PSoC4/USBUART_cdc.c **** *******************************************************************************/
 293:Generated_Source\PSoC4/USBUART_cdc.c **** uint8 USBUART_CDC_Init(void) 
 294:Generated_Source\PSoC4/USBUART_cdc.c **** {
 295:Generated_Source\PSoC4/USBUART_cdc.c ****     uint8 comPort;
 296:Generated_Source\PSoC4/USBUART_cdc.c ****     uint8 outEp;
 297:Generated_Source\PSoC4/USBUART_cdc.c ****     uint8 ret = USBUART_SUCCESS;
 298:Generated_Source\PSoC4/USBUART_cdc.c **** 
 299:Generated_Source\PSoC4/USBUART_cdc.c ****     USBUART_activeCom = 0u;
 300:Generated_Source\PSoC4/USBUART_cdc.c ****     USBUART_linesChanged[USBUART_COM_PORT1] = 0u;
 301:Generated_Source\PSoC4/USBUART_cdc.c ****     USBUART_linesChanged[USBUART_COM_PORT2] = 0u;
 302:Generated_Source\PSoC4/USBUART_cdc.c **** 
 303:Generated_Source\PSoC4/USBUART_cdc.c ****     for(comPort = 0u; comPort<USBUART_MAX_MULTI_COM_NUM; comPort++)
 304:Generated_Source\PSoC4/USBUART_cdc.c ****     {
 305:Generated_Source\PSoC4/USBUART_cdc.c ****         outEp = USBUART_cdcDataOutEp[comPort];
 306:Generated_Source\PSoC4/USBUART_cdc.c ****         if((0u != outEp) && (USBUART_MAX_EP > outEp))
 307:Generated_Source\PSoC4/USBUART_cdc.c ****         {
 308:Generated_Source\PSoC4/USBUART_cdc.c ****             USBUART_EnableOutEP(outEp);
 309:Generated_Source\PSoC4/USBUART_cdc.c ****         }
 310:Generated_Source\PSoC4/USBUART_cdc.c **** 
 311:Generated_Source\PSoC4/USBUART_cdc.c ****     }
 312:Generated_Source\PSoC4/USBUART_cdc.c **** 
 313:Generated_Source\PSoC4/USBUART_cdc.c ****     /* COM Port 1 should be correct to proceed. */
 314:Generated_Source\PSoC4/USBUART_cdc.c ****     if ((0u == USBUART_cdcDataInEp[USBUART_COM_PORT1]) \
 315:Generated_Source\PSoC4/USBUART_cdc.c ****             || (0u == USBUART_cdcDataOutEp[USBUART_COM_PORT1]) \
 316:Generated_Source\PSoC4/USBUART_cdc.c ****             || (0u ==  USBUART_cdcCommInInterruptEp[USBUART_COM_PORT1])
ARM GAS  C:\Users\essele\AppData\Local\Temp\cczrtAYv.s 			page 7


 317:Generated_Source\PSoC4/USBUART_cdc.c ****             || (USBUART_cdcDataInEp[USBUART_COM_PORT1] >= USBUART_MAX_EP)
 318:Generated_Source\PSoC4/USBUART_cdc.c ****             || (USBUART_cdcDataOutEp[USBUART_COM_PORT1] >= USBUART_MAX_EP)
 319:Generated_Source\PSoC4/USBUART_cdc.c ****             || (USBUART_cdcCommInInterruptEp[USBUART_COM_PORT1] >= USBUART_MAX_EP))
 320:Generated_Source\PSoC4/USBUART_cdc.c ****     {
 321:Generated_Source\PSoC4/USBUART_cdc.c ****         ret = USBUART_FAILURE;
 322:Generated_Source\PSoC4/USBUART_cdc.c ****     }
 323:Generated_Source\PSoC4/USBUART_cdc.c **** 
 324:Generated_Source\PSoC4/USBUART_cdc.c ****     return (ret);
 325:Generated_Source\PSoC4/USBUART_cdc.c **** }
 326:Generated_Source\PSoC4/USBUART_cdc.c **** 
 327:Generated_Source\PSoC4/USBUART_cdc.c **** 
 328:Generated_Source\PSoC4/USBUART_cdc.c **** /*******************************************************************************
 329:Generated_Source\PSoC4/USBUART_cdc.c **** * Function Name: USBUART_PutData
 330:Generated_Source\PSoC4/USBUART_cdc.c **** ****************************************************************************//**
 331:Generated_Source\PSoC4/USBUART_cdc.c **** *
 332:Generated_Source\PSoC4/USBUART_cdc.c **** *  This function sends a specified number of bytes from the location specified
 333:Generated_Source\PSoC4/USBUART_cdc.c **** *  by a pointer to the PC. The USBUART_CDCIsReady() function should be
 334:Generated_Source\PSoC4/USBUART_cdc.c **** *  called before sending new data, to be sure that the previous data has
 335:Generated_Source\PSoC4/USBUART_cdc.c **** *  finished sending.
 336:Generated_Source\PSoC4/USBUART_cdc.c **** *  If the last sent packet is less than maximum packet size the USB transfer
 337:Generated_Source\PSoC4/USBUART_cdc.c **** *  of this short packet will identify the end of the segment. If the last sent
 338:Generated_Source\PSoC4/USBUART_cdc.c **** *  packet is exactly maximum packet size, it shall be followed by a zero-length
 339:Generated_Source\PSoC4/USBUART_cdc.c **** *  packet (which is a short packet) to assure the end of segment is properly
 340:Generated_Source\PSoC4/USBUART_cdc.c **** *  identified. To send zero-length packet, use USBUART_PutData() API
 341:Generated_Source\PSoC4/USBUART_cdc.c **** *  with length parameter set to zero.
 342:Generated_Source\PSoC4/USBUART_cdc.c **** *
 343:Generated_Source\PSoC4/USBUART_cdc.c **** *  \param pData: pointer to the buffer containing data to be sent.
 344:Generated_Source\PSoC4/USBUART_cdc.c **** *  \param length: Specifies the number of bytes to send from the pData
 345:Generated_Source\PSoC4/USBUART_cdc.c **** *  buffer. Maximum length will be limited by the maximum packet
 346:Generated_Source\PSoC4/USBUART_cdc.c **** *  size for the endpoint. Data will be lost if length is greater than Max
 347:Generated_Source\PSoC4/USBUART_cdc.c **** *  Packet Size.
 348:Generated_Source\PSoC4/USBUART_cdc.c **** *
 349:Generated_Source\PSoC4/USBUART_cdc.c **** * \globalvars
 350:Generated_Source\PSoC4/USBUART_cdc.c **** *
 351:Generated_Source\PSoC4/USBUART_cdc.c **** *   USBUART_cdcDataInEp: CDC IN endpoint number used for sending
 352:Generated_Source\PSoC4/USBUART_cdc.c **** *     data.
 353:Generated_Source\PSoC4/USBUART_cdc.c **** *
 354:Generated_Source\PSoC4/USBUART_cdc.c **** * \reentrant
 355:Generated_Source\PSoC4/USBUART_cdc.c **** *  No.
 356:Generated_Source\PSoC4/USBUART_cdc.c **** *
 357:Generated_Source\PSoC4/USBUART_cdc.c **** *******************************************************************************/
 358:Generated_Source\PSoC4/USBUART_cdc.c **** void USBUART_PutData(const uint8* pData, uint16 length) 
 359:Generated_Source\PSoC4/USBUART_cdc.c **** {
 360:Generated_Source\PSoC4/USBUART_cdc.c ****     uint8 epNumber = USBUART_cdcDataInEp[USBUART_activeCom];
 361:Generated_Source\PSoC4/USBUART_cdc.c **** 
 362:Generated_Source\PSoC4/USBUART_cdc.c ****     /* Limit length to maximum packet size for endpoint. */
 363:Generated_Source\PSoC4/USBUART_cdc.c ****     if (length > USBUART_EP[epNumber].bufferSize)
 364:Generated_Source\PSoC4/USBUART_cdc.c ****     {
 365:Generated_Source\PSoC4/USBUART_cdc.c ****         /* Caution: Data will be lost if length is greater than Max Packet Size. */
 366:Generated_Source\PSoC4/USBUART_cdc.c ****         length = USBUART_EP[epNumber].bufferSize;
 367:Generated_Source\PSoC4/USBUART_cdc.c **** 
 368:Generated_Source\PSoC4/USBUART_cdc.c ****         /* Halt CPU in debug mode */
 369:Generated_Source\PSoC4/USBUART_cdc.c ****         CYASSERT(0u != 0u);
 370:Generated_Source\PSoC4/USBUART_cdc.c ****     }
 371:Generated_Source\PSoC4/USBUART_cdc.c **** 
 372:Generated_Source\PSoC4/USBUART_cdc.c ****     USBUART_LoadInEP(epNumber, pData, length);
 373:Generated_Source\PSoC4/USBUART_cdc.c **** }
ARM GAS  C:\Users\essele\AppData\Local\Temp\cczrtAYv.s 			page 8


 374:Generated_Source\PSoC4/USBUART_cdc.c **** 
 375:Generated_Source\PSoC4/USBUART_cdc.c **** 
 376:Generated_Source\PSoC4/USBUART_cdc.c **** /*******************************************************************************
 377:Generated_Source\PSoC4/USBUART_cdc.c **** * Function Name: USBUART_StrLen
 378:Generated_Source\PSoC4/USBUART_cdc.c **** ****************************************************************************//**
 379:Generated_Source\PSoC4/USBUART_cdc.c **** *
 380:Generated_Source\PSoC4/USBUART_cdc.c **** *  Calculates length of a null terminated string.
 381:Generated_Source\PSoC4/USBUART_cdc.c **** *
 382:Generated_Source\PSoC4/USBUART_cdc.c **** *  \param string: pointer to the string.
 383:Generated_Source\PSoC4/USBUART_cdc.c **** *
 384:Generated_Source\PSoC4/USBUART_cdc.c **** * \return
 385:Generated_Source\PSoC4/USBUART_cdc.c **** *  Length of the string
 386:Generated_Source\PSoC4/USBUART_cdc.c **** *
 387:Generated_Source\PSoC4/USBUART_cdc.c **** *******************************************************************************/
 388:Generated_Source\PSoC4/USBUART_cdc.c **** static uint16 USBUART_StrLen(const char8 string[]) 
 389:Generated_Source\PSoC4/USBUART_cdc.c **** {
  27              		.loc 1 389 0
  28              		.cfi_startproc
  29              		@ args = 0, pretend = 0, frame = 0
  30              		@ frame_needed = 0, uses_anonymous_args = 0
  31              		@ link register save eliminated.
  32              	.LVL0:
  33 0000 0200     		movs	r2, r0
  34              	.LVL1:
 390:Generated_Source\PSoC4/USBUART_cdc.c ****     uint16 len = 0u;
  35              		.loc 1 390 0
  36 0002 0020     		movs	r0, #0
  37              	.LVL2:
 391:Generated_Source\PSoC4/USBUART_cdc.c **** 
 392:Generated_Source\PSoC4/USBUART_cdc.c ****     while (string[len] != (char8)0)
  38              		.loc 1 392 0
  39 0004 01E0     		b	.L2
  40              	.LVL3:
  41              	.L3:
 393:Generated_Source\PSoC4/USBUART_cdc.c ****     {
 394:Generated_Source\PSoC4/USBUART_cdc.c ****         len++;
  42              		.loc 1 394 0
  43 0006 0130     		adds	r0, r0, #1
  44              	.LVL4:
  45 0008 80B2     		uxth	r0, r0
  46              	.LVL5:
  47              	.L2:
 392:Generated_Source\PSoC4/USBUART_cdc.c ****     {
  48              		.loc 1 392 0
  49 000a 135C     		ldrb	r3, [r2, r0]
  50 000c 002B     		cmp	r3, #0
  51 000e FAD1     		bne	.L3
 395:Generated_Source\PSoC4/USBUART_cdc.c ****     }
 396:Generated_Source\PSoC4/USBUART_cdc.c **** 
 397:Generated_Source\PSoC4/USBUART_cdc.c ****     return ((uint16) len);
 398:Generated_Source\PSoC4/USBUART_cdc.c **** }
  52              		.loc 1 398 0
  53              		@ sp needed
  54 0010 7047     		bx	lr
  55              		.cfi_endproc
  56              	.LFE5:
  57              		.size	USBUART_StrLen, .-USBUART_StrLen
ARM GAS  C:\Users\essele\AppData\Local\Temp\cczrtAYv.s 			page 9


  58 0012 C046     		.section	.text.USBUART_GetInterfaceComPort,"ax",%progbits
  59              		.align	2
  60              		.global	USBUART_GetInterfaceComPort
  61              		.code	16
  62              		.thumb_func
  63              		.type	USBUART_GetInterfaceComPort, %function
  64              	USBUART_GetInterfaceComPort:
  65              	.LFB2:
 240:Generated_Source\PSoC4/USBUART_cdc.c ****     uint8 comPort = 0u;
  66              		.loc 1 240 0
  67              		.cfi_startproc
  68              		@ args = 0, pretend = 0, frame = 0
  69              		@ frame_needed = 0, uses_anonymous_args = 0
  70              	.LVL6:
  71 0000 10B5     		push	{r4, lr}
  72              		.cfi_def_cfa_offset 8
  73              		.cfi_offset 4, -8
  74              		.cfi_offset 14, -4
  75              	.LVL7:
 242:Generated_Source\PSoC4/USBUART_cdc.c ****     uint8 notEp;
  76              		.loc 1 242 0
  77 0002 FF24     		movs	r4, #255
 241:Generated_Source\PSoC4/USBUART_cdc.c ****     uint8 res = 0xFFu;
  78              		.loc 1 241 0
  79 0004 0022     		movs	r2, #0
 245:Generated_Source\PSoC4/USBUART_cdc.c ****     {
  80              		.loc 1 245 0
  81 0006 0FE0     		b	.L5
  82              	.LVL8:
  83              	.L7:
 247:Generated_Source\PSoC4/USBUART_cdc.c **** 
  84              		.loc 1 247 0
  85 0008 094B     		ldr	r3, .L9
  86 000a 9B5C     		ldrb	r3, [r3, r2]
  87 000c DBB2     		uxtb	r3, r3
  88              	.LVL9:
 249:Generated_Source\PSoC4/USBUART_cdc.c ****         {
  89              		.loc 1 249 0
  90 000e 5900     		lsls	r1, r3, #1
  91 0010 CB18     		adds	r3, r1, r3
  92              	.LVL10:
  93 0012 9900     		lsls	r1, r3, #2
  94 0014 074B     		ldr	r3, .L9+4
  95 0016 5918     		adds	r1, r3, r1
  96 0018 8B7A     		ldrb	r3, [r1, #10]
  97 001a DBB2     		uxtb	r3, r3
  98 001c 8342     		cmp	r3, r0
  99 001e 01D1     		bne	.L6
 251:Generated_Source\PSoC4/USBUART_cdc.c ****             comPort = USBUART_MAX_MULTI_COM_NUM;
 100              		.loc 1 251 0
 101 0020 1400     		movs	r4, r2
 102              	.LVL11:
 252:Generated_Source\PSoC4/USBUART_cdc.c ****         }
 103              		.loc 1 252 0
 104 0022 0222     		movs	r2, #2
 105              	.LVL12:
 106              	.L6:
ARM GAS  C:\Users\essele\AppData\Local\Temp\cczrtAYv.s 			page 10


 255:Generated_Source\PSoC4/USBUART_cdc.c ****     }
 107              		.loc 1 255 0
 108 0024 0132     		adds	r2, r2, #1
 109              	.LVL13:
 110 0026 D2B2     		uxtb	r2, r2
 111              	.LVL14:
 112              	.L5:
 245:Generated_Source\PSoC4/USBUART_cdc.c ****     {
 113              		.loc 1 245 0
 114 0028 012A     		cmp	r2, #1
 115 002a EDD9     		bls	.L7
 258:Generated_Source\PSoC4/USBUART_cdc.c **** 
 116              		.loc 1 258 0
 117 002c 2000     		movs	r0, r4
 118              	.LVL15:
 119              		@ sp needed
 120              	.LVL16:
 121 002e 10BD     		pop	{r4, pc}
 122              	.L10:
 123              		.align	2
 124              	.L9:
 125 0030 00000000 		.word	USBUART_cdcCommInInterruptEp
 126 0034 00000000 		.word	USBUART_EP
 127              		.cfi_endproc
 128              	.LFE2:
 129              		.size	USBUART_GetInterfaceComPort, .-USBUART_GetInterfaceComPort
 130              		.section	.text.USBUART_DispatchCDCClassRqst,"ax",%progbits
 131              		.align	2
 132              		.global	USBUART_DispatchCDCClassRqst
 133              		.code	16
 134              		.thumb_func
 135              		.type	USBUART_DispatchCDCClassRqst, %function
 136              	USBUART_DispatchCDCClassRqst:
 137              	.LFB1:
 156:Generated_Source\PSoC4/USBUART_cdc.c ****     uint8 requestHandled = USBUART_FALSE;
 138              		.loc 1 156 0
 139              		.cfi_startproc
 140              		@ args = 0, pretend = 0, frame = 0
 141              		@ frame_needed = 0, uses_anonymous_args = 0
 142 0000 10B5     		push	{r4, lr}
 143              		.cfi_def_cfa_offset 8
 144              		.cfi_offset 4, -8
 145              		.cfi_offset 14, -4
 146              	.LVL17:
 160:Generated_Source\PSoC4/USBUART_cdc.c **** 
 147              		.loc 1 160 0
 148 0002 204C     		ldr	r4, .L21
 149 0004 2069     		ldr	r0, [r4, #16]
 150 0006 C0B2     		uxtb	r0, r0
 151 0008 FFF7FEFF 		bl	USBUART_GetInterfaceComPort
 152              	.LVL18:
 163:Generated_Source\PSoC4/USBUART_cdc.c ****     {
 153              		.loc 1 163 0
 154 000c 2368     		ldr	r3, [r4]
 155 000e 1B06     		lsls	r3, r3, #24
 156 0010 0DD5     		bpl	.L12
 167:Generated_Source\PSoC4/USBUART_cdc.c ****         {
ARM GAS  C:\Users\essele\AppData\Local\Temp\cczrtAYv.s 			page 11


 157              		.loc 1 167 0
 158 0012 6368     		ldr	r3, [r4, #4]
 159 0014 212B     		cmp	r3, #33
 160 0016 31D1     		bne	.L19
 170:Generated_Source\PSoC4/USBUART_cdc.c ****                 USBUART_currentTD.pData = USBUART_linesCoding[comPort];
 161              		.loc 1 170 0
 162 0018 1B4A     		ldr	r2, .L21+4
 163 001a 1A3B     		subs	r3, r3, #26
 164 001c 1380     		strh	r3, [r2]
 171:Generated_Source\PSoC4/USBUART_cdc.c ****                 requestHandled  = USBUART_InitControlRead();
 165              		.loc 1 171 0
 166 001e C300     		lsls	r3, r0, #3
 167 0020 181A     		subs	r0, r3, r0
 168              	.LVL19:
 169 0022 1A4B     		ldr	r3, .L21+8
 170 0024 1818     		adds	r0, r3, r0
 171 0026 5060     		str	r0, [r2, #4]
 172:Generated_Source\PSoC4/USBUART_cdc.c ****                 break;
 172              		.loc 1 172 0
 173 0028 FFF7FEFF 		bl	USBUART_InitControlRead
 174              	.LVL20:
 173:Generated_Source\PSoC4/USBUART_cdc.c **** 
 175              		.loc 1 173 0
 176 002c 29E0     		b	.L13
 177              	.LVL21:
 178              	.L12:
 191:Generated_Source\PSoC4/USBUART_cdc.c ****         {
 179              		.loc 1 191 0
 180 002e 154B     		ldr	r3, .L21
 181 0030 5B68     		ldr	r3, [r3, #4]
 182 0032 202B     		cmp	r3, #32
 183 0034 02D0     		beq	.L15
 184 0036 222B     		cmp	r3, #34
 185 0038 11D0     		beq	.L16
 186 003a 21E0     		b	.L20
 187              	.L15:
 194:Generated_Source\PSoC4/USBUART_cdc.c ****                 USBUART_currentTD.pData  = USBUART_linesCoding[comPort];
 188              		.loc 1 194 0
 189 003c 124A     		ldr	r2, .L21+4
 190 003e 0723     		movs	r3, #7
 191 0040 1380     		strh	r3, [r2]
 195:Generated_Source\PSoC4/USBUART_cdc.c ****                 USBUART_linesChanged[comPort] |= USBUART_LINE_CODING_CHANGED;
 192              		.loc 1 195 0
 193 0042 C300     		lsls	r3, r0, #3
 194 0044 1B1A     		subs	r3, r3, r0
 195 0046 1149     		ldr	r1, .L21+8
 196 0048 CB18     		adds	r3, r1, r3
 197 004a 5360     		str	r3, [r2, #4]
 196:Generated_Source\PSoC4/USBUART_cdc.c **** 
 198              		.loc 1 196 0
 199 004c 104A     		ldr	r2, .L21+12
 200 004e 115C     		ldrb	r1, [r2, r0]
 201 0050 0123     		movs	r3, #1
 202 0052 0B43     		orrs	r3, r1
 203 0054 DBB2     		uxtb	r3, r3
 204 0056 1354     		strb	r3, [r2, r0]
 198:Generated_Source\PSoC4/USBUART_cdc.c ****                 break;
ARM GAS  C:\Users\essele\AppData\Local\Temp\cczrtAYv.s 			page 12


 205              		.loc 1 198 0
 206 0058 FFF7FEFF 		bl	USBUART_InitControlWrite
 207              	.LVL22:
 199:Generated_Source\PSoC4/USBUART_cdc.c **** 
 208              		.loc 1 199 0
 209 005c 11E0     		b	.L13
 210              	.LVL23:
 211              	.L16:
 202:Generated_Source\PSoC4/USBUART_cdc.c ****                 USBUART_linesChanged[comPort]      |= USBUART_LINE_CONTROL_CHANGED;
 212              		.loc 1 202 0
 213 005e 094B     		ldr	r3, .L21
 214 0060 9B68     		ldr	r3, [r3, #8]
 215 0062 DBB2     		uxtb	r3, r3
 216 0064 4100     		lsls	r1, r0, #1
 217 0066 0B4A     		ldr	r2, .L21+16
 218 0068 8B52     		strh	r3, [r1, r2]
 203:Generated_Source\PSoC4/USBUART_cdc.c **** 
 219              		.loc 1 203 0
 220 006a 094A     		ldr	r2, .L21+12
 221 006c 115C     		ldrb	r1, [r2, r0]
 222 006e 0223     		movs	r3, #2
 223 0070 0B43     		orrs	r3, r1
 224 0072 DBB2     		uxtb	r3, r3
 225 0074 1354     		strb	r3, [r2, r0]
 205:Generated_Source\PSoC4/USBUART_cdc.c ****                 break;
 226              		.loc 1 205 0
 227 0076 FFF7FEFF 		bl	USBUART_InitNoDataControlTransfer
 228              	.LVL24:
 206:Generated_Source\PSoC4/USBUART_cdc.c **** 
 229              		.loc 1 206 0
 230 007a 02E0     		b	.L13
 231              	.LVL25:
 232              	.L19:
 157:Generated_Source\PSoC4/USBUART_cdc.c ****     uint8 comPort;
 233              		.loc 1 157 0
 234 007c 0020     		movs	r0, #0
 235              	.LVL26:
 236 007e 00E0     		b	.L13
 237              	.LVL27:
 238              	.L20:
 239 0080 0020     		movs	r0, #0
 240              	.LVL28:
 241              	.L13:
 222:Generated_Source\PSoC4/USBUART_cdc.c **** 
 242              		.loc 1 222 0
 243              		@ sp needed
 244 0082 10BD     		pop	{r4, pc}
 245              	.L22:
 246              		.align	2
 247              	.L21:
 248 0084 00002C40 		.word	1076625408
 249 0088 00000000 		.word	USBUART_currentTD
 250 008c 00000000 		.word	.LANCHOR0
 251 0090 00000000 		.word	USBUART_linesChanged
 252 0094 00000000 		.word	USBUART_linesControlBitmap
 253              		.cfi_endproc
 254              	.LFE1:
ARM GAS  C:\Users\essele\AppData\Local\Temp\cczrtAYv.s 			page 13


 255              		.size	USBUART_DispatchCDCClassRqst, .-USBUART_DispatchCDCClassRqst
 256              		.section	.text.USBUART_CDC_Init,"ax",%progbits
 257              		.align	2
 258              		.global	USBUART_CDC_Init
 259              		.code	16
 260              		.thumb_func
 261              		.type	USBUART_CDC_Init, %function
 262              	USBUART_CDC_Init:
 263              	.LFB3:
 294:Generated_Source\PSoC4/USBUART_cdc.c ****     uint8 comPort;
 264              		.loc 1 294 0
 265              		.cfi_startproc
 266              		@ args = 0, pretend = 0, frame = 0
 267              		@ frame_needed = 0, uses_anonymous_args = 0
 268 0000 10B5     		push	{r4, lr}
 269              		.cfi_def_cfa_offset 8
 270              		.cfi_offset 4, -8
 271              		.cfi_offset 14, -4
 272              	.LVL29:
 299:Generated_Source\PSoC4/USBUART_cdc.c ****     USBUART_linesChanged[USBUART_COM_PORT1] = 0u;
 273              		.loc 1 299 0
 274 0002 0023     		movs	r3, #0
 275 0004 1E4A     		ldr	r2, .L34
 276 0006 1370     		strb	r3, [r2]
 300:Generated_Source\PSoC4/USBUART_cdc.c ****     USBUART_linesChanged[USBUART_COM_PORT2] = 0u;
 277              		.loc 1 300 0
 278 0008 1E4A     		ldr	r2, .L34+4
 279 000a 1370     		strb	r3, [r2]
 301:Generated_Source\PSoC4/USBUART_cdc.c **** 
 280              		.loc 1 301 0
 281 000c 5370     		strb	r3, [r2, #1]
 282              	.LVL30:
 303:Generated_Source\PSoC4/USBUART_cdc.c ****     {
 283              		.loc 1 303 0
 284 000e 0024     		movs	r4, #0
 285 0010 0AE0     		b	.L24
 286              	.LVL31:
 287              	.L26:
 305:Generated_Source\PSoC4/USBUART_cdc.c ****         if((0u != outEp) && (USBUART_MAX_EP > outEp))
 288              		.loc 1 305 0
 289 0012 1D4B     		ldr	r3, .L34+8
 290 0014 185D     		ldrb	r0, [r3, r4]
 291 0016 C0B2     		uxtb	r0, r0
 292              	.LVL32:
 306:Generated_Source\PSoC4/USBUART_cdc.c ****         {
 293              		.loc 1 306 0
 294 0018 431E     		subs	r3, r0, #1
 295 001a DBB2     		uxtb	r3, r3
 296 001c 072B     		cmp	r3, #7
 297 001e 01D8     		bhi	.L25
 308:Generated_Source\PSoC4/USBUART_cdc.c ****         }
 298              		.loc 1 308 0
 299 0020 FFF7FEFF 		bl	USBUART_EnableOutEP
 300              	.LVL33:
 301              	.L25:
 303:Generated_Source\PSoC4/USBUART_cdc.c ****     {
 302              		.loc 1 303 0 discriminator 2
ARM GAS  C:\Users\essele\AppData\Local\Temp\cczrtAYv.s 			page 14


 303 0024 0134     		adds	r4, r4, #1
 304              	.LVL34:
 305 0026 E4B2     		uxtb	r4, r4
 306              	.LVL35:
 307              	.L24:
 303:Generated_Source\PSoC4/USBUART_cdc.c ****     {
 308              		.loc 1 303 0 is_stmt 0 discriminator 1
 309 0028 012C     		cmp	r4, #1
 310 002a F2D9     		bls	.L26
 314:Generated_Source\PSoC4/USBUART_cdc.c ****             || (0u == USBUART_cdcDataOutEp[USBUART_COM_PORT1]) \
 311              		.loc 1 314 0 is_stmt 1
 312 002c 174B     		ldr	r3, .L34+12
 313 002e 1B78     		ldrb	r3, [r3]
 314 0030 002B     		cmp	r3, #0
 315 0032 18D0     		beq	.L28
 315:Generated_Source\PSoC4/USBUART_cdc.c ****             || (0u ==  USBUART_cdcCommInInterruptEp[USBUART_COM_PORT1])
 316              		.loc 1 315 0
 317 0034 144B     		ldr	r3, .L34+8
 318 0036 1B78     		ldrb	r3, [r3]
 319 0038 002B     		cmp	r3, #0
 320 003a 16D0     		beq	.L29
 316:Generated_Source\PSoC4/USBUART_cdc.c ****             || (USBUART_cdcDataInEp[USBUART_COM_PORT1] >= USBUART_MAX_EP)
 321              		.loc 1 316 0
 322 003c 144B     		ldr	r3, .L34+16
 323 003e 1B78     		ldrb	r3, [r3]
 324 0040 002B     		cmp	r3, #0
 325 0042 14D0     		beq	.L30
 317:Generated_Source\PSoC4/USBUART_cdc.c ****             || (USBUART_cdcDataOutEp[USBUART_COM_PORT1] >= USBUART_MAX_EP)
 326              		.loc 1 317 0
 327 0044 114B     		ldr	r3, .L34+12
 328 0046 1B78     		ldrb	r3, [r3]
 329 0048 DBB2     		uxtb	r3, r3
 330 004a 082B     		cmp	r3, #8
 331 004c 11D8     		bhi	.L31
 318:Generated_Source\PSoC4/USBUART_cdc.c ****             || (USBUART_cdcCommInInterruptEp[USBUART_COM_PORT1] >= USBUART_MAX_EP))
 332              		.loc 1 318 0
 333 004e 0E4B     		ldr	r3, .L34+8
 334 0050 1B78     		ldrb	r3, [r3]
 335 0052 DBB2     		uxtb	r3, r3
 336 0054 082B     		cmp	r3, #8
 337 0056 0ED8     		bhi	.L32
 319:Generated_Source\PSoC4/USBUART_cdc.c ****     {
 338              		.loc 1 319 0
 339 0058 0D4B     		ldr	r3, .L34+16
 340 005a 1B78     		ldrb	r3, [r3]
 341 005c DBB2     		uxtb	r3, r3
 342 005e 082B     		cmp	r3, #8
 343 0060 0BD8     		bhi	.L33
 297:Generated_Source\PSoC4/USBUART_cdc.c **** 
 344              		.loc 1 297 0
 345 0062 0020     		movs	r0, #0
 346 0064 0AE0     		b	.L27
 347              	.L28:
 321:Generated_Source\PSoC4/USBUART_cdc.c ****     }
 348              		.loc 1 321 0
 349 0066 0120     		movs	r0, #1
 350 0068 08E0     		b	.L27
ARM GAS  C:\Users\essele\AppData\Local\Temp\cczrtAYv.s 			page 15


 351              	.L29:
 352 006a 0120     		movs	r0, #1
 353 006c 06E0     		b	.L27
 354              	.L30:
 355 006e 0120     		movs	r0, #1
 356 0070 04E0     		b	.L27
 357              	.L31:
 358 0072 0120     		movs	r0, #1
 359 0074 02E0     		b	.L27
 360              	.L32:
 361 0076 0120     		movs	r0, #1
 362 0078 00E0     		b	.L27
 363              	.L33:
 364 007a 0120     		movs	r0, #1
 365              	.L27:
 366              	.LVL36:
 325:Generated_Source\PSoC4/USBUART_cdc.c **** 
 367              		.loc 1 325 0
 368              		@ sp needed
 369              	.LVL37:
 370 007c 10BD     		pop	{r4, pc}
 371              	.L35:
 372 007e C046     		.align	2
 373              	.L34:
 374 0080 00000000 		.word	.LANCHOR1
 375 0084 00000000 		.word	USBUART_linesChanged
 376 0088 00000000 		.word	USBUART_cdcDataOutEp
 377 008c 00000000 		.word	USBUART_cdcDataInEp
 378 0090 00000000 		.word	USBUART_cdcCommInInterruptEp
 379              		.cfi_endproc
 380              	.LFE3:
 381              		.size	USBUART_CDC_Init, .-USBUART_CDC_Init
 382              		.section	.text.USBUART_PutData,"ax",%progbits
 383              		.align	2
 384              		.global	USBUART_PutData
 385              		.code	16
 386              		.thumb_func
 387              		.type	USBUART_PutData, %function
 388              	USBUART_PutData:
 389              	.LFB4:
 359:Generated_Source\PSoC4/USBUART_cdc.c ****     uint8 epNumber = USBUART_cdcDataInEp[USBUART_activeCom];
 390              		.loc 1 359 0
 391              		.cfi_startproc
 392              		@ args = 0, pretend = 0, frame = 0
 393              		@ frame_needed = 0, uses_anonymous_args = 0
 394              	.LVL38:
 395 0000 70B5     		push	{r4, r5, r6, lr}
 396              		.cfi_def_cfa_offset 16
 397              		.cfi_offset 4, -16
 398              		.cfi_offset 5, -12
 399              		.cfi_offset 6, -8
 400              		.cfi_offset 14, -4
 401 0002 0600     		movs	r6, r0
 402 0004 0D00     		movs	r5, r1
 360:Generated_Source\PSoC4/USBUART_cdc.c **** 
 403              		.loc 1 360 0
 404 0006 0F4B     		ldr	r3, .L38
ARM GAS  C:\Users\essele\AppData\Local\Temp\cczrtAYv.s 			page 16


 405 0008 1B78     		ldrb	r3, [r3]
 406 000a 0F4A     		ldr	r2, .L38+4
 407 000c D45C     		ldrb	r4, [r2, r3]
 408 000e E4B2     		uxtb	r4, r4
 409              	.LVL39:
 363:Generated_Source\PSoC4/USBUART_cdc.c ****     {
 410              		.loc 1 363 0
 411 0010 6200     		lsls	r2, r4, #1
 412 0012 1219     		adds	r2, r2, r4
 413 0014 9300     		lsls	r3, r2, #2
 414 0016 0D4A     		ldr	r2, .L38+8
 415 0018 D318     		adds	r3, r2, r3
 416 001a 1B89     		ldrh	r3, [r3, #8]
 417 001c 9BB2     		uxth	r3, r3
 418 001e 8B42     		cmp	r3, r1
 419 0020 09D2     		bcs	.L37
 366:Generated_Source\PSoC4/USBUART_cdc.c **** 
 420              		.loc 1 366 0
 421 0022 6200     		lsls	r2, r4, #1
 422 0024 1219     		adds	r2, r2, r4
 423 0026 9300     		lsls	r3, r2, #2
 424 0028 084A     		ldr	r2, .L38+8
 425 002a D318     		adds	r3, r2, r3
 426 002c 1D89     		ldrh	r5, [r3, #8]
 427 002e ADB2     		uxth	r5, r5
 428              	.LVL40:
 369:Generated_Source\PSoC4/USBUART_cdc.c ****     }
 429              		.loc 1 369 0
 430 0030 0020     		movs	r0, #0
 431              	.LVL41:
 432 0032 FFF7FEFF 		bl	CyHalt
 433              	.LVL42:
 434              	.L37:
 372:Generated_Source\PSoC4/USBUART_cdc.c **** }
 435              		.loc 1 372 0
 436 0036 2A00     		movs	r2, r5
 437 0038 3100     		movs	r1, r6
 438 003a 2000     		movs	r0, r4
 439 003c FFF7FEFF 		bl	USBUART_LoadInEP
 440              	.LVL43:
 373:Generated_Source\PSoC4/USBUART_cdc.c **** 
 441              		.loc 1 373 0
 442              		@ sp needed
 443              	.LVL44:
 444              	.LVL45:
 445              	.LVL46:
 446 0040 70BD     		pop	{r4, r5, r6, pc}
 447              	.L39:
 448 0042 C046     		.align	2
 449              	.L38:
 450 0044 00000000 		.word	.LANCHOR1
 451 0048 00000000 		.word	USBUART_cdcDataInEp
 452 004c 00000000 		.word	USBUART_EP
 453              		.cfi_endproc
 454              	.LFE4:
 455              		.size	USBUART_PutData, .-USBUART_PutData
 456              		.section	.text.USBUART_PutString,"ax",%progbits
ARM GAS  C:\Users\essele\AppData\Local\Temp\cczrtAYv.s 			page 17


 457              		.align	2
 458              		.global	USBUART_PutString
 459              		.code	16
 460              		.thumb_func
 461              		.type	USBUART_PutString, %function
 462              	USBUART_PutString:
 463              	.LFB6:
 399:Generated_Source\PSoC4/USBUART_cdc.c **** 
 400:Generated_Source\PSoC4/USBUART_cdc.c **** 
 401:Generated_Source\PSoC4/USBUART_cdc.c **** /***************************************************************************
 402:Generated_Source\PSoC4/USBUART_cdc.c **** * Function Name: USBUART_PutString
 403:Generated_Source\PSoC4/USBUART_cdc.c **** ************************************************************************//**
 404:Generated_Source\PSoC4/USBUART_cdc.c **** *
 405:Generated_Source\PSoC4/USBUART_cdc.c **** *  This function sends a null terminated string to the PC. This function will
 406:Generated_Source\PSoC4/USBUART_cdc.c **** *  block if there is not enough memory to place the whole string. It will block
 407:Generated_Source\PSoC4/USBUART_cdc.c **** *  until the entire string has been written to the transmit buffer.
 408:Generated_Source\PSoC4/USBUART_cdc.c **** *  The USBUART_CDCIsReady() function should be called before
 409:Generated_Source\PSoC4/USBUART_cdc.c **** *  sending data with a new call to USBUART_PutString(), to be sure
 410:Generated_Source\PSoC4/USBUART_cdc.c **** *  that the previous data has finished sending. This function sends
 411:Generated_Source\PSoC4/USBUART_cdc.c **** *  zero-length packet automatically, if the length of the last packet, sent
 412:Generated_Source\PSoC4/USBUART_cdc.c **** *  by this API, is equal to Max Packet Size
 413:Generated_Source\PSoC4/USBUART_cdc.c **** *
 414:Generated_Source\PSoC4/USBUART_cdc.c **** *  \param string: pointer to the string to be sent to the PC.
 415:Generated_Source\PSoC4/USBUART_cdc.c **** *
 416:Generated_Source\PSoC4/USBUART_cdc.c **** * \globalvars
 417:Generated_Source\PSoC4/USBUART_cdc.c **** *
 418:Generated_Source\PSoC4/USBUART_cdc.c **** *   USBUART_cdcDataInEp: CDC IN endpoint number used for sending
 419:Generated_Source\PSoC4/USBUART_cdc.c **** *     data.
 420:Generated_Source\PSoC4/USBUART_cdc.c **** *
 421:Generated_Source\PSoC4/USBUART_cdc.c **** * \reentrant
 422:Generated_Source\PSoC4/USBUART_cdc.c **** *  No.
 423:Generated_Source\PSoC4/USBUART_cdc.c **** *
 424:Generated_Source\PSoC4/USBUART_cdc.c **** ***************************************************************************/
 425:Generated_Source\PSoC4/USBUART_cdc.c **** void USBUART_PutString(const char8 string[]) 
 426:Generated_Source\PSoC4/USBUART_cdc.c **** {
 464              		.loc 1 426 0
 465              		.cfi_startproc
 466              		@ args = 0, pretend = 0, frame = 0
 467              		@ frame_needed = 0, uses_anonymous_args = 0
 468              	.LVL47:
 469 0000 F8B5     		push	{r3, r4, r5, r6, r7, lr}
 470              		.cfi_def_cfa_offset 24
 471              		.cfi_offset 3, -24
 472              		.cfi_offset 4, -20
 473              		.cfi_offset 5, -16
 474              		.cfi_offset 6, -12
 475              		.cfi_offset 7, -8
 476              		.cfi_offset 14, -4
 477 0002 4F46     		mov	r7, r9
 478 0004 4646     		mov	r6, r8
 479 0006 C0B4     		push	{r6, r7}
 480              		.cfi_def_cfa_offset 32
 481              		.cfi_offset 8, -32
 482              		.cfi_offset 9, -28
 483 0008 8046     		mov	r8, r0
 484              	.LVL48:
 427:Generated_Source\PSoC4/USBUART_cdc.c ****     uint16 strLength;
ARM GAS  C:\Users\essele\AppData\Local\Temp\cczrtAYv.s 			page 18


 428:Generated_Source\PSoC4/USBUART_cdc.c ****     uint16 sendLength;
 429:Generated_Source\PSoC4/USBUART_cdc.c ****     uint16 bufIndex = 0u;
 430:Generated_Source\PSoC4/USBUART_cdc.c **** 
 431:Generated_Source\PSoC4/USBUART_cdc.c ****     uint8  epNumber = USBUART_cdcDataInEp[USBUART_activeCom];
 485              		.loc 1 431 0
 486 000a 244B     		ldr	r3, .L47
 487 000c 1B78     		ldrb	r3, [r3]
 488 000e 244A     		ldr	r2, .L47+4
 489 0010 D65C     		ldrb	r6, [r2, r3]
 490 0012 F6B2     		uxtb	r6, r6
 491              	.LVL49:
 432:Generated_Source\PSoC4/USBUART_cdc.c **** 
 433:Generated_Source\PSoC4/USBUART_cdc.c ****     /* Get length string length (it is terminated with zero). */
 434:Generated_Source\PSoC4/USBUART_cdc.c ****     strLength = USBUART_StrLen(string);
 492              		.loc 1 434 0
 493 0014 FFF7FEFF 		bl	USBUART_StrLen
 494              	.LVL50:
 495 0018 0500     		movs	r5, r0
 496              	.LVL51:
 429:Generated_Source\PSoC4/USBUART_cdc.c **** 
 497              		.loc 1 429 0
 498 001a 0027     		movs	r7, #0
 499              	.LVL52:
 500              	.L45:
 435:Generated_Source\PSoC4/USBUART_cdc.c **** 
 436:Generated_Source\PSoC4/USBUART_cdc.c ****     do
 437:Generated_Source\PSoC4/USBUART_cdc.c ****     {
 438:Generated_Source\PSoC4/USBUART_cdc.c ****         /* Limit length to maximum packet size of endpoint. */
 439:Generated_Source\PSoC4/USBUART_cdc.c ****         sendLength = (strLength > USBUART_EP[epNumber].bufferSize) ?
 501              		.loc 1 439 0
 502 001c 3400     		movs	r4, r6
 503 001e 7200     		lsls	r2, r6, #1
 504 0020 9219     		adds	r2, r2, r6
 505 0022 9300     		lsls	r3, r2, #2
 506 0024 1F4A     		ldr	r2, .L47+8
 507 0026 D318     		adds	r3, r2, r3
 508 0028 1B89     		ldrh	r3, [r3, #8]
 509 002a 9BB2     		uxth	r3, r3
 510 002c 9D42     		cmp	r5, r3
 511 002e 08D9     		bls	.L46
 512              		.loc 1 439 0 is_stmt 0 discriminator 1
 513 0030 7200     		lsls	r2, r6, #1
 514 0032 9219     		adds	r2, r2, r6
 515 0034 9300     		lsls	r3, r2, #2
 516 0036 1B4A     		ldr	r2, .L47+8
 517 0038 D318     		adds	r3, r2, r3
 518 003a 1B89     		ldrh	r3, [r3, #8]
 519 003c 9BB2     		uxth	r3, r3
 520 003e 9946     		mov	r9, r3
 521 0040 00E0     		b	.L41
 522              	.L46:
 523              		.loc 1 439 0
 524 0042 A946     		mov	r9, r5
 525              	.L41:
 526              	.LVL53:
 440:Generated_Source\PSoC4/USBUART_cdc.c ****                                   USBUART_EP[epNumber].bufferSize : strLength;
 441:Generated_Source\PSoC4/USBUART_cdc.c **** 
ARM GAS  C:\Users\essele\AppData\Local\Temp\cczrtAYv.s 			page 19


 442:Generated_Source\PSoC4/USBUART_cdc.c ****         /* Load IN endpoint and expose it to host. */
 443:Generated_Source\PSoC4/USBUART_cdc.c ****         USBUART_LoadInEP(epNumber, (const uint8 *)&string[bufIndex], sendLength);
 527              		.loc 1 443 0 is_stmt 1 discriminator 4
 528 0044 4346     		mov	r3, r8
 529 0046 D919     		adds	r1, r3, r7
 530 0048 4A46     		mov	r2, r9
 531 004a 3000     		movs	r0, r6
 532 004c FFF7FEFF 		bl	USBUART_LoadInEP
 533              	.LVL54:
 444:Generated_Source\PSoC4/USBUART_cdc.c ****         strLength -= sendLength;
 534              		.loc 1 444 0 discriminator 4
 535 0050 4B46     		mov	r3, r9
 536 0052 ED1A     		subs	r5, r5, r3
 537              	.LVL55:
 538 0054 ADB2     		uxth	r5, r5
 539              	.LVL56:
 445:Generated_Source\PSoC4/USBUART_cdc.c **** 
 446:Generated_Source\PSoC4/USBUART_cdc.c ****         /* If more data are present to send or full packet was sent */
 447:Generated_Source\PSoC4/USBUART_cdc.c ****         if ((strLength > 0u) || (sendLength == USBUART_EP[epNumber].bufferSize))
 540              		.loc 1 447 0 discriminator 4
 541 0056 002D     		cmp	r5, #0
 542 0058 08D1     		bne	.L42
 543              		.loc 1 447 0 is_stmt 0 discriminator 1
 544 005a 7200     		lsls	r2, r6, #1
 545 005c 9219     		adds	r2, r2, r6
 546 005e 9300     		lsls	r3, r2, #2
 547 0060 104A     		ldr	r2, .L47+8
 548 0062 D318     		adds	r3, r2, r3
 549 0064 1B89     		ldrh	r3, [r3, #8]
 550 0066 9BB2     		uxth	r3, r3
 551 0068 9945     		cmp	r9, r3
 552 006a 10D1     		bne	.L43
 553              	.L42:
 448:Generated_Source\PSoC4/USBUART_cdc.c ****         {
 449:Generated_Source\PSoC4/USBUART_cdc.c ****             bufIndex += sendLength;
 554              		.loc 1 449 0 is_stmt 1
 555 006c 4F44     		add	r7, r7, r9
 556              	.LVL57:
 557 006e BFB2     		uxth	r7, r7
 558              	.LVL58:
 559              	.L44:
 450:Generated_Source\PSoC4/USBUART_cdc.c **** 
 451:Generated_Source\PSoC4/USBUART_cdc.c ****             /* Wait until host read data from IN endpoint buffer. */
 452:Generated_Source\PSoC4/USBUART_cdc.c ****             while (USBUART_IN_BUFFER_FULL == USBUART_EP[epNumber].apiEpState)
 560              		.loc 1 452 0 discriminator 1
 561 0070 6100     		lsls	r1, r4, #1
 562 0072 0919     		adds	r1, r1, r4
 563 0074 8B00     		lsls	r3, r1, #2
 564 0076 0B4A     		ldr	r2, .L47+8
 565 0078 D318     		adds	r3, r2, r3
 566 007a 5B78     		ldrb	r3, [r3, #1]
 567 007c 002B     		cmp	r3, #0
 568 007e F7D0     		beq	.L44
 453:Generated_Source\PSoC4/USBUART_cdc.c ****             {
 454:Generated_Source\PSoC4/USBUART_cdc.c ****             }
 455:Generated_Source\PSoC4/USBUART_cdc.c **** 
 456:Generated_Source\PSoC4/USBUART_cdc.c ****             /* If last packet is exactly maximum packet size, it shall be followed
ARM GAS  C:\Users\essele\AppData\Local\Temp\cczrtAYv.s 			page 20


 457:Generated_Source\PSoC4/USBUART_cdc.c ****             * by a zero-length packet to assure the end of segment is properly
 458:Generated_Source\PSoC4/USBUART_cdc.c ****             * identified by the terminal.
 459:Generated_Source\PSoC4/USBUART_cdc.c ****             */
 460:Generated_Source\PSoC4/USBUART_cdc.c ****             if (0u == strLength)
 569              		.loc 1 460 0
 570 0080 002D     		cmp	r5, #0
 571 0082 04D1     		bne	.L43
 461:Generated_Source\PSoC4/USBUART_cdc.c ****             {
 462:Generated_Source\PSoC4/USBUART_cdc.c ****                 USBUART_LoadInEP(epNumber, NULL, 0u);
 572              		.loc 1 462 0
 573 0084 0022     		movs	r2, #0
 574 0086 0021     		movs	r1, #0
 575 0088 3000     		movs	r0, r6
 576 008a FFF7FEFF 		bl	USBUART_LoadInEP
 577              	.LVL59:
 578              	.L43:
 463:Generated_Source\PSoC4/USBUART_cdc.c ****             }
 464:Generated_Source\PSoC4/USBUART_cdc.c ****         }
 465:Generated_Source\PSoC4/USBUART_cdc.c ****     }
 466:Generated_Source\PSoC4/USBUART_cdc.c ****     while (strLength > 0u);
 579              		.loc 1 466 0
 580 008e 002D     		cmp	r5, #0
 581 0090 C4D1     		bne	.L45
 467:Generated_Source\PSoC4/USBUART_cdc.c **** }
 582              		.loc 1 467 0
 583              		@ sp needed
 584              	.LVL60:
 585              	.LVL61:
 586              	.LVL62:
 587              	.LVL63:
 588              	.LVL64:
 589 0092 0CBC     		pop	{r2, r3}
 590 0094 9046     		mov	r8, r2
 591 0096 9946     		mov	r9, r3
 592 0098 F8BD     		pop	{r3, r4, r5, r6, r7, pc}
 593              	.L48:
 594 009a C046     		.align	2
 595              	.L47:
 596 009c 00000000 		.word	.LANCHOR1
 597 00a0 00000000 		.word	USBUART_cdcDataInEp
 598 00a4 00000000 		.word	USBUART_EP
 599              		.cfi_endproc
 600              	.LFE6:
 601              		.size	USBUART_PutString, .-USBUART_PutString
 602              		.section	.text.USBUART_PutChar,"ax",%progbits
 603              		.align	2
 604              		.global	USBUART_PutChar
 605              		.code	16
 606              		.thumb_func
 607              		.type	USBUART_PutChar, %function
 608              	USBUART_PutChar:
 609              	.LFB7:
 468:Generated_Source\PSoC4/USBUART_cdc.c **** 
 469:Generated_Source\PSoC4/USBUART_cdc.c **** 
 470:Generated_Source\PSoC4/USBUART_cdc.c **** /***************************************************************************
 471:Generated_Source\PSoC4/USBUART_cdc.c **** * Function Name: USBUART_PutChar
 472:Generated_Source\PSoC4/USBUART_cdc.c **** ************************************************************************//**
ARM GAS  C:\Users\essele\AppData\Local\Temp\cczrtAYv.s 			page 21


 473:Generated_Source\PSoC4/USBUART_cdc.c **** *
 474:Generated_Source\PSoC4/USBUART_cdc.c **** *  This function writes a single character to the PC at a time. This is an
 475:Generated_Source\PSoC4/USBUART_cdc.c **** *  inefficient way to send large amounts of data.
 476:Generated_Source\PSoC4/USBUART_cdc.c **** *
 477:Generated_Source\PSoC4/USBUART_cdc.c **** *  \param txDataByte: Character to be sent to the PC.
 478:Generated_Source\PSoC4/USBUART_cdc.c **** *
 479:Generated_Source\PSoC4/USBUART_cdc.c **** *  \globalvars
 480:Generated_Source\PSoC4/USBUART_cdc.c **** *
 481:Generated_Source\PSoC4/USBUART_cdc.c **** *   USBUART_cdcDataInEp: CDC IN endpoint number used for sending
 482:Generated_Source\PSoC4/USBUART_cdc.c **** *     data.
 483:Generated_Source\PSoC4/USBUART_cdc.c **** *
 484:Generated_Source\PSoC4/USBUART_cdc.c **** *  \reentrant
 485:Generated_Source\PSoC4/USBUART_cdc.c **** *  No.
 486:Generated_Source\PSoC4/USBUART_cdc.c **** *
 487:Generated_Source\PSoC4/USBUART_cdc.c **** ***************************************************************************/
 488:Generated_Source\PSoC4/USBUART_cdc.c **** void USBUART_PutChar(char8 txDataByte) 
 489:Generated_Source\PSoC4/USBUART_cdc.c **** {
 610              		.loc 1 489 0
 611              		.cfi_startproc
 612              		@ args = 0, pretend = 0, frame = 8
 613              		@ frame_needed = 0, uses_anonymous_args = 0
 614              	.LVL65:
 615 0000 00B5     		push	{lr}
 616              		.cfi_def_cfa_offset 4
 617              		.cfi_offset 14, -4
 618 0002 83B0     		sub	sp, sp, #12
 619              		.cfi_def_cfa_offset 16
 490:Generated_Source\PSoC4/USBUART_cdc.c ****     uint8 dataByte;
 491:Generated_Source\PSoC4/USBUART_cdc.c ****     dataByte = (uint8) txDataByte;
 620              		.loc 1 491 0
 621 0004 6B46     		mov	r3, sp
 622 0006 D91D     		adds	r1, r3, #7
 623 0008 0870     		strb	r0, [r1]
 492:Generated_Source\PSoC4/USBUART_cdc.c **** 
 493:Generated_Source\PSoC4/USBUART_cdc.c ****     USBUART_LoadInEP(USBUART_cdcDataInEp[USBUART_activeCom], &dataByte, 1u);
 624              		.loc 1 493 0
 625 000a 054B     		ldr	r3, .L50
 626 000c 1B78     		ldrb	r3, [r3]
 627 000e 054A     		ldr	r2, .L50+4
 628 0010 D05C     		ldrb	r0, [r2, r3]
 629              	.LVL66:
 630 0012 C0B2     		uxtb	r0, r0
 631 0014 0122     		movs	r2, #1
 632 0016 FFF7FEFF 		bl	USBUART_LoadInEP
 633              	.LVL67:
 494:Generated_Source\PSoC4/USBUART_cdc.c **** }
 634              		.loc 1 494 0
 635 001a 03B0     		add	sp, sp, #12
 636              		@ sp needed
 637 001c 00BD     		pop	{pc}
 638              	.L51:
 639 001e C046     		.align	2
 640              	.L50:
 641 0020 00000000 		.word	.LANCHOR1
 642 0024 00000000 		.word	USBUART_cdcDataInEp
 643              		.cfi_endproc
 644              	.LFE7:
ARM GAS  C:\Users\essele\AppData\Local\Temp\cczrtAYv.s 			page 22


 645              		.size	USBUART_PutChar, .-USBUART_PutChar
 646              		.section	.text.USBUART_PutCRLF,"ax",%progbits
 647              		.align	2
 648              		.global	USBUART_PutCRLF
 649              		.code	16
 650              		.thumb_func
 651              		.type	USBUART_PutCRLF, %function
 652              	USBUART_PutCRLF:
 653              	.LFB8:
 495:Generated_Source\PSoC4/USBUART_cdc.c **** 
 496:Generated_Source\PSoC4/USBUART_cdc.c **** 
 497:Generated_Source\PSoC4/USBUART_cdc.c **** /*******************************************************************************
 498:Generated_Source\PSoC4/USBUART_cdc.c **** * Function Name: USBUART_PutCRLF
 499:Generated_Source\PSoC4/USBUART_cdc.c **** ****************************************************************************//**
 500:Generated_Source\PSoC4/USBUART_cdc.c **** *
 501:Generated_Source\PSoC4/USBUART_cdc.c **** *  This function sends a carriage return (0x0D) and line feed (0x0A) to the
 502:Generated_Source\PSoC4/USBUART_cdc.c **** *  PC. This APIis provided to mimic API provided by our other UART components
 503:Generated_Source\PSoC4/USBUART_cdc.c **** *
 504:Generated_Source\PSoC4/USBUART_cdc.c **** * \globalvars
 505:Generated_Source\PSoC4/USBUART_cdc.c **** *
 506:Generated_Source\PSoC4/USBUART_cdc.c **** *   USBUART_cdcDataInEp: CDC IN endpoint number used for sending
 507:Generated_Source\PSoC4/USBUART_cdc.c **** *     data.
 508:Generated_Source\PSoC4/USBUART_cdc.c **** *
 509:Generated_Source\PSoC4/USBUART_cdc.c **** * \reentrant
 510:Generated_Source\PSoC4/USBUART_cdc.c **** *  No.
 511:Generated_Source\PSoC4/USBUART_cdc.c **** *
 512:Generated_Source\PSoC4/USBUART_cdc.c **** *******************************************************************************/
 513:Generated_Source\PSoC4/USBUART_cdc.c **** void USBUART_PutCRLF(void) 
 514:Generated_Source\PSoC4/USBUART_cdc.c **** {
 654              		.loc 1 514 0
 655              		.cfi_startproc
 656              		@ args = 0, pretend = 0, frame = 8
 657              		@ frame_needed = 0, uses_anonymous_args = 0
 658 0000 00B5     		push	{lr}
 659              		.cfi_def_cfa_offset 4
 660              		.cfi_offset 14, -4
 661 0002 83B0     		sub	sp, sp, #12
 662              		.cfi_def_cfa_offset 16
 515:Generated_Source\PSoC4/USBUART_cdc.c ****     const uint8 CYCODE txData[] = {0x0Du, 0x0Au};
 663              		.loc 1 515 0
 664 0004 0222     		movs	r2, #2
 665 0006 0749     		ldr	r1, .L53
 666 0008 01A8     		add	r0, sp, #4
 667 000a FFF7FEFF 		bl	memcpy
 668              	.LVL68:
 516:Generated_Source\PSoC4/USBUART_cdc.c **** 
 517:Generated_Source\PSoC4/USBUART_cdc.c ****     USBUART_LoadInEP(USBUART_cdcDataInEp[USBUART_activeCom], (const uint8 *)txData, 2u);
 669              		.loc 1 517 0
 670 000e 064B     		ldr	r3, .L53+4
 671 0010 1B78     		ldrb	r3, [r3]
 672 0012 064A     		ldr	r2, .L53+8
 673 0014 D05C     		ldrb	r0, [r2, r3]
 674 0016 C0B2     		uxtb	r0, r0
 675 0018 0222     		movs	r2, #2
 676 001a 01A9     		add	r1, sp, #4
 677 001c FFF7FEFF 		bl	USBUART_LoadInEP
 678              	.LVL69:
ARM GAS  C:\Users\essele\AppData\Local\Temp\cczrtAYv.s 			page 23


 518:Generated_Source\PSoC4/USBUART_cdc.c **** }
 679              		.loc 1 518 0
 680 0020 03B0     		add	sp, sp, #12
 681              		@ sp needed
 682 0022 00BD     		pop	{pc}
 683              	.L54:
 684              		.align	2
 685              	.L53:
 686 0024 00000000 		.word	.LANCHOR2
 687 0028 00000000 		.word	.LANCHOR1
 688 002c 00000000 		.word	USBUART_cdcDataInEp
 689              		.cfi_endproc
 690              	.LFE8:
 691              		.size	USBUART_PutCRLF, .-USBUART_PutCRLF
 692              		.section	.text.USBUART_GetCount,"ax",%progbits
 693              		.align	2
 694              		.global	USBUART_GetCount
 695              		.code	16
 696              		.thumb_func
 697              		.type	USBUART_GetCount, %function
 698              	USBUART_GetCount:
 699              	.LFB9:
 519:Generated_Source\PSoC4/USBUART_cdc.c **** 
 520:Generated_Source\PSoC4/USBUART_cdc.c **** 
 521:Generated_Source\PSoC4/USBUART_cdc.c **** /*******************************************************************************
 522:Generated_Source\PSoC4/USBUART_cdc.c **** * Function Name: USBUART_GetCount
 523:Generated_Source\PSoC4/USBUART_cdc.c **** ****************************************************************************//**
 524:Generated_Source\PSoC4/USBUART_cdc.c **** *
 525:Generated_Source\PSoC4/USBUART_cdc.c **** *  This function returns the number of bytes that were received from the PC.
 526:Generated_Source\PSoC4/USBUART_cdc.c **** *  The returned length value should be passed to USBUART_GetData() as
 527:Generated_Source\PSoC4/USBUART_cdc.c **** *  a parameter to read all received data. If all of the received data is not
 528:Generated_Source\PSoC4/USBUART_cdc.c **** *  read at one time by the USBUART_GetData() API, the unread data will
 529:Generated_Source\PSoC4/USBUART_cdc.c **** *  be lost.
 530:Generated_Source\PSoC4/USBUART_cdc.c **** *
 531:Generated_Source\PSoC4/USBUART_cdc.c **** * \return
 532:Generated_Source\PSoC4/USBUART_cdc.c **** *  Returns the number of received bytes. The maximum amount of received data at
 533:Generated_Source\PSoC4/USBUART_cdc.c **** *  a time is limited by the maximum packet size for the endpoint.
 534:Generated_Source\PSoC4/USBUART_cdc.c **** *
 535:Generated_Source\PSoC4/USBUART_cdc.c **** * \globalvars
 536:Generated_Source\PSoC4/USBUART_cdc.c **** *   USBUART_cdcDataOutEp: CDC OUT endpoint number used.
 537:Generated_Source\PSoC4/USBUART_cdc.c **** *
 538:Generated_Source\PSoC4/USBUART_cdc.c **** *******************************************************************************/
 539:Generated_Source\PSoC4/USBUART_cdc.c **** uint16 USBUART_GetCount(void) 
 540:Generated_Source\PSoC4/USBUART_cdc.c **** {
 700              		.loc 1 540 0
 701              		.cfi_startproc
 702              		@ args = 0, pretend = 0, frame = 0
 703              		@ frame_needed = 0, uses_anonymous_args = 0
 704 0000 10B5     		push	{r4, lr}
 705              		.cfi_def_cfa_offset 8
 706              		.cfi_offset 4, -8
 707              		.cfi_offset 14, -4
 541:Generated_Source\PSoC4/USBUART_cdc.c ****     uint16 bytesCount;
 542:Generated_Source\PSoC4/USBUART_cdc.c **** 
 543:Generated_Source\PSoC4/USBUART_cdc.c ****     uint8  epNumber = USBUART_cdcDataOutEp[USBUART_activeCom];
 708              		.loc 1 543 0
 709 0002 094B     		ldr	r3, .L58
ARM GAS  C:\Users\essele\AppData\Local\Temp\cczrtAYv.s 			page 24


 710 0004 1B78     		ldrb	r3, [r3]
 711 0006 094A     		ldr	r2, .L58+4
 712 0008 D05C     		ldrb	r0, [r2, r3]
 713 000a C0B2     		uxtb	r0, r0
 714              	.LVL70:
 544:Generated_Source\PSoC4/USBUART_cdc.c **** 
 545:Generated_Source\PSoC4/USBUART_cdc.c ****     if (USBUART_OUT_BUFFER_FULL == USBUART_EP[epNumber].apiEpState)
 715              		.loc 1 545 0
 716 000c 4200     		lsls	r2, r0, #1
 717 000e 1218     		adds	r2, r2, r0
 718 0010 9300     		lsls	r3, r2, #2
 719 0012 074A     		ldr	r2, .L58+8
 720 0014 D318     		adds	r3, r2, r3
 721 0016 5B78     		ldrb	r3, [r3, #1]
 722 0018 012B     		cmp	r3, #1
 723 001a 02D1     		bne	.L57
 546:Generated_Source\PSoC4/USBUART_cdc.c ****     {
 547:Generated_Source\PSoC4/USBUART_cdc.c ****         bytesCount = USBUART_GetEPCount(epNumber);
 724              		.loc 1 547 0
 725 001c FFF7FEFF 		bl	USBUART_GetEPCount
 726              	.LVL71:
 727 0020 00E0     		b	.L56
 728              	.LVL72:
 729              	.L57:
 548:Generated_Source\PSoC4/USBUART_cdc.c ****     }
 549:Generated_Source\PSoC4/USBUART_cdc.c ****     else
 550:Generated_Source\PSoC4/USBUART_cdc.c ****     {
 551:Generated_Source\PSoC4/USBUART_cdc.c ****         bytesCount = 0u;
 730              		.loc 1 551 0
 731 0022 0020     		movs	r0, #0
 732              	.LVL73:
 733              	.L56:
 552:Generated_Source\PSoC4/USBUART_cdc.c ****     }
 553:Generated_Source\PSoC4/USBUART_cdc.c **** 
 554:Generated_Source\PSoC4/USBUART_cdc.c ****     return (bytesCount);
 555:Generated_Source\PSoC4/USBUART_cdc.c **** }
 734              		.loc 1 555 0
 735              		@ sp needed
 736 0024 10BD     		pop	{r4, pc}
 737              	.L59:
 738 0026 C046     		.align	2
 739              	.L58:
 740 0028 00000000 		.word	.LANCHOR1
 741 002c 00000000 		.word	USBUART_cdcDataOutEp
 742 0030 00000000 		.word	USBUART_EP
 743              		.cfi_endproc
 744              	.LFE9:
 745              		.size	USBUART_GetCount, .-USBUART_GetCount
 746              		.section	.text.USBUART_DataIsReady,"ax",%progbits
 747              		.align	2
 748              		.global	USBUART_DataIsReady
 749              		.code	16
 750              		.thumb_func
 751              		.type	USBUART_DataIsReady, %function
 752              	USBUART_DataIsReady:
 753              	.LFB10:
 556:Generated_Source\PSoC4/USBUART_cdc.c **** 
ARM GAS  C:\Users\essele\AppData\Local\Temp\cczrtAYv.s 			page 25


 557:Generated_Source\PSoC4/USBUART_cdc.c **** 
 558:Generated_Source\PSoC4/USBUART_cdc.c **** /*******************************************************************************
 559:Generated_Source\PSoC4/USBUART_cdc.c **** * Function Name: USBUART_DataIsReady
 560:Generated_Source\PSoC4/USBUART_cdc.c **** ****************************************************************************//**
 561:Generated_Source\PSoC4/USBUART_cdc.c **** *
 562:Generated_Source\PSoC4/USBUART_cdc.c **** *  This function returns a non-zero value if the component received data or
 563:Generated_Source\PSoC4/USBUART_cdc.c **** *  received zero-length packet. The USBUART_GetAll() or
 564:Generated_Source\PSoC4/USBUART_cdc.c **** *  USBUART_GetData() API should be called to read data from the buffer
 565:Generated_Source\PSoC4/USBUART_cdc.c **** *  and reinitialize the OUT endpoint even when a zero-length packet is
 566:Generated_Source\PSoC4/USBUART_cdc.c **** *  received. These APIs will return zero value when zero-length packet is
 567:Generated_Source\PSoC4/USBUART_cdc.c **** *  received.
 568:Generated_Source\PSoC4/USBUART_cdc.c **** *
 569:Generated_Source\PSoC4/USBUART_cdc.c **** * \return
 570:Generated_Source\PSoC4/USBUART_cdc.c **** *  If the OUT packet is received, this function returns a non-zero value.
 571:Generated_Source\PSoC4/USBUART_cdc.c **** *  Otherwise, it returns zero.
 572:Generated_Source\PSoC4/USBUART_cdc.c **** *
 573:Generated_Source\PSoC4/USBUART_cdc.c **** * \globalvars
 574:Generated_Source\PSoC4/USBUART_cdc.c **** *   USBUART_cdcDataOutEp: CDC OUT endpoint number used.
 575:Generated_Source\PSoC4/USBUART_cdc.c **** *
 576:Generated_Source\PSoC4/USBUART_cdc.c **** *******************************************************************************/
 577:Generated_Source\PSoC4/USBUART_cdc.c **** uint8 USBUART_DataIsReady(void) 
 578:Generated_Source\PSoC4/USBUART_cdc.c **** {
 754              		.loc 1 578 0
 755              		.cfi_startproc
 756              		@ args = 0, pretend = 0, frame = 0
 757              		@ frame_needed = 0, uses_anonymous_args = 0
 758 0000 10B5     		push	{r4, lr}
 759              		.cfi_def_cfa_offset 8
 760              		.cfi_offset 4, -8
 761              		.cfi_offset 14, -4
 579:Generated_Source\PSoC4/USBUART_cdc.c ****     return (USBUART_GetEPState(USBUART_cdcDataOutEp[USBUART_activeCom]));
 762              		.loc 1 579 0
 763 0002 044B     		ldr	r3, .L61
 764 0004 1B78     		ldrb	r3, [r3]
 765 0006 044A     		ldr	r2, .L61+4
 766 0008 D05C     		ldrb	r0, [r2, r3]
 767 000a C0B2     		uxtb	r0, r0
 768 000c FFF7FEFF 		bl	USBUART_GetEPState
 769              	.LVL74:
 580:Generated_Source\PSoC4/USBUART_cdc.c **** }
 770              		.loc 1 580 0
 771              		@ sp needed
 772 0010 10BD     		pop	{r4, pc}
 773              	.L62:
 774 0012 C046     		.align	2
 775              	.L61:
 776 0014 00000000 		.word	.LANCHOR1
 777 0018 00000000 		.word	USBUART_cdcDataOutEp
 778              		.cfi_endproc
 779              	.LFE10:
 780              		.size	USBUART_DataIsReady, .-USBUART_DataIsReady
 781              		.section	.text.USBUART_CDCIsReady,"ax",%progbits
 782              		.align	2
 783              		.global	USBUART_CDCIsReady
 784              		.code	16
 785              		.thumb_func
 786              		.type	USBUART_CDCIsReady, %function
ARM GAS  C:\Users\essele\AppData\Local\Temp\cczrtAYv.s 			page 26


 787              	USBUART_CDCIsReady:
 788              	.LFB11:
 581:Generated_Source\PSoC4/USBUART_cdc.c **** 
 582:Generated_Source\PSoC4/USBUART_cdc.c **** 
 583:Generated_Source\PSoC4/USBUART_cdc.c **** /*******************************************************************************
 584:Generated_Source\PSoC4/USBUART_cdc.c **** * Function Name: USBUART_CDCIsReady
 585:Generated_Source\PSoC4/USBUART_cdc.c **** ****************************************************************************//**
 586:Generated_Source\PSoC4/USBUART_cdc.c **** *
 587:Generated_Source\PSoC4/USBUART_cdc.c **** *  This function returns a non-zero value if the component is ready to send more
 588:Generated_Source\PSoC4/USBUART_cdc.c **** *  data to the PC; otherwise, it returns zero. The function should be called
 589:Generated_Source\PSoC4/USBUART_cdc.c **** *  before sending new data when using any of the following APIs:
 590:Generated_Source\PSoC4/USBUART_cdc.c **** *  USBUART_PutData(),USBUART_PutString(),
 591:Generated_Source\PSoC4/USBUART_cdc.c **** *  USBUART_PutChar or USBUART_PutCRLF(),
 592:Generated_Source\PSoC4/USBUART_cdc.c **** *  to be sure that the previous data has finished sending.
 593:Generated_Source\PSoC4/USBUART_cdc.c **** *
 594:Generated_Source\PSoC4/USBUART_cdc.c **** * \return
 595:Generated_Source\PSoC4/USBUART_cdc.c **** *  If the buffer can accept new data, this function returns a non-zero value.
 596:Generated_Source\PSoC4/USBUART_cdc.c **** *  Otherwise, it returns zero.
 597:Generated_Source\PSoC4/USBUART_cdc.c **** *
 598:Generated_Source\PSoC4/USBUART_cdc.c **** * \globalvars
 599:Generated_Source\PSoC4/USBUART_cdc.c **** *   USBUART_cdcDataInEp: CDC IN endpoint number used.
 600:Generated_Source\PSoC4/USBUART_cdc.c **** *
 601:Generated_Source\PSoC4/USBUART_cdc.c **** *******************************************************************************/
 602:Generated_Source\PSoC4/USBUART_cdc.c **** uint8 USBUART_CDCIsReady(void) 
 603:Generated_Source\PSoC4/USBUART_cdc.c **** {
 789              		.loc 1 603 0
 790              		.cfi_startproc
 791              		@ args = 0, pretend = 0, frame = 0
 792              		@ frame_needed = 0, uses_anonymous_args = 0
 793 0000 10B5     		push	{r4, lr}
 794              		.cfi_def_cfa_offset 8
 795              		.cfi_offset 4, -8
 796              		.cfi_offset 14, -4
 604:Generated_Source\PSoC4/USBUART_cdc.c ****     return (USBUART_GetEPState(USBUART_cdcDataInEp[USBUART_activeCom]));
 797              		.loc 1 604 0
 798 0002 044B     		ldr	r3, .L64
 799 0004 1B78     		ldrb	r3, [r3]
 800 0006 044A     		ldr	r2, .L64+4
 801 0008 D05C     		ldrb	r0, [r2, r3]
 802 000a C0B2     		uxtb	r0, r0
 803 000c FFF7FEFF 		bl	USBUART_GetEPState
 804              	.LVL75:
 605:Generated_Source\PSoC4/USBUART_cdc.c **** }
 805              		.loc 1 605 0
 806              		@ sp needed
 807 0010 10BD     		pop	{r4, pc}
 808              	.L65:
 809 0012 C046     		.align	2
 810              	.L64:
 811 0014 00000000 		.word	.LANCHOR1
 812 0018 00000000 		.word	USBUART_cdcDataInEp
 813              		.cfi_endproc
 814              	.LFE11:
 815              		.size	USBUART_CDCIsReady, .-USBUART_CDCIsReady
 816              		.section	.text.USBUART_GetData,"ax",%progbits
 817              		.align	2
 818              		.global	USBUART_GetData
ARM GAS  C:\Users\essele\AppData\Local\Temp\cczrtAYv.s 			page 27


 819              		.code	16
 820              		.thumb_func
 821              		.type	USBUART_GetData, %function
 822              	USBUART_GetData:
 823              	.LFB12:
 606:Generated_Source\PSoC4/USBUART_cdc.c **** 
 607:Generated_Source\PSoC4/USBUART_cdc.c **** 
 608:Generated_Source\PSoC4/USBUART_cdc.c **** /***************************************************************************
 609:Generated_Source\PSoC4/USBUART_cdc.c **** * Function Name: USBUART_GetData
 610:Generated_Source\PSoC4/USBUART_cdc.c **** ************************************************************************//**
 611:Generated_Source\PSoC4/USBUART_cdc.c **** *
 612:Generated_Source\PSoC4/USBUART_cdc.c **** *  This function gets a specified number of bytes from the input buffer and
 613:Generated_Source\PSoC4/USBUART_cdc.c **** *  places them in a data array specified by the passed pointer.
 614:Generated_Source\PSoC4/USBUART_cdc.c **** *  The USBUART_DataIsReady() API should be called first, to be sure
 615:Generated_Source\PSoC4/USBUART_cdc.c **** *  that data is received from the host. If all received data will not be read at
 616:Generated_Source\PSoC4/USBUART_cdc.c **** *  once, the unread data will be lost. The USBUART_GetData() API should
 617:Generated_Source\PSoC4/USBUART_cdc.c **** *  be called to get the number of bytes that were received.
 618:Generated_Source\PSoC4/USBUART_cdc.c **** *
 619:Generated_Source\PSoC4/USBUART_cdc.c **** *  \param pData: Pointer to the data array where data will be placed.
 620:Generated_Source\PSoC4/USBUART_cdc.c **** *  \param Length: Number of bytes to read into the data array from the RX buffer.
 621:Generated_Source\PSoC4/USBUART_cdc.c **** *          Maximum length is limited by the the number of received bytes
 622:Generated_Source\PSoC4/USBUART_cdc.c **** *          or 64 bytes.
 623:Generated_Source\PSoC4/USBUART_cdc.c **** *
 624:Generated_Source\PSoC4/USBUART_cdc.c **** * \return
 625:Generated_Source\PSoC4/USBUART_cdc.c **** *         Number of bytes which function moves from endpoint RAM into the
 626:Generated_Source\PSoC4/USBUART_cdc.c **** *         data array. The function moves fewer than the requested number
 627:Generated_Source\PSoC4/USBUART_cdc.c **** *         of bytes if the host sends fewer bytes than requested or sends
 628:Generated_Source\PSoC4/USBUART_cdc.c **** *         zero-length packet.
 629:Generated_Source\PSoC4/USBUART_cdc.c **** *
 630:Generated_Source\PSoC4/USBUART_cdc.c **** * \globalvars
 631:Generated_Source\PSoC4/USBUART_cdc.c **** *   USBUART_cdcDataOutEp: CDC OUT endpoint number used.
 632:Generated_Source\PSoC4/USBUART_cdc.c **** *
 633:Generated_Source\PSoC4/USBUART_cdc.c **** * \reentrant
 634:Generated_Source\PSoC4/USBUART_cdc.c **** *  No.
 635:Generated_Source\PSoC4/USBUART_cdc.c **** *
 636:Generated_Source\PSoC4/USBUART_cdc.c **** ***************************************************************************/
 637:Generated_Source\PSoC4/USBUART_cdc.c **** uint16 USBUART_GetData(uint8* pData, uint16 length) 
 638:Generated_Source\PSoC4/USBUART_cdc.c **** {
 824              		.loc 1 638 0
 825              		.cfi_startproc
 826              		@ args = 0, pretend = 0, frame = 0
 827              		@ frame_needed = 0, uses_anonymous_args = 0
 828              	.LVL76:
 829 0000 10B5     		push	{r4, lr}
 830              		.cfi_def_cfa_offset 8
 831              		.cfi_offset 4, -8
 832              		.cfi_offset 14, -4
 833 0002 0400     		movs	r4, r0
 834 0004 0A00     		movs	r2, r1
 639:Generated_Source\PSoC4/USBUART_cdc.c ****     uint8 epNumber = USBUART_cdcDataOutEp[USBUART_activeCom];
 835              		.loc 1 639 0
 836 0006 044B     		ldr	r3, .L67
 837 0008 1B78     		ldrb	r3, [r3]
 838 000a 0449     		ldr	r1, .L67+4
 839              	.LVL77:
 840 000c CB5C     		ldrb	r3, [r1, r3]
 841 000e D8B2     		uxtb	r0, r3
ARM GAS  C:\Users\essele\AppData\Local\Temp\cczrtAYv.s 			page 28


 842              	.LVL78:
 640:Generated_Source\PSoC4/USBUART_cdc.c **** 
 641:Generated_Source\PSoC4/USBUART_cdc.c ****     /* Read data from OUT endpoint buffer. */
 642:Generated_Source\PSoC4/USBUART_cdc.c ****     length = USBUART_ReadOutEP(epNumber, pData, length);
 843              		.loc 1 642 0
 844 0010 2100     		movs	r1, r4
 845 0012 FFF7FEFF 		bl	USBUART_ReadOutEP
 846              	.LVL79:
 643:Generated_Source\PSoC4/USBUART_cdc.c **** 
 644:Generated_Source\PSoC4/USBUART_cdc.c **** #if (USBUART_EP_MANAGEMENT_DMA_MANUAL)
 645:Generated_Source\PSoC4/USBUART_cdc.c ****     /* Wait until DMA complete transferring data from OUT endpoint buffer. */
 646:Generated_Source\PSoC4/USBUART_cdc.c ****     while (USBUART_OUT_BUFFER_FULL == USBUART_GetEPState(epNumber))
 647:Generated_Source\PSoC4/USBUART_cdc.c ****     {
 648:Generated_Source\PSoC4/USBUART_cdc.c ****     }
 649:Generated_Source\PSoC4/USBUART_cdc.c **** 
 650:Generated_Source\PSoC4/USBUART_cdc.c ****     /* Enable OUT endpoint to communicate with host. */
 651:Generated_Source\PSoC4/USBUART_cdc.c ****     USBUART_EnableOutEP(epNumber);
 652:Generated_Source\PSoC4/USBUART_cdc.c **** #endif /* (USBUART_EP_MANAGEMENT_DMA_MANUAL) */
 653:Generated_Source\PSoC4/USBUART_cdc.c **** 
 654:Generated_Source\PSoC4/USBUART_cdc.c ****     return (length);
 655:Generated_Source\PSoC4/USBUART_cdc.c **** }
 847              		.loc 1 655 0
 848              		@ sp needed
 849              	.LVL80:
 850 0016 10BD     		pop	{r4, pc}
 851              	.L68:
 852              		.align	2
 853              	.L67:
 854 0018 00000000 		.word	.LANCHOR1
 855 001c 00000000 		.word	USBUART_cdcDataOutEp
 856              		.cfi_endproc
 857              	.LFE12:
 858              		.size	USBUART_GetData, .-USBUART_GetData
 859              		.section	.text.USBUART_GetAll,"ax",%progbits
 860              		.align	2
 861              		.global	USBUART_GetAll
 862              		.code	16
 863              		.thumb_func
 864              		.type	USBUART_GetAll, %function
 865              	USBUART_GetAll:
 866              	.LFB13:
 656:Generated_Source\PSoC4/USBUART_cdc.c **** 
 657:Generated_Source\PSoC4/USBUART_cdc.c **** 
 658:Generated_Source\PSoC4/USBUART_cdc.c **** /*******************************************************************************
 659:Generated_Source\PSoC4/USBUART_cdc.c **** * Function Name: USBUART_GetAll
 660:Generated_Source\PSoC4/USBUART_cdc.c **** ****************************************************************************//**
 661:Generated_Source\PSoC4/USBUART_cdc.c **** *
 662:Generated_Source\PSoC4/USBUART_cdc.c **** *  This function gets all bytes of received data from the input buffer and
 663:Generated_Source\PSoC4/USBUART_cdc.c **** *  places them into a specified data array. The
 664:Generated_Source\PSoC4/USBUART_cdc.c **** *  USBUART_DataIsReady() API should be called first, to be sure
 665:Generated_Source\PSoC4/USBUART_cdc.c **** *  that data is received from the host.
 666:Generated_Source\PSoC4/USBUART_cdc.c **** *
 667:Generated_Source\PSoC4/USBUART_cdc.c **** *  \param pData: Pointer to the data array where data will be placed.
 668:Generated_Source\PSoC4/USBUART_cdc.c **** *
 669:Generated_Source\PSoC4/USBUART_cdc.c **** * \return
 670:Generated_Source\PSoC4/USBUART_cdc.c **** *  Number of bytes received. The maximum amount of the received at a time
 671:Generated_Source\PSoC4/USBUART_cdc.c **** *  data is 64 bytes.
ARM GAS  C:\Users\essele\AppData\Local\Temp\cczrtAYv.s 			page 29


 672:Generated_Source\PSoC4/USBUART_cdc.c **** *
 673:Generated_Source\PSoC4/USBUART_cdc.c **** * \globalvars
 674:Generated_Source\PSoC4/USBUART_cdc.c **** *   - \ref USBUART_cdcDataOutEp: CDC OUT endpoint number used.
 675:Generated_Source\PSoC4/USBUART_cdc.c **** *   - \ref USBUART_EP[].bufferSize: EP max packet size is used as a
 676:Generated_Source\PSoC4/USBUART_cdc.c **** *     length to read all data from the EP buffer.
 677:Generated_Source\PSoC4/USBUART_cdc.c **** *
 678:Generated_Source\PSoC4/USBUART_cdc.c **** * \reentrant
 679:Generated_Source\PSoC4/USBUART_cdc.c **** *  No.
 680:Generated_Source\PSoC4/USBUART_cdc.c **** *
 681:Generated_Source\PSoC4/USBUART_cdc.c **** *******************************************************************************/
 682:Generated_Source\PSoC4/USBUART_cdc.c **** uint16 USBUART_GetAll(uint8* pData) 
 683:Generated_Source\PSoC4/USBUART_cdc.c **** {
 867              		.loc 1 683 0
 868              		.cfi_startproc
 869              		@ args = 0, pretend = 0, frame = 0
 870              		@ frame_needed = 0, uses_anonymous_args = 0
 871              	.LVL81:
 872 0000 10B5     		push	{r4, lr}
 873              		.cfi_def_cfa_offset 8
 874              		.cfi_offset 4, -8
 875              		.cfi_offset 14, -4
 876 0002 0100     		movs	r1, r0
 684:Generated_Source\PSoC4/USBUART_cdc.c ****     uint8 epNumber = USBUART_cdcDataOutEp[USBUART_activeCom];
 877              		.loc 1 684 0
 878 0004 074B     		ldr	r3, .L70
 879 0006 1B78     		ldrb	r3, [r3]
 880 0008 074A     		ldr	r2, .L70+4
 881 000a D35C     		ldrb	r3, [r2, r3]
 882 000c D8B2     		uxtb	r0, r3
 883              	.LVL82:
 685:Generated_Source\PSoC4/USBUART_cdc.c ****     uint16 dataLength;
 686:Generated_Source\PSoC4/USBUART_cdc.c **** 
 687:Generated_Source\PSoC4/USBUART_cdc.c ****     /* Read data from OUT endpoint buffer. */
 688:Generated_Source\PSoC4/USBUART_cdc.c ****     dataLength = USBUART_ReadOutEP(epNumber, pData, USBUART_EP[epNumber].bufferSize);
 884              		.loc 1 688 0
 885 000e 4200     		lsls	r2, r0, #1
 886 0010 1218     		adds	r2, r2, r0
 887 0012 9300     		lsls	r3, r2, #2
 888 0014 054A     		ldr	r2, .L70+8
 889 0016 D318     		adds	r3, r2, r3
 890 0018 1A89     		ldrh	r2, [r3, #8]
 891 001a 92B2     		uxth	r2, r2
 892 001c FFF7FEFF 		bl	USBUART_ReadOutEP
 893              	.LVL83:
 689:Generated_Source\PSoC4/USBUART_cdc.c **** 
 690:Generated_Source\PSoC4/USBUART_cdc.c **** #if (USBUART_EP_MANAGEMENT_DMA_MANUAL)
 691:Generated_Source\PSoC4/USBUART_cdc.c ****     /* Wait until DMA complete transferring data from OUT endpoint buffer. */
 692:Generated_Source\PSoC4/USBUART_cdc.c ****     while (USBUART_OUT_BUFFER_FULL == USBUART_GetEPState(epNumber))
 693:Generated_Source\PSoC4/USBUART_cdc.c ****     {
 694:Generated_Source\PSoC4/USBUART_cdc.c ****     }
 695:Generated_Source\PSoC4/USBUART_cdc.c **** 
 696:Generated_Source\PSoC4/USBUART_cdc.c ****     /* Enable OUT endpoint to communicate with host. */
 697:Generated_Source\PSoC4/USBUART_cdc.c ****     USBUART_EnableOutEP(epNumber);
 698:Generated_Source\PSoC4/USBUART_cdc.c **** #endif /* (USBUART_EP_MANAGEMENT_DMA_MANUAL) */
 699:Generated_Source\PSoC4/USBUART_cdc.c **** 
 700:Generated_Source\PSoC4/USBUART_cdc.c ****     return (dataLength);
 701:Generated_Source\PSoC4/USBUART_cdc.c **** }
ARM GAS  C:\Users\essele\AppData\Local\Temp\cczrtAYv.s 			page 30


 894              		.loc 1 701 0
 895              		@ sp needed
 896 0020 10BD     		pop	{r4, pc}
 897              	.L71:
 898 0022 C046     		.align	2
 899              	.L70:
 900 0024 00000000 		.word	.LANCHOR1
 901 0028 00000000 		.word	USBUART_cdcDataOutEp
 902 002c 00000000 		.word	USBUART_EP
 903              		.cfi_endproc
 904              	.LFE13:
 905              		.size	USBUART_GetAll, .-USBUART_GetAll
 906              		.section	.text.USBUART_GetChar,"ax",%progbits
 907              		.align	2
 908              		.global	USBUART_GetChar
 909              		.code	16
 910              		.thumb_func
 911              		.type	USBUART_GetChar, %function
 912              	USBUART_GetChar:
 913              	.LFB14:
 702:Generated_Source\PSoC4/USBUART_cdc.c **** 
 703:Generated_Source\PSoC4/USBUART_cdc.c **** 
 704:Generated_Source\PSoC4/USBUART_cdc.c **** /***************************************************************************
 705:Generated_Source\PSoC4/USBUART_cdc.c **** * Function Name: USBUART_GetChar
 706:Generated_Source\PSoC4/USBUART_cdc.c **** ************************************************************************//**
 707:Generated_Source\PSoC4/USBUART_cdc.c **** *
 708:Generated_Source\PSoC4/USBUART_cdc.c **** *  This function reads one byte of received data from the buffer. If more than
 709:Generated_Source\PSoC4/USBUART_cdc.c **** *  one byte has been received from the host, the rest of the data will be lost.
 710:Generated_Source\PSoC4/USBUART_cdc.c **** *
 711:Generated_Source\PSoC4/USBUART_cdc.c **** * \return
 712:Generated_Source\PSoC4/USBUART_cdc.c **** *  Received one character.
 713:Generated_Source\PSoC4/USBUART_cdc.c **** *
 714:Generated_Source\PSoC4/USBUART_cdc.c **** * \globalvars
 715:Generated_Source\PSoC4/USBUART_cdc.c **** *   USBUART_cdcDataOutEp: CDC OUT endpoint number used.
 716:Generated_Source\PSoC4/USBUART_cdc.c **** *
 717:Generated_Source\PSoC4/USBUART_cdc.c **** * \reentrant
 718:Generated_Source\PSoC4/USBUART_cdc.c **** *  No.
 719:Generated_Source\PSoC4/USBUART_cdc.c **** *
 720:Generated_Source\PSoC4/USBUART_cdc.c **** ***************************************************************************/
 721:Generated_Source\PSoC4/USBUART_cdc.c **** uint8 USBUART_GetChar(void) 
 722:Generated_Source\PSoC4/USBUART_cdc.c **** {
 914              		.loc 1 722 0
 915              		.cfi_startproc
 916              		@ args = 0, pretend = 0, frame = 8
 917              		@ frame_needed = 0, uses_anonymous_args = 0
 918 0000 10B5     		push	{r4, lr}
 919              		.cfi_def_cfa_offset 8
 920              		.cfi_offset 4, -8
 921              		.cfi_offset 14, -4
 922 0002 82B0     		sub	sp, sp, #8
 923              		.cfi_def_cfa_offset 16
 723:Generated_Source\PSoC4/USBUART_cdc.c ****      uint8 rxData;
 724:Generated_Source\PSoC4/USBUART_cdc.c ****      uint8 epNumber = USBUART_cdcDataOutEp[USBUART_activeCom];
 924              		.loc 1 724 0
 925 0004 064B     		ldr	r3, .L73
 926 0006 1B78     		ldrb	r3, [r3]
 927 0008 064A     		ldr	r2, .L73+4
ARM GAS  C:\Users\essele\AppData\Local\Temp\cczrtAYv.s 			page 31


 928 000a D05C     		ldrb	r0, [r2, r3]
 929 000c C0B2     		uxtb	r0, r0
 930              	.LVL84:
 725:Generated_Source\PSoC4/USBUART_cdc.c **** 
 726:Generated_Source\PSoC4/USBUART_cdc.c ****     (void) USBUART_ReadOutEP(epNumber, &rxData, 1u);
 931              		.loc 1 726 0
 932 000e 6B46     		mov	r3, sp
 933 0010 DC1D     		adds	r4, r3, #7
 934 0012 0122     		movs	r2, #1
 935 0014 2100     		movs	r1, r4
 936 0016 FFF7FEFF 		bl	USBUART_ReadOutEP
 937              	.LVL85:
 727:Generated_Source\PSoC4/USBUART_cdc.c **** 
 728:Generated_Source\PSoC4/USBUART_cdc.c **** #if (USBUART_EP_MANAGEMENT_DMA_MANUAL)
 729:Generated_Source\PSoC4/USBUART_cdc.c ****     /* Wait until DMA complete transferring data from OUT endpoint buffer. */
 730:Generated_Source\PSoC4/USBUART_cdc.c ****     while (USBUART_OUT_BUFFER_FULL == USBUART_GetEPState(epNumber))
 731:Generated_Source\PSoC4/USBUART_cdc.c ****     {
 732:Generated_Source\PSoC4/USBUART_cdc.c ****     }
 733:Generated_Source\PSoC4/USBUART_cdc.c **** 
 734:Generated_Source\PSoC4/USBUART_cdc.c ****     /* Enable OUT endpoint to communicate with host. */
 735:Generated_Source\PSoC4/USBUART_cdc.c ****     USBUART_EnableOutEP(epNumber);
 736:Generated_Source\PSoC4/USBUART_cdc.c **** #endif /* (USBUART_EP_MANAGEMENT_DMA_MANUAL) */
 737:Generated_Source\PSoC4/USBUART_cdc.c **** 
 738:Generated_Source\PSoC4/USBUART_cdc.c ****     return (rxData);
 938              		.loc 1 738 0
 939 001a 2078     		ldrb	r0, [r4]
 739:Generated_Source\PSoC4/USBUART_cdc.c **** }
 940              		.loc 1 739 0
 941 001c 02B0     		add	sp, sp, #8
 942              		@ sp needed
 943 001e 10BD     		pop	{r4, pc}
 944              	.L74:
 945              		.align	2
 946              	.L73:
 947 0020 00000000 		.word	.LANCHOR1
 948 0024 00000000 		.word	USBUART_cdcDataOutEp
 949              		.cfi_endproc
 950              	.LFE14:
 951              		.size	USBUART_GetChar, .-USBUART_GetChar
 952              		.section	.text.USBUART_IsLineChanged,"ax",%progbits
 953              		.align	2
 954              		.global	USBUART_IsLineChanged
 955              		.code	16
 956              		.thumb_func
 957              		.type	USBUART_IsLineChanged, %function
 958              	USBUART_IsLineChanged:
 959              	.LFB15:
 740:Generated_Source\PSoC4/USBUART_cdc.c **** 
 741:Generated_Source\PSoC4/USBUART_cdc.c **** 
 742:Generated_Source\PSoC4/USBUART_cdc.c **** /*******************************************************************************
 743:Generated_Source\PSoC4/USBUART_cdc.c **** * Function Name: USBUART_IsLineChanged
 744:Generated_Source\PSoC4/USBUART_cdc.c **** ****************************************************************************//**
 745:Generated_Source\PSoC4/USBUART_cdc.c **** *
 746:Generated_Source\PSoC4/USBUART_cdc.c **** *  This function returns clear on read status of the line. It returns not zero
 747:Generated_Source\PSoC4/USBUART_cdc.c **** *  value when the host sends updated coding or control information to the
 748:Generated_Source\PSoC4/USBUART_cdc.c **** *  device. The USBUART_GetDTERate(), USBUART_GetCharFormat()
 749:Generated_Source\PSoC4/USBUART_cdc.c **** *  or USBUART_GetParityType() or USBUART_GetDataBits() API
ARM GAS  C:\Users\essele\AppData\Local\Temp\cczrtAYv.s 			page 32


 750:Generated_Source\PSoC4/USBUART_cdc.c **** *  should be called to read data coding information.
 751:Generated_Source\PSoC4/USBUART_cdc.c **** *  The USBUART_GetLineControl() API should be called to read line
 752:Generated_Source\PSoC4/USBUART_cdc.c **** *  control information.
 753:Generated_Source\PSoC4/USBUART_cdc.c **** *
 754:Generated_Source\PSoC4/USBUART_cdc.c **** * \return
 755:Generated_Source\PSoC4/USBUART_cdc.c **** *  If SET_LINE_CODING or CDC_SET_CONTROL_LINE_STATE requests are received, it
 756:Generated_Source\PSoC4/USBUART_cdc.c **** *  returns a non-zero value. Otherwise, it returns zero.
 757:Generated_Source\PSoC4/USBUART_cdc.c **** *  Return Value                 | Description
 758:Generated_Source\PSoC4/USBUART_cdc.c **** *  -----------------------------|--------------------------
 759:Generated_Source\PSoC4/USBUART_cdc.c **** *  USBUART_LINE_CODING_CHANGED  | Line coding changed
 760:Generated_Source\PSoC4/USBUART_cdc.c **** *  USBUART_LINE_CONTROL_CHANGED |   Line control changed
 761:Generated_Source\PSoC4/USBUART_cdc.c **** *
 762:Generated_Source\PSoC4/USBUART_cdc.c **** * \globalvars
 763:Generated_Source\PSoC4/USBUART_cdc.c **** *  - \ref USBUART_transferState: it is checked to be sure then OUT
 764:Generated_Source\PSoC4/USBUART_cdc.c **** *    data phase has been complete, and data written to the lineCoding or
 765:Generated_Source\PSoC4/USBUART_cdc.c **** *    Control Bitmap buffer.
 766:Generated_Source\PSoC4/USBUART_cdc.c **** *  - \ref USBUART_linesChanged: used as a flag to be aware that
 767:Generated_Source\PSoC4/USBUART_cdc.c **** *    Host has been sent request for changing Line Coding or Control Bitmap.
 768:Generated_Source\PSoC4/USBUART_cdc.c **** *
 769:Generated_Source\PSoC4/USBUART_cdc.c **** *******************************************************************************/
 770:Generated_Source\PSoC4/USBUART_cdc.c **** uint8 USBUART_IsLineChanged(void) 
 771:Generated_Source\PSoC4/USBUART_cdc.c **** {
 960              		.loc 1 771 0
 961              		.cfi_startproc
 962              		@ args = 0, pretend = 0, frame = 0
 963              		@ frame_needed = 0, uses_anonymous_args = 0
 964              		@ link register save eliminated.
 965              	.LVL86:
 772:Generated_Source\PSoC4/USBUART_cdc.c ****     uint8 state = 0u;
 773:Generated_Source\PSoC4/USBUART_cdc.c **** 
 774:Generated_Source\PSoC4/USBUART_cdc.c ****     /* transferState is checked to be sure then OUT data phase has been complete */
 775:Generated_Source\PSoC4/USBUART_cdc.c ****     if (USBUART_transferState == USBUART_TRANS_STATE_IDLE)
 966              		.loc 1 775 0
 967 0000 094B     		ldr	r3, .L79
 968 0002 1B78     		ldrb	r3, [r3]
 969 0004 002B     		cmp	r3, #0
 970 0006 0BD1     		bne	.L77
 776:Generated_Source\PSoC4/USBUART_cdc.c ****     {
 777:Generated_Source\PSoC4/USBUART_cdc.c ****         if (USBUART_linesChanged[USBUART_activeCom] != 0u)
 971              		.loc 1 777 0
 972 0008 084B     		ldr	r3, .L79+4
 973 000a 1B78     		ldrb	r3, [r3]
 974 000c 084A     		ldr	r2, .L79+8
 975 000e D25C     		ldrb	r2, [r2, r3]
 976 0010 002A     		cmp	r2, #0
 977 0012 07D0     		beq	.L78
 778:Generated_Source\PSoC4/USBUART_cdc.c ****         {
 779:Generated_Source\PSoC4/USBUART_cdc.c ****             state = USBUART_linesChanged[USBUART_activeCom];
 978              		.loc 1 779 0
 979 0014 064A     		ldr	r2, .L79+8
 980 0016 D05C     		ldrb	r0, [r2, r3]
 981 0018 C0B2     		uxtb	r0, r0
 982              	.LVL87:
 780:Generated_Source\PSoC4/USBUART_cdc.c ****             USBUART_linesChanged[USBUART_activeCom] = 0u;
 983              		.loc 1 780 0
 984 001a 0021     		movs	r1, #0
 985 001c D154     		strb	r1, [r2, r3]
ARM GAS  C:\Users\essele\AppData\Local\Temp\cczrtAYv.s 			page 33


 986 001e 02E0     		b	.L76
 987              	.LVL88:
 988              	.L77:
 772:Generated_Source\PSoC4/USBUART_cdc.c **** 
 989              		.loc 1 772 0
 990 0020 0020     		movs	r0, #0
 991 0022 00E0     		b	.L76
 992              	.L78:
 993 0024 0020     		movs	r0, #0
 994              	.LVL89:
 995              	.L76:
 781:Generated_Source\PSoC4/USBUART_cdc.c ****         }
 782:Generated_Source\PSoC4/USBUART_cdc.c ****     }
 783:Generated_Source\PSoC4/USBUART_cdc.c **** 
 784:Generated_Source\PSoC4/USBUART_cdc.c ****     return (state);
 785:Generated_Source\PSoC4/USBUART_cdc.c **** }
 996              		.loc 1 785 0
 997              		@ sp needed
 998 0026 7047     		bx	lr
 999              	.L80:
 1000              		.align	2
 1001              	.L79:
 1002 0028 00000000 		.word	USBUART_transferState
 1003 002c 00000000 		.word	.LANCHOR1
 1004 0030 00000000 		.word	USBUART_linesChanged
 1005              		.cfi_endproc
 1006              	.LFE15:
 1007              		.size	USBUART_IsLineChanged, .-USBUART_IsLineChanged
 1008              		.section	.text.USBUART_GetDTERate,"ax",%progbits
 1009              		.align	2
 1010              		.global	USBUART_GetDTERate
 1011              		.code	16
 1012              		.thumb_func
 1013              		.type	USBUART_GetDTERate, %function
 1014              	USBUART_GetDTERate:
 1015              	.LFB16:
 786:Generated_Source\PSoC4/USBUART_cdc.c **** 
 787:Generated_Source\PSoC4/USBUART_cdc.c **** 
 788:Generated_Source\PSoC4/USBUART_cdc.c **** /***************************************************************************
 789:Generated_Source\PSoC4/USBUART_cdc.c **** * Function Name: USBUART_GetDTERate
 790:Generated_Source\PSoC4/USBUART_cdc.c **** ************************************************************************//**
 791:Generated_Source\PSoC4/USBUART_cdc.c **** *
 792:Generated_Source\PSoC4/USBUART_cdc.c **** *  This function returns the data terminal rate set for this port in bits
 793:Generated_Source\PSoC4/USBUART_cdc.c **** *  per second.
 794:Generated_Source\PSoC4/USBUART_cdc.c **** *
 795:Generated_Source\PSoC4/USBUART_cdc.c **** * \return
 796:Generated_Source\PSoC4/USBUART_cdc.c **** *  Returns a uint32 value of the data rate in bits per second.
 797:Generated_Source\PSoC4/USBUART_cdc.c **** *
 798:Generated_Source\PSoC4/USBUART_cdc.c **** * \globalvars
 799:Generated_Source\PSoC4/USBUART_cdc.c **** *  USBUART_linesCoding: First four bytes converted to uint32
 800:Generated_Source\PSoC4/USBUART_cdc.c **** *    depend on compiler, and returned as a data rate.
 801:Generated_Source\PSoC4/USBUART_cdc.c **** *
 802:Generated_Source\PSoC4/USBUART_cdc.c **** *******************************************************************************/
 803:Generated_Source\PSoC4/USBUART_cdc.c **** uint32 USBUART_GetDTERate(void) 
 804:Generated_Source\PSoC4/USBUART_cdc.c **** {
 1016              		.loc 1 804 0
 1017              		.cfi_startproc
ARM GAS  C:\Users\essele\AppData\Local\Temp\cczrtAYv.s 			page 34


 1018              		@ args = 0, pretend = 0, frame = 0
 1019              		@ frame_needed = 0, uses_anonymous_args = 0
 1020 0000 10B5     		push	{r4, lr}
 1021              		.cfi_def_cfa_offset 8
 1022              		.cfi_offset 4, -8
 1023              		.cfi_offset 14, -4
 805:Generated_Source\PSoC4/USBUART_cdc.c ****     uint32 rate;
 806:Generated_Source\PSoC4/USBUART_cdc.c **** 
 807:Generated_Source\PSoC4/USBUART_cdc.c ****     rate = USBUART_linesCoding[USBUART_activeCom][USBUART_LINE_CODING_RATE + 3u];
 1024              		.loc 1 807 0
 1025 0002 084B     		ldr	r3, .L82
 1026 0004 1A78     		ldrb	r2, [r3]
 1027 0006 0849     		ldr	r1, .L82+4
 1028 0008 D300     		lsls	r3, r2, #3
 1029 000a 9B1A     		subs	r3, r3, r2
 1030 000c CA18     		adds	r2, r1, r3
 1031 000e D078     		ldrb	r0, [r2, #3]
 1032              	.LVL90:
 808:Generated_Source\PSoC4/USBUART_cdc.c ****     rate = (rate << 8u) | USBUART_linesCoding[USBUART_activeCom][USBUART_LINE_CODING_RATE + 2u];
 1033              		.loc 1 808 0
 1034 0010 0002     		lsls	r0, r0, #8
 1035              	.LVL91:
 1036 0012 9478     		ldrb	r4, [r2, #2]
 1037 0014 2043     		orrs	r0, r4
 1038              	.LVL92:
 809:Generated_Source\PSoC4/USBUART_cdc.c ****     rate = (rate << 8u) | USBUART_linesCoding[USBUART_activeCom][USBUART_LINE_CODING_RATE + 1u];
 1039              		.loc 1 809 0
 1040 0016 0002     		lsls	r0, r0, #8
 1041              	.LVL93:
 1042 0018 5278     		ldrb	r2, [r2, #1]
 1043 001a 1043     		orrs	r0, r2
 1044              	.LVL94:
 810:Generated_Source\PSoC4/USBUART_cdc.c ****     rate = (rate << 8u) | USBUART_linesCoding[USBUART_activeCom][USBUART_LINE_CODING_RATE];
 1045              		.loc 1 810 0
 1046 001c 0002     		lsls	r0, r0, #8
 1047              	.LVL95:
 1048 001e 5B5C     		ldrb	r3, [r3, r1]
 1049 0020 1843     		orrs	r0, r3
 1050              	.LVL96:
 811:Generated_Source\PSoC4/USBUART_cdc.c **** 
 812:Generated_Source\PSoC4/USBUART_cdc.c ****     return (rate);
 813:Generated_Source\PSoC4/USBUART_cdc.c **** }
 1051              		.loc 1 813 0
 1052              		@ sp needed
 1053 0022 10BD     		pop	{r4, pc}
 1054              	.L83:
 1055              		.align	2
 1056              	.L82:
 1057 0024 00000000 		.word	.LANCHOR1
 1058 0028 00000000 		.word	.LANCHOR0
 1059              		.cfi_endproc
 1060              	.LFE16:
 1061              		.size	USBUART_GetDTERate, .-USBUART_GetDTERate
 1062              		.section	.text.USBUART_GetCharFormat,"ax",%progbits
 1063              		.align	2
 1064              		.global	USBUART_GetCharFormat
 1065              		.code	16
ARM GAS  C:\Users\essele\AppData\Local\Temp\cczrtAYv.s 			page 35


 1066              		.thumb_func
 1067              		.type	USBUART_GetCharFormat, %function
 1068              	USBUART_GetCharFormat:
 1069              	.LFB17:
 814:Generated_Source\PSoC4/USBUART_cdc.c **** 
 815:Generated_Source\PSoC4/USBUART_cdc.c **** 
 816:Generated_Source\PSoC4/USBUART_cdc.c **** /*******************************************************************************
 817:Generated_Source\PSoC4/USBUART_cdc.c **** * Function Name: USBUART_GetCharFormat
 818:Generated_Source\PSoC4/USBUART_cdc.c **** ****************************************************************************//**
 819:Generated_Source\PSoC4/USBUART_cdc.c **** *
 820:Generated_Source\PSoC4/USBUART_cdc.c **** *  Returns the number of stop bits.
 821:Generated_Source\PSoC4/USBUART_cdc.c **** *
 822:Generated_Source\PSoC4/USBUART_cdc.c **** * \return
 823:Generated_Source\PSoC4/USBUART_cdc.c **** *  Returns the number of stop bits.
 824:Generated_Source\PSoC4/USBUART_cdc.c **** *  Return               |Value Description
 825:Generated_Source\PSoC4/USBUART_cdc.c **** *  ---------------------|-------------------
 826:Generated_Source\PSoC4/USBUART_cdc.c **** *  USBUART_1_STOPBIT    | 1 stop bit
 827:Generated_Source\PSoC4/USBUART_cdc.c **** *  USBUART_1_5_STOPBITS | 1,5 stop bits
 828:Generated_Source\PSoC4/USBUART_cdc.c **** *  USBUART_2_STOPBITS   | 2 stop bits
 829:Generated_Source\PSoC4/USBUART_cdc.c **** *
 830:Generated_Source\PSoC4/USBUART_cdc.c **** *
 831:Generated_Source\PSoC4/USBUART_cdc.c **** * \globalvars
 832:Generated_Source\PSoC4/USBUART_cdc.c **** *  USBUART_linesCoding: used to get a parameter.
 833:Generated_Source\PSoC4/USBUART_cdc.c **** *
 834:Generated_Source\PSoC4/USBUART_cdc.c **** *******************************************************************************/
 835:Generated_Source\PSoC4/USBUART_cdc.c **** uint8 USBUART_GetCharFormat(void) 
 836:Generated_Source\PSoC4/USBUART_cdc.c **** {
 1070              		.loc 1 836 0
 1071              		.cfi_startproc
 1072              		@ args = 0, pretend = 0, frame = 0
 1073              		@ frame_needed = 0, uses_anonymous_args = 0
 1074              		@ link register save eliminated.
 837:Generated_Source\PSoC4/USBUART_cdc.c ****     return (USBUART_linesCoding[USBUART_activeCom][USBUART_LINE_CODING_STOP_BITS]);
 1075              		.loc 1 837 0
 1076 0000 044B     		ldr	r3, .L85
 1077 0002 1A78     		ldrb	r2, [r3]
 1078 0004 D300     		lsls	r3, r2, #3
 1079 0006 9B1A     		subs	r3, r3, r2
 1080 0008 034A     		ldr	r2, .L85+4
 1081 000a D318     		adds	r3, r2, r3
 1082 000c 1879     		ldrb	r0, [r3, #4]
 1083 000e C0B2     		uxtb	r0, r0
 838:Generated_Source\PSoC4/USBUART_cdc.c **** }
 1084              		.loc 1 838 0
 1085              		@ sp needed
 1086 0010 7047     		bx	lr
 1087              	.L86:
 1088 0012 C046     		.align	2
 1089              	.L85:
 1090 0014 00000000 		.word	.LANCHOR1
 1091 0018 00000000 		.word	.LANCHOR0
 1092              		.cfi_endproc
 1093              	.LFE17:
 1094              		.size	USBUART_GetCharFormat, .-USBUART_GetCharFormat
 1095              		.section	.text.USBUART_GetParityType,"ax",%progbits
 1096              		.align	2
 1097              		.global	USBUART_GetParityType
ARM GAS  C:\Users\essele\AppData\Local\Temp\cczrtAYv.s 			page 36


 1098              		.code	16
 1099              		.thumb_func
 1100              		.type	USBUART_GetParityType, %function
 1101              	USBUART_GetParityType:
 1102              	.LFB18:
 839:Generated_Source\PSoC4/USBUART_cdc.c **** 
 840:Generated_Source\PSoC4/USBUART_cdc.c **** 
 841:Generated_Source\PSoC4/USBUART_cdc.c **** /*******************************************************************************
 842:Generated_Source\PSoC4/USBUART_cdc.c **** * Function Name: USBUART_GetParityType
 843:Generated_Source\PSoC4/USBUART_cdc.c **** ****************************************************************************//**
 844:Generated_Source\PSoC4/USBUART_cdc.c **** *
 845:Generated_Source\PSoC4/USBUART_cdc.c **** *  This function returns the parity type for the CDC port.
 846:Generated_Source\PSoC4/USBUART_cdc.c **** *
 847:Generated_Source\PSoC4/USBUART_cdc.c **** * \return
 848:Generated_Source\PSoC4/USBUART_cdc.c **** *  Returns the parity type.
 849:Generated_Source\PSoC4/USBUART_cdc.c **** *   Return               | Value Description
 850:Generated_Source\PSoC4/USBUART_cdc.c **** *  ----------------------|-------------------
 851:Generated_Source\PSoC4/USBUART_cdc.c **** *  USBUART_PARITY_NONE   | 1 stop bit
 852:Generated_Source\PSoC4/USBUART_cdc.c **** *  USBUART_PARITY_ODD    | 1,5 stop bits
 853:Generated_Source\PSoC4/USBUART_cdc.c **** *  USBUART_PARITY_EVEN   | 2 stop bits
 854:Generated_Source\PSoC4/USBUART_cdc.c **** *  USBUART_PARITY_MARK   | Mark
 855:Generated_Source\PSoC4/USBUART_cdc.c **** *  USBUART_PARITY_SPACE  | Space
 856:Generated_Source\PSoC4/USBUART_cdc.c **** *
 857:Generated_Source\PSoC4/USBUART_cdc.c **** * \globalvars
 858:Generated_Source\PSoC4/USBUART_cdc.c **** *  USBUART_linesCoding: used to get a parameter.
 859:Generated_Source\PSoC4/USBUART_cdc.c **** *
 860:Generated_Source\PSoC4/USBUART_cdc.c **** *******************************************************************************/
 861:Generated_Source\PSoC4/USBUART_cdc.c **** uint8 USBUART_GetParityType(void) 
 862:Generated_Source\PSoC4/USBUART_cdc.c **** {
 1103              		.loc 1 862 0
 1104              		.cfi_startproc
 1105              		@ args = 0, pretend = 0, frame = 0
 1106              		@ frame_needed = 0, uses_anonymous_args = 0
 1107              		@ link register save eliminated.
 863:Generated_Source\PSoC4/USBUART_cdc.c ****     return (USBUART_linesCoding[USBUART_activeCom][USBUART_LINE_CODING_PARITY]);
 1108              		.loc 1 863 0
 1109 0000 044B     		ldr	r3, .L88
 1110 0002 1A78     		ldrb	r2, [r3]
 1111 0004 D300     		lsls	r3, r2, #3
 1112 0006 9B1A     		subs	r3, r3, r2
 1113 0008 034A     		ldr	r2, .L88+4
 1114 000a D318     		adds	r3, r2, r3
 1115 000c 5879     		ldrb	r0, [r3, #5]
 1116 000e C0B2     		uxtb	r0, r0
 864:Generated_Source\PSoC4/USBUART_cdc.c **** }
 1117              		.loc 1 864 0
 1118              		@ sp needed
 1119 0010 7047     		bx	lr
 1120              	.L89:
 1121 0012 C046     		.align	2
 1122              	.L88:
 1123 0014 00000000 		.word	.LANCHOR1
 1124 0018 00000000 		.word	.LANCHOR0
 1125              		.cfi_endproc
 1126              	.LFE18:
 1127              		.size	USBUART_GetParityType, .-USBUART_GetParityType
 1128              		.section	.text.USBUART_GetDataBits,"ax",%progbits
ARM GAS  C:\Users\essele\AppData\Local\Temp\cczrtAYv.s 			page 37


 1129              		.align	2
 1130              		.global	USBUART_GetDataBits
 1131              		.code	16
 1132              		.thumb_func
 1133              		.type	USBUART_GetDataBits, %function
 1134              	USBUART_GetDataBits:
 1135              	.LFB19:
 865:Generated_Source\PSoC4/USBUART_cdc.c **** 
 866:Generated_Source\PSoC4/USBUART_cdc.c **** 
 867:Generated_Source\PSoC4/USBUART_cdc.c **** /***************************************************************************
 868:Generated_Source\PSoC4/USBUART_cdc.c **** * Function Name: USBUART_GetDataBits
 869:Generated_Source\PSoC4/USBUART_cdc.c **** ************************************************************************//**
 870:Generated_Source\PSoC4/USBUART_cdc.c **** *
 871:Generated_Source\PSoC4/USBUART_cdc.c **** *  This function returns the number of data bits for the CDC port.
 872:Generated_Source\PSoC4/USBUART_cdc.c **** *
 873:Generated_Source\PSoC4/USBUART_cdc.c **** * \return
 874:Generated_Source\PSoC4/USBUART_cdc.c **** *  Returns the number of data bits.
 875:Generated_Source\PSoC4/USBUART_cdc.c **** *  The number of data bits can be 5, 6, 7, 8 or 16.
 876:Generated_Source\PSoC4/USBUART_cdc.c **** *
 877:Generated_Source\PSoC4/USBUART_cdc.c **** * \globalvars
 878:Generated_Source\PSoC4/USBUART_cdc.c **** *  USBUART_linesCoding: used to get a parameter.
 879:Generated_Source\PSoC4/USBUART_cdc.c **** *
 880:Generated_Source\PSoC4/USBUART_cdc.c **** *******************************************************************************/
 881:Generated_Source\PSoC4/USBUART_cdc.c **** uint8 USBUART_GetDataBits(void) 
 882:Generated_Source\PSoC4/USBUART_cdc.c **** {
 1136              		.loc 1 882 0
 1137              		.cfi_startproc
 1138              		@ args = 0, pretend = 0, frame = 0
 1139              		@ frame_needed = 0, uses_anonymous_args = 0
 1140              		@ link register save eliminated.
 883:Generated_Source\PSoC4/USBUART_cdc.c ****     return (USBUART_linesCoding[USBUART_activeCom][USBUART_LINE_CODING_DATA_BITS]);
 1141              		.loc 1 883 0
 1142 0000 044B     		ldr	r3, .L91
 1143 0002 1A78     		ldrb	r2, [r3]
 1144 0004 D300     		lsls	r3, r2, #3
 1145 0006 9B1A     		subs	r3, r3, r2
 1146 0008 034A     		ldr	r2, .L91+4
 1147 000a D318     		adds	r3, r2, r3
 1148 000c 9879     		ldrb	r0, [r3, #6]
 1149 000e C0B2     		uxtb	r0, r0
 884:Generated_Source\PSoC4/USBUART_cdc.c **** }
 1150              		.loc 1 884 0
 1151              		@ sp needed
 1152 0010 7047     		bx	lr
 1153              	.L92:
 1154 0012 C046     		.align	2
 1155              	.L91:
 1156 0014 00000000 		.word	.LANCHOR1
 1157 0018 00000000 		.word	.LANCHOR0
 1158              		.cfi_endproc
 1159              	.LFE19:
 1160              		.size	USBUART_GetDataBits, .-USBUART_GetDataBits
 1161              		.section	.text.USBUART_GetLineControl,"ax",%progbits
 1162              		.align	2
 1163              		.global	USBUART_GetLineControl
 1164              		.code	16
 1165              		.thumb_func
ARM GAS  C:\Users\essele\AppData\Local\Temp\cczrtAYv.s 			page 38


 1166              		.type	USBUART_GetLineControl, %function
 1167              	USBUART_GetLineControl:
 1168              	.LFB20:
 885:Generated_Source\PSoC4/USBUART_cdc.c **** 
 886:Generated_Source\PSoC4/USBUART_cdc.c **** 
 887:Generated_Source\PSoC4/USBUART_cdc.c **** /***************************************************************************
 888:Generated_Source\PSoC4/USBUART_cdc.c **** * Function Name: USBUART_GetLineControl
 889:Generated_Source\PSoC4/USBUART_cdc.c **** ************************************************************************//**
 890:Generated_Source\PSoC4/USBUART_cdc.c **** *
 891:Generated_Source\PSoC4/USBUART_cdc.c **** *  This function returns Line control bitmap that the host sends to the
 892:Generated_Source\PSoC4/USBUART_cdc.c **** *  device.
 893:Generated_Source\PSoC4/USBUART_cdc.c **** *
 894:Generated_Source\PSoC4/USBUART_cdc.c **** * \return
 895:Generated_Source\PSoC4/USBUART_cdc.c **** *  Returns Line control bitmap.
 896:Generated_Source\PSoC4/USBUART_cdc.c **** *  Return                   |Value Notes
 897:Generated_Source\PSoC4/USBUART_cdc.c **** *  -------------------------|-----------------------------------------------
 898:Generated_Source\PSoC4/USBUART_cdc.c **** *  USBUART_LINE_CONTROL_DTR |Indicates that a DTR signal is present. This signal corresponds to V.2
 899:Generated_Source\PSoC4/USBUART_cdc.c **** *  USBUART_LINE_CONTROL_RTS |Carrier control for half-duplex modems. This signal corresponds to V.2
 900:Generated_Source\PSoC4/USBUART_cdc.c **** *  RESERVED                 |The rest of the bits are reserved.
 901:Generated_Source\PSoC4/USBUART_cdc.c **** *
 902:Generated_Source\PSoC4/USBUART_cdc.c **** *  *Note* Some terminal emulation programs do not properly handle these
 903:Generated_Source\PSoC4/USBUART_cdc.c **** *  control signals. They update information about DTR and RTS state only
 904:Generated_Source\PSoC4/USBUART_cdc.c **** *  when the RTS signal changes the state.
 905:Generated_Source\PSoC4/USBUART_cdc.c **** *
 906:Generated_Source\PSoC4/USBUART_cdc.c **** * \globalvars
 907:Generated_Source\PSoC4/USBUART_cdc.c **** *  USBUART_linesControlBitmap: used to get a parameter.
 908:Generated_Source\PSoC4/USBUART_cdc.c **** *
 909:Generated_Source\PSoC4/USBUART_cdc.c **** *******************************************************************************/
 910:Generated_Source\PSoC4/USBUART_cdc.c **** uint16 USBUART_GetLineControl(void) 
 911:Generated_Source\PSoC4/USBUART_cdc.c **** {
 1169              		.loc 1 911 0
 1170              		.cfi_startproc
 1171              		@ args = 0, pretend = 0, frame = 0
 1172              		@ frame_needed = 0, uses_anonymous_args = 0
 1173              		@ link register save eliminated.
 912:Generated_Source\PSoC4/USBUART_cdc.c ****     return (USBUART_linesControlBitmap[USBUART_activeCom]);
 1174              		.loc 1 912 0
 1175 0000 034B     		ldr	r3, .L94
 1176 0002 1B78     		ldrb	r3, [r3]
 1177 0004 5B00     		lsls	r3, r3, #1
 1178 0006 034A     		ldr	r2, .L94+4
 1179 0008 985A     		ldrh	r0, [r3, r2]
 1180 000a 80B2     		uxth	r0, r0
 913:Generated_Source\PSoC4/USBUART_cdc.c **** }
 1181              		.loc 1 913 0
 1182              		@ sp needed
 1183 000c 7047     		bx	lr
 1184              	.L95:
 1185 000e C046     		.align	2
 1186              	.L94:
 1187 0010 00000000 		.word	.LANCHOR1
 1188 0014 00000000 		.word	USBUART_linesControlBitmap
 1189              		.cfi_endproc
 1190              	.LFE20:
 1191              		.size	USBUART_GetLineControl, .-USBUART_GetLineControl
 1192              		.section	.text.USBUART_SendSerialState,"ax",%progbits
 1193              		.align	2
ARM GAS  C:\Users\essele\AppData\Local\Temp\cczrtAYv.s 			page 39


 1194              		.global	USBUART_SendSerialState
 1195              		.code	16
 1196              		.thumb_func
 1197              		.type	USBUART_SendSerialState, %function
 1198              	USBUART_SendSerialState:
 1199              	.LFB21:
 914:Generated_Source\PSoC4/USBUART_cdc.c **** 
 915:Generated_Source\PSoC4/USBUART_cdc.c **** 
 916:Generated_Source\PSoC4/USBUART_cdc.c **** /*******************************************************************************
 917:Generated_Source\PSoC4/USBUART_cdc.c **** * Function Name: USBUART_SendSerialState
 918:Generated_Source\PSoC4/USBUART_cdc.c **** ****************************************************************************//**
 919:Generated_Source\PSoC4/USBUART_cdc.c **** *
 920:Generated_Source\PSoC4/USBUART_cdc.c **** *  Sends the serial state notification to the host using the interrupt
 921:Generated_Source\PSoC4/USBUART_cdc.c **** *  endpoint for the COM port selected using the API SetComPort().The
 922:Generated_Source\PSoC4/USBUART_cdc.c **** *  USBUART_NotificationIsReady() API must be called to check if the
 923:Generated_Source\PSoC4/USBUART_cdc.c **** *  Component is ready to send more serial state to the host. The API will
 924:Generated_Source\PSoC4/USBUART_cdc.c **** *  not send the notification data if the interrupt endpoint Max Packet Size
 925:Generated_Source\PSoC4/USBUART_cdc.c **** *  is less than the required 10 bytes.
 926:Generated_Source\PSoC4/USBUART_cdc.c **** *
 927:Generated_Source\PSoC4/USBUART_cdc.c **** * \param uint16 serialState
 928:Generated_Source\PSoC4/USBUART_cdc.c **** *  16-bit value that will be sent from the device to the
 929:Generated_Source\PSoC4/USBUART_cdc.c **** *  host as SERIAL_STATE notification using the IN interrupt endpoint. Refer
 930:Generated_Source\PSoC4/USBUART_cdc.c **** *  to revision 1.2 of the CDC PSTN Subclass specification for bit field
 931:Generated_Source\PSoC4/USBUART_cdc.c **** *  definitions of the 16-bit serial state value.
 932:Generated_Source\PSoC4/USBUART_cdc.c **** *
 933:Generated_Source\PSoC4/USBUART_cdc.c **** *******************************************************************************/
 934:Generated_Source\PSoC4/USBUART_cdc.c **** void USBUART_SendSerialState (uint16 serialState) 
 935:Generated_Source\PSoC4/USBUART_cdc.c **** {
 1200              		.loc 1 935 0
 1201              		.cfi_startproc
 1202              		@ args = 0, pretend = 0, frame = 0
 1203              		@ frame_needed = 0, uses_anonymous_args = 0
 1204              	.LVL97:
 1205 0000 70B5     		push	{r4, r5, r6, lr}
 1206              		.cfi_def_cfa_offset 16
 1207              		.cfi_offset 4, -16
 1208              		.cfi_offset 5, -12
 1209              		.cfi_offset 6, -8
 1210              		.cfi_offset 14, -4
 936:Generated_Source\PSoC4/USBUART_cdc.c ****     uint8 epNumber = USBUART_cdcCommInInterruptEp[USBUART_activeCom];
 1211              		.loc 1 936 0
 1212 0002 124B     		ldr	r3, .L98
 1213 0004 1C78     		ldrb	r4, [r3]
 1214 0006 124B     		ldr	r3, .L98+4
 1215 0008 1B5D     		ldrb	r3, [r3, r4]
 1216 000a DBB2     		uxtb	r3, r3
 1217              	.LVL98:
 937:Generated_Source\PSoC4/USBUART_cdc.c **** 
 938:Generated_Source\PSoC4/USBUART_cdc.c ****     if(USBUART_SERIAL_STATE_SIZE <= USBUART_EP[epNumber].bufferSize)
 1218              		.loc 1 938 0
 1219 000c 5900     		lsls	r1, r3, #1
 1220 000e C918     		adds	r1, r1, r3
 1221 0010 8A00     		lsls	r2, r1, #2
 1222 0012 1049     		ldr	r1, .L98+8
 1223 0014 8A18     		adds	r2, r1, r2
 1224 0016 1289     		ldrh	r2, [r2, #8]
 1225 0018 92B2     		uxth	r2, r2
ARM GAS  C:\Users\essele\AppData\Local\Temp\cczrtAYv.s 			page 40


 1226 001a 092A     		cmp	r2, #9
 1227 001c 14D9     		bls	.L96
 939:Generated_Source\PSoC4/USBUART_cdc.c ****     {
 940:Generated_Source\PSoC4/USBUART_cdc.c ****         /* Save current SERIAL_STATE bitmap. */
 941:Generated_Source\PSoC4/USBUART_cdc.c ****         USBUART_serialStateBitmap[USBUART_activeCom] = serialState;
 1228              		.loc 1 941 0
 1229 001e 0E4D     		ldr	r5, .L98+12
 1230 0020 6400     		lsls	r4, r4, #1
 1231 0022 6053     		strh	r0, [r4, r5]
 942:Generated_Source\PSoC4/USBUART_cdc.c **** 
 943:Generated_Source\PSoC4/USBUART_cdc.c ****         /* Add interface number */
 944:Generated_Source\PSoC4/USBUART_cdc.c ****         USBUART_serialStateNotification.wIndex = USBUART_EP[epNumber].interface;
 1232              		.loc 1 944 0
 1233 0024 5900     		lsls	r1, r3, #1
 1234 0026 C918     		adds	r1, r1, r3
 1235 0028 8A00     		lsls	r2, r1, #2
 1236 002a 0A49     		ldr	r1, .L98+8
 1237 002c 8A18     		adds	r2, r1, r2
 1238 002e 927A     		ldrb	r2, [r2, #10]
 1239 0030 0A49     		ldr	r1, .L98+16
 1240 0032 0A75     		strb	r2, [r1, #20]
 945:Generated_Source\PSoC4/USBUART_cdc.c **** 
 946:Generated_Source\PSoC4/USBUART_cdc.c ****         /*Form SERIAL_STATE data*/
 947:Generated_Source\PSoC4/USBUART_cdc.c ****         USBUART_serialStateNotification.wSerialState =    LO8(USBUART_serialStateBitmap[USBUART_act
 1241              		.loc 1 947 0
 1242 0034 625B     		ldrh	r2, [r4, r5]
 1243 0036 0A76     		strb	r2, [r1, #24]
 948:Generated_Source\PSoC4/USBUART_cdc.c ****         USBUART_serialStateNotification.wSerialStateMSB = HI8(USBUART_serialStateBitmap[USBUART_act
 1244              		.loc 1 948 0
 1245 0038 625B     		ldrh	r2, [r4, r5]
 1246 003a 120A     		lsrs	r2, r2, #8
 1247 003c 4A76     		strb	r2, [r1, #25]
 949:Generated_Source\PSoC4/USBUART_cdc.c **** 
 950:Generated_Source\PSoC4/USBUART_cdc.c ****         USBUART_LoadInEP(epNumber, (uint8 *) &USBUART_serialStateNotification, sizeof(USBUART_seria
 1248              		.loc 1 950 0
 1249 003e 1031     		adds	r1, r1, #16
 1250 0040 0A22     		movs	r2, #10
 1251 0042 1800     		movs	r0, r3
 1252              	.LVL99:
 1253 0044 FFF7FEFF 		bl	USBUART_LoadInEP
 1254              	.LVL100:
 1255              	.L96:
 951:Generated_Source\PSoC4/USBUART_cdc.c ****     }
 952:Generated_Source\PSoC4/USBUART_cdc.c **** }
 1256              		.loc 1 952 0
 1257              		@ sp needed
 1258 0048 70BD     		pop	{r4, r5, r6, pc}
 1259              	.L99:
 1260 004a C046     		.align	2
 1261              	.L98:
 1262 004c 00000000 		.word	.LANCHOR1
 1263 0050 00000000 		.word	USBUART_cdcCommInInterruptEp
 1264 0054 00000000 		.word	USBUART_EP
 1265 0058 00000000 		.word	USBUART_serialStateBitmap
 1266 005c 00000000 		.word	.LANCHOR0
 1267              		.cfi_endproc
 1268              	.LFE21:
ARM GAS  C:\Users\essele\AppData\Local\Temp\cczrtAYv.s 			page 41


 1269              		.size	USBUART_SendSerialState, .-USBUART_SendSerialState
 1270              		.section	.text.USBUART_GetSerialState,"ax",%progbits
 1271              		.align	2
 1272              		.global	USBUART_GetSerialState
 1273              		.code	16
 1274              		.thumb_func
 1275              		.type	USBUART_GetSerialState, %function
 1276              	USBUART_GetSerialState:
 1277              	.LFB22:
 953:Generated_Source\PSoC4/USBUART_cdc.c **** 
 954:Generated_Source\PSoC4/USBUART_cdc.c **** 
 955:Generated_Source\PSoC4/USBUART_cdc.c **** /*******************************************************************************
 956:Generated_Source\PSoC4/USBUART_cdc.c **** * Function Name: USBUART_GetSerialState
 957:Generated_Source\PSoC4/USBUART_cdc.c **** ****************************************************************************//**
 958:Generated_Source\PSoC4/USBUART_cdc.c **** *
 959:Generated_Source\PSoC4/USBUART_cdc.c **** *  This function returns the current serial state value for the COM port
 960:Generated_Source\PSoC4/USBUART_cdc.c **** *  selected using the API SetComPort().
 961:Generated_Source\PSoC4/USBUART_cdc.c **** *
 962:Generated_Source\PSoC4/USBUART_cdc.c **** * \return
 963:Generated_Source\PSoC4/USBUART_cdc.c **** *  16-bit serial state value. Refer to revision 1.2 of the CDC PSTN Subclass
 964:Generated_Source\PSoC4/USBUART_cdc.c **** *  specification for bit field definitions of the 16-bit serial state value.
 965:Generated_Source\PSoC4/USBUART_cdc.c **** *
 966:Generated_Source\PSoC4/USBUART_cdc.c **** *******************************************************************************/
 967:Generated_Source\PSoC4/USBUART_cdc.c **** uint16 USBUART_GetSerialState(void) 
 968:Generated_Source\PSoC4/USBUART_cdc.c **** {
 1278              		.loc 1 968 0
 1279              		.cfi_startproc
 1280              		@ args = 0, pretend = 0, frame = 0
 1281              		@ frame_needed = 0, uses_anonymous_args = 0
 1282              		@ link register save eliminated.
 969:Generated_Source\PSoC4/USBUART_cdc.c ****     return USBUART_serialStateBitmap[USBUART_activeCom];
 1283              		.loc 1 969 0
 1284 0000 034B     		ldr	r3, .L101
 1285 0002 1B78     		ldrb	r3, [r3]
 1286 0004 5B00     		lsls	r3, r3, #1
 1287 0006 034A     		ldr	r2, .L101+4
 1288 0008 985A     		ldrh	r0, [r3, r2]
 1289 000a 80B2     		uxth	r0, r0
 970:Generated_Source\PSoC4/USBUART_cdc.c **** }
 1290              		.loc 1 970 0
 1291              		@ sp needed
 1292 000c 7047     		bx	lr
 1293              	.L102:
 1294 000e C046     		.align	2
 1295              	.L101:
 1296 0010 00000000 		.word	.LANCHOR1
 1297 0014 00000000 		.word	USBUART_serialStateBitmap
 1298              		.cfi_endproc
 1299              	.LFE22:
 1300              		.size	USBUART_GetSerialState, .-USBUART_GetSerialState
 1301              		.section	.text.USBUART_NotificationIsReady,"ax",%progbits
 1302              		.align	2
 1303              		.global	USBUART_NotificationIsReady
 1304              		.code	16
 1305              		.thumb_func
 1306              		.type	USBUART_NotificationIsReady, %function
 1307              	USBUART_NotificationIsReady:
ARM GAS  C:\Users\essele\AppData\Local\Temp\cczrtAYv.s 			page 42


 1308              	.LFB23:
 971:Generated_Source\PSoC4/USBUART_cdc.c **** 
 972:Generated_Source\PSoC4/USBUART_cdc.c **** 
 973:Generated_Source\PSoC4/USBUART_cdc.c **** /*******************************************************************************
 974:Generated_Source\PSoC4/USBUART_cdc.c **** * Function Name: USBUART_NotificationIsReady
 975:Generated_Source\PSoC4/USBUART_cdc.c **** ****************************************************************************//**
 976:Generated_Source\PSoC4/USBUART_cdc.c **** *
 977:Generated_Source\PSoC4/USBUART_cdc.c **** *  This function returns a non-zero value if the Component is ready to send
 978:Generated_Source\PSoC4/USBUART_cdc.c **** *  more notifications to the host; otherwise, it returns zero. The function
 979:Generated_Source\PSoC4/USBUART_cdc.c **** *  should be called before sending new notifications when using
 980:Generated_Source\PSoC4/USBUART_cdc.c **** *  USBUART_SendSerialState() to ensure that any previous
 981:Generated_Source\PSoC4/USBUART_cdc.c **** *  notification data has been already sent to the host.
 982:Generated_Source\PSoC4/USBUART_cdc.c **** *
 983:Generated_Source\PSoC4/USBUART_cdc.c **** * \return
 984:Generated_Source\PSoC4/USBUART_cdc.c **** *  If the buffer can accept new data(endpoint buffer not full), this
 985:Generated_Source\PSoC4/USBUART_cdc.c **** *  function returns a non-zero value. Otherwise, it returns zero.
 986:Generated_Source\PSoC4/USBUART_cdc.c **** *
 987:Generated_Source\PSoC4/USBUART_cdc.c **** * \globalvars
 988:Generated_Source\PSoC4/USBUART_cdc.c **** *   USBUART_cdcDataInEp: CDC IN endpoint number used.
 989:Generated_Source\PSoC4/USBUART_cdc.c **** *
 990:Generated_Source\PSoC4/USBUART_cdc.c **** *******************************************************************************/
 991:Generated_Source\PSoC4/USBUART_cdc.c **** uint8 USBUART_NotificationIsReady(void) 
 992:Generated_Source\PSoC4/USBUART_cdc.c **** {
 1309              		.loc 1 992 0
 1310              		.cfi_startproc
 1311              		@ args = 0, pretend = 0, frame = 0
 1312              		@ frame_needed = 0, uses_anonymous_args = 0
 1313              		@ link register save eliminated.
 993:Generated_Source\PSoC4/USBUART_cdc.c ****     return (USBUART_EP[USBUART_cdcCommInInterruptEp[USBUART_activeCom]].apiEpState);
 1314              		.loc 1 993 0
 1315 0000 064B     		ldr	r3, .L104
 1316 0002 1B78     		ldrb	r3, [r3]
 1317 0004 064A     		ldr	r2, .L104+4
 1318 0006 D35C     		ldrb	r3, [r2, r3]
 1319 0008 DBB2     		uxtb	r3, r3
 1320 000a 5A00     		lsls	r2, r3, #1
 1321 000c D318     		adds	r3, r2, r3
 1322 000e 9A00     		lsls	r2, r3, #2
 1323 0010 044B     		ldr	r3, .L104+8
 1324 0012 9A18     		adds	r2, r3, r2
 1325 0014 5078     		ldrb	r0, [r2, #1]
 1326 0016 C0B2     		uxtb	r0, r0
 994:Generated_Source\PSoC4/USBUART_cdc.c **** }
 1327              		.loc 1 994 0
 1328              		@ sp needed
 1329 0018 7047     		bx	lr
 1330              	.L105:
 1331 001a C046     		.align	2
 1332              	.L104:
 1333 001c 00000000 		.word	.LANCHOR1
 1334 0020 00000000 		.word	USBUART_cdcCommInInterruptEp
 1335 0024 00000000 		.word	USBUART_EP
 1336              		.cfi_endproc
 1337              	.LFE23:
 1338              		.size	USBUART_NotificationIsReady, .-USBUART_NotificationIsReady
 1339              		.section	.text.USBUART_SetComPort,"ax",%progbits
 1340              		.align	2
ARM GAS  C:\Users\essele\AppData\Local\Temp\cczrtAYv.s 			page 43


 1341              		.global	USBUART_SetComPort
 1342              		.code	16
 1343              		.thumb_func
 1344              		.type	USBUART_SetComPort, %function
 1345              	USBUART_SetComPort:
 1346              	.LFB24:
 995:Generated_Source\PSoC4/USBUART_cdc.c **** 
 996:Generated_Source\PSoC4/USBUART_cdc.c **** 
 997:Generated_Source\PSoC4/USBUART_cdc.c **** /*******************************************************************************
 998:Generated_Source\PSoC4/USBUART_cdc.c **** * Function Name: USBUART_SetComPort
 999:Generated_Source\PSoC4/USBUART_cdc.c **** ****************************************************************************//**
1000:Generated_Source\PSoC4/USBUART_cdc.c **** *
1001:Generated_Source\PSoC4/USBUART_cdc.c **** *  This function allows the user to select from one of the two COM ports
1002:Generated_Source\PSoC4/USBUART_cdc.c **** *  they wish to address in the instance of having multiple COM ports
1003:Generated_Source\PSoC4/USBUART_cdc.c **** *  instantiated though the use of a composite device. Once set, all future
1004:Generated_Source\PSoC4/USBUART_cdc.c **** *  function calls related to the USBUART will be affected. This addressed
1005:Generated_Source\PSoC4/USBUART_cdc.c **** *  COM port can be changed during run time.
1006:Generated_Source\PSoC4/USBUART_cdc.c **** *
1007:Generated_Source\PSoC4/USBUART_cdc.c **** * \param comNumber
1008:Generated_Source\PSoC4/USBUART_cdc.c **** *  Contains the COM interface the user wishes to address. Value can either
1009:Generated_Source\PSoC4/USBUART_cdc.c **** *  be 0 or 1 since a maximum of only 2 COM ports can be supported. Note that
1010:Generated_Source\PSoC4/USBUART_cdc.c **** *  this COM port number is not the COM port number assigned on the PC side
1011:Generated_Source\PSoC4/USBUART_cdc.c **** *  for the UART communication. If a value greater than 1 is passed, the
1012:Generated_Source\PSoC4/USBUART_cdc.c **** *  function returns without performing any action.
1013:Generated_Source\PSoC4/USBUART_cdc.c **** *
1014:Generated_Source\PSoC4/USBUART_cdc.c **** *******************************************************************************/
1015:Generated_Source\PSoC4/USBUART_cdc.c **** void USBUART_SetComPort(uint8 comNumber) 
1016:Generated_Source\PSoC4/USBUART_cdc.c **** {
 1347              		.loc 1 1016 0
 1348              		.cfi_startproc
 1349              		@ args = 0, pretend = 0, frame = 0
 1350              		@ frame_needed = 0, uses_anonymous_args = 0
 1351              		@ link register save eliminated.
 1352              	.LVL101:
1017:Generated_Source\PSoC4/USBUART_cdc.c ****     if ((USBUART_activeCom != comNumber) && \
 1353              		.loc 1 1017 0
 1354 0000 044B     		ldr	r3, .L108
 1355 0002 1B78     		ldrb	r3, [r3]
 1356 0004 8342     		cmp	r3, r0
 1357 0006 03D0     		beq	.L106
 1358              		.loc 1 1017 0 is_stmt 0 discriminator 1
 1359 0008 0128     		cmp	r0, #1
 1360 000a 01D8     		bhi	.L106
1018:Generated_Source\PSoC4/USBUART_cdc.c ****             (comNumber < USBUART_MAX_MULTI_COM_NUM ))
1019:Generated_Source\PSoC4/USBUART_cdc.c ****     {
1020:Generated_Source\PSoC4/USBUART_cdc.c ****         USBUART_activeCom = comNumber;
 1361              		.loc 1 1020 0 is_stmt 1
 1362 000c 014B     		ldr	r3, .L108
 1363 000e 1870     		strb	r0, [r3]
 1364              	.L106:
1021:Generated_Source\PSoC4/USBUART_cdc.c ****     }
1022:Generated_Source\PSoC4/USBUART_cdc.c **** }
 1365              		.loc 1 1022 0
 1366              		@ sp needed
 1367 0010 7047     		bx	lr
 1368              	.L109:
 1369 0012 C046     		.align	2
ARM GAS  C:\Users\essele\AppData\Local\Temp\cczrtAYv.s 			page 44


 1370              	.L108:
 1371 0014 00000000 		.word	.LANCHOR1
 1372              		.cfi_endproc
 1373              	.LFE24:
 1374              		.size	USBUART_SetComPort, .-USBUART_SetComPort
 1375              		.section	.text.USBUART_GetComPort,"ax",%progbits
 1376              		.align	2
 1377              		.global	USBUART_GetComPort
 1378              		.code	16
 1379              		.thumb_func
 1380              		.type	USBUART_GetComPort, %function
 1381              	USBUART_GetComPort:
 1382              	.LFB25:
1023:Generated_Source\PSoC4/USBUART_cdc.c **** 
1024:Generated_Source\PSoC4/USBUART_cdc.c **** 
1025:Generated_Source\PSoC4/USBUART_cdc.c **** /*******************************************************************************
1026:Generated_Source\PSoC4/USBUART_cdc.c **** * Function Name: USBUART_GetComPort
1027:Generated_Source\PSoC4/USBUART_cdc.c **** ****************************************************************************//**
1028:Generated_Source\PSoC4/USBUART_cdc.c **** *
1029:Generated_Source\PSoC4/USBUART_cdc.c **** *  This function returns the current selected COM port that the user is
1030:Generated_Source\PSoC4/USBUART_cdc.c **** *  currently addressing in the instance of having multiple COM ports
1031:Generated_Source\PSoC4/USBUART_cdc.c **** *  instantiated though the use of a composite device.
1032:Generated_Source\PSoC4/USBUART_cdc.c **** *
1033:Generated_Source\PSoC4/USBUART_cdc.c **** * \return
1034:Generated_Source\PSoC4/USBUART_cdc.c **** *  Returns the currently selected COM port. Value can either be 0 or 1 since
1035:Generated_Source\PSoC4/USBUART_cdc.c **** *  a maximum of only 2 COM ports can be supported. . Note that this COM port
1036:Generated_Source\PSoC4/USBUART_cdc.c **** *  number is not the COM port number assigned on the PC side for the UART
1037:Generated_Source\PSoC4/USBUART_cdc.c **** *  communication.
1038:Generated_Source\PSoC4/USBUART_cdc.c **** *
1039:Generated_Source\PSoC4/USBUART_cdc.c **** *******************************************************************************/
1040:Generated_Source\PSoC4/USBUART_cdc.c **** uint8 USBUART_GetComPort(void) 
1041:Generated_Source\PSoC4/USBUART_cdc.c **** {
 1383              		.loc 1 1041 0
 1384              		.cfi_startproc
 1385              		@ args = 0, pretend = 0, frame = 0
 1386              		@ frame_needed = 0, uses_anonymous_args = 0
 1387              		@ link register save eliminated.
1042:Generated_Source\PSoC4/USBUART_cdc.c ****     return (USBUART_activeCom);
 1388              		.loc 1 1042 0
 1389 0000 014B     		ldr	r3, .L111
 1390 0002 1878     		ldrb	r0, [r3]
1043:Generated_Source\PSoC4/USBUART_cdc.c **** }
 1391              		.loc 1 1043 0
 1392              		@ sp needed
 1393 0004 7047     		bx	lr
 1394              	.L112:
 1395 0006 C046     		.align	2
 1396              	.L111:
 1397 0008 00000000 		.word	.LANCHOR1
 1398              		.cfi_endproc
 1399              	.LFE25:
 1400              		.size	USBUART_GetComPort, .-USBUART_GetComPort
 1401              		.section	.text.USBUART_Cdc_EpInit,"ax",%progbits
 1402              		.align	2
 1403              		.global	USBUART_Cdc_EpInit
 1404              		.code	16
 1405              		.thumb_func
ARM GAS  C:\Users\essele\AppData\Local\Temp\cczrtAYv.s 			page 45


 1406              		.type	USBUART_Cdc_EpInit, %function
 1407              	USBUART_Cdc_EpInit:
 1408              	.LFB26:
1044:Generated_Source\PSoC4/USBUART_cdc.c **** 
1045:Generated_Source\PSoC4/USBUART_cdc.c **** 
1046:Generated_Source\PSoC4/USBUART_cdc.c **** #endif  /* (USBUART_ENABLE_CDC_CLASS_API) */
1047:Generated_Source\PSoC4/USBUART_cdc.c **** 
1048:Generated_Source\PSoC4/USBUART_cdc.c **** 
1049:Generated_Source\PSoC4/USBUART_cdc.c **** /***************************************************************************
1050:Generated_Source\PSoC4/USBUART_cdc.c **** * Function Name: USBUART_Cdc_EpInit
1051:Generated_Source\PSoC4/USBUART_cdc.c **** ************************************************************************//**
1052:Generated_Source\PSoC4/USBUART_cdc.c **** *
1053:Generated_Source\PSoC4/USBUART_cdc.c **** *  \internal
1054:Generated_Source\PSoC4/USBUART_cdc.c **** *  This routine decide type of endpoint (IN, OUT, Notification) and same to
1055:Generated_Source\PSoC4/USBUART_cdc.c **** *   appropriate global variables  according to COM port number.
1056:Generated_Source\PSoC4/USBUART_cdc.c **** *   USBUART_cdcDataInEp[], USBUART_cdcCommInInterruptEp[],
1057:Generated_Source\PSoC4/USBUART_cdc.c **** *   USBUART_cdcDataOutEp[]
1058:Generated_Source\PSoC4/USBUART_cdc.c **** *
1059:Generated_Source\PSoC4/USBUART_cdc.c **** * \param pEP: Pointer to structure with current EP description.
1060:Generated_Source\PSoC4/USBUART_cdc.c **** * \param epNum: EP number
1061:Generated_Source\PSoC4/USBUART_cdc.c **** * \param cdcComNums: Bit array of current COM ports for CDC IN, OUT,
1062:Generated_Source\PSoC4/USBUART_cdc.c **** *        and notification EPs(0 - COM port 1, 1- COM port 2)
1063:Generated_Source\PSoC4/USBUART_cdc.c **** *
1064:Generated_Source\PSoC4/USBUART_cdc.c **** * \return
1065:Generated_Source\PSoC4/USBUART_cdc.c **** *  Updated cdcComNums
1066:Generated_Source\PSoC4/USBUART_cdc.c **** *
1067:Generated_Source\PSoC4/USBUART_cdc.c **** * \reentrant
1068:Generated_Source\PSoC4/USBUART_cdc.c **** *  No.
1069:Generated_Source\PSoC4/USBUART_cdc.c **** *
1070:Generated_Source\PSoC4/USBUART_cdc.c **** ***************************************************************************/
1071:Generated_Source\PSoC4/USBUART_cdc.c **** uint8 USBUART_Cdc_EpInit(const T_USBUART_EP_SETTINGS_BLOCK CYCODE *pEP, uint8 epNum, uint8 cdcComNu
1072:Generated_Source\PSoC4/USBUART_cdc.c **** {
 1409              		.loc 1 1072 0
 1410              		.cfi_startproc
 1411              		@ args = 0, pretend = 0, frame = 0
 1412              		@ frame_needed = 0, uses_anonymous_args = 0
 1413              	.LVL102:
 1414 0000 10B5     		push	{r4, lr}
 1415              		.cfi_def_cfa_offset 8
 1416              		.cfi_offset 4, -8
 1417              		.cfi_offset 14, -4
1073:Generated_Source\PSoC4/USBUART_cdc.c ****     uint8 epType;
1074:Generated_Source\PSoC4/USBUART_cdc.c **** 
1075:Generated_Source\PSoC4/USBUART_cdc.c ****     epType = pEP->attributes & USBUART_EP_TYPE_MASK;
 1418              		.loc 1 1075 0
 1419 0002 C378     		ldrb	r3, [r0, #3]
 1420 0004 0324     		movs	r4, #3
 1421 0006 2340     		ands	r3, r4
 1422              	.LVL103:
1076:Generated_Source\PSoC4/USBUART_cdc.c **** 
1077:Generated_Source\PSoC4/USBUART_cdc.c ****     if (0u != (pEP->addr & USBUART_DIR_IN))
 1423              		.loc 1 1077 0
 1424 0008 8078     		ldrb	r0, [r0, #2]
 1425              	.LVL104:
 1426 000a 40B2     		sxtb	r0, r0
 1427 000c 0028     		cmp	r0, #0
 1428 000e 12DA     		bge	.L114
ARM GAS  C:\Users\essele\AppData\Local\Temp\cczrtAYv.s 			page 46


1078:Generated_Source\PSoC4/USBUART_cdc.c ****     {
1079:Generated_Source\PSoC4/USBUART_cdc.c ****         if (epType != USBUART_EP_TYPE_INT)
 1429              		.loc 1 1079 0
 1430 0010 032B     		cmp	r3, #3
 1431 0012 07D0     		beq	.L115
1080:Generated_Source\PSoC4/USBUART_cdc.c ****         {
1081:Generated_Source\PSoC4/USBUART_cdc.c ****             USBUART_cdcDataInEp[USBUART_GET_EP_COM_NUM(cdcComNums, USBUART_CDC_IN_EP)] = epNum;
 1432              		.loc 1 1081 0
 1433 0014 0123     		movs	r3, #1
 1434              	.LVL105:
 1435 0016 1340     		ands	r3, r2
 1436 0018 0D48     		ldr	r0, .L117
 1437 001a C154     		strb	r1, [r0, r3]
 1438              	.LVL106:
1082:Generated_Source\PSoC4/USBUART_cdc.c ****             cdcComNums |= (uint8)(USBUART_COM_PORT2 << USBUART_CDC_IN_EP);
 1439              		.loc 1 1082 0
 1440 001c 0120     		movs	r0, #1
 1441 001e 0243     		orrs	r2, r0
 1442              	.LVL107:
 1443 0020 D2B2     		uxtb	r2, r2
 1444              	.LVL108:
 1445 0022 12E0     		b	.L116
 1446              	.LVL109:
 1447              	.L115:
1083:Generated_Source\PSoC4/USBUART_cdc.c ****         }
1084:Generated_Source\PSoC4/USBUART_cdc.c ****         else
1085:Generated_Source\PSoC4/USBUART_cdc.c ****         {
1086:Generated_Source\PSoC4/USBUART_cdc.c **** 
1087:Generated_Source\PSoC4/USBUART_cdc.c ****             USBUART_cdcCommInInterruptEp[USBUART_GET_EP_COM_NUM(cdcComNums, USBUART_CDC_NOTE_EP)] =
 1448              		.loc 1 1087 0
 1449 0024 9308     		lsrs	r3, r2, #2
 1450              	.LVL110:
 1451 0026 0120     		movs	r0, #1
 1452 0028 0340     		ands	r3, r0
 1453 002a 0A48     		ldr	r0, .L117+4
 1454 002c C154     		strb	r1, [r0, r3]
 1455              	.LVL111:
1088:Generated_Source\PSoC4/USBUART_cdc.c ****             cdcComNums |= (uint8)(USBUART_COM_PORT2 << USBUART_CDC_NOTE_EP);
 1456              		.loc 1 1088 0
 1457 002e 0420     		movs	r0, #4
 1458 0030 0243     		orrs	r2, r0
 1459              	.LVL112:
 1460 0032 D2B2     		uxtb	r2, r2
 1461              	.LVL113:
 1462 0034 09E0     		b	.L116
 1463              	.LVL114:
 1464              	.L114:
1089:Generated_Source\PSoC4/USBUART_cdc.c ****         }
1090:Generated_Source\PSoC4/USBUART_cdc.c ****     }
1091:Generated_Source\PSoC4/USBUART_cdc.c ****     else
1092:Generated_Source\PSoC4/USBUART_cdc.c ****     {
1093:Generated_Source\PSoC4/USBUART_cdc.c ****         if (epType != USBUART_EP_TYPE_INT)
 1465              		.loc 1 1093 0
 1466 0036 032B     		cmp	r3, #3
 1467 0038 07D0     		beq	.L116
1094:Generated_Source\PSoC4/USBUART_cdc.c ****         {
1095:Generated_Source\PSoC4/USBUART_cdc.c ****             USBUART_cdcDataOutEp[USBUART_GET_EP_COM_NUM(cdcComNums, USBUART_CDC_OUT_EP)] = epNum;
ARM GAS  C:\Users\essele\AppData\Local\Temp\cczrtAYv.s 			page 47


 1468              		.loc 1 1095 0
 1469 003a 5308     		lsrs	r3, r2, #1
 1470              	.LVL115:
 1471 003c 0120     		movs	r0, #1
 1472 003e 0340     		ands	r3, r0
 1473 0040 0548     		ldr	r0, .L117+8
 1474 0042 C154     		strb	r1, [r0, r3]
 1475              	.LVL116:
1096:Generated_Source\PSoC4/USBUART_cdc.c ****             cdcComNums |= (uint8)(USBUART_COM_PORT2 << USBUART_CDC_OUT_EP);
 1476              		.loc 1 1096 0
 1477 0044 0220     		movs	r0, #2
 1478 0046 0243     		orrs	r2, r0
 1479              	.LVL117:
 1480 0048 D2B2     		uxtb	r2, r2
 1481              	.LVL118:
 1482              	.L116:
1097:Generated_Source\PSoC4/USBUART_cdc.c ****         }
1098:Generated_Source\PSoC4/USBUART_cdc.c ****     }
1099:Generated_Source\PSoC4/USBUART_cdc.c ****     return (cdcComNums);
1100:Generated_Source\PSoC4/USBUART_cdc.c **** }
 1483              		.loc 1 1100 0
 1484 004a 1000     		movs	r0, r2
 1485              		@ sp needed
 1486 004c 10BD     		pop	{r4, pc}
 1487              	.L118:
 1488 004e C046     		.align	2
 1489              	.L117:
 1490 0050 00000000 		.word	USBUART_cdcDataInEp
 1491 0054 00000000 		.word	USBUART_cdcCommInInterruptEp
 1492 0058 00000000 		.word	USBUART_cdcDataOutEp
 1493              		.cfi_endproc
 1494              	.LFE26:
 1495              		.size	USBUART_Cdc_EpInit, .-USBUART_Cdc_EpInit
 1496              		.comm	USBUART_cdcCommInInterruptEp,2,4
 1497              		.comm	USBUART_cdcDataOutEp,2,4
 1498              		.comm	USBUART_cdcDataInEp,2,4
 1499              		.comm	USBUART_serialStateBitmap,4,4
 1500              		.comm	USBUART_linesControlBitmap,4,4
 1501              		.comm	USBUART_linesChanged,2,4
 1502              		.global	USBUART_linesCoding
 1503              		.section	.rodata
 1504              		.align	2
 1505              		.set	.LANCHOR2,. + 0
 1506              	.LC0:
 1507 0000 0D       		.byte	13
 1508 0001 0A       		.byte	10
 1509              		.data
 1510              		.align	2
 1511              		.set	.LANCHOR0,. + 0
 1512              		.type	USBUART_linesCoding, %object
 1513              		.size	USBUART_linesCoding, 14
 1514              	USBUART_linesCoding:
 1515 0000 00       		.byte	0
 1516 0001 C2       		.byte	-62
 1517 0002 01       		.byte	1
 1518 0003 00       		.byte	0
 1519 0004 00       		.byte	0
ARM GAS  C:\Users\essele\AppData\Local\Temp\cczrtAYv.s 			page 48


 1520 0005 00       		.byte	0
 1521 0006 08       		.byte	8
 1522 0007 00       		.byte	0
 1523 0008 C2       		.byte	-62
 1524 0009 01       		.byte	1
 1525 000a 00       		.byte	0
 1526 000b 00       		.byte	0
 1527 000c 00       		.byte	0
 1528 000d 08       		.byte	8
 1529 000e 0000     		.space	2
 1530              		.type	USBUART_serialStateNotification, %object
 1531              		.size	USBUART_serialStateNotification, 10
 1532              	USBUART_serialStateNotification:
 1533 0010 A1       		.byte	-95
 1534 0011 20       		.byte	32
 1535 0012 00       		.byte	0
 1536 0013 00       		.byte	0
 1537 0014 00       		.byte	0
 1538 0015 00       		.byte	0
 1539 0016 02       		.byte	2
 1540 0017 00       		.byte	0
 1541 0018 00       		.byte	0
 1542 0019 00       		.byte	0
 1543              		.bss
 1544              		.set	.LANCHOR1,. + 0
 1545              		.type	USBUART_activeCom, %object
 1546              		.size	USBUART_activeCom, 1
 1547              	USBUART_activeCom:
 1548 0000 00       		.space	1
 1549              		.text
 1550              	.Letext0:
 1551              		.file 2 "Generated_Source\\PSoC4\\cytypes.h"
 1552              		.file 3 "Generated_Source\\PSoC4\\USBUART.h"
 1553              		.file 4 "Generated_Source\\PSoC4\\USBUART_pvt.h"
 1554              		.file 5 "Generated_Source\\PSoC4\\CyLib.h"