ARM GAS  C:\Users\essele\AppData\Local\Temp\ccQ4Txhi.s 			page 1


   1              		.syntax unified
   2              		.cpu cortex-m0
   3              		.fpu softvfp
   4              		.eabi_attribute 20, 1
   5              		.eabi_attribute 21, 1
   6              		.eabi_attribute 23, 3
   7              		.eabi_attribute 24, 1
   8              		.eabi_attribute 25, 1
   9              		.eabi_attribute 26, 1
  10              		.eabi_attribute 30, 1
  11              		.eabi_attribute 34, 0
  12              		.eabi_attribute 18, 4
  13              		.thumb
  14              		.syntax unified
  15              		.file	"utils.c"
  16              		.text
  17              	.Ltext0:
  18              		.cfi_sections	.debug_frame
  19              		.section	.text.contains_byte,"ax",%progbits
  20              		.align	2
  21              		.global	contains_byte
  22              		.code	16
  23              		.thumb_func
  24              		.type	contains_byte, %function
  25              	contains_byte:
  26              	.LFB34:
  27              		.file 1 "utils.c"
   1:utils.c       **** /****
   2:utils.c       ****  * YAUGI -- Yet Another USB GPIB Interface
   3:utils.c       ****  * 
   4:utils.c       ****  * Lee Essen, 2019
   5:utils.c       ****  *
   6:utils.c       ****  * This work is licensed under a Creative Commons 
   7:utils.c       ****  * Attribution-NonCommercial-ShareAlike 4.0 International License.
   8:utils.c       ****  *
   9:utils.c       ****  */
  10:utils.c       **** 
  11:utils.c       **** #include "utils.h"
  12:utils.c       **** 
  13:utils.c       **** int contains_byte(uint8_t *buf, int len, uint8_t byte) {
  28              		.loc 1 13 0
  29              		.cfi_startproc
  30              		@ args = 0, pretend = 0, frame = 0
  31              		@ frame_needed = 0, uses_anonymous_args = 0
  32              	.LVL0:
  33 0000 10B5     		push	{r4, lr}
  34              		.cfi_def_cfa_offset 8
  35              		.cfi_offset 4, -8
  36              		.cfi_offset 14, -4
  37              	.LVL1:
  38              	.LBB2:
  14:utils.c       ****     uint8_t *p = buf;
  15:utils.c       ****     
  16:utils.c       ****     for (int i=0; i < len; i++) {
  39              		.loc 1 16 0
  40 0002 0023     		movs	r3, #0
  41 0004 05E0     		b	.L2
ARM GAS  C:\Users\essele\AppData\Local\Temp\ccQ4Txhi.s 			page 2


  42              	.LVL2:
  43              	.L4:
  17:utils.c       ****         if (*buf++ == byte) {
  44              		.loc 1 17 0
  45 0006 441C     		adds	r4, r0, #1
  46              	.LVL3:
  47 0008 0078     		ldrb	r0, [r0]
  48 000a 9042     		cmp	r0, r2
  49 000c 05D0     		beq	.L5
  16:utils.c       ****         if (*buf++ == byte) {
  50              		.loc 1 16 0 discriminator 2
  51 000e 0133     		adds	r3, r3, #1
  52              	.LVL4:
  53              		.loc 1 17 0 discriminator 2
  54 0010 2000     		movs	r0, r4
  55              	.LVL5:
  56              	.L2:
  16:utils.c       ****         if (*buf++ == byte) {
  57              		.loc 1 16 0 discriminator 1
  58 0012 8B42     		cmp	r3, r1
  59 0014 F7DB     		blt	.L4
  60              	.LBE2:
  18:utils.c       ****             return 1;
  19:utils.c       ****         }
  20:utils.c       ****     }
  21:utils.c       ****     return 0;
  61              		.loc 1 21 0
  62 0016 0020     		movs	r0, #0
  63              	.LVL6:
  64              	.LBB3:
  65 0018 00E0     		b	.L3
  66              	.LVL7:
  67              	.L5:
  18:utils.c       ****             return 1;
  68              		.loc 1 18 0
  69 001a 0120     		movs	r0, #1
  70              	.LVL8:
  71              	.L3:
  72              	.LBE3:
  22:utils.c       **** }
  73              		.loc 1 22 0
  74              		@ sp needed
  75 001c 10BD     		pop	{r4, pc}
  76              		.cfi_endproc
  77              	.LFE34:
  78              		.size	contains_byte, .-contains_byte
  79 001e C046     		.section	.text.chomp,"ax",%progbits
  80              		.align	2
  81              		.global	chomp
  82              		.code	16
  83              		.thumb_func
  84              		.type	chomp, %function
  85              	chomp:
  86              	.LFB35:
  23:utils.c       **** 
  24:utils.c       **** /**
  25:utils.c       ****  * Remove CR's and LF's from the buffer, return the new length
ARM GAS  C:\Users\essele\AppData\Local\Temp\ccQ4Txhi.s 			page 3


  26:utils.c       ****  */
  27:utils.c       **** int chomp(uint8_t *buf, int len) {
  87              		.loc 1 27 0
  88              		.cfi_startproc
  89              		@ args = 0, pretend = 0, frame = 0
  90              		@ frame_needed = 0, uses_anonymous_args = 0
  91              	.LVL9:
  92 0000 30B5     		push	{r4, r5, lr}
  93              		.cfi_def_cfa_offset 12
  94              		.cfi_offset 4, -12
  95              		.cfi_offset 5, -8
  96              		.cfi_offset 14, -4
  97              	.LVL10:
  28:utils.c       ****     uint8_t *s = buf;
  29:utils.c       ****     uint8_t *d = buf;
  98              		.loc 1 29 0
  99 0002 0400     		movs	r4, r0
 100              	.LBB4:
  30:utils.c       ****     int     newlen = 0;
  31:utils.c       ****     
  32:utils.c       ****     for (int i=0; i < len; i++) {
 101              		.loc 1 32 0
 102 0004 0022     		movs	r2, #0
 103              	.LBE4:
  30:utils.c       ****     int     newlen = 0;
 104              		.loc 1 30 0
 105 0006 0025     		movs	r5, #0
 106              	.LBB5:
 107              		.loc 1 32 0
 108 0008 0BE0     		b	.L7
 109              	.LVL11:
 110              	.L11:
  33:utils.c       ****         if (*s == 10 || *s == 13) {
 111              		.loc 1 33 0
 112 000a 0378     		ldrb	r3, [r0]
 113 000c 0A2B     		cmp	r3, #10
 114 000e 01D0     		beq	.L8
 115              		.loc 1 33 0 is_stmt 0 discriminator 1
 116 0010 0D2B     		cmp	r3, #13
 117 0012 01D1     		bne	.L9
 118              	.L8:
  34:utils.c       ****             s++;
 119              		.loc 1 34 0 is_stmt 1
 120 0014 0130     		adds	r0, r0, #1
 121              	.LVL12:
  35:utils.c       ****             continue;
 122              		.loc 1 35 0
 123 0016 03E0     		b	.L10
 124              	.L9:
 125              	.LVL13:
  36:utils.c       ****         }
  37:utils.c       ****         *d++ = *s++;
 126              		.loc 1 37 0
 127 0018 0130     		adds	r0, r0, #1
 128              	.LVL14:
 129 001a 2370     		strb	r3, [r4]
  38:utils.c       ****         newlen++;
ARM GAS  C:\Users\essele\AppData\Local\Temp\ccQ4Txhi.s 			page 4


 130              		.loc 1 38 0
 131 001c 0135     		adds	r5, r5, #1
 132              	.LVL15:
  37:utils.c       ****         newlen++;
 133              		.loc 1 37 0
 134 001e 0134     		adds	r4, r4, #1
 135              	.LVL16:
 136              	.L10:
  32:utils.c       ****         if (*s == 10 || *s == 13) {
 137              		.loc 1 32 0 discriminator 2
 138 0020 0132     		adds	r2, r2, #1
 139              	.LVL17:
 140              	.L7:
  32:utils.c       ****         if (*s == 10 || *s == 13) {
 141              		.loc 1 32 0 is_stmt 0 discriminator 1
 142 0022 8A42     		cmp	r2, r1
 143 0024 F1DB     		blt	.L11
 144              	.LBE5:
  39:utils.c       ****     }
  40:utils.c       ****     return newlen;
  41:utils.c       **** }
 145              		.loc 1 41 0 is_stmt 1
 146 0026 2800     		movs	r0, r5
 147              	.LVL18:
 148              		@ sp needed
 149              	.LVL19:
 150              	.LVL20:
 151 0028 30BD     		pop	{r4, r5, pc}
 152              		.cfi_endproc
 153              	.LFE35:
 154              		.size	chomp, .-chomp
 155 002a C046     		.text
 156              	.Letext0:
 157              		.file 2 "c:\\program files (x86)\\cypress\\psoc creator\\4.2\\psoc creator\\import\\gnu\\arm\\5.4.
 158              		.file 3 "c:\\program files (x86)\\cypress\\psoc creator\\4.2\\psoc creator\\import\\gnu\\arm\\5.4.